ARM GAS  C:\Users\awkward\AppData\Local\Temp\ccyCX5xV.s 			page 1


   1              		.syntax unified
   2              		.cpu cortex-m3
   3              		.fpu softvfp
   4              		.eabi_attribute 20, 1
   5              		.eabi_attribute 21, 1
   6              		.eabi_attribute 23, 3
   7              		.eabi_attribute 24, 1
   8              		.eabi_attribute 25, 1
   9              		.eabi_attribute 26, 1
  10              		.eabi_attribute 30, 6
  11              		.eabi_attribute 18, 4
  12              		.thumb
  13              		.file	"CapSense_SMS_Wrapper.c"
  20 0000 F0000000 		.text
  20      02006D00 
  20      00000201 
  20      FB0E0D00 
  20      01010101 
  21              	.Ltext0:
  22              		.cfi_sections	.debug_frame
  23              		.global	SMS_LIB_noiseThreshold
  24              		.data
  25              		.align	2
  26              		.type	SMS_LIB_noiseThreshold, %object
  27              		.size	SMS_LIB_noiseThreshold, 4
  28              	SMS_LIB_noiseThreshold:
  29 0000 00000000 		.word	CapSense_noiseThreshold
  30              		.global	SMS_LIB_hysteresis
  31              		.align	2
  32              		.type	SMS_LIB_hysteresis, %object
  33              		.size	SMS_LIB_hysteresis, 4
  34              	SMS_LIB_hysteresis:
  35 0004 00000000 		.word	CapSense_hysteresis
  36              		.global	SMS_LIB_widgetResolution
  37              		.align	2
  38              		.type	SMS_LIB_widgetResolution, %object
  39              		.size	SMS_LIB_widgetResolution, 4
  40              	SMS_LIB_widgetResolution:
  41 0008 00000000 		.word	CapSense_widgetResolution
  42              		.global	SMS_LIB_widgetNumber
  43              		.align	2
  44              		.type	SMS_LIB_widgetNumber, %object
  45              		.size	SMS_LIB_widgetNumber, 4
  46              	SMS_LIB_widgetNumber:
  47 000c 00000000 		.word	CapSense_widgetNumber
  48              		.global	SMS_LIB_numberOfSensors
  49              		.align	2
  50              		.type	SMS_LIB_numberOfSensors, %object
  51              		.size	SMS_LIB_numberOfSensors, 4
  52              	SMS_LIB_numberOfSensors:
  53 0010 00000000 		.word	CapSense_numberOfSensors
ARM GAS  C:\Users\awkward\AppData\Local\Temp\ccyCX5xV.s 			page 2


  54              		.global	SMS_LIB_fingerThreshold
  55              		.align	2
  56              		.type	SMS_LIB_fingerThreshold, %object
  57              		.size	SMS_LIB_fingerThreshold, 4
  58              	SMS_LIB_fingerThreshold:
  59 0014 00000000 		.word	CapSense_fingerThreshold
  60              		.global	SMS_LIB_idacSettings
  61              		.align	2
  62              		.type	SMS_LIB_idacSettings, %object
  63              		.size	SMS_LIB_idacSettings, 4
  64              	SMS_LIB_idacSettings:
  65 0018 00000000 		.word	CapSense_idacSettings
  66              		.global	SMS_LIB_prescaler
  67              		.align	2
  68              		.type	SMS_LIB_prescaler, %object
  69              		.size	SMS_LIB_prescaler, 4
  70              	SMS_LIB_prescaler:
  71 001c 00000000 		.word	CapSense_AnalogSwitchDivider
  72              		.global	SMS_LIB_SensorRaw
  73              		.align	2
  74              		.type	SMS_LIB_SensorRaw, %object
  75              		.size	SMS_LIB_SensorRaw, 4
  76              	SMS_LIB_SensorRaw:
  77 0020 00000000 		.word	CapSense_SensorRaw
  78              		.global	SMS_LIB_SensorBaseline
  79              		.align	2
  80              		.type	SMS_LIB_SensorBaseline, %object
  81              		.size	SMS_LIB_SensorBaseline, 4
  82              	SMS_LIB_SensorBaseline:
  83 0024 00000000 		.word	CapSense_SensorBaseline
  84              		.global	SMS_LIB_SensorSensitivity
  85              		.section	.rodata
  86              		.align	2
  87              		.type	SMS_LIB_SensorSensitivity, %object
  88              		.size	SMS_LIB_SensorSensitivity, 7
  89              	SMS_LIB_SensorSensitivity:
  90 0000 02       		.byte	2
  91 0001 02       		.byte	2
  92 0002 02       		.byte	2
  93 0003 02       		.byte	2
  94 0004 02       		.byte	2
  95 0005 02       		.byte	2
  96 0006 02       		.byte	2
  97              		.global	SMS_LIB_PrescalerTbl
  98 0007 00       		.align	2
  99              		.type	SMS_LIB_PrescalerTbl, %object
 100              		.size	SMS_LIB_PrescalerTbl, 32
 101              	SMS_LIB_PrescalerTbl:
 102 0008 01       		.byte	1
 103 0009 01       		.byte	1
 104 000a 01       		.byte	1
 105 000b 01       		.byte	1
 106 000c 01       		.byte	1
 107 000d 01       		.byte	1
 108 000e 02       		.byte	2
 109 000f 02       		.byte	2
 110 0010 02       		.byte	2
ARM GAS  C:\Users\awkward\AppData\Local\Temp\ccyCX5xV.s 			page 3


 111 0011 02       		.byte	2
 112 0012 02       		.byte	2
 113 0013 03       		.byte	3
 114 0014 03       		.byte	3
 115 0015 03       		.byte	3
 116 0016 03       		.byte	3
 117 0017 03       		.byte	3
 118 0018 03       		.byte	3
 119 0019 04       		.byte	4
 120 001a 04       		.byte	4
 121 001b 04       		.byte	4
 122 001c 04       		.byte	4
 123 001d 04       		.byte	4
 124 001e 04       		.byte	4
 125 001f 05       		.byte	5
 126 0020 05       		.byte	5
 127 0021 05       		.byte	5
 128 0022 05       		.byte	5
 129 0023 05       		.byte	5
 130 0024 05       		.byte	5
 131 0025 06       		.byte	6
 132 0026 06       		.byte	6
 133 0027 06       		.byte	6
 134              		.comm	SMS_LIB_Table1,7,4
 135              		.comm	SMS_LIB_Table2,7,4
 136              		.comm	SMS_LIB_Table3,7,4
 137              		.comm	SMS_LIB_Table4,14,4
 138              		.comm	SMS_LIB_Table5,14,4
 139              		.comm	SMS_LIB_Table6,7,4
 140              		.comm	SMS_LIB_Table7,7,4
 141              		.comm	SMS_LIB_Table8,3,4
 142              		.comm	SMS_LIB_Table9,3,4
 143              		.comm	SMS_LIB_Table10,3,4
 144              		.global	SMS_LIB_Var1
 145              		.data
 146              		.type	SMS_LIB_Var1, %object
 147              		.size	SMS_LIB_Var1, 1
 148              	SMS_LIB_Var1:
 149 0028 05       		.byte	5
 150              		.global	SMS_LIB_Var2
 151 0029 00       		.align	1
 152              		.type	SMS_LIB_Var2, %object
 153              		.size	SMS_LIB_Var2, 2
 154              	SMS_LIB_Var2:
 155 002a F229     		.short	10738
 156              		.global	SMS_LIB_TotalSnsCnt
 157              		.type	SMS_LIB_TotalSnsCnt, %object
 158              		.size	SMS_LIB_TotalSnsCnt, 1
 159              	SMS_LIB_TotalSnsCnt:
 160 002c 07       		.byte	7
 161              		.global	SMS_LIB_TotalScanSlCnt
 162              		.type	SMS_LIB_TotalScanSlCnt, %object
 163              		.size	SMS_LIB_TotalScanSlCnt, 1
 164              	SMS_LIB_TotalScanSlCnt:
 165 002d 07       		.byte	7
 166              		.global	SMS_LIB_EndOfWidgInd
 167              		.type	SMS_LIB_EndOfWidgInd, %object
ARM GAS  C:\Users\awkward\AppData\Local\Temp\ccyCX5xV.s 			page 4


 168              		.size	SMS_LIB_EndOfWidgInd, 1
 169              	SMS_LIB_EndOfWidgInd:
 170 002e 03       		.byte	3
 171              		.global	SMS_LIB_TotalSnsCnt_CH0
 172 002f 00       		.bss
 173              		.type	SMS_LIB_TotalSnsCnt_CH0, %object
 174              		.size	SMS_LIB_TotalSnsCnt_CH0, 1
 175              	SMS_LIB_TotalSnsCnt_CH0:
 176 0000 00       		.space	1
 177              		.global	SMS_LIB_TotalSnsCnt_CH1
 178              		.type	SMS_LIB_TotalSnsCnt_CH1, %object
 179              		.size	SMS_LIB_TotalSnsCnt_CH1, 1
 180              	SMS_LIB_TotalSnsCnt_CH1:
 181 0001 00       		.space	1
 182              		.section	.text.SMS_LIB_ScanSensor,"ax",%progbits
 183              		.align	2
 184              		.global	SMS_LIB_ScanSensor
 185              		.thumb
 186              		.thumb_func
 187              		.type	SMS_LIB_ScanSensor, %function
 188              	SMS_LIB_ScanSensor:
 189              	.LFB0:
 190              		.file 1 ".\\Generated_Source\\PSoC5\\CapSense_SMS_Wrapper.c"
   1:.\Generated_Source\PSoC5/CapSense_SMS_Wrapper.c **** /*******************************************************************************
   2:.\Generated_Source\PSoC5/CapSense_SMS_Wrapper.c **** * File Name: CapSense_SMS_Wrapper.c
   3:.\Generated_Source\PSoC5/CapSense_SMS_Wrapper.c **** * Version 3.10
   4:.\Generated_Source\PSoC5/CapSense_SMS_Wrapper.c **** *
   5:.\Generated_Source\PSoC5/CapSense_SMS_Wrapper.c **** * Description:
   6:.\Generated_Source\PSoC5/CapSense_SMS_Wrapper.c **** *  This file provides the source code of wrapper between CapSense CSD component 
   7:.\Generated_Source\PSoC5/CapSense_SMS_Wrapper.c **** *  and Auto Tuning library.
   8:.\Generated_Source\PSoC5/CapSense_SMS_Wrapper.c **** *
   9:.\Generated_Source\PSoC5/CapSense_SMS_Wrapper.c **** * Note:
  10:.\Generated_Source\PSoC5/CapSense_SMS_Wrapper.c **** *
  11:.\Generated_Source\PSoC5/CapSense_SMS_Wrapper.c **** ********************************************************************************
  12:.\Generated_Source\PSoC5/CapSense_SMS_Wrapper.c **** * Copyright 2008-2011, Cypress Semiconductor Corporation.  All rights reserved.
  13:.\Generated_Source\PSoC5/CapSense_SMS_Wrapper.c **** * You may use this file only in accordance with the license, terms, conditions,
  14:.\Generated_Source\PSoC5/CapSense_SMS_Wrapper.c **** * disclaimers, and limitations in the end user license agreement accompanying
  15:.\Generated_Source\PSoC5/CapSense_SMS_Wrapper.c **** * the software package with which this file was provided.
  16:.\Generated_Source\PSoC5/CapSense_SMS_Wrapper.c **** *******************************************************************************/
  17:.\Generated_Source\PSoC5/CapSense_SMS_Wrapper.c **** 
  18:.\Generated_Source\PSoC5/CapSense_SMS_Wrapper.c **** #include "CapSense.h"
  19:.\Generated_Source\PSoC5/CapSense_SMS_Wrapper.c **** #include "CapSense_CSHL.h"
  20:.\Generated_Source\PSoC5/CapSense_SMS_Wrapper.c **** 
  21:.\Generated_Source\PSoC5/CapSense_SMS_Wrapper.c **** #if (CapSense_TUNING_METHOD == CapSense_AUTO_TUNING)
  22:.\Generated_Source\PSoC5/CapSense_SMS_Wrapper.c **** 
  23:.\Generated_Source\PSoC5/CapSense_SMS_Wrapper.c **** extern uint8 CapSense_noiseThreshold[];
  24:.\Generated_Source\PSoC5/CapSense_SMS_Wrapper.c **** extern uint8 CapSense_hysteresis[];
  25:.\Generated_Source\PSoC5/CapSense_SMS_Wrapper.c **** 
  26:.\Generated_Source\PSoC5/CapSense_SMS_Wrapper.c **** extern uint8 CapSense_widgetResolution[];
  27:.\Generated_Source\PSoC5/CapSense_SMS_Wrapper.c **** 
  28:.\Generated_Source\PSoC5/CapSense_SMS_Wrapper.c **** extern const uint8 CYCODE CapSense_widgetNumber[];
  29:.\Generated_Source\PSoC5/CapSense_SMS_Wrapper.c **** extern const uint8 CYCODE CapSense_numberOfSensors[];
  30:.\Generated_Source\PSoC5/CapSense_SMS_Wrapper.c **** 
  31:.\Generated_Source\PSoC5/CapSense_SMS_Wrapper.c **** extern uint8 CapSense_fingerThreshold[];
  32:.\Generated_Source\PSoC5/CapSense_SMS_Wrapper.c **** extern uint8 CapSense_idacSettings[];
  33:.\Generated_Source\PSoC5/CapSense_SMS_Wrapper.c **** extern uint8 CapSense_AnalogSwitchDivider[];
  34:.\Generated_Source\PSoC5/CapSense_SMS_Wrapper.c **** 
ARM GAS  C:\Users\awkward\AppData\Local\Temp\ccyCX5xV.s 			page 5


  35:.\Generated_Source\PSoC5/CapSense_SMS_Wrapper.c **** extern uint16 CapSense_SensorRaw[];
  36:.\Generated_Source\PSoC5/CapSense_SMS_Wrapper.c **** extern uint16 CapSense_SensorBaseline[];
  37:.\Generated_Source\PSoC5/CapSense_SMS_Wrapper.c **** extern uint8  CapSense_SensorSignal[];
  38:.\Generated_Source\PSoC5/CapSense_SMS_Wrapper.c **** 
  39:.\Generated_Source\PSoC5/CapSense_SMS_Wrapper.c **** extern void SMS_LIB_V3_CalculateThresholds(uint8 SensorNumber);
  40:.\Generated_Source\PSoC5/CapSense_SMS_Wrapper.c **** extern void SMS_LIB_V3_AutoTune1Ch(void);
  41:.\Generated_Source\PSoC5/CapSense_SMS_Wrapper.c **** extern void SMS_LIB_V3_AutoTune2Ch(void);
  42:.\Generated_Source\PSoC5/CapSense_SMS_Wrapper.c **** 
  43:.\Generated_Source\PSoC5/CapSense_SMS_Wrapper.c **** uint8 * SMS_LIB_noiseThreshold = CapSense_noiseThreshold;
  44:.\Generated_Source\PSoC5/CapSense_SMS_Wrapper.c **** uint8 * SMS_LIB_hysteresis = CapSense_hysteresis;
  45:.\Generated_Source\PSoC5/CapSense_SMS_Wrapper.c **** 
  46:.\Generated_Source\PSoC5/CapSense_SMS_Wrapper.c **** uint8 * SMS_LIB_widgetResolution = CapSense_widgetResolution;
  47:.\Generated_Source\PSoC5/CapSense_SMS_Wrapper.c **** 
  48:.\Generated_Source\PSoC5/CapSense_SMS_Wrapper.c **** const uint8 CYCODE * SMS_LIB_widgetNumber = CapSense_widgetNumber;
  49:.\Generated_Source\PSoC5/CapSense_SMS_Wrapper.c **** const uint8 CYCODE * SMS_LIB_numberOfSensors = CapSense_numberOfSensors;
  50:.\Generated_Source\PSoC5/CapSense_SMS_Wrapper.c **** 
  51:.\Generated_Source\PSoC5/CapSense_SMS_Wrapper.c **** uint8 * SMS_LIB_fingerThreshold = CapSense_fingerThreshold;
  52:.\Generated_Source\PSoC5/CapSense_SMS_Wrapper.c **** uint8 * SMS_LIB_idacSettings = CapSense_idacSettings;
  53:.\Generated_Source\PSoC5/CapSense_SMS_Wrapper.c **** uint8 * SMS_LIB_prescaler = CapSense_AnalogSwitchDivider;
  54:.\Generated_Source\PSoC5/CapSense_SMS_Wrapper.c **** 
  55:.\Generated_Source\PSoC5/CapSense_SMS_Wrapper.c **** uint16 * SMS_LIB_SensorRaw = CapSense_SensorRaw;
  56:.\Generated_Source\PSoC5/CapSense_SMS_Wrapper.c **** uint16 * SMS_LIB_SensorBaseline = CapSense_SensorBaseline;
  57:.\Generated_Source\PSoC5/CapSense_SMS_Wrapper.c **** 
  58:.\Generated_Source\PSoC5/CapSense_SMS_Wrapper.c **** const uint8 CYCODE SMS_LIB_SensorSensitivity[] = {
  59:.\Generated_Source\PSoC5/CapSense_SMS_Wrapper.c ****     2, 2, 2, 2, 2, 2, 2, 
  60:.\Generated_Source\PSoC5/CapSense_SMS_Wrapper.c **** };
  61:.\Generated_Source\PSoC5/CapSense_SMS_Wrapper.c **** 
  62:.\Generated_Source\PSoC5/CapSense_SMS_Wrapper.c **** 
  63:.\Generated_Source\PSoC5/CapSense_SMS_Wrapper.c **** const uint8 CYCODE SMS_LIB_PrescalerTbl[] = {
  64:.\Generated_Source\PSoC5/CapSense_SMS_Wrapper.c ****     1u, 1u, 1u, 1u, 1u, 1u, 2u, 2u, 2u, 2u, 2u, 3u, 3u, 3u, 3u, 3u, 3u, 4u, 4u, 4u, 4u, 4u, 4u, 5u,
  65:.\Generated_Source\PSoC5/CapSense_SMS_Wrapper.c **** };
  66:.\Generated_Source\PSoC5/CapSense_SMS_Wrapper.c **** 
  67:.\Generated_Source\PSoC5/CapSense_SMS_Wrapper.c **** 
  68:.\Generated_Source\PSoC5/CapSense_SMS_Wrapper.c **** 
  69:.\Generated_Source\PSoC5/CapSense_SMS_Wrapper.c **** uint8 SMS_LIB_Table1[CapSense_TOTAL_SENSOR_COUNT];
  70:.\Generated_Source\PSoC5/CapSense_SMS_Wrapper.c **** uint8 SMS_LIB_Table2[CapSense_TOTAL_SENSOR_COUNT];
  71:.\Generated_Source\PSoC5/CapSense_SMS_Wrapper.c **** uint8 SMS_LIB_Table3[CapSense_TOTAL_SENSOR_COUNT];
  72:.\Generated_Source\PSoC5/CapSense_SMS_Wrapper.c **** uint16 SMS_LIB_Table4[CapSense_TOTAL_SENSOR_COUNT];
  73:.\Generated_Source\PSoC5/CapSense_SMS_Wrapper.c **** uint16 SMS_LIB_Table5[CapSense_TOTAL_SENSOR_COUNT];
  74:.\Generated_Source\PSoC5/CapSense_SMS_Wrapper.c **** uint8 SMS_LIB_Table6[CapSense_TOTAL_SENSOR_COUNT];
  75:.\Generated_Source\PSoC5/CapSense_SMS_Wrapper.c **** uint8 SMS_LIB_Table7[CapSense_TOTAL_SENSOR_COUNT];
  76:.\Generated_Source\PSoC5/CapSense_SMS_Wrapper.c **** 
  77:.\Generated_Source\PSoC5/CapSense_SMS_Wrapper.c **** uint8 SMS_LIB_Table8[CapSense_END_OF_WIDGETS_INDEX];
  78:.\Generated_Source\PSoC5/CapSense_SMS_Wrapper.c **** uint8 SMS_LIB_Table9[CapSense_END_OF_WIDGETS_INDEX];
  79:.\Generated_Source\PSoC5/CapSense_SMS_Wrapper.c **** uint8 SMS_LIB_Table10[CapSense_END_OF_WIDGETS_INDEX];
  80:.\Generated_Source\PSoC5/CapSense_SMS_Wrapper.c **** 
  81:.\Generated_Source\PSoC5/CapSense_SMS_Wrapper.c **** uint8 SMS_LIB_Var1 = (5u);
  82:.\Generated_Source\PSoC5/CapSense_SMS_Wrapper.c **** uint16 SMS_LIB_Var2 = (10738u);
  83:.\Generated_Source\PSoC5/CapSense_SMS_Wrapper.c **** 
  84:.\Generated_Source\PSoC5/CapSense_SMS_Wrapper.c **** uint8 SMS_LIB_TotalSnsCnt = CapSense_TOTAL_SENSOR_COUNT;
  85:.\Generated_Source\PSoC5/CapSense_SMS_Wrapper.c **** uint8 SMS_LIB_TotalScanSlCnt = CapSense_TOTAL_SCANSLOT_COUNT;
  86:.\Generated_Source\PSoC5/CapSense_SMS_Wrapper.c **** uint8 SMS_LIB_EndOfWidgInd = CapSense_END_OF_WIDGETS_INDEX;
  87:.\Generated_Source\PSoC5/CapSense_SMS_Wrapper.c **** 
  88:.\Generated_Source\PSoC5/CapSense_SMS_Wrapper.c **** #if (CapSense_DESIGN_TYPE == CapSense_TWO_CHANNELS_DESIGN)
  89:.\Generated_Source\PSoC5/CapSense_SMS_Wrapper.c ****     uint8 SMS_LIB_TotalSnsCnt_CH0 = CapSense_TOTAL_SENSOR_COUNT__CH0;
  90:.\Generated_Source\PSoC5/CapSense_SMS_Wrapper.c ****     uint8 SMS_LIB_TotalSnsCnt_CH1 = CapSense_TOTAL_SENSOR_COUNT__CH1;
  91:.\Generated_Source\PSoC5/CapSense_SMS_Wrapper.c **** #else
ARM GAS  C:\Users\awkward\AppData\Local\Temp\ccyCX5xV.s 			page 6


  92:.\Generated_Source\PSoC5/CapSense_SMS_Wrapper.c ****     uint8 SMS_LIB_TotalSnsCnt_CH0 = 0;
  93:.\Generated_Source\PSoC5/CapSense_SMS_Wrapper.c ****     uint8 SMS_LIB_TotalSnsCnt_CH1 = 0;
  94:.\Generated_Source\PSoC5/CapSense_SMS_Wrapper.c **** #endif  /* End (CapSense_DESIGN_TYPE == CapSense_TWO_CHANNELS_DESIGN) */
  95:.\Generated_Source\PSoC5/CapSense_SMS_Wrapper.c **** 
  96:.\Generated_Source\PSoC5/CapSense_SMS_Wrapper.c **** /*******************************************************************************
  97:.\Generated_Source\PSoC5/CapSense_SMS_Wrapper.c **** * Function Name: SMS_LIB_ScanSensor
  98:.\Generated_Source\PSoC5/CapSense_SMS_Wrapper.c **** ********************************************************************************
  99:.\Generated_Source\PSoC5/CapSense_SMS_Wrapper.c **** *
 100:.\Generated_Source\PSoC5/CapSense_SMS_Wrapper.c **** * Summary:
 101:.\Generated_Source\PSoC5/CapSense_SMS_Wrapper.c **** *  Wrapper to CapSense_ScanSensor function.
 102:.\Generated_Source\PSoC5/CapSense_SMS_Wrapper.c **** *
 103:.\Generated_Source\PSoC5/CapSense_SMS_Wrapper.c **** * Parameters:
 104:.\Generated_Source\PSoC5/CapSense_SMS_Wrapper.c **** *  SensorNumber:  Sensor number.
 105:.\Generated_Source\PSoC5/CapSense_SMS_Wrapper.c **** *
 106:.\Generated_Source\PSoC5/CapSense_SMS_Wrapper.c **** * Return:
 107:.\Generated_Source\PSoC5/CapSense_SMS_Wrapper.c **** *  None
 108:.\Generated_Source\PSoC5/CapSense_SMS_Wrapper.c **** *
 109:.\Generated_Source\PSoC5/CapSense_SMS_Wrapper.c **** * Reentrant:
 110:.\Generated_Source\PSoC5/CapSense_SMS_Wrapper.c **** *  No
 111:.\Generated_Source\PSoC5/CapSense_SMS_Wrapper.c **** *
 112:.\Generated_Source\PSoC5/CapSense_SMS_Wrapper.c **** *******************************************************************************/
 113:.\Generated_Source\PSoC5/CapSense_SMS_Wrapper.c **** void SMS_LIB_ScanSensor(uint8 SensorNumber)
 114:.\Generated_Source\PSoC5/CapSense_SMS_Wrapper.c **** {
 191              		.loc 1 114 0
 192              		.cfi_startproc
 193              		@ args = 0, pretend = 0, frame = 8
 194              		@ frame_needed = 1, uses_anonymous_args = 0
 195 0000 80B5     		push	{r7, lr}
 196              	.LCFI0:
 197              		.cfi_def_cfa_offset 8
 198 0002 82B0     		sub	sp, sp, #8
 199              	.LCFI1:
 200              		.cfi_def_cfa_offset 16
 201 0004 00AF     		add	r7, sp, #0
 202              		.cfi_offset 14, -4
 203              		.cfi_offset 7, -8
 204              	.LCFI2:
 205              		.cfi_def_cfa_register 7
 206 0006 0346     		mov	r3, r0
 207 0008 FB71     		strb	r3, [r7, #7]
 115:.\Generated_Source\PSoC5/CapSense_SMS_Wrapper.c ****     CapSense_ScanSensor(SensorNumber);
 208              		.loc 1 115 0
 209 000a FB79     		ldrb	r3, [r7, #7]	@ zero_extendqisi2
 210 000c 1846     		mov	r0, r3
 211 000e FFF7FEFF 		bl	CapSense_ScanSensor
 116:.\Generated_Source\PSoC5/CapSense_SMS_Wrapper.c **** }
 212              		.loc 1 116 0
 213 0012 07F10807 		add	r7, r7, #8
 214 0016 BD46     		mov	sp, r7
 215 0018 80BD     		pop	{r7, pc}
 216              		.cfi_endproc
 217              	.LFE0:
 218              		.size	SMS_LIB_ScanSensor, .-SMS_LIB_ScanSensor
 219 001a 00BF     		.section	.text.SMS_LIB_IsBusy,"ax",%progbits
 220              		.align	2
 221              		.global	SMS_LIB_IsBusy
 222              		.thumb
ARM GAS  C:\Users\awkward\AppData\Local\Temp\ccyCX5xV.s 			page 7


 223              		.thumb_func
 224              		.type	SMS_LIB_IsBusy, %function
 225              	SMS_LIB_IsBusy:
 226              	.LFB1:
 117:.\Generated_Source\PSoC5/CapSense_SMS_Wrapper.c **** 
 118:.\Generated_Source\PSoC5/CapSense_SMS_Wrapper.c **** /*******************************************************************************
 119:.\Generated_Source\PSoC5/CapSense_SMS_Wrapper.c **** * Function Name: SMS_LIB_IsBusy
 120:.\Generated_Source\PSoC5/CapSense_SMS_Wrapper.c **** ********************************************************************************
 121:.\Generated_Source\PSoC5/CapSense_SMS_Wrapper.c **** *
 122:.\Generated_Source\PSoC5/CapSense_SMS_Wrapper.c **** * Summary:
 123:.\Generated_Source\PSoC5/CapSense_SMS_Wrapper.c **** *  Wrapper to CapSense_IsBusy function.
 124:.\Generated_Source\PSoC5/CapSense_SMS_Wrapper.c **** *  
 125:.\Generated_Source\PSoC5/CapSense_SMS_Wrapper.c **** * Parameters:
 126:.\Generated_Source\PSoC5/CapSense_SMS_Wrapper.c **** *  None
 127:.\Generated_Source\PSoC5/CapSense_SMS_Wrapper.c **** *
 128:.\Generated_Source\PSoC5/CapSense_SMS_Wrapper.c **** * Return:
 129:.\Generated_Source\PSoC5/CapSense_SMS_Wrapper.c **** *  None
 130:.\Generated_Source\PSoC5/CapSense_SMS_Wrapper.c **** *
 131:.\Generated_Source\PSoC5/CapSense_SMS_Wrapper.c **** *******************************************************************************/
 132:.\Generated_Source\PSoC5/CapSense_SMS_Wrapper.c **** uint8 SMS_LIB_IsBusy(void)
 133:.\Generated_Source\PSoC5/CapSense_SMS_Wrapper.c **** {
 227              		.loc 1 133 0
 228              		.cfi_startproc
 229              		@ args = 0, pretend = 0, frame = 0
 230              		@ frame_needed = 1, uses_anonymous_args = 0
 231 0000 80B5     		push	{r7, lr}
 232              	.LCFI3:
 233              		.cfi_def_cfa_offset 8
 234 0002 00AF     		add	r7, sp, #0
 235              		.cfi_offset 14, -4
 236              		.cfi_offset 7, -8
 237              	.LCFI4:
 238              		.cfi_def_cfa_register 7
 134:.\Generated_Source\PSoC5/CapSense_SMS_Wrapper.c ****     return CapSense_IsBusy();
 239              		.loc 1 134 0
 240 0004 FFF7FEFF 		bl	CapSense_IsBusy
 241 0008 0346     		mov	r3, r0
 135:.\Generated_Source\PSoC5/CapSense_SMS_Wrapper.c **** }
 242              		.loc 1 135 0
 243 000a 1846     		mov	r0, r3
 244 000c 80BD     		pop	{r7, pc}
 245              		.cfi_endproc
 246              	.LFE1:
 247              		.size	SMS_LIB_IsBusy, .-SMS_LIB_IsBusy
 248 000e 00BF     		.section	.text.CapSense_CalculateThresholds,"ax",%progbits
 249              		.align	2
 250              		.global	CapSense_CalculateThresholds
 251              		.thumb
 252              		.thumb_func
 253              		.type	CapSense_CalculateThresholds, %function
 254              	CapSense_CalculateThresholds:
 255              	.LFB2:
 136:.\Generated_Source\PSoC5/CapSense_SMS_Wrapper.c **** 
 137:.\Generated_Source\PSoC5/CapSense_SMS_Wrapper.c **** /*******************************************************************************
 138:.\Generated_Source\PSoC5/CapSense_SMS_Wrapper.c **** * Function Name: CapSense_CalculateThresholds
 139:.\Generated_Source\PSoC5/CapSense_SMS_Wrapper.c **** ********************************************************************************
 140:.\Generated_Source\PSoC5/CapSense_SMS_Wrapper.c **** *
ARM GAS  C:\Users\awkward\AppData\Local\Temp\ccyCX5xV.s 			page 8


 141:.\Generated_Source\PSoC5/CapSense_SMS_Wrapper.c **** * Summary:
 142:.\Generated_Source\PSoC5/CapSense_SMS_Wrapper.c **** *  Wrapper to SMS_LIB_CalculateThresholds function.
 143:.\Generated_Source\PSoC5/CapSense_SMS_Wrapper.c **** *
 144:.\Generated_Source\PSoC5/CapSense_SMS_Wrapper.c **** * Parameters:
 145:.\Generated_Source\PSoC5/CapSense_SMS_Wrapper.c **** *  SensorNumber:  Sensor number.
 146:.\Generated_Source\PSoC5/CapSense_SMS_Wrapper.c **** *
 147:.\Generated_Source\PSoC5/CapSense_SMS_Wrapper.c **** * Return:
 148:.\Generated_Source\PSoC5/CapSense_SMS_Wrapper.c **** *  None
 149:.\Generated_Source\PSoC5/CapSense_SMS_Wrapper.c **** *
 150:.\Generated_Source\PSoC5/CapSense_SMS_Wrapper.c **** * Reentrant:
 151:.\Generated_Source\PSoC5/CapSense_SMS_Wrapper.c **** *  No
 152:.\Generated_Source\PSoC5/CapSense_SMS_Wrapper.c **** *
 153:.\Generated_Source\PSoC5/CapSense_SMS_Wrapper.c **** *******************************************************************************/
 154:.\Generated_Source\PSoC5/CapSense_SMS_Wrapper.c **** void CapSense_CalculateThresholds(uint8 SensorNumber)
 155:.\Generated_Source\PSoC5/CapSense_SMS_Wrapper.c **** {
 256              		.loc 1 155 0
 257              		.cfi_startproc
 258              		@ args = 0, pretend = 0, frame = 8
 259              		@ frame_needed = 1, uses_anonymous_args = 0
 260 0000 80B5     		push	{r7, lr}
 261              	.LCFI5:
 262              		.cfi_def_cfa_offset 8
 263 0002 82B0     		sub	sp, sp, #8
 264              	.LCFI6:
 265              		.cfi_def_cfa_offset 16
 266 0004 00AF     		add	r7, sp, #0
 267              		.cfi_offset 14, -4
 268              		.cfi_offset 7, -8
 269              	.LCFI7:
 270              		.cfi_def_cfa_register 7
 271 0006 0346     		mov	r3, r0
 272 0008 FB71     		strb	r3, [r7, #7]
 156:.\Generated_Source\PSoC5/CapSense_SMS_Wrapper.c ****     SMS_LIB_V3_CalculateThresholds(SensorNumber);
 273              		.loc 1 156 0
 274 000a FB79     		ldrb	r3, [r7, #7]	@ zero_extendqisi2
 275 000c 1846     		mov	r0, r3
 276 000e FFF7FEFF 		bl	SMS_LIB_V3_CalculateThresholds
 157:.\Generated_Source\PSoC5/CapSense_SMS_Wrapper.c **** }
 277              		.loc 1 157 0
 278 0012 07F10807 		add	r7, r7, #8
 279 0016 BD46     		mov	sp, r7
 280 0018 80BD     		pop	{r7, pc}
 281              		.cfi_endproc
 282              	.LFE2:
 283              		.size	CapSense_CalculateThresholds, .-CapSense_CalculateThresholds
 284 001a 00BF     		.section	.text.CapSense_AutoTune,"ax",%progbits
 285              		.align	2
 286              		.global	CapSense_AutoTune
 287              		.thumb
 288              		.thumb_func
 289              		.type	CapSense_AutoTune, %function
 290              	CapSense_AutoTune:
 291              	.LFB3:
 158:.\Generated_Source\PSoC5/CapSense_SMS_Wrapper.c **** 
 159:.\Generated_Source\PSoC5/CapSense_SMS_Wrapper.c **** /*******************************************************************************
 160:.\Generated_Source\PSoC5/CapSense_SMS_Wrapper.c **** * Function Name: CapSense_AutoTune
 161:.\Generated_Source\PSoC5/CapSense_SMS_Wrapper.c **** ********************************************************************************
ARM GAS  C:\Users\awkward\AppData\Local\Temp\ccyCX5xV.s 			page 9


 162:.\Generated_Source\PSoC5/CapSense_SMS_Wrapper.c **** *
 163:.\Generated_Source\PSoC5/CapSense_SMS_Wrapper.c **** * Summary:
 164:.\Generated_Source\PSoC5/CapSense_SMS_Wrapper.c **** *  Wrapper for SMS_LIB_AutoTune1Ch or SMS_LIB_AutoTune2Ch function.
 165:.\Generated_Source\PSoC5/CapSense_SMS_Wrapper.c **** *
 166:.\Generated_Source\PSoC5/CapSense_SMS_Wrapper.c **** * Parameters:
 167:.\Generated_Source\PSoC5/CapSense_SMS_Wrapper.c **** *  None
 168:.\Generated_Source\PSoC5/CapSense_SMS_Wrapper.c **** *
 169:.\Generated_Source\PSoC5/CapSense_SMS_Wrapper.c **** * Return:
 170:.\Generated_Source\PSoC5/CapSense_SMS_Wrapper.c **** *  None
 171:.\Generated_Source\PSoC5/CapSense_SMS_Wrapper.c **** *
 172:.\Generated_Source\PSoC5/CapSense_SMS_Wrapper.c **** * Reentrant:
 173:.\Generated_Source\PSoC5/CapSense_SMS_Wrapper.c **** *  No
 174:.\Generated_Source\PSoC5/CapSense_SMS_Wrapper.c **** *
 175:.\Generated_Source\PSoC5/CapSense_SMS_Wrapper.c **** *******************************************************************************/
 176:.\Generated_Source\PSoC5/CapSense_SMS_Wrapper.c **** void CapSense_AutoTune(void)
 177:.\Generated_Source\PSoC5/CapSense_SMS_Wrapper.c **** {
 292              		.loc 1 177 0
 293              		.cfi_startproc
 294              		@ args = 0, pretend = 0, frame = 0
 295              		@ frame_needed = 1, uses_anonymous_args = 0
 296 0000 80B5     		push	{r7, lr}
 297              	.LCFI8:
 298              		.cfi_def_cfa_offset 8
 299 0002 00AF     		add	r7, sp, #0
 300              		.cfi_offset 14, -4
 301              		.cfi_offset 7, -8
 302              	.LCFI9:
 303              		.cfi_def_cfa_register 7
 178:.\Generated_Source\PSoC5/CapSense_SMS_Wrapper.c ****     #if (CapSense_DESIGN_TYPE == CapSense_ONE_CHANNEL_DESIGN)
 179:.\Generated_Source\PSoC5/CapSense_SMS_Wrapper.c ****         SMS_LIB_V3_AutoTune1Ch();
 304              		.loc 1 179 0
 305 0004 FFF7FEFF 		bl	SMS_LIB_V3_AutoTune1Ch
 180:.\Generated_Source\PSoC5/CapSense_SMS_Wrapper.c ****     #elif (CapSense_DESIGN_TYPE == CapSense_TWO_CHANNELS_DESIGN)
 181:.\Generated_Source\PSoC5/CapSense_SMS_Wrapper.c ****         SMS_LIB_V3_AutoTune2Ch();
 182:.\Generated_Source\PSoC5/CapSense_SMS_Wrapper.c ****     #endif /* End (CapSense_DESIGN_TYPE == CapSense_ONE_CHANNEL_DESIGN) */
 183:.\Generated_Source\PSoC5/CapSense_SMS_Wrapper.c **** }
 306              		.loc 1 183 0
 307 0008 80BD     		pop	{r7, pc}
 308              		.cfi_endproc
 309              	.LFE3:
 310              		.size	CapSense_AutoTune, .-CapSense_AutoTune
 311 000a 00BF     		.section	.text.SMS_LIB_SetPrescaler,"ax",%progbits
 312              		.align	2
 313              		.global	SMS_LIB_SetPrescaler
 314              		.thumb
 315              		.thumb_func
 316              		.type	SMS_LIB_SetPrescaler, %function
 317              	SMS_LIB_SetPrescaler:
 318              	.LFB4:
 184:.\Generated_Source\PSoC5/CapSense_SMS_Wrapper.c **** 
 185:.\Generated_Source\PSoC5/CapSense_SMS_Wrapper.c **** /*******************************************************************************
 186:.\Generated_Source\PSoC5/CapSense_SMS_Wrapper.c **** * Function Name: SMS_LIB_SetPrescaler
 187:.\Generated_Source\PSoC5/CapSense_SMS_Wrapper.c **** ********************************************************************************
 188:.\Generated_Source\PSoC5/CapSense_SMS_Wrapper.c **** *
 189:.\Generated_Source\PSoC5/CapSense_SMS_Wrapper.c **** * Summary:
 190:.\Generated_Source\PSoC5/CapSense_SMS_Wrapper.c **** *  Empty wrapper for version compliance.
 191:.\Generated_Source\PSoC5/CapSense_SMS_Wrapper.c **** *
ARM GAS  C:\Users\awkward\AppData\Local\Temp\ccyCX5xV.s 			page 10


 192:.\Generated_Source\PSoC5/CapSense_SMS_Wrapper.c **** * Parameters:
 193:.\Generated_Source\PSoC5/CapSense_SMS_Wrapper.c **** *  prescaler:  prascaler value.
 194:.\Generated_Source\PSoC5/CapSense_SMS_Wrapper.c **** *
 195:.\Generated_Source\PSoC5/CapSense_SMS_Wrapper.c **** * Return:
 196:.\Generated_Source\PSoC5/CapSense_SMS_Wrapper.c **** *  None
 197:.\Generated_Source\PSoC5/CapSense_SMS_Wrapper.c **** *
 198:.\Generated_Source\PSoC5/CapSense_SMS_Wrapper.c **** *******************************************************************************/
 199:.\Generated_Source\PSoC5/CapSense_SMS_Wrapper.c **** void SMS_LIB_SetPrescaler(uint8 prescaler)
 200:.\Generated_Source\PSoC5/CapSense_SMS_Wrapper.c **** {
 319              		.loc 1 200 0
 320              		.cfi_startproc
 321              		@ args = 0, pretend = 0, frame = 8
 322              		@ frame_needed = 1, uses_anonymous_args = 0
 323              		@ link register save eliminated.
 324 0000 80B4     		push	{r7}
 325              	.LCFI10:
 326              		.cfi_def_cfa_offset 4
 327 0002 83B0     		sub	sp, sp, #12
 328              	.LCFI11:
 329              		.cfi_def_cfa_offset 16
 330 0004 00AF     		add	r7, sp, #0
 331              		.cfi_offset 7, -4
 332              	.LCFI12:
 333              		.cfi_def_cfa_register 7
 334 0006 0346     		mov	r3, r0
 335 0008 FB71     		strb	r3, [r7, #7]
 201:.\Generated_Source\PSoC5/CapSense_SMS_Wrapper.c ****     prescaler = prescaler;
 202:.\Generated_Source\PSoC5/CapSense_SMS_Wrapper.c **** }
 336              		.loc 1 202 0
 337 000a 07F10C07 		add	r7, r7, #12
 338 000e BD46     		mov	sp, r7
 339 0010 80BC     		pop	{r7}
 340 0012 7047     		bx	lr
 341              		.cfi_endproc
 342              	.LFE4:
 343              		.size	SMS_LIB_SetPrescaler, .-SMS_LIB_SetPrescaler
 344              		.section	.text.SMS_LIB_V3_SetAnalogSwitchesSrc_PRS,"ax",%progbits
 345              		.align	2
 346              		.global	SMS_LIB_V3_SetAnalogSwitchesSrc_PRS
 347              		.thumb
 348              		.thumb_func
 349              		.type	SMS_LIB_V3_SetAnalogSwitchesSrc_PRS, %function
 350              	SMS_LIB_V3_SetAnalogSwitchesSrc_PRS:
 351              	.LFB5:
 203:.\Generated_Source\PSoC5/CapSense_SMS_Wrapper.c **** 
 204:.\Generated_Source\PSoC5/CapSense_SMS_Wrapper.c **** void SMS_LIB_V3_SetAnalogSwitchesSrc_PRS(void)
 205:.\Generated_Source\PSoC5/CapSense_SMS_Wrapper.c **** {
 352              		.loc 1 205 0
 353              		.cfi_startproc
 354              		@ args = 0, pretend = 0, frame = 0
 355              		@ frame_needed = 1, uses_anonymous_args = 0
 356 0000 80B5     		push	{r7, lr}
 357              	.LCFI13:
 358              		.cfi_def_cfa_offset 8
 359 0002 00AF     		add	r7, sp, #0
 360              		.cfi_offset 14, -4
 361              		.cfi_offset 7, -8
ARM GAS  C:\Users\awkward\AppData\Local\Temp\ccyCX5xV.s 			page 11


 362              	.LCFI14:
 363              		.cfi_def_cfa_register 7
 206:.\Generated_Source\PSoC5/CapSense_SMS_Wrapper.c **** 	CapSense_SetAnalogSwitchesSource(CapSense_ANALOG_SWITCHES_SRC_PRS);
 364              		.loc 1 206 0
 365 0004 4FF00200 		mov	r0, #2
 366 0008 FFF7FEFF 		bl	CapSense_SetAnalogSwitchesSource
 207:.\Generated_Source\PSoC5/CapSense_SMS_Wrapper.c **** }
 367              		.loc 1 207 0
 368 000c 80BD     		pop	{r7, pc}
 369              		.cfi_endproc
 370              	.LFE5:
 371              		.size	SMS_LIB_V3_SetAnalogSwitchesSrc_PRS, .-SMS_LIB_V3_SetAnalogSwitchesSrc_PRS
 372 000e 00BF     		.section	.text.SMS_LIB_V3_SetAnalogSwitchesSrc_Prescaler,"ax",%progbits
 373              		.align	2
 374              		.global	SMS_LIB_V3_SetAnalogSwitchesSrc_Prescaler
 375              		.thumb
 376              		.thumb_func
 377              		.type	SMS_LIB_V3_SetAnalogSwitchesSrc_Prescaler, %function
 378              	SMS_LIB_V3_SetAnalogSwitchesSrc_Prescaler:
 379              	.LFB6:
 208:.\Generated_Source\PSoC5/CapSense_SMS_Wrapper.c **** 
 209:.\Generated_Source\PSoC5/CapSense_SMS_Wrapper.c **** void SMS_LIB_V3_SetAnalogSwitchesSrc_Prescaler(void)
 210:.\Generated_Source\PSoC5/CapSense_SMS_Wrapper.c **** {
 380              		.loc 1 210 0
 381              		.cfi_startproc
 382              		@ args = 0, pretend = 0, frame = 0
 383              		@ frame_needed = 1, uses_anonymous_args = 0
 384 0000 80B5     		push	{r7, lr}
 385              	.LCFI15:
 386              		.cfi_def_cfa_offset 8
 387 0002 00AF     		add	r7, sp, #0
 388              		.cfi_offset 14, -4
 389              		.cfi_offset 7, -8
 390              	.LCFI16:
 391              		.cfi_def_cfa_register 7
 211:.\Generated_Source\PSoC5/CapSense_SMS_Wrapper.c **** 	CapSense_SetAnalogSwitchesSource(CapSense_ANALOG_SWITCHES_SRC_PRESCALER);
 392              		.loc 1 211 0
 393 0004 4FF00100 		mov	r0, #1
 394 0008 FFF7FEFF 		bl	CapSense_SetAnalogSwitchesSource
 212:.\Generated_Source\PSoC5/CapSense_SMS_Wrapper.c **** }
 395              		.loc 1 212 0
 396 000c 80BD     		pop	{r7, pc}
 397              		.cfi_endproc
 398              	.LFE6:
 399              		.size	SMS_LIB_V3_SetAnalogSwitchesSrc_Prescaler, .-SMS_LIB_V3_SetAnalogSwitchesSrc_Prescaler
 400 000e 00BF     		.text
 401              	.Letext0: