ARM GAS  C:\Users\awkward\AppData\Local\Temp\ccbMfmcJ.s 			page 1


   1              		.syntax unified
   2              		.cpu cortex-m3
   3              		.fpu softvfp
   4              		.eabi_attribute 20, 1
   5              		.eabi_attribute 21, 1
   6              		.eabi_attribute 23, 3
   7              		.eabi_attribute 24, 1
   8              		.eabi_attribute 25, 1
   9              		.eabi_attribute 26, 1
  10              		.eabi_attribute 30, 6
  11              		.eabi_attribute 18, 4
  12              		.thumb
  13              		.file	"CapSense_CompCH0_PM.c"
  20 0000 D3000000 		.text
  20      02008200 
  20      00000201 
  20      FB0E0D00 
  20      01010101 
  21              	.Ltext0:
  22              		.cfi_sections	.debug_frame
  23              		.bss
  24              		.align	2
  25              	CapSense_CompCH0_backup:
  26 0000 0000     		.space	2
  27 0002 0000     		.section	.text.CapSense_CompCH0_SaveConfig,"ax",%progbits
  28              		.align	2
  29              		.global	CapSense_CompCH0_SaveConfig
  30              		.thumb
  31              		.thumb_func
  32              		.type	CapSense_CompCH0_SaveConfig, %function
  33              	CapSense_CompCH0_SaveConfig:
  34              	.LFB0:
  35              		.file 1 ".\\Generated_Source\\PSoC5\\CapSense_CompCH0_PM.c"
   1:.\Generated_Source\PSoC5/CapSense_CompCH0_PM.c **** /*******************************************************************************
   2:.\Generated_Source\PSoC5/CapSense_CompCH0_PM.c **** * File Name: CapSense_CompCH0_PM.c  
   3:.\Generated_Source\PSoC5/CapSense_CompCH0_PM.c **** * Version 1.70
   4:.\Generated_Source\PSoC5/CapSense_CompCH0_PM.c **** *
   5:.\Generated_Source\PSoC5/CapSense_CompCH0_PM.c **** *  Description:
   6:.\Generated_Source\PSoC5/CapSense_CompCH0_PM.c **** *     This file provides the power management source code APIs for the
   7:.\Generated_Source\PSoC5/CapSense_CompCH0_PM.c **** *     Comparator.  
   8:.\Generated_Source\PSoC5/CapSense_CompCH0_PM.c **** *
   9:.\Generated_Source\PSoC5/CapSense_CompCH0_PM.c **** *   Note:
  10:.\Generated_Source\PSoC5/CapSense_CompCH0_PM.c **** *     None
  11:.\Generated_Source\PSoC5/CapSense_CompCH0_PM.c **** *
  12:.\Generated_Source\PSoC5/CapSense_CompCH0_PM.c **** *******************************************************************************
  13:.\Generated_Source\PSoC5/CapSense_CompCH0_PM.c **** * Copyright 2008-2011, Cypress Semiconductor Corporation.  All rights reserved.
  14:.\Generated_Source\PSoC5/CapSense_CompCH0_PM.c **** * You may use this file only in accordance with the license, terms, conditions, 
  15:.\Generated_Source\PSoC5/CapSense_CompCH0_PM.c **** * disclaimers, and limitations in the end user license agreement accompanying 
  16:.\Generated_Source\PSoC5/CapSense_CompCH0_PM.c **** * the software package with which this file was provided.
  17:.\Generated_Source\PSoC5/CapSense_CompCH0_PM.c **** ********************************************************************************/
  18:.\Generated_Source\PSoC5/CapSense_CompCH0_PM.c **** 
ARM GAS  C:\Users\awkward\AppData\Local\Temp\ccbMfmcJ.s 			page 2


  19:.\Generated_Source\PSoC5/CapSense_CompCH0_PM.c **** 
  20:.\Generated_Source\PSoC5/CapSense_CompCH0_PM.c **** #include "CapSense_CompCH0.h"
  21:.\Generated_Source\PSoC5/CapSense_CompCH0_PM.c **** 
  22:.\Generated_Source\PSoC5/CapSense_CompCH0_PM.c **** static CapSense_CompCH0_backupStruct CapSense_CompCH0_backup;
  23:.\Generated_Source\PSoC5/CapSense_CompCH0_PM.c **** 
  24:.\Generated_Source\PSoC5/CapSense_CompCH0_PM.c **** 
  25:.\Generated_Source\PSoC5/CapSense_CompCH0_PM.c **** /*******************************************************************************
  26:.\Generated_Source\PSoC5/CapSense_CompCH0_PM.c **** * Function Name: CapSense_CompCH0_SaveConfig
  27:.\Generated_Source\PSoC5/CapSense_CompCH0_PM.c **** ********************************************************************************
  28:.\Generated_Source\PSoC5/CapSense_CompCH0_PM.c **** *
  29:.\Generated_Source\PSoC5/CapSense_CompCH0_PM.c **** * Summary:
  30:.\Generated_Source\PSoC5/CapSense_CompCH0_PM.c **** *     Save the current user configuration
  31:.\Generated_Source\PSoC5/CapSense_CompCH0_PM.c **** *
  32:.\Generated_Source\PSoC5/CapSense_CompCH0_PM.c **** * Parameters:  
  33:.\Generated_Source\PSoC5/CapSense_CompCH0_PM.c **** *  void:  
  34:.\Generated_Source\PSoC5/CapSense_CompCH0_PM.c **** *
  35:.\Generated_Source\PSoC5/CapSense_CompCH0_PM.c **** * Return: 
  36:.\Generated_Source\PSoC5/CapSense_CompCH0_PM.c **** *  void
  37:.\Generated_Source\PSoC5/CapSense_CompCH0_PM.c **** *
  38:.\Generated_Source\PSoC5/CapSense_CompCH0_PM.c **** * Reentrant:
  39:.\Generated_Source\PSoC5/CapSense_CompCH0_PM.c **** *  No
  40:.\Generated_Source\PSoC5/CapSense_CompCH0_PM.c **** *
  41:.\Generated_Source\PSoC5/CapSense_CompCH0_PM.c **** *******************************************************************************/
  42:.\Generated_Source\PSoC5/CapSense_CompCH0_PM.c **** void CapSense_CompCH0_SaveConfig(void)
  43:.\Generated_Source\PSoC5/CapSense_CompCH0_PM.c **** {
  36              		.loc 1 43 0
  37              		.cfi_startproc
  38              		@ args = 0, pretend = 0, frame = 0
  39              		@ frame_needed = 1, uses_anonymous_args = 0
  40              		@ link register save eliminated.
  41 0000 80B4     		push	{r7}
  42              	.LCFI0:
  43              		.cfi_def_cfa_offset 4
  44 0002 00AF     		add	r7, sp, #0
  45              		.cfi_offset 7, -4
  46              	.LCFI1:
  47              		.cfi_def_cfa_register 7
  44:.\Generated_Source\PSoC5/CapSense_CompCH0_PM.c ****     /* Empty since all are system reset for retention flops */
  45:.\Generated_Source\PSoC5/CapSense_CompCH0_PM.c **** }
  48              		.loc 1 45 0
  49 0004 BD46     		mov	sp, r7
  50 0006 80BC     		pop	{r7}
  51 0008 7047     		bx	lr
  52              		.cfi_endproc
  53              	.LFE0:
  54              		.size	CapSense_CompCH0_SaveConfig, .-CapSense_CompCH0_SaveConfig
  55 000a 00BF     		.section	.text.CapSense_CompCH0_RestoreConfig,"ax",%progbits
  56              		.align	2
  57              		.global	CapSense_CompCH0_RestoreConfig
  58              		.thumb
  59              		.thumb_func
  60              		.type	CapSense_CompCH0_RestoreConfig, %function
  61              	CapSense_CompCH0_RestoreConfig:
  62              	.LFB1:
  46:.\Generated_Source\PSoC5/CapSense_CompCH0_PM.c **** 
  47:.\Generated_Source\PSoC5/CapSense_CompCH0_PM.c **** 
  48:.\Generated_Source\PSoC5/CapSense_CompCH0_PM.c **** /*******************************************************************************
ARM GAS  C:\Users\awkward\AppData\Local\Temp\ccbMfmcJ.s 			page 3


  49:.\Generated_Source\PSoC5/CapSense_CompCH0_PM.c **** * Function Name: CapSense_CompCH0_RestoreConfig
  50:.\Generated_Source\PSoC5/CapSense_CompCH0_PM.c **** ********************************************************************************
  51:.\Generated_Source\PSoC5/CapSense_CompCH0_PM.c **** *
  52:.\Generated_Source\PSoC5/CapSense_CompCH0_PM.c **** * Summary:
  53:.\Generated_Source\PSoC5/CapSense_CompCH0_PM.c **** *  Restores the current user configuration.
  54:.\Generated_Source\PSoC5/CapSense_CompCH0_PM.c **** *
  55:.\Generated_Source\PSoC5/CapSense_CompCH0_PM.c **** * Parameters:  
  56:.\Generated_Source\PSoC5/CapSense_CompCH0_PM.c **** *  void
  57:.\Generated_Source\PSoC5/CapSense_CompCH0_PM.c **** *
  58:.\Generated_Source\PSoC5/CapSense_CompCH0_PM.c **** * Return: 
  59:.\Generated_Source\PSoC5/CapSense_CompCH0_PM.c **** *  void
  60:.\Generated_Source\PSoC5/CapSense_CompCH0_PM.c **** *
  61:.\Generated_Source\PSoC5/CapSense_CompCH0_PM.c **** * Reentrant:
  62:.\Generated_Source\PSoC5/CapSense_CompCH0_PM.c **** *  No
  63:.\Generated_Source\PSoC5/CapSense_CompCH0_PM.c **** *
  64:.\Generated_Source\PSoC5/CapSense_CompCH0_PM.c **** *******************************************************************************/
  65:.\Generated_Source\PSoC5/CapSense_CompCH0_PM.c **** void CapSense_CompCH0_RestoreConfig(void)
  66:.\Generated_Source\PSoC5/CapSense_CompCH0_PM.c **** {
  63              		.loc 1 66 0
  64              		.cfi_startproc
  65              		@ args = 0, pretend = 0, frame = 0
  66              		@ frame_needed = 1, uses_anonymous_args = 0
  67              		@ link register save eliminated.
  68 0000 80B4     		push	{r7}
  69              	.LCFI2:
  70              		.cfi_def_cfa_offset 4
  71 0002 00AF     		add	r7, sp, #0
  72              		.cfi_offset 7, -4
  73              	.LCFI3:
  74              		.cfi_def_cfa_register 7
  67:.\Generated_Source\PSoC5/CapSense_CompCH0_PM.c ****     /* Empty since all are system reset for retention flops */    
  68:.\Generated_Source\PSoC5/CapSense_CompCH0_PM.c **** }
  75              		.loc 1 68 0
  76 0004 BD46     		mov	sp, r7
  77 0006 80BC     		pop	{r7}
  78 0008 7047     		bx	lr
  79              		.cfi_endproc
  80              	.LFE1:
  81              		.size	CapSense_CompCH0_RestoreConfig, .-CapSense_CompCH0_RestoreConfig
  82 000a 00BF     		.section	.text.CapSense_CompCH0_Sleep,"ax",%progbits
  83              		.align	2
  84              		.global	CapSense_CompCH0_Sleep
  85              		.thumb
  86              		.thumb_func
  87              		.type	CapSense_CompCH0_Sleep, %function
  88              	CapSense_CompCH0_Sleep:
  89              	.LFB2:
  69:.\Generated_Source\PSoC5/CapSense_CompCH0_PM.c **** 
  70:.\Generated_Source\PSoC5/CapSense_CompCH0_PM.c **** 
  71:.\Generated_Source\PSoC5/CapSense_CompCH0_PM.c **** /*******************************************************************************
  72:.\Generated_Source\PSoC5/CapSense_CompCH0_PM.c **** * Function Name: CapSense_CompCH0_Sleep
  73:.\Generated_Source\PSoC5/CapSense_CompCH0_PM.c **** ********************************************************************************
  74:.\Generated_Source\PSoC5/CapSense_CompCH0_PM.c **** *
  75:.\Generated_Source\PSoC5/CapSense_CompCH0_PM.c **** * Summary:
  76:.\Generated_Source\PSoC5/CapSense_CompCH0_PM.c **** *     Stop and Save the user configuration
  77:.\Generated_Source\PSoC5/CapSense_CompCH0_PM.c **** *
  78:.\Generated_Source\PSoC5/CapSense_CompCH0_PM.c **** * Parameters:  
ARM GAS  C:\Users\awkward\AppData\Local\Temp\ccbMfmcJ.s 			page 4


  79:.\Generated_Source\PSoC5/CapSense_CompCH0_PM.c **** *  void:  
  80:.\Generated_Source\PSoC5/CapSense_CompCH0_PM.c **** *
  81:.\Generated_Source\PSoC5/CapSense_CompCH0_PM.c **** * Return: 
  82:.\Generated_Source\PSoC5/CapSense_CompCH0_PM.c **** *  void
  83:.\Generated_Source\PSoC5/CapSense_CompCH0_PM.c **** *
  84:.\Generated_Source\PSoC5/CapSense_CompCH0_PM.c **** * Global variables:
  85:.\Generated_Source\PSoC5/CapSense_CompCH0_PM.c **** *  CapSense_CompCH0_backup.enableState:  Is modified depending on the enable 
  86:.\Generated_Source\PSoC5/CapSense_CompCH0_PM.c **** *   state of the block before entering sleep mode.
  87:.\Generated_Source\PSoC5/CapSense_CompCH0_PM.c **** *
  88:.\Generated_Source\PSoC5/CapSense_CompCH0_PM.c **** * Reentrant:
  89:.\Generated_Source\PSoC5/CapSense_CompCH0_PM.c **** *  No
  90:.\Generated_Source\PSoC5/CapSense_CompCH0_PM.c **** *
  91:.\Generated_Source\PSoC5/CapSense_CompCH0_PM.c **** *******************************************************************************/
  92:.\Generated_Source\PSoC5/CapSense_CompCH0_PM.c **** void CapSense_CompCH0_Sleep(void)
  93:.\Generated_Source\PSoC5/CapSense_CompCH0_PM.c **** {
  90              		.loc 1 93 0
  91              		.cfi_startproc
  92              		@ args = 0, pretend = 0, frame = 0
  93              		@ frame_needed = 1, uses_anonymous_args = 0
  94 0000 80B5     		push	{r7, lr}
  95              	.LCFI4:
  96              		.cfi_def_cfa_offset 8
  97 0002 00AF     		add	r7, sp, #0
  98              		.cfi_offset 14, -4
  99              		.cfi_offset 7, -8
 100              	.LCFI5:
 101              		.cfi_def_cfa_register 7
  94:.\Generated_Source\PSoC5/CapSense_CompCH0_PM.c ****     /* Save Comp's enable state */    
  95:.\Generated_Source\PSoC5/CapSense_CompCH0_PM.c ****     if(CapSense_CompCH0_ACT_PWR_EN == (CapSense_CompCH0_PWRMGR & CapSense_CompCH0_ACT_PWR_EN))
 102              		.loc 1 95 0
 103 0004 44F2A733 		movw	r3, #:lower16:1073759143
 104 0008 C4F20003 		movt	r3, #:upper16:1073759143
 105 000c 1B78     		ldrb	r3, [r3, #0]
 106 000e DBB2     		uxtb	r3, r3
 107 0010 03F00203 		and	r3, r3, #2
 108 0014 002B     		cmp	r3, #0
 109 0016 07D0     		beq	.L6
  96:.\Generated_Source\PSoC5/CapSense_CompCH0_PM.c ****     {
  97:.\Generated_Source\PSoC5/CapSense_CompCH0_PM.c ****         /* Comp is enabled */
  98:.\Generated_Source\PSoC5/CapSense_CompCH0_PM.c ****         CapSense_CompCH0_backup.enableState = 1u;
 110              		.loc 1 98 0
 111 0018 40F20003 		movw	r3, #:lower16:CapSense_CompCH0_backup
 112 001c C0F20003 		movt	r3, #:upper16:CapSense_CompCH0_backup
 113 0020 4FF00102 		mov	r2, #1
 114 0024 1A70     		strb	r2, [r3, #0]
 115 0026 06E0     		b	.L7
 116              	.L6:
  99:.\Generated_Source\PSoC5/CapSense_CompCH0_PM.c ****     }
 100:.\Generated_Source\PSoC5/CapSense_CompCH0_PM.c ****     else
 101:.\Generated_Source\PSoC5/CapSense_CompCH0_PM.c ****     {
 102:.\Generated_Source\PSoC5/CapSense_CompCH0_PM.c ****         /* Comp is disabled */
 103:.\Generated_Source\PSoC5/CapSense_CompCH0_PM.c ****         CapSense_CompCH0_backup.enableState = 0u;
 117              		.loc 1 103 0
 118 0028 40F20003 		movw	r3, #:lower16:CapSense_CompCH0_backup
 119 002c C0F20003 		movt	r3, #:upper16:CapSense_CompCH0_backup
 120 0030 4FF00002 		mov	r2, #0
 121 0034 1A70     		strb	r2, [r3, #0]
ARM GAS  C:\Users\awkward\AppData\Local\Temp\ccbMfmcJ.s 			page 5


 122              	.L7:
 104:.\Generated_Source\PSoC5/CapSense_CompCH0_PM.c ****     }    
 105:.\Generated_Source\PSoC5/CapSense_CompCH0_PM.c ****     
 106:.\Generated_Source\PSoC5/CapSense_CompCH0_PM.c ****     CapSense_CompCH0_Stop();
 123              		.loc 1 106 0
 124 0036 FFF7FEFF 		bl	CapSense_CompCH0_Stop
 107:.\Generated_Source\PSoC5/CapSense_CompCH0_PM.c ****     CapSense_CompCH0_SaveConfig();
 125              		.loc 1 107 0
 126 003a FFF7FEFF 		bl	CapSense_CompCH0_SaveConfig
 108:.\Generated_Source\PSoC5/CapSense_CompCH0_PM.c **** }
 127              		.loc 1 108 0
 128 003e 80BD     		pop	{r7, pc}
 129              		.cfi_endproc
 130              	.LFE2:
 131              		.size	CapSense_CompCH0_Sleep, .-CapSense_CompCH0_Sleep
 132              		.section	.text.CapSense_CompCH0_Wakeup,"ax",%progbits
 133              		.align	2
 134              		.global	CapSense_CompCH0_Wakeup
 135              		.thumb
 136              		.thumb_func
 137              		.type	CapSense_CompCH0_Wakeup, %function
 138              	CapSense_CompCH0_Wakeup:
 139              	.LFB3:
 109:.\Generated_Source\PSoC5/CapSense_CompCH0_PM.c **** 
 110:.\Generated_Source\PSoC5/CapSense_CompCH0_PM.c **** 
 111:.\Generated_Source\PSoC5/CapSense_CompCH0_PM.c **** /*******************************************************************************
 112:.\Generated_Source\PSoC5/CapSense_CompCH0_PM.c **** * Function Name: CapSense_CompCH0_Wakeup
 113:.\Generated_Source\PSoC5/CapSense_CompCH0_PM.c **** ********************************************************************************
 114:.\Generated_Source\PSoC5/CapSense_CompCH0_PM.c **** *
 115:.\Generated_Source\PSoC5/CapSense_CompCH0_PM.c **** * Summary:
 116:.\Generated_Source\PSoC5/CapSense_CompCH0_PM.c **** *  Restores and enables the user configuration
 117:.\Generated_Source\PSoC5/CapSense_CompCH0_PM.c **** *  
 118:.\Generated_Source\PSoC5/CapSense_CompCH0_PM.c **** * Parameters:  
 119:.\Generated_Source\PSoC5/CapSense_CompCH0_PM.c **** *  void
 120:.\Generated_Source\PSoC5/CapSense_CompCH0_PM.c **** *
 121:.\Generated_Source\PSoC5/CapSense_CompCH0_PM.c **** * Return: 
 122:.\Generated_Source\PSoC5/CapSense_CompCH0_PM.c **** *  void
 123:.\Generated_Source\PSoC5/CapSense_CompCH0_PM.c **** *
 124:.\Generated_Source\PSoC5/CapSense_CompCH0_PM.c **** * Global variables:
 125:.\Generated_Source\PSoC5/CapSense_CompCH0_PM.c **** *  CapSense_CompCH0_backup.enableState:  Is used to restore the enable state of 
 126:.\Generated_Source\PSoC5/CapSense_CompCH0_PM.c **** *  block on wakeup from sleep mode.
 127:.\Generated_Source\PSoC5/CapSense_CompCH0_PM.c **** *
 128:.\Generated_Source\PSoC5/CapSense_CompCH0_PM.c **** * Reentrant:
 129:.\Generated_Source\PSoC5/CapSense_CompCH0_PM.c **** *  Yes
 130:.\Generated_Source\PSoC5/CapSense_CompCH0_PM.c **** *
 131:.\Generated_Source\PSoC5/CapSense_CompCH0_PM.c **** *******************************************************************************/
 132:.\Generated_Source\PSoC5/CapSense_CompCH0_PM.c **** void CapSense_CompCH0_Wakeup(void) 
 133:.\Generated_Source\PSoC5/CapSense_CompCH0_PM.c **** {
 140              		.loc 1 133 0
 141              		.cfi_startproc
 142              		@ args = 0, pretend = 0, frame = 0
 143              		@ frame_needed = 1, uses_anonymous_args = 0
 144 0000 80B5     		push	{r7, lr}
 145              	.LCFI6:
 146              		.cfi_def_cfa_offset 8
 147 0002 00AF     		add	r7, sp, #0
 148              		.cfi_offset 14, -4
ARM GAS  C:\Users\awkward\AppData\Local\Temp\ccbMfmcJ.s 			page 6


 149              		.cfi_offset 7, -8
 150              	.LCFI7:
 151              		.cfi_def_cfa_register 7
 134:.\Generated_Source\PSoC5/CapSense_CompCH0_PM.c ****     CapSense_CompCH0_RestoreConfig();
 152              		.loc 1 134 0
 153 0004 FFF7FEFF 		bl	CapSense_CompCH0_RestoreConfig
 135:.\Generated_Source\PSoC5/CapSense_CompCH0_PM.c ****     
 136:.\Generated_Source\PSoC5/CapSense_CompCH0_PM.c ****     if(CapSense_CompCH0_backup.enableState == 1u)
 154              		.loc 1 136 0
 155 0008 40F20003 		movw	r3, #:lower16:CapSense_CompCH0_backup
 156 000c C0F20003 		movt	r3, #:upper16:CapSense_CompCH0_backup
 157 0010 1B78     		ldrb	r3, [r3, #0]	@ zero_extendqisi2
 158 0012 012B     		cmp	r3, #1
 159 0014 01D1     		bne	.L11
 137:.\Generated_Source\PSoC5/CapSense_CompCH0_PM.c ****     {
 138:.\Generated_Source\PSoC5/CapSense_CompCH0_PM.c ****         /* Enable Comp's operation */
 139:.\Generated_Source\PSoC5/CapSense_CompCH0_PM.c ****         CapSense_CompCH0_Enable();
 160              		.loc 1 139 0
 161 0016 FFF7FEFF 		bl	CapSense_CompCH0_Enable
 162              	.L11:
 140:.\Generated_Source\PSoC5/CapSense_CompCH0_PM.c **** 
 141:.\Generated_Source\PSoC5/CapSense_CompCH0_PM.c ****     } /* Do nothing if Comp was disabled before */    
 142:.\Generated_Source\PSoC5/CapSense_CompCH0_PM.c ****     
 143:.\Generated_Source\PSoC5/CapSense_CompCH0_PM.c **** }
 163              		.loc 1 143 0
 164 001a 80BD     		pop	{r7, pc}
 165              		.cfi_endproc
 166              	.LFE3:
 167              		.size	CapSense_CompCH0_Wakeup, .-CapSense_CompCH0_Wakeup
 168              		.text
 169              	.Letext0: