ARM GAS  C:\Users\awkward\AppData\Local\Temp\cclftodo.s 			page 1


   1              		.syntax unified
   2              		.cpu cortex-m3
   3              		.fpu softvfp
   4              		.eabi_attribute 20, 1
   5              		.eabi_attribute 21, 1
   6              		.eabi_attribute 23, 3
   7              		.eabi_attribute 24, 1
   8              		.eabi_attribute 25, 1
   9              		.eabi_attribute 26, 1
  10              		.eabi_attribute 30, 6
  11              		.eabi_attribute 18, 4
  12              		.thumb
  13              		.file	"CapSense_CompCH0.c"
  20 0000 5B010000 		.text
  20      02007F00 
  20      00000201 
  20      FB0E0D00 
  20      01010101 
  21              	.Ltext0:
  22              		.cfi_sections	.debug_frame
  23              		.global	CapSense_CompCH0_initVar
  24              		.bss
  25              		.type	CapSense_CompCH0_initVar, %object
  26              		.size	CapSense_CompCH0_initVar, 1
  27              	CapSense_CompCH0_initVar:
  28 0000 00       		.space	1
  29 0001 000000   		.align	2
  30              	CapSense_CompCH0_backup:
  31 0004 0000     		.space	2
  32 0006 0000     		.section	.text.CapSense_CompCH0_Init,"ax",%progbits
  33              		.align	2
  34              		.global	CapSense_CompCH0_Init
  35              		.thumb
  36              		.thumb_func
  37              		.type	CapSense_CompCH0_Init, %function
  38              	CapSense_CompCH0_Init:
  39              	.LFB0:
  40              		.file 1 ".\\Generated_Source\\PSoC5\\CapSense_CompCH0.c"
   1:.\Generated_Source\PSoC5/CapSense_CompCH0.c **** /*******************************************************************************
   2:.\Generated_Source\PSoC5/CapSense_CompCH0.c **** * File Name: CapSense_CompCH0.c  
   3:.\Generated_Source\PSoC5/CapSense_CompCH0.c **** * Version 1.70
   4:.\Generated_Source\PSoC5/CapSense_CompCH0.c **** *
   5:.\Generated_Source\PSoC5/CapSense_CompCH0.c **** *  Description:
   6:.\Generated_Source\PSoC5/CapSense_CompCH0.c **** *    This file provides the source code to the API for the Comparator component.
   7:.\Generated_Source\PSoC5/CapSense_CompCH0.c **** *
   8:.\Generated_Source\PSoC5/CapSense_CompCH0.c **** *  Note:
   9:.\Generated_Source\PSoC5/CapSense_CompCH0.c **** *     
  10:.\Generated_Source\PSoC5/CapSense_CompCH0.c **** *******************************************************************************
  11:.\Generated_Source\PSoC5/CapSense_CompCH0.c **** * Copyright 2008-2011, Cypress Semiconductor Corporation.  All rights reserved.
  12:.\Generated_Source\PSoC5/CapSense_CompCH0.c **** * You may use this file only in accordance with the license, terms, conditions, 
  13:.\Generated_Source\PSoC5/CapSense_CompCH0.c **** * disclaimers, and limitations in the end user license agreement accompanying 
ARM GAS  C:\Users\awkward\AppData\Local\Temp\cclftodo.s 			page 2


  14:.\Generated_Source\PSoC5/CapSense_CompCH0.c **** * the software package with which this file was provided.
  15:.\Generated_Source\PSoC5/CapSense_CompCH0.c **** ********************************************************************************/
  16:.\Generated_Source\PSoC5/CapSense_CompCH0.c **** 
  17:.\Generated_Source\PSoC5/CapSense_CompCH0.c **** #include "CapSense_CompCH0.h"
  18:.\Generated_Source\PSoC5/CapSense_CompCH0.c **** 
  19:.\Generated_Source\PSoC5/CapSense_CompCH0.c **** uint8 CapSense_CompCH0_initVar = 0u;
  20:.\Generated_Source\PSoC5/CapSense_CompCH0.c **** static CapSense_CompCH0_backupStruct  CapSense_CompCH0_backup;
  21:.\Generated_Source\PSoC5/CapSense_CompCH0.c **** 
  22:.\Generated_Source\PSoC5/CapSense_CompCH0.c **** /* variable to decide whether or not to restore the control register in 
  23:.\Generated_Source\PSoC5/CapSense_CompCH0.c ****    Enable() API for PSoC5 ES1 only */
  24:.\Generated_Source\PSoC5/CapSense_CompCH0.c **** #if (CY_PSOC5_ES1)
  25:.\Generated_Source\PSoC5/CapSense_CompCH0.c ****     uint8 CapSense_CompCH0_restoreReg = 0u;
  26:.\Generated_Source\PSoC5/CapSense_CompCH0.c **** #endif /* CY_PSOC5_ES1 */
  27:.\Generated_Source\PSoC5/CapSense_CompCH0.c **** 
  28:.\Generated_Source\PSoC5/CapSense_CompCH0.c **** 
  29:.\Generated_Source\PSoC5/CapSense_CompCH0.c **** /*******************************************************************************
  30:.\Generated_Source\PSoC5/CapSense_CompCH0.c **** * Function Name: CapSense_CompCH0_Init
  31:.\Generated_Source\PSoC5/CapSense_CompCH0.c **** ********************************************************************************
  32:.\Generated_Source\PSoC5/CapSense_CompCH0.c **** *
  33:.\Generated_Source\PSoC5/CapSense_CompCH0.c **** * Summary:
  34:.\Generated_Source\PSoC5/CapSense_CompCH0.c **** *  Initialize to the schematic state
  35:.\Generated_Source\PSoC5/CapSense_CompCH0.c **** * 
  36:.\Generated_Source\PSoC5/CapSense_CompCH0.c **** * Parameters:  
  37:.\Generated_Source\PSoC5/CapSense_CompCH0.c **** *  void  
  38:.\Generated_Source\PSoC5/CapSense_CompCH0.c **** *
  39:.\Generated_Source\PSoC5/CapSense_CompCH0.c **** * Return: 
  40:.\Generated_Source\PSoC5/CapSense_CompCH0.c **** *  void
  41:.\Generated_Source\PSoC5/CapSense_CompCH0.c **** *
  42:.\Generated_Source\PSoC5/CapSense_CompCH0.c **** * Reentrant:
  43:.\Generated_Source\PSoC5/CapSense_CompCH0.c **** *  Yes
  44:.\Generated_Source\PSoC5/CapSense_CompCH0.c **** *
  45:.\Generated_Source\PSoC5/CapSense_CompCH0.c **** *******************************************************************************/
  46:.\Generated_Source\PSoC5/CapSense_CompCH0.c **** void CapSense_CompCH0_Init(void) 
  47:.\Generated_Source\PSoC5/CapSense_CompCH0.c **** {
  41              		.loc 1 47 0
  42              		.cfi_startproc
  43              		@ args = 0, pretend = 0, frame = 0
  44              		@ frame_needed = 1, uses_anonymous_args = 0
  45 0000 80B5     		push	{r7, lr}
  46              	.LCFI0:
  47              		.cfi_def_cfa_offset 8
  48 0002 00AF     		add	r7, sp, #0
  49              		.cfi_offset 14, -4
  50              		.cfi_offset 7, -8
  51              	.LCFI1:
  52              		.cfi_def_cfa_register 7
  48:.\Generated_Source\PSoC5/CapSense_CompCH0.c ****     /* Set default speed/power */
  49:.\Generated_Source\PSoC5/CapSense_CompCH0.c ****     CapSense_CompCH0_SetSpeed(CapSense_CompCH0_DEFAULT_SPEED);
  53              		.loc 1 49 0
  54 0004 4FF00000 		mov	r0, #0
  55 0008 FFF7FEFF 		bl	CapSense_CompCH0_SetSpeed
  50:.\Generated_Source\PSoC5/CapSense_CompCH0.c **** 
  51:.\Generated_Source\PSoC5/CapSense_CompCH0.c ****     /* Set default Hysteresis */
  52:.\Generated_Source\PSoC5/CapSense_CompCH0.c ****     if ( CapSense_CompCH0_DEFAULT_HYSTERESIS == 0u )
  53:.\Generated_Source\PSoC5/CapSense_CompCH0.c ****     {
  54:.\Generated_Source\PSoC5/CapSense_CompCH0.c ****         CapSense_CompCH0_CR |= CapSense_CompCH0_HYST_OFF;
  56              		.loc 1 54 0
ARM GAS  C:\Users\awkward\AppData\Local\Temp\cclftodo.s 			page 3


  57 000c 45F64203 		movw	r3, #:lower16:1073764418
  58 0010 C4F20003 		movt	r3, #:upper16:1073764418
  59 0014 45F64202 		movw	r2, #:lower16:1073764418
  60 0018 C4F20002 		movt	r2, #:upper16:1073764418
  61 001c 1278     		ldrb	r2, [r2, #0]
  62 001e D2B2     		uxtb	r2, r2
  63 0020 42F02002 		orr	r2, r2, #32
  64 0024 D2B2     		uxtb	r2, r2
  65 0026 1A70     		strb	r2, [r3, #0]
  55:.\Generated_Source\PSoC5/CapSense_CompCH0.c ****     }
  56:.\Generated_Source\PSoC5/CapSense_CompCH0.c ****     else
  57:.\Generated_Source\PSoC5/CapSense_CompCH0.c ****     {
  58:.\Generated_Source\PSoC5/CapSense_CompCH0.c ****         CapSense_CompCH0_CR &= ~CapSense_CompCH0_HYST_OFF; 
  59:.\Generated_Source\PSoC5/CapSense_CompCH0.c ****     }
  60:.\Generated_Source\PSoC5/CapSense_CompCH0.c ****     
  61:.\Generated_Source\PSoC5/CapSense_CompCH0.c ****     /* Power down override feature is not supported for PSoC5. */
  62:.\Generated_Source\PSoC5/CapSense_CompCH0.c ****     #if (CY_PSOC3)
  63:.\Generated_Source\PSoC5/CapSense_CompCH0.c ****         /* Set default Power Down Override */
  64:.\Generated_Source\PSoC5/CapSense_CompCH0.c ****         if ( CapSense_CompCH0_DEFAULT_PWRDWN_OVRD == 0u )
  65:.\Generated_Source\PSoC5/CapSense_CompCH0.c ****         {
  66:.\Generated_Source\PSoC5/CapSense_CompCH0.c ****             CapSense_CompCH0_CR &= ~CapSense_CompCH0_PWRDWN_OVRD;
  67:.\Generated_Source\PSoC5/CapSense_CompCH0.c ****         }
  68:.\Generated_Source\PSoC5/CapSense_CompCH0.c ****         else 
  69:.\Generated_Source\PSoC5/CapSense_CompCH0.c ****         {
  70:.\Generated_Source\PSoC5/CapSense_CompCH0.c ****             CapSense_CompCH0_CR |= CapSense_CompCH0_PWRDWN_OVRD;
  71:.\Generated_Source\PSoC5/CapSense_CompCH0.c ****         }
  72:.\Generated_Source\PSoC5/CapSense_CompCH0.c ****     #endif /* CY_PSOC3 */
  73:.\Generated_Source\PSoC5/CapSense_CompCH0.c ****     
  74:.\Generated_Source\PSoC5/CapSense_CompCH0.c ****     /* Set mux always on logic */
  75:.\Generated_Source\PSoC5/CapSense_CompCH0.c ****     CapSense_CompCH0_CR |= CapSense_CompCH0_MX_AO;
  66              		.loc 1 75 0
  67 0028 45F64203 		movw	r3, #:lower16:1073764418
  68 002c C4F20003 		movt	r3, #:upper16:1073764418
  69 0030 45F64202 		movw	r2, #:lower16:1073764418
  70 0034 C4F20002 		movt	r2, #:upper16:1073764418
  71 0038 1278     		ldrb	r2, [r2, #0]
  72 003a D2B2     		uxtb	r2, r2
  73 003c 42F00802 		orr	r2, r2, #8
  74 0040 D2B2     		uxtb	r2, r2
  75 0042 1A70     		strb	r2, [r3, #0]
  76:.\Generated_Source\PSoC5/CapSense_CompCH0.c **** 
  77:.\Generated_Source\PSoC5/CapSense_CompCH0.c ****     /* Set default sync */
  78:.\Generated_Source\PSoC5/CapSense_CompCH0.c ****     CapSense_CompCH0_CLK &= ~CapSense_CompCH0_SYNCCLK_MASK;
  76              		.loc 1 78 0
  77 0044 45F6D723 		movw	r3, #:lower16:1073765079
  78 0048 C4F20003 		movt	r3, #:upper16:1073765079
  79 004c 45F6D722 		movw	r2, #:lower16:1073765079
  80 0050 C4F20002 		movt	r2, #:upper16:1073765079
  81 0054 1278     		ldrb	r2, [r2, #0]
  82 0056 D2B2     		uxtb	r2, r2
  83 0058 02F0E702 		and	r2, r2, #231
  84 005c 1A70     		strb	r2, [r3, #0]
  79:.\Generated_Source\PSoC5/CapSense_CompCH0.c ****     if ( CapSense_CompCH0_DEFAULT_BYPASS_SYNC == 0u )
  80:.\Generated_Source\PSoC5/CapSense_CompCH0.c ****     {
  81:.\Generated_Source\PSoC5/CapSense_CompCH0.c ****         CapSense_CompCH0_CLK |= CapSense_CompCH0_SYNC_CLK_EN;
  82:.\Generated_Source\PSoC5/CapSense_CompCH0.c ****     }
  83:.\Generated_Source\PSoC5/CapSense_CompCH0.c ****     else
ARM GAS  C:\Users\awkward\AppData\Local\Temp\cclftodo.s 			page 4


  84:.\Generated_Source\PSoC5/CapSense_CompCH0.c ****     {
  85:.\Generated_Source\PSoC5/CapSense_CompCH0.c ****         CapSense_CompCH0_CLK |= CapSense_CompCH0_BYPASS_SYNC;
  85              		.loc 1 85 0
  86 005e 45F6D723 		movw	r3, #:lower16:1073765079
  87 0062 C4F20003 		movt	r3, #:upper16:1073765079
  88 0066 45F6D722 		movw	r2, #:lower16:1073765079
  89 006a C4F20002 		movt	r2, #:upper16:1073765079
  90 006e 1278     		ldrb	r2, [r2, #0]
  91 0070 D2B2     		uxtb	r2, r2
  92 0072 42F01002 		orr	r2, r2, #16
  93 0076 D2B2     		uxtb	r2, r2
  94 0078 1A70     		strb	r2, [r3, #0]
  86:.\Generated_Source\PSoC5/CapSense_CompCH0.c ****     }
  87:.\Generated_Source\PSoC5/CapSense_CompCH0.c **** }
  95              		.loc 1 87 0
  96 007a 80BD     		pop	{r7, pc}
  97              		.cfi_endproc
  98              	.LFE0:
  99              		.size	CapSense_CompCH0_Init, .-CapSense_CompCH0_Init
 100              		.section	.text.CapSense_CompCH0_Enable,"ax",%progbits
 101              		.align	2
 102              		.global	CapSense_CompCH0_Enable
 103              		.thumb
 104              		.thumb_func
 105              		.type	CapSense_CompCH0_Enable, %function
 106              	CapSense_CompCH0_Enable:
 107              	.LFB1:
  88:.\Generated_Source\PSoC5/CapSense_CompCH0.c **** 
  89:.\Generated_Source\PSoC5/CapSense_CompCH0.c **** 
  90:.\Generated_Source\PSoC5/CapSense_CompCH0.c **** /*******************************************************************************
  91:.\Generated_Source\PSoC5/CapSense_CompCH0.c **** * Function Name: CapSense_CompCH0_Enable
  92:.\Generated_Source\PSoC5/CapSense_CompCH0.c **** ********************************************************************************
  93:.\Generated_Source\PSoC5/CapSense_CompCH0.c **** *
  94:.\Generated_Source\PSoC5/CapSense_CompCH0.c **** * Summary:
  95:.\Generated_Source\PSoC5/CapSense_CompCH0.c **** *  Enable the Comparator
  96:.\Generated_Source\PSoC5/CapSense_CompCH0.c **** * 
  97:.\Generated_Source\PSoC5/CapSense_CompCH0.c **** * Parameters:  
  98:.\Generated_Source\PSoC5/CapSense_CompCH0.c **** *  void  
  99:.\Generated_Source\PSoC5/CapSense_CompCH0.c **** *
 100:.\Generated_Source\PSoC5/CapSense_CompCH0.c **** * Return: 
 101:.\Generated_Source\PSoC5/CapSense_CompCH0.c **** *  void
 102:.\Generated_Source\PSoC5/CapSense_CompCH0.c **** *
 103:.\Generated_Source\PSoC5/CapSense_CompCH0.c **** * Reentrant:
 104:.\Generated_Source\PSoC5/CapSense_CompCH0.c **** *  Yes
 105:.\Generated_Source\PSoC5/CapSense_CompCH0.c **** *
 106:.\Generated_Source\PSoC5/CapSense_CompCH0.c **** *******************************************************************************/
 107:.\Generated_Source\PSoC5/CapSense_CompCH0.c **** void CapSense_CompCH0_Enable(void) 
 108:.\Generated_Source\PSoC5/CapSense_CompCH0.c **** {
 108              		.loc 1 108 0
 109              		.cfi_startproc
 110              		@ args = 0, pretend = 0, frame = 0
 111              		@ frame_needed = 1, uses_anonymous_args = 0
 112              		@ link register save eliminated.
 113 0000 80B4     		push	{r7}
 114              	.LCFI2:
 115              		.cfi_def_cfa_offset 4
 116 0002 00AF     		add	r7, sp, #0
ARM GAS  C:\Users\awkward\AppData\Local\Temp\cclftodo.s 			page 5


 117              		.cfi_offset 7, -4
 118              	.LCFI3:
 119              		.cfi_def_cfa_register 7
 109:.\Generated_Source\PSoC5/CapSense_CompCH0.c ****     CapSense_CompCH0_PWRMGR |= CapSense_CompCH0_ACT_PWR_EN;
 120              		.loc 1 109 0
 121 0004 44F2A733 		movw	r3, #:lower16:1073759143
 122 0008 C4F20003 		movt	r3, #:upper16:1073759143
 123 000c 44F2A732 		movw	r2, #:lower16:1073759143
 124 0010 C4F20002 		movt	r2, #:upper16:1073759143
 125 0014 1278     		ldrb	r2, [r2, #0]
 126 0016 D2B2     		uxtb	r2, r2
 127 0018 42F00202 		orr	r2, r2, #2
 128 001c D2B2     		uxtb	r2, r2
 129 001e 1A70     		strb	r2, [r3, #0]
 110:.\Generated_Source\PSoC5/CapSense_CompCH0.c ****     CapSense_CompCH0_STBY_PWRMGR |= CapSense_CompCH0_STBY_PWR_EN;
 130              		.loc 1 110 0
 131 0020 44F2B733 		movw	r3, #:lower16:1073759159
 132 0024 C4F20003 		movt	r3, #:upper16:1073759159
 133 0028 44F2B732 		movw	r2, #:lower16:1073759159
 134 002c C4F20002 		movt	r2, #:upper16:1073759159
 135 0030 1278     		ldrb	r2, [r2, #0]
 136 0032 D2B2     		uxtb	r2, r2
 137 0034 42F00202 		orr	r2, r2, #2
 138 0038 D2B2     		uxtb	r2, r2
 139 003a 1A70     		strb	r2, [r3, #0]
 111:.\Generated_Source\PSoC5/CapSense_CompCH0.c ****      
 112:.\Generated_Source\PSoC5/CapSense_CompCH0.c ****      /* This is to restore the value of register CR which is saved 
 113:.\Generated_Source\PSoC5/CapSense_CompCH0.c ****     in prior to the modification in stop() API */
 114:.\Generated_Source\PSoC5/CapSense_CompCH0.c ****     #if (CY_PSOC5_ES1)
 115:.\Generated_Source\PSoC5/CapSense_CompCH0.c ****     if(CapSense_CompCH0_restoreReg == 1u)
 116:.\Generated_Source\PSoC5/CapSense_CompCH0.c ****     {
 117:.\Generated_Source\PSoC5/CapSense_CompCH0.c ****         CapSense_CompCH0_CR = CapSense_CompCH0_backup.compCRReg;
 118:.\Generated_Source\PSoC5/CapSense_CompCH0.c **** 
 119:.\Generated_Source\PSoC5/CapSense_CompCH0.c ****         /* Clear the flag */
 120:.\Generated_Source\PSoC5/CapSense_CompCH0.c ****         CapSense_CompCH0_restoreReg = 0u;
 121:.\Generated_Source\PSoC5/CapSense_CompCH0.c ****     }
 122:.\Generated_Source\PSoC5/CapSense_CompCH0.c ****     #endif /* CY_PSOC5_ES1 */
 123:.\Generated_Source\PSoC5/CapSense_CompCH0.c **** }
 140              		.loc 1 123 0
 141 003c BD46     		mov	sp, r7
 142 003e 80BC     		pop	{r7}
 143 0040 7047     		bx	lr
 144              		.cfi_endproc
 145              	.LFE1:
 146              		.size	CapSense_CompCH0_Enable, .-CapSense_CompCH0_Enable
 147 0042 00BF     		.section	.text.CapSense_CompCH0_Start,"ax",%progbits
 148              		.align	2
 149              		.global	CapSense_CompCH0_Start
 150              		.thumb
 151              		.thumb_func
 152              		.type	CapSense_CompCH0_Start, %function
 153              	CapSense_CompCH0_Start:
 154              	.LFB2:
 124:.\Generated_Source\PSoC5/CapSense_CompCH0.c **** 
 125:.\Generated_Source\PSoC5/CapSense_CompCH0.c **** 
 126:.\Generated_Source\PSoC5/CapSense_CompCH0.c **** /*******************************************************************************
 127:.\Generated_Source\PSoC5/CapSense_CompCH0.c **** * Function Name: CapSense_CompCH0_Start
ARM GAS  C:\Users\awkward\AppData\Local\Temp\cclftodo.s 			page 6


 128:.\Generated_Source\PSoC5/CapSense_CompCH0.c **** ********************************************************************************
 129:.\Generated_Source\PSoC5/CapSense_CompCH0.c **** *
 130:.\Generated_Source\PSoC5/CapSense_CompCH0.c **** * Summary:
 131:.\Generated_Source\PSoC5/CapSense_CompCH0.c **** *  The start function initializes the Analog Comparator with the default values.
 132:.\Generated_Source\PSoC5/CapSense_CompCH0.c **** *
 133:.\Generated_Source\PSoC5/CapSense_CompCH0.c **** * Parameters:
 134:.\Generated_Source\PSoC5/CapSense_CompCH0.c **** *  void
 135:.\Generated_Source\PSoC5/CapSense_CompCH0.c **** *
 136:.\Generated_Source\PSoC5/CapSense_CompCH0.c **** * Return:  
 137:.\Generated_Source\PSoC5/CapSense_CompCH0.c **** *  void 
 138:.\Generated_Source\PSoC5/CapSense_CompCH0.c **** *
 139:.\Generated_Source\PSoC5/CapSense_CompCH0.c **** * Global variables:
 140:.\Generated_Source\PSoC5/CapSense_CompCH0.c **** *  CapSense_CompCH0_initVar: Is modified when this function is called for the 
 141:.\Generated_Source\PSoC5/CapSense_CompCH0.c **** *    first time. Is used to ensure that initialization happens only once.
 142:.\Generated_Source\PSoC5/CapSense_CompCH0.c **** *  
 143:.\Generated_Source\PSoC5/CapSense_CompCH0.c **** * Reentrant:
 144:.\Generated_Source\PSoC5/CapSense_CompCH0.c **** *  No
 145:.\Generated_Source\PSoC5/CapSense_CompCH0.c **** *
 146:.\Generated_Source\PSoC5/CapSense_CompCH0.c **** *******************************************************************************/
 147:.\Generated_Source\PSoC5/CapSense_CompCH0.c **** void CapSense_CompCH0_Start(void) 
 148:.\Generated_Source\PSoC5/CapSense_CompCH0.c **** {
 155              		.loc 1 148 0
 156              		.cfi_startproc
 157              		@ args = 0, pretend = 0, frame = 0
 158              		@ frame_needed = 1, uses_anonymous_args = 0
 159 0000 80B5     		push	{r7, lr}
 160              	.LCFI4:
 161              		.cfi_def_cfa_offset 8
 162 0002 00AF     		add	r7, sp, #0
 163              		.cfi_offset 14, -4
 164              		.cfi_offset 7, -8
 165              	.LCFI5:
 166              		.cfi_def_cfa_register 7
 149:.\Generated_Source\PSoC5/CapSense_CompCH0.c **** 
 150:.\Generated_Source\PSoC5/CapSense_CompCH0.c ****     if ( CapSense_CompCH0_initVar == 0u )
 167              		.loc 1 150 0
 168 0004 40F20003 		movw	r3, #:lower16:CapSense_CompCH0_initVar
 169 0008 C0F20003 		movt	r3, #:upper16:CapSense_CompCH0_initVar
 170 000c 1B78     		ldrb	r3, [r3, #0]	@ zero_extendqisi2
 171 000e 002B     		cmp	r3, #0
 172 0010 08D1     		bne	.L6
 151:.\Generated_Source\PSoC5/CapSense_CompCH0.c ****     {
 152:.\Generated_Source\PSoC5/CapSense_CompCH0.c ****         CapSense_CompCH0_Init();
 173              		.loc 1 152 0
 174 0012 FFF7FEFF 		bl	CapSense_CompCH0_Init
 153:.\Generated_Source\PSoC5/CapSense_CompCH0.c ****         
 154:.\Generated_Source\PSoC5/CapSense_CompCH0.c ****         CapSense_CompCH0_initVar = 1u;
 175              		.loc 1 154 0
 176 0016 40F20003 		movw	r3, #:lower16:CapSense_CompCH0_initVar
 177 001a C0F20003 		movt	r3, #:upper16:CapSense_CompCH0_initVar
 178 001e 4FF00102 		mov	r2, #1
 179 0022 1A70     		strb	r2, [r3, #0]
 180              	.L6:
 155:.\Generated_Source\PSoC5/CapSense_CompCH0.c ****     }    
 156:.\Generated_Source\PSoC5/CapSense_CompCH0.c **** 
 157:.\Generated_Source\PSoC5/CapSense_CompCH0.c ****     /* Enable power to comparator */
 158:.\Generated_Source\PSoC5/CapSense_CompCH0.c ****     CapSense_CompCH0_Enable();    
ARM GAS  C:\Users\awkward\AppData\Local\Temp\cclftodo.s 			page 7


 181              		.loc 1 158 0
 182 0024 FFF7FEFF 		bl	CapSense_CompCH0_Enable
 159:.\Generated_Source\PSoC5/CapSense_CompCH0.c **** }
 183              		.loc 1 159 0
 184 0028 80BD     		pop	{r7, pc}
 185              		.cfi_endproc
 186              	.LFE2:
 187              		.size	CapSense_CompCH0_Start, .-CapSense_CompCH0_Start
 188 002a 00BF     		.section	.text.CapSense_CompCH0_Stop,"ax",%progbits
 189              		.align	2
 190              		.global	CapSense_CompCH0_Stop
 191              		.thumb
 192              		.thumb_func
 193              		.type	CapSense_CompCH0_Stop, %function
 194              	CapSense_CompCH0_Stop:
 195              	.LFB3:
 160:.\Generated_Source\PSoC5/CapSense_CompCH0.c **** 
 161:.\Generated_Source\PSoC5/CapSense_CompCH0.c **** 
 162:.\Generated_Source\PSoC5/CapSense_CompCH0.c **** /*******************************************************************************
 163:.\Generated_Source\PSoC5/CapSense_CompCH0.c **** * Function Name: CapSense_CompCH0_Stop
 164:.\Generated_Source\PSoC5/CapSense_CompCH0.c **** ********************************************************************************
 165:.\Generated_Source\PSoC5/CapSense_CompCH0.c **** *
 166:.\Generated_Source\PSoC5/CapSense_CompCH0.c **** * Summary:
 167:.\Generated_Source\PSoC5/CapSense_CompCH0.c **** *  Powers down amplifier to lowest power state.
 168:.\Generated_Source\PSoC5/CapSense_CompCH0.c **** *
 169:.\Generated_Source\PSoC5/CapSense_CompCH0.c **** * Parameters:  
 170:.\Generated_Source\PSoC5/CapSense_CompCH0.c **** *  void
 171:.\Generated_Source\PSoC5/CapSense_CompCH0.c **** *
 172:.\Generated_Source\PSoC5/CapSense_CompCH0.c **** * Return: 
 173:.\Generated_Source\PSoC5/CapSense_CompCH0.c **** *  void 
 174:.\Generated_Source\PSoC5/CapSense_CompCH0.c **** *
 175:.\Generated_Source\PSoC5/CapSense_CompCH0.c **** * Reentrant:
 176:.\Generated_Source\PSoC5/CapSense_CompCH0.c **** *  Yes
 177:.\Generated_Source\PSoC5/CapSense_CompCH0.c **** *
 178:.\Generated_Source\PSoC5/CapSense_CompCH0.c **** *******************************************************************************/
 179:.\Generated_Source\PSoC5/CapSense_CompCH0.c **** void CapSense_CompCH0_Stop(void) 
 180:.\Generated_Source\PSoC5/CapSense_CompCH0.c **** {
 196              		.loc 1 180 0
 197              		.cfi_startproc
 198              		@ args = 0, pretend = 0, frame = 0
 199              		@ frame_needed = 1, uses_anonymous_args = 0
 200              		@ link register save eliminated.
 201 0000 80B4     		push	{r7}
 202              	.LCFI6:
 203              		.cfi_def_cfa_offset 4
 204 0002 00AF     		add	r7, sp, #0
 205              		.cfi_offset 7, -4
 206              	.LCFI7:
 207              		.cfi_def_cfa_register 7
 181:.\Generated_Source\PSoC5/CapSense_CompCH0.c ****     /* Disable power to comparator */
 182:.\Generated_Source\PSoC5/CapSense_CompCH0.c ****     CapSense_CompCH0_PWRMGR &= ~CapSense_CompCH0_ACT_PWR_EN;
 208              		.loc 1 182 0
 209 0004 44F2A733 		movw	r3, #:lower16:1073759143
 210 0008 C4F20003 		movt	r3, #:upper16:1073759143
 211 000c 44F2A732 		movw	r2, #:lower16:1073759143
 212 0010 C4F20002 		movt	r2, #:upper16:1073759143
 213 0014 1278     		ldrb	r2, [r2, #0]
ARM GAS  C:\Users\awkward\AppData\Local\Temp\cclftodo.s 			page 8


 214 0016 D2B2     		uxtb	r2, r2
 215 0018 02F0FD02 		and	r2, r2, #253
 216 001c 1A70     		strb	r2, [r3, #0]
 183:.\Generated_Source\PSoC5/CapSense_CompCH0.c ****     CapSense_CompCH0_STBY_PWRMGR &= ~CapSense_CompCH0_STBY_PWR_EN;    
 217              		.loc 1 183 0
 218 001e 44F2B733 		movw	r3, #:lower16:1073759159
 219 0022 C4F20003 		movt	r3, #:upper16:1073759159
 220 0026 44F2B732 		movw	r2, #:lower16:1073759159
 221 002a C4F20002 		movt	r2, #:upper16:1073759159
 222 002e 1278     		ldrb	r2, [r2, #0]
 223 0030 D2B2     		uxtb	r2, r2
 224 0032 02F0FD02 		and	r2, r2, #253
 225 0036 1A70     		strb	r2, [r3, #0]
 184:.\Generated_Source\PSoC5/CapSense_CompCH0.c **** 
 185:.\Generated_Source\PSoC5/CapSense_CompCH0.c ****     #if (CY_PSOC5_ES1)
 186:.\Generated_Source\PSoC5/CapSense_CompCH0.c ****         /* Enable the variable */
 187:.\Generated_Source\PSoC5/CapSense_CompCH0.c ****         CapSense_CompCH0_restoreReg = 1u;
 188:.\Generated_Source\PSoC5/CapSense_CompCH0.c **** 
 189:.\Generated_Source\PSoC5/CapSense_CompCH0.c ****         /* Save the control register before clearing it */
 190:.\Generated_Source\PSoC5/CapSense_CompCH0.c ****         CapSense_CompCH0_backup.compCRReg = CapSense_CompCH0_CR;
 191:.\Generated_Source\PSoC5/CapSense_CompCH0.c ****         CapSense_CompCH0_CR = CapSense_CompCH0_COMP_REG_CLR;
 192:.\Generated_Source\PSoC5/CapSense_CompCH0.c ****     #endif /* CY_PSOC5_ES1 */
 193:.\Generated_Source\PSoC5/CapSense_CompCH0.c **** }
 226              		.loc 1 193 0
 227 0038 BD46     		mov	sp, r7
 228 003a 80BC     		pop	{r7}
 229 003c 7047     		bx	lr
 230              		.cfi_endproc
 231              	.LFE3:
 232              		.size	CapSense_CompCH0_Stop, .-CapSense_CompCH0_Stop
 233 003e 00BF     		.section	.text.CapSense_CompCH0_SetSpeed,"ax",%progbits
 234              		.align	2
 235              		.global	CapSense_CompCH0_SetSpeed
 236              		.thumb
 237              		.thumb_func
 238              		.type	CapSense_CompCH0_SetSpeed, %function
 239              	CapSense_CompCH0_SetSpeed:
 240              	.LFB4:
 194:.\Generated_Source\PSoC5/CapSense_CompCH0.c **** 
 195:.\Generated_Source\PSoC5/CapSense_CompCH0.c **** 
 196:.\Generated_Source\PSoC5/CapSense_CompCH0.c **** /*******************************************************************************
 197:.\Generated_Source\PSoC5/CapSense_CompCH0.c **** * Function Name: CapSense_CompCH0_SetSpeed
 198:.\Generated_Source\PSoC5/CapSense_CompCH0.c **** ********************************************************************************
 199:.\Generated_Source\PSoC5/CapSense_CompCH0.c **** *
 200:.\Generated_Source\PSoC5/CapSense_CompCH0.c **** * Summary:
 201:.\Generated_Source\PSoC5/CapSense_CompCH0.c **** *  This function sets the speed of the Analog Comparator.  The faster the speed
 202:.\Generated_Source\PSoC5/CapSense_CompCH0.c **** *  the more power that is used.
 203:.\Generated_Source\PSoC5/CapSense_CompCH0.c **** *
 204:.\Generated_Source\PSoC5/CapSense_CompCH0.c **** * Parameters:  
 205:.\Generated_Source\PSoC5/CapSense_CompCH0.c **** *  speed:   (uint8) Sets operation mode of Comparator
 206:.\Generated_Source\PSoC5/CapSense_CompCH0.c **** *
 207:.\Generated_Source\PSoC5/CapSense_CompCH0.c **** * Return:  
 208:.\Generated_Source\PSoC5/CapSense_CompCH0.c **** *  void 
 209:.\Generated_Source\PSoC5/CapSense_CompCH0.c **** *
 210:.\Generated_Source\PSoC5/CapSense_CompCH0.c **** * Reentrant:
 211:.\Generated_Source\PSoC5/CapSense_CompCH0.c **** *  Yes
 212:.\Generated_Source\PSoC5/CapSense_CompCH0.c **** *
ARM GAS  C:\Users\awkward\AppData\Local\Temp\cclftodo.s 			page 9


 213:.\Generated_Source\PSoC5/CapSense_CompCH0.c **** *******************************************************************************/
 214:.\Generated_Source\PSoC5/CapSense_CompCH0.c **** void CapSense_CompCH0_SetSpeed(uint8 speed) 
 215:.\Generated_Source\PSoC5/CapSense_CompCH0.c **** {
 241              		.loc 1 215 0
 242              		.cfi_startproc
 243              		@ args = 0, pretend = 0, frame = 8
 244              		@ frame_needed = 1, uses_anonymous_args = 0
 245              		@ link register save eliminated.
 246 0000 80B4     		push	{r7}
 247              	.LCFI8:
 248              		.cfi_def_cfa_offset 4
 249 0002 83B0     		sub	sp, sp, #12
 250              	.LCFI9:
 251              		.cfi_def_cfa_offset 16
 252 0004 00AF     		add	r7, sp, #0
 253              		.cfi_offset 7, -4
 254              	.LCFI10:
 255              		.cfi_def_cfa_register 7
 256 0006 0346     		mov	r3, r0
 257 0008 FB71     		strb	r3, [r7, #7]
 216:.\Generated_Source\PSoC5/CapSense_CompCH0.c ****     /* Clear and Set power level */    
 217:.\Generated_Source\PSoC5/CapSense_CompCH0.c ****     CapSense_CompCH0_CR = (CapSense_CompCH0_CR & ~CapSense_CompCH0_PWR_MODE_MASK) |
 258              		.loc 1 217 0
 259 000a 45F64203 		movw	r3, #:lower16:1073764418
 260 000e C4F20003 		movt	r3, #:upper16:1073764418
 261 0012 45F64202 		movw	r2, #:lower16:1073764418
 262 0016 C4F20002 		movt	r2, #:upper16:1073764418
 263 001a 1278     		ldrb	r2, [r2, #0]
 264 001c D2B2     		uxtb	r2, r2
 265 001e 1146     		mov	r1, r2
 266 0020 01F0FC01 		and	r1, r1, #252
 267 0024 FA79     		ldrb	r2, [r7, #7]	@ zero_extendqisi2
 268 0026 02F00302 		and	r2, r2, #3
 269 002a 41EA0202 		orr	r2, r1, r2
 270 002e D2B2     		uxtb	r2, r2
 271 0030 1A70     		strb	r2, [r3, #0]
 218:.\Generated_Source\PSoC5/CapSense_CompCH0.c ****                            (speed & CapSense_CompCH0_PWR_MODE_MASK);
 219:.\Generated_Source\PSoC5/CapSense_CompCH0.c **** 
 220:.\Generated_Source\PSoC5/CapSense_CompCH0.c ****     /* Set trim value for high speed comparator */
 221:.\Generated_Source\PSoC5/CapSense_CompCH0.c ****     if(speed == CapSense_CompCH0_HIGHSPEED)
 222:.\Generated_Source\PSoC5/CapSense_CompCH0.c ****     {
 223:.\Generated_Source\PSoC5/CapSense_CompCH0.c ****         /* PSoC3 ES2 or early, PSoC5 ES1 or early */
 224:.\Generated_Source\PSoC5/CapSense_CompCH0.c ****         #if (CY_PSOC3_ES2 || CY_PSOC5_ES1)
 225:.\Generated_Source\PSoC5/CapSense_CompCH0.c ****         CapSense_CompCH0_TR = CapSense_CompCH0_HS_TRIM_TR0;
 226:.\Generated_Source\PSoC5/CapSense_CompCH0.c ****         #endif /* CY_PSOC3_ES2 || CY_PSOC5_ES1 */
 227:.\Generated_Source\PSoC5/CapSense_CompCH0.c ****         
 228:.\Generated_Source\PSoC5/CapSense_CompCH0.c ****         /* PSoC3 ES3 or later, PSoC5 ES2 or later */
 229:.\Generated_Source\PSoC5/CapSense_CompCH0.c ****         #if (CY_PSOC3_ES3 || CY_PSOC5_ES2) 
 230:.\Generated_Source\PSoC5/CapSense_CompCH0.c ****         CapSense_CompCH0_TR0 = CapSense_CompCH0_HS_TRIM_TR0;
 231:.\Generated_Source\PSoC5/CapSense_CompCH0.c ****         CapSense_CompCH0_TR1 = CapSense_CompCH0_HS_TRIM_TR1;
 232:.\Generated_Source\PSoC5/CapSense_CompCH0.c ****         #endif /* CY_PSOC3_ES2 || CY_PSOC5_ES1 */
 233:.\Generated_Source\PSoC5/CapSense_CompCH0.c ****     }
 234:.\Generated_Source\PSoC5/CapSense_CompCH0.c ****     else
 235:.\Generated_Source\PSoC5/CapSense_CompCH0.c ****     {
 236:.\Generated_Source\PSoC5/CapSense_CompCH0.c ****     /* PSoC3 ES2 or early, PSoC5 ES1 or early */
 237:.\Generated_Source\PSoC5/CapSense_CompCH0.c ****         #if (CY_PSOC3_ES2 || CY_PSOC5_ES1)
 238:.\Generated_Source\PSoC5/CapSense_CompCH0.c ****         CapSense_CompCH0_TR = CapSense_CompCH0_LS_TRIM_TR0;
ARM GAS  C:\Users\awkward\AppData\Local\Temp\cclftodo.s 			page 10


 239:.\Generated_Source\PSoC5/CapSense_CompCH0.c ****         #endif /* CY_PSOC3_ES2 || CY_PSOC5_ES1 */
 240:.\Generated_Source\PSoC5/CapSense_CompCH0.c ****         
 241:.\Generated_Source\PSoC5/CapSense_CompCH0.c ****         /* PSoC3 ES3 or later, PSoC5 ES2 or later */
 242:.\Generated_Source\PSoC5/CapSense_CompCH0.c ****         #if (CY_PSOC3_ES3 || CY_PSOC5_ES2) 
 243:.\Generated_Source\PSoC5/CapSense_CompCH0.c ****         CapSense_CompCH0_TR0 = CapSense_CompCH0_LS_TRIM_TR0;
 244:.\Generated_Source\PSoC5/CapSense_CompCH0.c ****         CapSense_CompCH0_TR1 = CapSense_CompCH0_LS_TRIM_TR1;
 245:.\Generated_Source\PSoC5/CapSense_CompCH0.c ****         #endif /* CY_PSOC3_ES2 || CY_PSOC5_ES1 */
 246:.\Generated_Source\PSoC5/CapSense_CompCH0.c ****     }
 247:.\Generated_Source\PSoC5/CapSense_CompCH0.c **** 
 248:.\Generated_Source\PSoC5/CapSense_CompCH0.c **** }
 272              		.loc 1 248 0
 273 0032 07F10C07 		add	r7, r7, #12
 274 0036 BD46     		mov	sp, r7
 275 0038 80BC     		pop	{r7}
 276 003a 7047     		bx	lr
 277              		.cfi_endproc
 278              	.LFE4:
 279              		.size	CapSense_CompCH0_SetSpeed, .-CapSense_CompCH0_SetSpeed
 280              		.section	.text.CapSense_CompCH0_GetCompare,"ax",%progbits
 281              		.align	2
 282              		.global	CapSense_CompCH0_GetCompare
 283              		.thumb
 284              		.thumb_func
 285              		.type	CapSense_CompCH0_GetCompare, %function
 286              	CapSense_CompCH0_GetCompare:
 287              	.LFB5:
 249:.\Generated_Source\PSoC5/CapSense_CompCH0.c **** 
 250:.\Generated_Source\PSoC5/CapSense_CompCH0.c **** 
 251:.\Generated_Source\PSoC5/CapSense_CompCH0.c **** /*******************************************************************************
 252:.\Generated_Source\PSoC5/CapSense_CompCH0.c **** * Function Name: CapSense_CompCH0_GetCompare
 253:.\Generated_Source\PSoC5/CapSense_CompCH0.c **** ********************************************************************************
 254:.\Generated_Source\PSoC5/CapSense_CompCH0.c **** *
 255:.\Generated_Source\PSoC5/CapSense_CompCH0.c **** * Summary:
 256:.\Generated_Source\PSoC5/CapSense_CompCH0.c **** *  This function returns the comparator output value.
 257:.\Generated_Source\PSoC5/CapSense_CompCH0.c **** *
 258:.\Generated_Source\PSoC5/CapSense_CompCH0.c **** * Parameters:  
 259:.\Generated_Source\PSoC5/CapSense_CompCH0.c **** *   None
 260:.\Generated_Source\PSoC5/CapSense_CompCH0.c **** *
 261:.\Generated_Source\PSoC5/CapSense_CompCH0.c **** * Return:  
 262:.\Generated_Source\PSoC5/CapSense_CompCH0.c **** *  (uint8)  0  if Pos_Input less than Neg_input
 263:.\Generated_Source\PSoC5/CapSense_CompCH0.c **** *           1  if Pos_Input greater than Neg_input. 
 264:.\Generated_Source\PSoC5/CapSense_CompCH0.c **** *
 265:.\Generated_Source\PSoC5/CapSense_CompCH0.c **** * Reentrant:
 266:.\Generated_Source\PSoC5/CapSense_CompCH0.c **** *  Yes
 267:.\Generated_Source\PSoC5/CapSense_CompCH0.c **** *
 268:.\Generated_Source\PSoC5/CapSense_CompCH0.c **** *******************************************************************************/
 269:.\Generated_Source\PSoC5/CapSense_CompCH0.c **** uint8 CapSense_CompCH0_GetCompare(void) 
 270:.\Generated_Source\PSoC5/CapSense_CompCH0.c **** {
 288              		.loc 1 270 0
 289              		.cfi_startproc
 290              		@ args = 0, pretend = 0, frame = 0
 291              		@ frame_needed = 1, uses_anonymous_args = 0
 292              		@ link register save eliminated.
 293 0000 80B4     		push	{r7}
 294              	.LCFI11:
 295              		.cfi_def_cfa_offset 4
 296 0002 00AF     		add	r7, sp, #0
ARM GAS  C:\Users\awkward\AppData\Local\Temp\cclftodo.s 			page 11


 297              		.cfi_offset 7, -4
 298              	.LCFI12:
 299              		.cfi_def_cfa_register 7
 271:.\Generated_Source\PSoC5/CapSense_CompCH0.c ****     return( CapSense_CompCH0_WRK & CapSense_CompCH0_CMP_OUT_MASK);
 300              		.loc 1 271 0
 301 0004 45F69033 		movw	r3, #:lower16:1073765264
 302 0008 C4F20003 		movt	r3, #:upper16:1073765264
 303 000c 1B78     		ldrb	r3, [r3, #0]
 304 000e DBB2     		uxtb	r3, r3
 305 0010 03F00403 		and	r3, r3, #4
 272:.\Generated_Source\PSoC5/CapSense_CompCH0.c **** }
 306              		.loc 1 272 0
 307 0014 1846     		mov	r0, r3
 308 0016 BD46     		mov	sp, r7
 309 0018 80BC     		pop	{r7}
 310 001a 7047     		bx	lr
 311              		.cfi_endproc
 312              	.LFE5:
 313              		.size	CapSense_CompCH0_GetCompare, .-CapSense_CompCH0_GetCompare
 314              		.section	.text.CapSense_CompCH0_trimAdjust,"ax",%progbits
 315              		.align	2
 316              		.global	CapSense_CompCH0_trimAdjust
 317              		.thumb
 318              		.thumb_func
 319              		.type	CapSense_CompCH0_trimAdjust, %function
 320              	CapSense_CompCH0_trimAdjust:
 321              	.LFB6:
 273:.\Generated_Source\PSoC5/CapSense_CompCH0.c **** 
 274:.\Generated_Source\PSoC5/CapSense_CompCH0.c **** 
 275:.\Generated_Source\PSoC5/CapSense_CompCH0.c **** /*******************************************************************************
 276:.\Generated_Source\PSoC5/CapSense_CompCH0.c **** * Function Name: CapSense_CompCH0_trimAdjust
 277:.\Generated_Source\PSoC5/CapSense_CompCH0.c **** ********************************************************************************
 278:.\Generated_Source\PSoC5/CapSense_CompCH0.c **** *
 279:.\Generated_Source\PSoC5/CapSense_CompCH0.c **** * Summary:
 280:.\Generated_Source\PSoC5/CapSense_CompCH0.c **** *  This function adjusts the value in the low nibble/high nibble of the Analog 
 281:.\Generated_Source\PSoC5/CapSense_CompCH0.c **** *  Comparator trim register
 282:.\Generated_Source\PSoC5/CapSense_CompCH0.c **** *
 283:.\Generated_Source\PSoC5/CapSense_CompCH0.c **** * Parameters:  
 284:.\Generated_Source\PSoC5/CapSense_CompCH0.c **** *  nibble:
 285:.\Generated_Source\PSoC5/CapSense_CompCH0.c **** *      0 -- adjusts the value in the low nibble
 286:.\Generated_Source\PSoC5/CapSense_CompCH0.c **** *      1 -- adjusts the value in the high nibble
 287:.\Generated_Source\PSoC5/CapSense_CompCH0.c **** *
 288:.\Generated_Source\PSoC5/CapSense_CompCH0.c **** * Return:
 289:.\Generated_Source\PSoC5/CapSense_CompCH0.c **** *  None
 290:.\Generated_Source\PSoC5/CapSense_CompCH0.c **** *
 291:.\Generated_Source\PSoC5/CapSense_CompCH0.c **** * Theory: 
 292:.\Generated_Source\PSoC5/CapSense_CompCH0.c **** *  Function assumes comparator block is setup for trim adjust.
 293:.\Generated_Source\PSoC5/CapSense_CompCH0.c **** *  Intended to be called from Comp_ZeroCal()
 294:.\Generated_Source\PSoC5/CapSense_CompCH0.c **** * 
 295:.\Generated_Source\PSoC5/CapSense_CompCH0.c **** * Side Effects:
 296:.\Generated_Source\PSoC5/CapSense_CompCH0.c **** *  Routine uses a course 1ms delay following each trim adjustment to allow 
 297:.\Generated_Source\PSoC5/CapSense_CompCH0.c **** *  the comparator output to respond.
 298:.\Generated_Source\PSoC5/CapSense_CompCH0.c **** *
 299:.\Generated_Source\PSoC5/CapSense_CompCH0.c **** * Reentrant:
 300:.\Generated_Source\PSoC5/CapSense_CompCH0.c **** *  No
 301:.\Generated_Source\PSoC5/CapSense_CompCH0.c **** *
 302:.\Generated_Source\PSoC5/CapSense_CompCH0.c **** *******************************************************************************/
ARM GAS  C:\Users\awkward\AppData\Local\Temp\cclftodo.s 			page 12


 303:.\Generated_Source\PSoC5/CapSense_CompCH0.c **** void CapSense_CompCH0_trimAdjust(uint8 nibble)
 304:.\Generated_Source\PSoC5/CapSense_CompCH0.c **** {
 322              		.loc 1 304 0
 323              		.cfi_startproc
 324              		@ args = 0, pretend = 0, frame = 16
 325              		@ frame_needed = 1, uses_anonymous_args = 0
 326 0000 80B5     		push	{r7, lr}
 327              	.LCFI13:
 328              		.cfi_def_cfa_offset 8
 329 0002 84B0     		sub	sp, sp, #16
 330              	.LCFI14:
 331              		.cfi_def_cfa_offset 24
 332 0004 00AF     		add	r7, sp, #0
 333              		.cfi_offset 14, -4
 334              		.cfi_offset 7, -8
 335              	.LCFI15:
 336              		.cfi_def_cfa_register 7
 337 0006 0346     		mov	r3, r0
 338 0008 FB71     		strb	r3, [r7, #7]
 305:.\Generated_Source\PSoC5/CapSense_CompCH0.c ****     uint8 trimCnt;
 306:.\Generated_Source\PSoC5/CapSense_CompCH0.c ****     uint8 cmpState;   
 307:.\Generated_Source\PSoC5/CapSense_CompCH0.c **** 
 308:.\Generated_Source\PSoC5/CapSense_CompCH0.c ****     /* get current state of comparator output */
 309:.\Generated_Source\PSoC5/CapSense_CompCH0.c ****     cmpState = CapSense_CompCH0_WRK & CapSense_CompCH0_CMP_OUT_MASK;
 339              		.loc 1 309 0
 340 000a 45F69033 		movw	r3, #:lower16:1073765264
 341 000e C4F20003 		movt	r3, #:upper16:1073765264
 342 0012 1B78     		ldrb	r3, [r3, #0]
 343 0014 DBB2     		uxtb	r3, r3
 344 0016 03F00403 		and	r3, r3, #4
 345 001a FB73     		strb	r3, [r7, #15]
 310:.\Generated_Source\PSoC5/CapSense_CompCH0.c ****     
 311:.\Generated_Source\PSoC5/CapSense_CompCH0.c ****     if (nibble == 0u)
 346              		.loc 1 311 0
 347 001c FB79     		ldrb	r3, [r7, #7]	@ zero_extendqisi2
 348 001e 002B     		cmp	r3, #0
 312:.\Generated_Source\PSoC5/CapSense_CompCH0.c ****     {    
 313:.\Generated_Source\PSoC5/CapSense_CompCH0.c ****         /* if comparator output is high, negative offset adjust is required */
 314:.\Generated_Source\PSoC5/CapSense_CompCH0.c ****         if ( cmpState != 0u )
 315:.\Generated_Source\PSoC5/CapSense_CompCH0.c ****         {
 316:.\Generated_Source\PSoC5/CapSense_CompCH0.c ****             /* PSoC3 ES2 or early, PSoC5 ES1 or early */
 317:.\Generated_Source\PSoC5/CapSense_CompCH0.c ****             #if (CY_PSOC3_ES2 || CY_PSOC5_ES1)
 318:.\Generated_Source\PSoC5/CapSense_CompCH0.c ****                 CapSense_CompCH0_TR |= CapSense_CompCH0_CMP_TRIM1_DIR;
 319:.\Generated_Source\PSoC5/CapSense_CompCH0.c ****             #endif /* CY_PSOC3_ES2 || CY_PSOC5_ES1 */
 320:.\Generated_Source\PSoC5/CapSense_CompCH0.c ****             
 321:.\Generated_Source\PSoC5/CapSense_CompCH0.c ****             /* PSoC3 ES3 or later, PSoC5 ES2 or later */
 322:.\Generated_Source\PSoC5/CapSense_CompCH0.c ****             #if (CY_PSOC3_ES3 || CY_PSOC5_ES2)
 323:.\Generated_Source\PSoC5/CapSense_CompCH0.c ****                 CapSense_CompCH0_TR0 |= CapSense_CompCH0_CMP_TR0_DIR;
 324:.\Generated_Source\PSoC5/CapSense_CompCH0.c ****             #endif /* CY_PSOC3_ES3 || CY_PSOC5_ES2 */
 325:.\Generated_Source\PSoC5/CapSense_CompCH0.c ****         }
 326:.\Generated_Source\PSoC5/CapSense_CompCH0.c ****     }
 327:.\Generated_Source\PSoC5/CapSense_CompCH0.c ****     else
 328:.\Generated_Source\PSoC5/CapSense_CompCH0.c ****     {
 329:.\Generated_Source\PSoC5/CapSense_CompCH0.c ****         /* if comparator output is low, positive offset adjust is required */
 330:.\Generated_Source\PSoC5/CapSense_CompCH0.c ****         if ( cmpState == 0u )
 331:.\Generated_Source\PSoC5/CapSense_CompCH0.c ****         {
 332:.\Generated_Source\PSoC5/CapSense_CompCH0.c ****             /* PSoC3 ES2 or early, PSoC5 ES1 or early */
ARM GAS  C:\Users\awkward\AppData\Local\Temp\cclftodo.s 			page 13


 333:.\Generated_Source\PSoC5/CapSense_CompCH0.c ****             #if (CY_PSOC3_ES2 || CY_PSOC5_ES1)
 334:.\Generated_Source\PSoC5/CapSense_CompCH0.c ****                 CapSense_CompCH0_TR |= CapSense_CompCH0_CMP_TRIM2_DIR; 
 335:.\Generated_Source\PSoC5/CapSense_CompCH0.c ****             #endif /* CY_PSOC3_ES2 || CY_PSOC5_ES1 */
 336:.\Generated_Source\PSoC5/CapSense_CompCH0.c ****             
 337:.\Generated_Source\PSoC5/CapSense_CompCH0.c ****             /* PSoC3 ES3 or later, PSoC5 ES2 or later */
 338:.\Generated_Source\PSoC5/CapSense_CompCH0.c ****             #if (CY_PSOC3_ES3 || CY_PSOC5_ES2)
 339:.\Generated_Source\PSoC5/CapSense_CompCH0.c ****                 CapSense_CompCH0_TR1 |= CapSense_CompCH0_CMP_TR1_DIR;
 340:.\Generated_Source\PSoC5/CapSense_CompCH0.c ****             #endif /* CY_PSOC3_ES3 || CY_PSOC5_ES2 */
 341:.\Generated_Source\PSoC5/CapSense_CompCH0.c ****         }
 342:.\Generated_Source\PSoC5/CapSense_CompCH0.c ****     }
 343:.\Generated_Source\PSoC5/CapSense_CompCH0.c **** 
 344:.\Generated_Source\PSoC5/CapSense_CompCH0.c ****     /* Increment trim value until compare output changes state */
 345:.\Generated_Source\PSoC5/CapSense_CompCH0.c ****     for ( trimCnt = 0; trimCnt < 7; trimCnt++ )
 349              		.loc 1 345 0
 350 0020 4FF00003 		mov	r3, #0
 351 0024 BB73     		strb	r3, [r7, #14]
 352 0026 12E0     		b	.L17
 353              	.L20:
 346:.\Generated_Source\PSoC5/CapSense_CompCH0.c ****     {
 347:.\Generated_Source\PSoC5/CapSense_CompCH0.c ****         if (nibble == 0u)
 348:.\Generated_Source\PSoC5/CapSense_CompCH0.c ****         {
 349:.\Generated_Source\PSoC5/CapSense_CompCH0.c ****             /* PSoC3 ES2 or early, PSoC5 ES1 or early */
 350:.\Generated_Source\PSoC5/CapSense_CompCH0.c ****             #if (CY_PSOC3_ES2 || CY_PSOC5_ES1)
 351:.\Generated_Source\PSoC5/CapSense_CompCH0.c ****                 CapSense_CompCH0_TR += 1u;
 352:.\Generated_Source\PSoC5/CapSense_CompCH0.c ****             #endif /* CY_PSOC3_ES2 || CY_PSOC5_ES1 */
 353:.\Generated_Source\PSoC5/CapSense_CompCH0.c ****             
 354:.\Generated_Source\PSoC5/CapSense_CompCH0.c ****             /* PSoC3 ES3 or later, PSoC5 ES2 or later */
 355:.\Generated_Source\PSoC5/CapSense_CompCH0.c ****             #if (CY_PSOC3_ES3 || CY_PSOC5_ES2)
 356:.\Generated_Source\PSoC5/CapSense_CompCH0.c ****                 CapSense_CompCH0_TR0 += 1u;
 357:.\Generated_Source\PSoC5/CapSense_CompCH0.c ****             #endif /* CY_PSOC3_ES3 || CY_PSOC5_ES2 */
 358:.\Generated_Source\PSoC5/CapSense_CompCH0.c ****         }
 359:.\Generated_Source\PSoC5/CapSense_CompCH0.c ****         else
 360:.\Generated_Source\PSoC5/CapSense_CompCH0.c ****         {
 361:.\Generated_Source\PSoC5/CapSense_CompCH0.c ****             /* PSoC3 ES2 or early, PSoC5 ES1 or early */
 362:.\Generated_Source\PSoC5/CapSense_CompCH0.c ****             #if (CY_PSOC3_ES2 || CY_PSOC5_ES1)
 363:.\Generated_Source\PSoC5/CapSense_CompCH0.c ****                 CapSense_CompCH0_TR += 0x10u;
 364:.\Generated_Source\PSoC5/CapSense_CompCH0.c ****             #endif /* CY_PSOC3_ES2 || CY_PSOC5_ES1 */
 365:.\Generated_Source\PSoC5/CapSense_CompCH0.c ****             
 366:.\Generated_Source\PSoC5/CapSense_CompCH0.c ****             /* PSoC3 ES3 or later, PSoC5 ES2 or later */
 367:.\Generated_Source\PSoC5/CapSense_CompCH0.c ****             #if (CY_PSOC3_ES3 || CY_PSOC5_ES2)
 368:.\Generated_Source\PSoC5/CapSense_CompCH0.c ****                 CapSense_CompCH0_TR1 += 0x10u;
 369:.\Generated_Source\PSoC5/CapSense_CompCH0.c ****             #endif /* CY_PSOC3_ES3 || CY_PSOC5_ES2 */
 370:.\Generated_Source\PSoC5/CapSense_CompCH0.c ****         }
 371:.\Generated_Source\PSoC5/CapSense_CompCH0.c ****         
 372:.\Generated_Source\PSoC5/CapSense_CompCH0.c ****         CyDelay(1);
 354              		.loc 1 372 0
 355 0028 4FF00100 		mov	r0, #1
 356 002c FFF7FEFF 		bl	CyDelay
 373:.\Generated_Source\PSoC5/CapSense_CompCH0.c ****         
 374:.\Generated_Source\PSoC5/CapSense_CompCH0.c ****         /* Check for change in comparator output */
 375:.\Generated_Source\PSoC5/CapSense_CompCH0.c ****         if ((CapSense_CompCH0_WRK & CapSense_CompCH0_CMP_OUT_MASK) != cmpState)
 357              		.loc 1 375 0
 358 0030 45F69033 		movw	r3, #:lower16:1073765264
 359 0034 C4F20003 		movt	r3, #:upper16:1073765264
 360 0038 1B78     		ldrb	r3, [r3, #0]
 361 003a DBB2     		uxtb	r3, r3
 362 003c 03F00402 		and	r2, r3, #4
ARM GAS  C:\Users\awkward\AppData\Local\Temp\cclftodo.s 			page 14


 363 0040 FB7B     		ldrb	r3, [r7, #15]	@ zero_extendqisi2
 364 0042 9A42     		cmp	r2, r3
 365 0044 07D1     		bne	.L22
 366              	.L18:
 367              		.loc 1 345 0
 368 0046 BB7B     		ldrb	r3, [r7, #14]
 369 0048 03F10103 		add	r3, r3, #1
 370 004c BB73     		strb	r3, [r7, #14]
 371              	.L17:
 372 004e BB7B     		ldrb	r3, [r7, #14]	@ zero_extendqisi2
 373 0050 062B     		cmp	r3, #6
 374 0052 E9D9     		bls	.L20
 375 0054 00E0     		b	.L21
 376              	.L22:
 376:.\Generated_Source\PSoC5/CapSense_CompCH0.c ****         {
 377:.\Generated_Source\PSoC5/CapSense_CompCH0.c ****             break;      /* output changed state, trim phase is complete */
 377              		.loc 1 377 0
 378 0056 00BF     		nop
 379              	.L21:
 378:.\Generated_Source\PSoC5/CapSense_CompCH0.c ****         }        
 379:.\Generated_Source\PSoC5/CapSense_CompCH0.c ****     }    
 380:.\Generated_Source\PSoC5/CapSense_CompCH0.c **** }
 380              		.loc 1 380 0
 381 0058 07F11007 		add	r7, r7, #16
 382 005c BD46     		mov	sp, r7
 383 005e 80BD     		pop	{r7, pc}
 384              		.cfi_endproc
 385              	.LFE6:
 386              		.size	CapSense_CompCH0_trimAdjust, .-CapSense_CompCH0_trimAdjust
 387              		.section	.text.CapSense_CompCH0_ZeroCal,"ax",%progbits
 388              		.align	2
 389              		.global	CapSense_CompCH0_ZeroCal
 390              		.thumb
 391              		.thumb_func
 392              		.type	CapSense_CompCH0_ZeroCal, %function
 393              	CapSense_CompCH0_ZeroCal:
 394              	.LFB7:
 381:.\Generated_Source\PSoC5/CapSense_CompCH0.c **** 
 382:.\Generated_Source\PSoC5/CapSense_CompCH0.c **** 
 383:.\Generated_Source\PSoC5/CapSense_CompCH0.c **** /*******************************************************************************
 384:.\Generated_Source\PSoC5/CapSense_CompCH0.c **** * Function Name: CapSense_CompCH0_ZeroCal
 385:.\Generated_Source\PSoC5/CapSense_CompCH0.c **** ********************************************************************************
 386:.\Generated_Source\PSoC5/CapSense_CompCH0.c **** *
 387:.\Generated_Source\PSoC5/CapSense_CompCH0.c **** * Summary:
 388:.\Generated_Source\PSoC5/CapSense_CompCH0.c **** *  This function calibrates the offset of the Analog Comparator.
 389:.\Generated_Source\PSoC5/CapSense_CompCH0.c **** *
 390:.\Generated_Source\PSoC5/CapSense_CompCH0.c **** * Parameters:  
 391:.\Generated_Source\PSoC5/CapSense_CompCH0.c **** *  None
 392:.\Generated_Source\PSoC5/CapSense_CompCH0.c **** *
 393:.\Generated_Source\PSoC5/CapSense_CompCH0.c **** * Return:  
 394:.\Generated_Source\PSoC5/CapSense_CompCH0.c **** *  (uint16)  value written in trim register when calibration complete.
 395:.\Generated_Source\PSoC5/CapSense_CompCH0.c **** *
 396:.\Generated_Source\PSoC5/CapSense_CompCH0.c **** * Theory: 
 397:.\Generated_Source\PSoC5/CapSense_CompCH0.c **** *  This function is used to optimize the calibration for user specific voltage
 398:.\Generated_Source\PSoC5/CapSense_CompCH0.c **** *  range.  The comparator trim is adjusted to counter transistor offsets
 399:.\Generated_Source\PSoC5/CapSense_CompCH0.c **** *   - offset is defined as positive if the output transitions to high before inP
 400:.\Generated_Source\PSoC5/CapSense_CompCH0.c **** *     is greater than inN
ARM GAS  C:\Users\awkward\AppData\Local\Temp\cclftodo.s 			page 15


 401:.\Generated_Source\PSoC5/CapSense_CompCH0.c **** *   - offset is defined as negative if the output transitions to high after inP
 402:.\Generated_Source\PSoC5/CapSense_CompCH0.c **** *     is greater than inP
 403:.\Generated_Source\PSoC5/CapSense_CompCH0.c **** *
 404:.\Generated_Source\PSoC5/CapSense_CompCH0.c **** *  The Analog Comparator provides 1 byte for offset trim.  The byte contains two
 405:.\Generated_Source\PSoC5/CapSense_CompCH0.c **** *  4 bit trim fields - one is a course trim and the other allows smaller
 406:.\Generated_Source\PSoC5/CapSense_CompCH0.c **** *  offset adjustments.
 407:.\Generated_Source\PSoC5/CapSense_CompCH0.c **** *  - low nibble - fine trim for Fast mode, course trim for Slow mode
 408:.\Generated_Source\PSoC5/CapSense_CompCH0.c **** *  - high nibble - fine trim for Slow mode, course trim
 409:.\Generated_Source\PSoC5/CapSense_CompCH0.c **** *    for Fast mode
 410:.\Generated_Source\PSoC5/CapSense_CompCH0.c **** *  - trim[3] selects positive or negative offset adjust
 411:.\Generated_Source\PSoC5/CapSense_CompCH0.c **** *  - for low nibble: trim[3]is set high to add negative offset
 412:.\Generated_Source\PSoC5/CapSense_CompCH0.c **** *  - for high nibble: trim[3]is set high to add positive offset  
 413:.\Generated_Source\PSoC5/CapSense_CompCH0.c **** *
 414:.\Generated_Source\PSoC5/CapSense_CompCH0.c **** *  Trim algorithm is a two phase process
 415:.\Generated_Source\PSoC5/CapSense_CompCH0.c **** *  The first phase performs course offset adjustment
 416:.\Generated_Source\PSoC5/CapSense_CompCH0.c **** *  The second phase serves one of two purposes depending on the outcome of the
 417:.\Generated_Source\PSoC5/CapSense_CompCH0.c **** *  first phase
 418:.\Generated_Source\PSoC5/CapSense_CompCH0.c **** *  - if the first trim value was maxed out without a comparator output 
 419:.\Generated_Source\PSoC5/CapSense_CompCH0.c **** *    transition, more offset will be added by adjusting the second trim value.
 420:.\Generated_Source\PSoC5/CapSense_CompCH0.c **** *  - if the first trim phase resulted in a comparator output transition, the
 421:.\Generated_Source\PSoC5/CapSense_CompCH0.c **** *    second trim value will serve as fine trim (in the opposite direction)to
 422:.\Generated_Source\PSoC5/CapSense_CompCH0.c **** *    ensure the offset is < 1 mV.
 423:.\Generated_Source\PSoC5/CapSense_CompCH0.c **** *
 424:.\Generated_Source\PSoC5/CapSense_CompCH0.c **** *  Trim Process:   
 425:.\Generated_Source\PSoC5/CapSense_CompCH0.c **** *  1) User applies a voltage to the negative input.  Voltage should be in the
 426:.\Generated_Source\PSoC5/CapSense_CompCH0.c **** *     comparator operating range or an average of the operating voltage range.
 427:.\Generated_Source\PSoC5/CapSense_CompCH0.c **** *  2) Clear registers associated with analog routing to the positive input.
 428:.\Generated_Source\PSoC5/CapSense_CompCH0.c **** *  3) Disable Hysteresis
 429:.\Generated_Source\PSoC5/CapSense_CompCH0.c **** *  4) Set the calibration bit to short the negative and positive inputs to
 430:.\Generated_Source\PSoC5/CapSense_CompCH0.c **** *     the users calibration voltage.
 431:.\Generated_Source\PSoC5/CapSense_CompCH0.c **** *  5) Clear the TR register  ( TR = 0x00 )
 432:.\Generated_Source\PSoC5/CapSense_CompCH0.c **** *  ** SLOW MODE
 433:.\Generated_Source\PSoC5/CapSense_CompCH0.c **** *  6) Check if compare output is high, if so, set trim[3] of lower 
 434:.\Generated_Source\PSoC5/CapSense_CompCH0.c **** *     nibble to a 1.
 435:.\Generated_Source\PSoC5/CapSense_CompCH0.c **** *  7) Increment trim[2:0] of lower nibble until the compare output changes
 436:.\Generated_Source\PSoC5/CapSense_CompCH0.c **** *     (course trim).
 437:.\Generated_Source\PSoC5/CapSense_CompCH0.c **** *  8) Check if compare output is low, if so, set trim[3] of higher 
 438:.\Generated_Source\PSoC5/CapSense_CompCH0.c **** *     nibble to a 1.
 439:.\Generated_Source\PSoC5/CapSense_CompCH0.c **** *  9) Increment trim[2:0] of higher nibble until the compare output changes 
 440:.\Generated_Source\PSoC5/CapSense_CompCH0.c **** *     state (fine trim)
 441:.\Generated_Source\PSoC5/CapSense_CompCH0.c **** *  ** FAST MODE - change order of steps 6,7 vs. steps 8,9
 442:.\Generated_Source\PSoC5/CapSense_CompCH0.c **** *
 443:.\Generated_Source\PSoC5/CapSense_CompCH0.c **** * Side Effects:
 444:.\Generated_Source\PSoC5/CapSense_CompCH0.c **** *  Routine clears analog routing associated with the comparator positive input.  
 445:.\Generated_Source\PSoC5/CapSense_CompCH0.c **** *  This may affect routing of signals from other components that are connected
 446:.\Generated_Source\PSoC5/CapSense_CompCH0.c **** *  to the positive input of the comparator.
 447:.\Generated_Source\PSoC5/CapSense_CompCH0.c **** *
 448:.\Generated_Source\PSoC5/CapSense_CompCH0.c **** * Reentrant:
 449:.\Generated_Source\PSoC5/CapSense_CompCH0.c **** *  Yes
 450:.\Generated_Source\PSoC5/CapSense_CompCH0.c **** *
 451:.\Generated_Source\PSoC5/CapSense_CompCH0.c **** *******************************************************************************/
 452:.\Generated_Source\PSoC5/CapSense_CompCH0.c **** uint16 CapSense_CompCH0_ZeroCal(void) 
 453:.\Generated_Source\PSoC5/CapSense_CompCH0.c **** {
 395              		.loc 1 453 0
 396              		.cfi_startproc
 397              		@ args = 0, pretend = 0, frame = 8
 398              		@ frame_needed = 1, uses_anonymous_args = 0
ARM GAS  C:\Users\awkward\AppData\Local\Temp\cclftodo.s 			page 16


 399 0000 80B5     		push	{r7, lr}
 400              	.LCFI16:
 401              		.cfi_def_cfa_offset 8
 402 0002 82B0     		sub	sp, sp, #8
 403              	.LCFI17:
 404              		.cfi_def_cfa_offset 16
 405 0004 00AF     		add	r7, sp, #0
 406              		.cfi_offset 14, -4
 407              		.cfi_offset 7, -8
 408              	.LCFI18:
 409              		.cfi_def_cfa_register 7
 454:.\Generated_Source\PSoC5/CapSense_CompCH0.c ****     uint8 tmpSW0;
 455:.\Generated_Source\PSoC5/CapSense_CompCH0.c ****     uint8 tmpSW2;
 456:.\Generated_Source\PSoC5/CapSense_CompCH0.c ****     uint8 tmpSW3;
 457:.\Generated_Source\PSoC5/CapSense_CompCH0.c ****     uint8 tmpCR;
 458:.\Generated_Source\PSoC5/CapSense_CompCH0.c **** 
 459:.\Generated_Source\PSoC5/CapSense_CompCH0.c ****     /* Save a copy of routing registers associated with inP */
 460:.\Generated_Source\PSoC5/CapSense_CompCH0.c ****     tmpSW0 = CapSense_CompCH0_SW0;
 410              		.loc 1 460 0
 411 0006 45F6D023 		movw	r3, #:lower16:1073765072
 412 000a C4F20003 		movt	r3, #:upper16:1073765072
 413 000e 1B78     		ldrb	r3, [r3, #0]
 414 0010 3B71     		strb	r3, [r7, #4]
 461:.\Generated_Source\PSoC5/CapSense_CompCH0.c ****     tmpSW2 = CapSense_CompCH0_SW2;
 415              		.loc 1 461 0
 416 0012 45F6D223 		movw	r3, #:lower16:1073765074
 417 0016 C4F20003 		movt	r3, #:upper16:1073765074
 418 001a 1B78     		ldrb	r3, [r3, #0]
 419 001c 7B71     		strb	r3, [r7, #5]
 462:.\Generated_Source\PSoC5/CapSense_CompCH0.c ****     tmpSW3 = CapSense_CompCH0_SW3;
 420              		.loc 1 462 0
 421 001e 45F6D323 		movw	r3, #:lower16:1073765075
 422 0022 C4F20003 		movt	r3, #:upper16:1073765075
 423 0026 1B78     		ldrb	r3, [r3, #0]
 424 0028 BB71     		strb	r3, [r7, #6]
 463:.\Generated_Source\PSoC5/CapSense_CompCH0.c **** 
 464:.\Generated_Source\PSoC5/CapSense_CompCH0.c ****      /* Clear routing for inP, retain routing for inN */
 465:.\Generated_Source\PSoC5/CapSense_CompCH0.c ****     CapSense_CompCH0_SW0 = 0x00u;
 425              		.loc 1 465 0
 426 002a 45F6D023 		movw	r3, #:lower16:1073765072
 427 002e C4F20003 		movt	r3, #:upper16:1073765072
 428 0032 4FF00002 		mov	r2, #0
 429 0036 1A70     		strb	r2, [r3, #0]
 466:.\Generated_Source\PSoC5/CapSense_CompCH0.c ****     CapSense_CompCH0_SW2 = 0x00u;
 430              		.loc 1 466 0
 431 0038 45F6D223 		movw	r3, #:lower16:1073765074
 432 003c C4F20003 		movt	r3, #:upper16:1073765074
 433 0040 4FF00002 		mov	r2, #0
 434 0044 1A70     		strb	r2, [r3, #0]
 467:.\Generated_Source\PSoC5/CapSense_CompCH0.c ****     CapSense_CompCH0_SW3 = tmpSW3 & ~CapSense_CompCH0_CMP_SW3_INPCTL_MASK;
 435              		.loc 1 467 0
 436 0046 45F6D323 		movw	r3, #:lower16:1073765075
 437 004a C4F20003 		movt	r3, #:upper16:1073765075
 438 004e BA79     		ldrb	r2, [r7, #6]	@ zero_extendqisi2
 439 0050 02F0F602 		and	r2, r2, #246
 440 0054 1A70     		strb	r2, [r3, #0]
 468:.\Generated_Source\PSoC5/CapSense_CompCH0.c **** 
ARM GAS  C:\Users\awkward\AppData\Local\Temp\cclftodo.s 			page 17


 469:.\Generated_Source\PSoC5/CapSense_CompCH0.c ****     /* Preserve original configuration
 470:.\Generated_Source\PSoC5/CapSense_CompCH0.c ****      * - turn off Hysteresis
 471:.\Generated_Source\PSoC5/CapSense_CompCH0.c ****      * - set calibration bit - shorts inN to inP
 472:.\Generated_Source\PSoC5/CapSense_CompCH0.c ****     */
 473:.\Generated_Source\PSoC5/CapSense_CompCH0.c ****     tmpCR = CapSense_CompCH0_CR;
 441              		.loc 1 473 0
 442 0056 45F64203 		movw	r3, #:lower16:1073764418
 443 005a C4F20003 		movt	r3, #:upper16:1073764418
 444 005e 1B78     		ldrb	r3, [r3, #0]
 445 0060 FB71     		strb	r3, [r7, #7]
 474:.\Generated_Source\PSoC5/CapSense_CompCH0.c ****     CapSense_CompCH0_CR |= (CapSense_CompCH0_CAL_ON | CapSense_CompCH0_HYST_OFF);
 446              		.loc 1 474 0
 447 0062 45F64203 		movw	r3, #:lower16:1073764418
 448 0066 C4F20003 		movt	r3, #:upper16:1073764418
 449 006a 45F64202 		movw	r2, #:lower16:1073764418
 450 006e C4F20002 		movt	r2, #:upper16:1073764418
 451 0072 1278     		ldrb	r2, [r2, #0]
 452 0074 D2B2     		uxtb	r2, r2
 453 0076 42F03002 		orr	r2, r2, #48
 454 007a D2B2     		uxtb	r2, r2
 455 007c 1A70     		strb	r2, [r3, #0]
 475:.\Generated_Source\PSoC5/CapSense_CompCH0.c ****     
 476:.\Generated_Source\PSoC5/CapSense_CompCH0.c ****     /* Write default low values to trim register - no offset adjust */
 477:.\Generated_Source\PSoC5/CapSense_CompCH0.c ****     /* PSoC3 ES2 or early, PSoC5 ES1 or early */
 478:.\Generated_Source\PSoC5/CapSense_CompCH0.c ****     #if (CY_PSOC3_ES2 || CY_PSOC5_ES1)
 479:.\Generated_Source\PSoC5/CapSense_CompCH0.c ****         CapSense_CompCH0_TR = CapSense_CompCH0_DEFAULT_CMP_TRIM;
 480:.\Generated_Source\PSoC5/CapSense_CompCH0.c ****     #endif /* CY_PSOC3_ES2 || CY_PSOC5_ES1 */
 481:.\Generated_Source\PSoC5/CapSense_CompCH0.c ****     
 482:.\Generated_Source\PSoC5/CapSense_CompCH0.c ****     /* PSoC3 ES3 or later, PSoC5 ES2 or later */
 483:.\Generated_Source\PSoC5/CapSense_CompCH0.c ****     #if (CY_PSOC3_ES3 || CY_PSOC5_ES2)
 484:.\Generated_Source\PSoC5/CapSense_CompCH0.c ****         CapSense_CompCH0_TR0 = CapSense_CompCH0_DEFAULT_CMP_TRIM;
 485:.\Generated_Source\PSoC5/CapSense_CompCH0.c ****         CapSense_CompCH0_TR1 = CapSense_CompCH0_DEFAULT_CMP_TRIM;
 486:.\Generated_Source\PSoC5/CapSense_CompCH0.c ****     #endif /* CY_PSOC3_ES3 || CY_PSOC5_ES2 */
 487:.\Generated_Source\PSoC5/CapSense_CompCH0.c **** 
 488:.\Generated_Source\PSoC5/CapSense_CompCH0.c ****     /* Two phase trim - mode determines which value is trimmed first */   
 489:.\Generated_Source\PSoC5/CapSense_CompCH0.c ****     if ( (CapSense_CompCH0_CR & CapSense_CompCH0_PWR_MODE_MASK) == CapSense_CompCH0_PWR_MODE_FAST)
 456              		.loc 1 489 0
 457 007e 45F64203 		movw	r3, #:lower16:1073764418
 458 0082 C4F20003 		movt	r3, #:upper16:1073764418
 459 0086 1B78     		ldrb	r3, [r3, #0]
 460 0088 DBB2     		uxtb	r3, r3
 461 008a 03F00303 		and	r3, r3, #3
 462 008e 012B     		cmp	r3, #1
 463 0090 08D1     		bne	.L24
 490:.\Generated_Source\PSoC5/CapSense_CompCH0.c ****     {
 491:.\Generated_Source\PSoC5/CapSense_CompCH0.c ****         CapSense_CompCH0_trimAdjust(1);          /* course trim */
 464              		.loc 1 491 0
 465 0092 4FF00100 		mov	r0, #1
 466 0096 FFF7FEFF 		bl	CapSense_CompCH0_trimAdjust
 492:.\Generated_Source\PSoC5/CapSense_CompCH0.c ****         CapSense_CompCH0_trimAdjust(0);          /* fine trim */
 467              		.loc 1 492 0
 468 009a 4FF00000 		mov	r0, #0
 469 009e FFF7FEFF 		bl	CapSense_CompCH0_trimAdjust
 470 00a2 07E0     		b	.L25
 471              	.L24:
 493:.\Generated_Source\PSoC5/CapSense_CompCH0.c ****     }
 494:.\Generated_Source\PSoC5/CapSense_CompCH0.c ****     else /* default to trim for slow mode */
ARM GAS  C:\Users\awkward\AppData\Local\Temp\cclftodo.s 			page 18


 495:.\Generated_Source\PSoC5/CapSense_CompCH0.c ****     {
 496:.\Generated_Source\PSoC5/CapSense_CompCH0.c ****         CapSense_CompCH0_trimAdjust(0);          /* course trim */
 472              		.loc 1 496 0
 473 00a4 4FF00000 		mov	r0, #0
 474 00a8 FFF7FEFF 		bl	CapSense_CompCH0_trimAdjust
 497:.\Generated_Source\PSoC5/CapSense_CompCH0.c ****         CapSense_CompCH0_trimAdjust(1);          /* fine trim */
 475              		.loc 1 497 0
 476 00ac 4FF00100 		mov	r0, #1
 477 00b0 FFF7FEFF 		bl	CapSense_CompCH0_trimAdjust
 478              	.L25:
 498:.\Generated_Source\PSoC5/CapSense_CompCH0.c ****     }
 499:.\Generated_Source\PSoC5/CapSense_CompCH0.c ****    
 500:.\Generated_Source\PSoC5/CapSense_CompCH0.c ****     /* Restore Config Register */
 501:.\Generated_Source\PSoC5/CapSense_CompCH0.c ****     CapSense_CompCH0_CR = tmpCR;
 479              		.loc 1 501 0
 480 00b4 45F64203 		movw	r3, #:lower16:1073764418
 481 00b8 C4F20003 		movt	r3, #:upper16:1073764418
 482 00bc FA79     		ldrb	r2, [r7, #7]
 483 00be 1A70     		strb	r2, [r3, #0]
 502:.\Generated_Source\PSoC5/CapSense_CompCH0.c ****     
 503:.\Generated_Source\PSoC5/CapSense_CompCH0.c ****     /* Restore routing registers for inP */
 504:.\Generated_Source\PSoC5/CapSense_CompCH0.c ****     CapSense_CompCH0_SW0 = tmpSW0;
 484              		.loc 1 504 0
 485 00c0 45F6D023 		movw	r3, #:lower16:1073765072
 486 00c4 C4F20003 		movt	r3, #:upper16:1073765072
 487 00c8 3A79     		ldrb	r2, [r7, #4]
 488 00ca 1A70     		strb	r2, [r3, #0]
 505:.\Generated_Source\PSoC5/CapSense_CompCH0.c ****     CapSense_CompCH0_SW2 = tmpSW2;
 489              		.loc 1 505 0
 490 00cc 45F6D223 		movw	r3, #:lower16:1073765074
 491 00d0 C4F20003 		movt	r3, #:upper16:1073765074
 492 00d4 7A79     		ldrb	r2, [r7, #5]
 493 00d6 1A70     		strb	r2, [r3, #0]
 506:.\Generated_Source\PSoC5/CapSense_CompCH0.c ****     CapSense_CompCH0_SW3 = tmpSW3;
 494              		.loc 1 506 0
 495 00d8 45F6D323 		movw	r3, #:lower16:1073765075
 496 00dc C4F20003 		movt	r3, #:upper16:1073765075
 497 00e0 BA79     		ldrb	r2, [r7, #6]
 498 00e2 1A70     		strb	r2, [r3, #0]
 507:.\Generated_Source\PSoC5/CapSense_CompCH0.c ****     
 508:.\Generated_Source\PSoC5/CapSense_CompCH0.c ****     /* PSoC3 ES2 or early, PSoC5 ES1 or early */
 509:.\Generated_Source\PSoC5/CapSense_CompCH0.c ****     #if (CY_PSOC3_ES2 || CY_PSOC5_ES1)
 510:.\Generated_Source\PSoC5/CapSense_CompCH0.c ****         return (uint16) CapSense_CompCH0_TR;
 511:.\Generated_Source\PSoC5/CapSense_CompCH0.c ****     #endif /* CY_PSOC3_ES2 || CY_PSOC5_ES1 */
 512:.\Generated_Source\PSoC5/CapSense_CompCH0.c ****     
 513:.\Generated_Source\PSoC5/CapSense_CompCH0.c ****     /* PSoC3 ES3 or later, PSoC5 ES2 or later */
 514:.\Generated_Source\PSoC5/CapSense_CompCH0.c ****     #if (CY_PSOC3_ES3 || CY_PSOC5_ES2)
 515:.\Generated_Source\PSoC5/CapSense_CompCH0.c ****         return ((CapSense_CompCH0_TR0)|(CapSense_CompCH0_TR1));        
 516:.\Generated_Source\PSoC5/CapSense_CompCH0.c ****     #endif /* CY_PSOC3_ES3 || CY_PSOC5_ES2 */
 517:.\Generated_Source\PSoC5/CapSense_CompCH0.c **** }
 499              		.loc 1 517 0
 500 00e4 07F10807 		add	r7, r7, #8
 501 00e8 BD46     		mov	sp, r7
 502 00ea 80BD     		pop	{r7, pc}
 503              		.cfi_endproc
 504              	.LFE7:
 505              		.size	CapSense_CompCH0_ZeroCal, .-CapSense_CompCH0_ZeroCal
ARM GAS  C:\Users\awkward\AppData\Local\Temp\cclftodo.s 			page 19


 506              		.section	.text.CapSense_CompCH0_LoadTrim,"ax",%progbits
 507              		.align	2
 508              		.global	CapSense_CompCH0_LoadTrim
 509              		.thumb
 510              		.thumb_func
 511              		.type	CapSense_CompCH0_LoadTrim, %function
 512              	CapSense_CompCH0_LoadTrim:
 513              	.LFB8:
 518:.\Generated_Source\PSoC5/CapSense_CompCH0.c **** 
 519:.\Generated_Source\PSoC5/CapSense_CompCH0.c **** 
 520:.\Generated_Source\PSoC5/CapSense_CompCH0.c **** /*******************************************************************************
 521:.\Generated_Source\PSoC5/CapSense_CompCH0.c **** * Function Name: CapSense_CompCH0_LoadTrim
 522:.\Generated_Source\PSoC5/CapSense_CompCH0.c **** ********************************************************************************
 523:.\Generated_Source\PSoC5/CapSense_CompCH0.c **** *
 524:.\Generated_Source\PSoC5/CapSense_CompCH0.c **** * Summary:
 525:.\Generated_Source\PSoC5/CapSense_CompCH0.c **** *  This function stores a value in the Analog Comparator trim register.
 526:.\Generated_Source\PSoC5/CapSense_CompCH0.c **** *
 527:.\Generated_Source\PSoC5/CapSense_CompCH0.c **** * Parameters:  
 528:.\Generated_Source\PSoC5/CapSense_CompCH0.c **** *  uint8    trimVal - trim value.  This value is the same format as the value 
 529:.\Generated_Source\PSoC5/CapSense_CompCH0.c **** *           returned by the _ZeroCal routine.
 530:.\Generated_Source\PSoC5/CapSense_CompCH0.c **** *
 531:.\Generated_Source\PSoC5/CapSense_CompCH0.c **** * Return:  
 532:.\Generated_Source\PSoC5/CapSense_CompCH0.c **** *  None
 533:.\Generated_Source\PSoC5/CapSense_CompCH0.c **** *
 534:.\Generated_Source\PSoC5/CapSense_CompCH0.c **** * Reentrant:
 535:.\Generated_Source\PSoC5/CapSense_CompCH0.c **** *  Yes
 536:.\Generated_Source\PSoC5/CapSense_CompCH0.c **** *
 537:.\Generated_Source\PSoC5/CapSense_CompCH0.c **** *******************************************************************************/
 538:.\Generated_Source\PSoC5/CapSense_CompCH0.c **** void CapSense_CompCH0_LoadTrim(uint16 trimVal) 
 539:.\Generated_Source\PSoC5/CapSense_CompCH0.c **** {
 514              		.loc 1 539 0
 515              		.cfi_startproc
 516              		@ args = 0, pretend = 0, frame = 8
 517              		@ frame_needed = 1, uses_anonymous_args = 0
 518              		@ link register save eliminated.
 519 0000 80B4     		push	{r7}
 520              	.LCFI19:
 521              		.cfi_def_cfa_offset 4
 522 0002 83B0     		sub	sp, sp, #12
 523              	.LCFI20:
 524              		.cfi_def_cfa_offset 16
 525 0004 00AF     		add	r7, sp, #0
 526              		.cfi_offset 7, -4
 527              	.LCFI21:
 528              		.cfi_def_cfa_register 7
 529 0006 0346     		mov	r3, r0
 530 0008 FB80     		strh	r3, [r7, #6]	@ movhi
 540:.\Generated_Source\PSoC5/CapSense_CompCH0.c ****     /* Stores value in the Analog Comparator trim register */
 541:.\Generated_Source\PSoC5/CapSense_CompCH0.c ****     /* PSoC3 ES2 or early, PSoC5 ES1 or early */
 542:.\Generated_Source\PSoC5/CapSense_CompCH0.c ****     #if (CY_PSOC3_ES2 || CY_PSOC5_ES1)
 543:.\Generated_Source\PSoC5/CapSense_CompCH0.c ****         CapSense_CompCH0_TR = (uint8) trimVal;
 544:.\Generated_Source\PSoC5/CapSense_CompCH0.c ****     #endif /* CY_PSOC3_ES2 || CY_PSOC5_ES1 */
 545:.\Generated_Source\PSoC5/CapSense_CompCH0.c ****     
 546:.\Generated_Source\PSoC5/CapSense_CompCH0.c ****     /* PSoC3 ES3 or later, PSoC5 ES2 or later */
 547:.\Generated_Source\PSoC5/CapSense_CompCH0.c ****     #if (CY_PSOC3_ES3 || CY_PSOC5_ES2)
 548:.\Generated_Source\PSoC5/CapSense_CompCH0.c ****         /* Stores value in the Analog Comparator trim register for P-type load */
 549:.\Generated_Source\PSoC5/CapSense_CompCH0.c ****         CapSense_CompCH0_TR0 = (uint8) trimVal;
ARM GAS  C:\Users\awkward\AppData\Local\Temp\cclftodo.s 			page 20


 550:.\Generated_Source\PSoC5/CapSense_CompCH0.c ****         
 551:.\Generated_Source\PSoC5/CapSense_CompCH0.c ****         /* Stores value in the Analog Comparator trim register for N-type load */
 552:.\Generated_Source\PSoC5/CapSense_CompCH0.c ****         CapSense_CompCH0_TR1 = (uint8) (trimVal >> 8); 
 553:.\Generated_Source\PSoC5/CapSense_CompCH0.c ****     #endif /* CY_PSOC3_ES3 || CY_PSOC5_ES2 */
 554:.\Generated_Source\PSoC5/CapSense_CompCH0.c **** }
 531              		.loc 1 554 0
 532 000a 07F10C07 		add	r7, r7, #12
 533 000e BD46     		mov	sp, r7
 534 0010 80BC     		pop	{r7}
 535 0012 7047     		bx	lr
 536              		.cfi_endproc
 537              	.LFE8:
 538              		.size	CapSense_CompCH0_LoadTrim, .-CapSense_CompCH0_LoadTrim
 539              		.text
 540              	.Letext0: