ARM GAS  C:\Users\awkward\AppData\Local\Temp\cca62GgO.s 			page 1


   1              		.syntax unified
   2              		.cpu cortex-m3
   3              		.fpu softvfp
   4              		.eabi_attribute 20, 1
   5              		.eabi_attribute 21, 1
   6              		.eabi_attribute 23, 3
   7              		.eabi_attribute 24, 1
   8              		.eabi_attribute 25, 1
   9              		.eabi_attribute 26, 1
  10              		.eabi_attribute 30, 6
  11              		.eabi_attribute 18, 4
  12              		.thumb
  13              		.file	"CySpc.c"
  20 0000 E7010000 		.text
  20      02005D00 
  20      00000201 
  20      FB0E0D00 
  20      01010101 
  21              	.Ltext0:
  22              		.cfi_sections	.debug_frame
  23              		.global	SpcLockState
  24              		.bss
  25              		.align	2
  26              		.type	SpcLockState, %object
  27              		.size	SpcLockState, 4
  28              	SpcLockState:
  29 0000 00000000 		.space	4
  30              		.comm	cyCommand,16,4
  31              		.comm	cyCommandSize,1,1
  32              		.section	.text.CySpcLock,"ax",%progbits
  33              		.align	2
  34              		.global	CySpcLock
  35              		.thumb
  36              		.thumb_func
  37              		.type	CySpcLock, %function
  38              	CySpcLock:
  39              	.LFB0:
  40              		.file 1 ".\\Generated_Source\\PSoC5\\CySpc.c"
   1:.\Generated_Source\PSoC5/CySpc.c **** /*******************************************************************************
   2:.\Generated_Source\PSoC5/CySpc.c **** * File Name: CySpc.c  
   3:.\Generated_Source\PSoC5/CySpc.c **** * Version 2.21
   4:.\Generated_Source\PSoC5/CySpc.c **** *
   5:.\Generated_Source\PSoC5/CySpc.c **** *  Description:
   6:.\Generated_Source\PSoC5/CySpc.c **** *   Provides an API for the System Performance Component. 
   7:.\Generated_Source\PSoC5/CySpc.c **** *   The SPC functions are not meant to be called directly by the user application.
   8:.\Generated_Source\PSoC5/CySpc.c **** *
   9:.\Generated_Source\PSoC5/CySpc.c **** *  Note:
  10:.\Generated_Source\PSoC5/CySpc.c **** *
  11:.\Generated_Source\PSoC5/CySpc.c **** *   
  12:.\Generated_Source\PSoC5/CySpc.c **** *
  13:.\Generated_Source\PSoC5/CySpc.c **** *******************************************************************************
ARM GAS  C:\Users\awkward\AppData\Local\Temp\cca62GgO.s 			page 2


  14:.\Generated_Source\PSoC5/CySpc.c **** * Copyright 2008-2011, Cypress Semiconductor Corporation.  All rights reserved.
  15:.\Generated_Source\PSoC5/CySpc.c **** * You may use this file only in accordance with the license, terms, conditions, 
  16:.\Generated_Source\PSoC5/CySpc.c **** * disclaimers, and limitations in the end user license agreement accompanying 
  17:.\Generated_Source\PSoC5/CySpc.c **** * the software package with which this file was provided.
  18:.\Generated_Source\PSoC5/CySpc.c **** ********************************************************************************/
  19:.\Generated_Source\PSoC5/CySpc.c **** 
  20:.\Generated_Source\PSoC5/CySpc.c **** 
  21:.\Generated_Source\PSoC5/CySpc.c **** #include <CySpc.h>
  22:.\Generated_Source\PSoC5/CySpc.c **** 
  23:.\Generated_Source\PSoC5/CySpc.c **** 
  24:.\Generated_Source\PSoC5/CySpc.c **** /* Gate calls to the SPC. */
  25:.\Generated_Source\PSoC5/CySpc.c **** unsigned int SpcLockState = 0;
  26:.\Generated_Source\PSoC5/CySpc.c **** 
  27:.\Generated_Source\PSoC5/CySpc.c **** /* We only need storage for one comand since we can only do one command at a time. */
  28:.\Generated_Source\PSoC5/CySpc.c **** uint8 cyCommand[16];
  29:.\Generated_Source\PSoC5/CySpc.c **** uint8 cyCommandSize;
  30:.\Generated_Source\PSoC5/CySpc.c **** 
  31:.\Generated_Source\PSoC5/CySpc.c **** 
  32:.\Generated_Source\PSoC5/CySpc.c **** 
  33:.\Generated_Source\PSoC5/CySpc.c **** /*******************************************************************************
  34:.\Generated_Source\PSoC5/CySpc.c **** * Function Name: CySpcLock
  35:.\Generated_Source\PSoC5/CySpc.c **** ********************************************************************************
  36:.\Generated_Source\PSoC5/CySpc.c **** * Summary:
  37:.\Generated_Source\PSoC5/CySpc.c **** *   Locks the SPC so it can not be used by someone else.
  38:.\Generated_Source\PSoC5/CySpc.c **** *   NOTE: SPC functions are not meant to be called directly by the user application.
  39:.\Generated_Source\PSoC5/CySpc.c **** *
  40:.\Generated_Source\PSoC5/CySpc.c **** * Parameters:
  41:.\Generated_Source\PSoC5/CySpc.c **** *   void.
  42:.\Generated_Source\PSoC5/CySpc.c **** *
  43:.\Generated_Source\PSoC5/CySpc.c **** *   
  44:.\Generated_Source\PSoC5/CySpc.c **** * Return:
  45:.\Generated_Source\PSoC5/CySpc.c **** *   .
  46:.\Generated_Source\PSoC5/CySpc.c **** *   CYRET_SUCCESS if the resource was free.
  47:.\Generated_Source\PSoC5/CySpc.c **** *   CYRET_LOCKED if the SPC is in use.
  48:.\Generated_Source\PSoC5/CySpc.c **** *
  49:.\Generated_Source\PSoC5/CySpc.c **** *
  50:.\Generated_Source\PSoC5/CySpc.c **** *******************************************************************************/
  51:.\Generated_Source\PSoC5/CySpc.c **** cystatus CySpcLock(void)
  52:.\Generated_Source\PSoC5/CySpc.c **** {
  41              		.loc 1 52 0
  42              		.cfi_startproc
  43              		@ args = 0, pretend = 0, frame = 8
  44              		@ frame_needed = 1, uses_anonymous_args = 0
  45 0000 80B5     		push	{r7, lr}
  46              	.LCFI0:
  47              		.cfi_def_cfa_offset 8
  48 0002 82B0     		sub	sp, sp, #8
  49              	.LCFI1:
  50              		.cfi_def_cfa_offset 16
  51 0004 00AF     		add	r7, sp, #0
  52              		.cfi_offset 14, -4
  53              		.cfi_offset 7, -8
  54              	.LCFI2:
  55              		.cfi_def_cfa_register 7
  53:.\Generated_Source\PSoC5/CySpc.c ****     cystatus status;
  54:.\Generated_Source\PSoC5/CySpc.c ****     uint8 interruptState;
  55:.\Generated_Source\PSoC5/CySpc.c **** 
ARM GAS  C:\Users\awkward\AppData\Local\Temp\cca62GgO.s 			page 3


  56:.\Generated_Source\PSoC5/CySpc.c **** 
  57:.\Generated_Source\PSoC5/CySpc.c ****     /* Enter critical section! */
  58:.\Generated_Source\PSoC5/CySpc.c ****     interruptState = CyEnterCriticalSection();
  56              		.loc 1 58 0
  57 0006 FFF7FEFF 		bl	CyEnterCriticalSection
  58 000a 0346     		mov	r3, r0
  59 000c FB71     		strb	r3, [r7, #7]
  59:.\Generated_Source\PSoC5/CySpc.c **** 
  60:.\Generated_Source\PSoC5/CySpc.c ****     if(SpcLockState == 0)
  60              		.loc 1 60 0
  61 000e 40F20003 		movw	r3, #:lower16:SpcLockState
  62 0012 C0F20003 		movt	r3, #:upper16:SpcLockState
  63 0016 1B68     		ldr	r3, [r3, #0]
  64 0018 002B     		cmp	r3, #0
  65 001a 0AD1     		bne	.L2
  61:.\Generated_Source\PSoC5/CySpc.c ****     {
  62:.\Generated_Source\PSoC5/CySpc.c ****         SpcLockState = 1;
  66              		.loc 1 62 0
  67 001c 40F20003 		movw	r3, #:lower16:SpcLockState
  68 0020 C0F20003 		movt	r3, #:upper16:SpcLockState
  69 0024 4FF00102 		mov	r2, #1
  70 0028 1A60     		str	r2, [r3, #0]
  63:.\Generated_Source\PSoC5/CySpc.c ****         status = CYRET_SUCCESS;
  71              		.loc 1 63 0
  72 002a 4FF00003 		mov	r3, #0
  73 002e 3B60     		str	r3, [r7, #0]
  74 0030 02E0     		b	.L3
  75              	.L2:
  64:.\Generated_Source\PSoC5/CySpc.c ****     }
  65:.\Generated_Source\PSoC5/CySpc.c ****     else
  66:.\Generated_Source\PSoC5/CySpc.c ****     {
  67:.\Generated_Source\PSoC5/CySpc.c ****         status = CYRET_LOCKED;
  76              		.loc 1 67 0
  77 0032 4FF00403 		mov	r3, #4
  78 0036 3B60     		str	r3, [r7, #0]
  79              	.L3:
  68:.\Generated_Source\PSoC5/CySpc.c ****     }
  69:.\Generated_Source\PSoC5/CySpc.c **** 
  70:.\Generated_Source\PSoC5/CySpc.c ****     /* Exit critical section! */
  71:.\Generated_Source\PSoC5/CySpc.c ****     CyExitCriticalSection(interruptState);
  80              		.loc 1 71 0
  81 0038 FB79     		ldrb	r3, [r7, #7]	@ zero_extendqisi2
  82 003a 1846     		mov	r0, r3
  83 003c FFF7FEFF 		bl	CyExitCriticalSection
  72:.\Generated_Source\PSoC5/CySpc.c **** 
  73:.\Generated_Source\PSoC5/CySpc.c ****     return status;
  84              		.loc 1 73 0
  85 0040 3B68     		ldr	r3, [r7, #0]
  74:.\Generated_Source\PSoC5/CySpc.c **** }
  86              		.loc 1 74 0
  87 0042 1846     		mov	r0, r3
  88 0044 07F10807 		add	r7, r7, #8
  89 0048 BD46     		mov	sp, r7
  90 004a 80BD     		pop	{r7, pc}
  91              		.cfi_endproc
  92              	.LFE0:
  93              		.size	CySpcLock, .-CySpcLock
ARM GAS  C:\Users\awkward\AppData\Local\Temp\cca62GgO.s 			page 4


  94              		.section	.text.CySpcWriteCommand,"ax",%progbits
  95              		.align	2
  96              		.global	CySpcWriteCommand
  97              		.thumb
  98              		.thumb_func
  99              		.type	CySpcWriteCommand, %function
 100              	CySpcWriteCommand:
 101              	.LFB1:
  75:.\Generated_Source\PSoC5/CySpc.c **** 
  76:.\Generated_Source\PSoC5/CySpc.c **** 
  77:.\Generated_Source\PSoC5/CySpc.c **** /*******************************************************************************
  78:.\Generated_Source\PSoC5/CySpc.c **** * Function Name: CySpcWriteCommand
  79:.\Generated_Source\PSoC5/CySpc.c **** ********************************************************************************
  80:.\Generated_Source\PSoC5/CySpc.c **** * Summary:
  81:.\Generated_Source\PSoC5/CySpc.c **** *   Writes the command created by one of the "CySpcCreateCmd..." functions, then
  82:.\Generated_Source\PSoC5/CySpc.c **** *   writes the data parameters passed into this function. 
  83:.\Generated_Source\PSoC5/CySpc.c **** *   NOTE: SPC functions are not meant to be called directly by the user application.
  84:.\Generated_Source\PSoC5/CySpc.c **** *
  85:.\Generated_Source\PSoC5/CySpc.c **** * Parameters:
  86:.\Generated_Source\PSoC5/CySpc.c **** * parameters:
  87:.\Generated_Source\PSoC5/CySpc.c **** *   Address of the parameters associated with the SPC function being executed.
  88:.\Generated_Source\PSoC5/CySpc.c **** *   NOTE: SPC functions are not meant to be called directly by the user application.
  89:.\Generated_Source\PSoC5/CySpc.c **** *
  90:.\Generated_Source\PSoC5/CySpc.c **** * size:
  91:.\Generated_Source\PSoC5/CySpc.c **** *   size of data in bytes.
  92:.\Generated_Source\PSoC5/CySpc.c **** *
  93:.\Generated_Source\PSoC5/CySpc.c **** *   
  94:.\Generated_Source\PSoC5/CySpc.c **** * Return:
  95:.\Generated_Source\PSoC5/CySpc.c **** *   CYRET_LOCKED if the SPC is in use.
  96:.\Generated_Source\PSoC5/CySpc.c **** *   CYRET_CANCELED if the SPC didn't accept the commnad.
  97:.\Generated_Source\PSoC5/CySpc.c **** *   CYRET_STARTED if the command and data was correctly started.
  98:.\Generated_Source\PSoC5/CySpc.c **** *
  99:.\Generated_Source\PSoC5/CySpc.c **** * Theory:
 100:.\Generated_Source\PSoC5/CySpc.c **** *   This function must be called after one of the "CySpcCreateCmd..." functions.
 101:.\Generated_Source\PSoC5/CySpc.c **** *   This function writes the command and data parameters to the
 102:.\Generated_Source\PSoC5/CySpc.c **** *   SPC.
 103:.\Generated_Source\PSoC5/CySpc.c **** *
 104:.\Generated_Source\PSoC5/CySpc.c **** *
 105:.\Generated_Source\PSoC5/CySpc.c **** *******************************************************************************/
 106:.\Generated_Source\PSoC5/CySpc.c **** cystatus CySpcWriteCommand(uint8 * parameters, uint16 size)
 107:.\Generated_Source\PSoC5/CySpc.c **** {
 102              		.loc 1 107 0
 103              		.cfi_startproc
 104              		@ args = 0, pretend = 0, frame = 24
 105              		@ frame_needed = 1, uses_anonymous_args = 0
 106              		@ link register save eliminated.
 107 0000 80B4     		push	{r7}
 108              	.LCFI3:
 109              		.cfi_def_cfa_offset 4
 110 0002 87B0     		sub	sp, sp, #28
 111              	.LCFI4:
 112              		.cfi_def_cfa_offset 32
 113 0004 00AF     		add	r7, sp, #0
 114              		.cfi_offset 7, -4
 115              	.LCFI5:
 116              		.cfi_def_cfa_register 7
 117 0006 7860     		str	r0, [r7, #4]
ARM GAS  C:\Users\awkward\AppData\Local\Temp\cca62GgO.s 			page 5


 118 0008 0B46     		mov	r3, r1
 119 000a 7B80     		strh	r3, [r7, #2]	@ movhi
 108:.\Generated_Source\PSoC5/CySpc.c ****     uint8 * pointer;
 109:.\Generated_Source\PSoC5/CySpc.c ****     uint16 index;
 110:.\Generated_Source\PSoC5/CySpc.c ****     cystatus status;
 111:.\Generated_Source\PSoC5/CySpc.c **** 
 112:.\Generated_Source\PSoC5/CySpc.c **** 
 113:.\Generated_Source\PSoC5/CySpc.c ****     /* Has the SPC controller started something? */
 114:.\Generated_Source\PSoC5/CySpc.c ****     if(*SPC_STATUS & SPC_SPC_IDLE)
 120              		.loc 1 114 0
 121 000c 44F22273 		movw	r3, #:lower16:1073760034
 122 0010 C4F20003 		movt	r3, #:upper16:1073760034
 123 0014 1B78     		ldrb	r3, [r3, #0]
 124 0016 DBB2     		uxtb	r3, r3
 125 0018 03F00203 		and	r3, r3, #2
 126 001c 002B     		cmp	r3, #0
 127 001e 6AD0     		beq	.L6
 115:.\Generated_Source\PSoC5/CySpc.c ****     {
 116:.\Generated_Source\PSoC5/CySpc.c ****         /* Create packet. */
 117:.\Generated_Source\PSoC5/CySpc.c ****         pointer = cyCommand;
 128              		.loc 1 117 0
 129 0020 40F20003 		movw	r3, #:lower16:cyCommand
 130 0024 C0F20003 		movt	r3, #:upper16:cyCommand
 131 0028 FB60     		str	r3, [r7, #12]
 118:.\Generated_Source\PSoC5/CySpc.c ****         *SPC_CPU_DATA = *pointer++;
 132              		.loc 1 118 0
 133 002a 44F22073 		movw	r3, #:lower16:1073760032
 134 002e C4F20003 		movt	r3, #:upper16:1073760032
 135 0032 FA68     		ldr	r2, [r7, #12]
 136 0034 1278     		ldrb	r2, [r2, #0]	@ zero_extendqisi2
 137 0036 1A70     		strb	r2, [r3, #0]
 138 0038 FB68     		ldr	r3, [r7, #12]
 139 003a 03F10103 		add	r3, r3, #1
 140 003e FB60     		str	r3, [r7, #12]
 119:.\Generated_Source\PSoC5/CySpc.c ****         *SPC_CPU_DATA = *pointer++;
 141              		.loc 1 119 0
 142 0040 44F22073 		movw	r3, #:lower16:1073760032
 143 0044 C4F20003 		movt	r3, #:upper16:1073760032
 144 0048 FA68     		ldr	r2, [r7, #12]
 145 004a 1278     		ldrb	r2, [r2, #0]	@ zero_extendqisi2
 146 004c 1A70     		strb	r2, [r3, #0]
 147 004e FB68     		ldr	r3, [r7, #12]
 148 0050 03F10103 		add	r3, r3, #1
 149 0054 FB60     		str	r3, [r7, #12]
 120:.\Generated_Source\PSoC5/CySpc.c ****         *SPC_CPU_DATA = *pointer++;
 150              		.loc 1 120 0
 151 0056 44F22073 		movw	r3, #:lower16:1073760032
 152 005a C4F20003 		movt	r3, #:upper16:1073760032
 153 005e FA68     		ldr	r2, [r7, #12]
 154 0060 1278     		ldrb	r2, [r2, #0]	@ zero_extendqisi2
 155 0062 1A70     		strb	r2, [r3, #0]
 156 0064 FB68     		ldr	r3, [r7, #12]
 157 0066 03F10103 		add	r3, r3, #1
 158 006a FB60     		str	r3, [r7, #12]
 121:.\Generated_Source\PSoC5/CySpc.c **** 
 122:.\Generated_Source\PSoC5/CySpc.c ****         /* Make sure the command was accepted. */
 123:.\Generated_Source\PSoC5/CySpc.c ****         if(!(*SPC_STATUS & SPC_SPC_IDLE))
ARM GAS  C:\Users\awkward\AppData\Local\Temp\cca62GgO.s 			page 6


 159              		.loc 1 123 0
 160 006c 44F22273 		movw	r3, #:lower16:1073760034
 161 0070 C4F20003 		movt	r3, #:upper16:1073760034
 162 0074 1B78     		ldrb	r3, [r3, #0]
 163 0076 DBB2     		uxtb	r3, r3
 164 0078 03F00203 		and	r3, r3, #2
 165 007c 002B     		cmp	r3, #0
 166 007e 36D1     		bne	.L7
 124:.\Generated_Source\PSoC5/CySpc.c ****         {
 125:.\Generated_Source\PSoC5/CySpc.c ****             /* Write the parameters. */
 126:.\Generated_Source\PSoC5/CySpc.c ****             for(index = 0; index < cyCommandSize; index++)
 167              		.loc 1 126 0
 168 0080 4FF00003 		mov	r3, #0
 169 0084 7B82     		strh	r3, [r7, #18]	@ movhi
 170 0086 0EE0     		b	.L8
 171              	.L9:
 127:.\Generated_Source\PSoC5/CySpc.c ****                 *SPC_CPU_DATA = *pointer++;
 172              		.loc 1 127 0
 173 0088 44F22073 		movw	r3, #:lower16:1073760032
 174 008c C4F20003 		movt	r3, #:upper16:1073760032
 175 0090 FA68     		ldr	r2, [r7, #12]
 176 0092 1278     		ldrb	r2, [r2, #0]	@ zero_extendqisi2
 177 0094 1A70     		strb	r2, [r3, #0]
 178 0096 FB68     		ldr	r3, [r7, #12]
 179 0098 03F10103 		add	r3, r3, #1
 180 009c FB60     		str	r3, [r7, #12]
 181              		.loc 1 126 0
 182 009e 7B8A     		ldrh	r3, [r7, #18]	@ movhi
 183 00a0 03F10103 		add	r3, r3, #1
 184 00a4 7B82     		strh	r3, [r7, #18]	@ movhi
 185              	.L8:
 186 00a6 40F20003 		movw	r3, #:lower16:cyCommandSize
 187 00aa C0F20003 		movt	r3, #:upper16:cyCommandSize
 188 00ae 1B78     		ldrb	r3, [r3, #0]	@ zero_extendqisi2
 189 00b0 7A8A     		ldrh	r2, [r7, #18]
 190 00b2 9A42     		cmp	r2, r3
 191 00b4 E8D3     		bcc	.L9
 128:.\Generated_Source\PSoC5/CySpc.c **** 
 129:.\Generated_Source\PSoC5/CySpc.c ****             /* Write parameters. */
 130:.\Generated_Source\PSoC5/CySpc.c ****             if(size != 0)
 192              		.loc 1 130 0
 193 00b6 7B88     		ldrh	r3, [r7, #2]
 194 00b8 002B     		cmp	r3, #0
 195 00ba 14D0     		beq	.L10
 131:.\Generated_Source\PSoC5/CySpc.c ****             {
 132:.\Generated_Source\PSoC5/CySpc.c ****                 for(index = 0; index < size; index++)
 196              		.loc 1 132 0
 197 00bc 4FF00003 		mov	r3, #0
 198 00c0 7B82     		strh	r3, [r7, #18]	@ movhi
 199 00c2 0CE0     		b	.L11
 200              	.L12:
 133:.\Generated_Source\PSoC5/CySpc.c ****                     *SPC_CPU_DATA = parameters[index];
 201              		.loc 1 133 0
 202 00c4 44F22073 		movw	r3, #:lower16:1073760032
 203 00c8 C4F20003 		movt	r3, #:upper16:1073760032
 204 00cc 798A     		ldrh	r1, [r7, #18]
 205 00ce 7A68     		ldr	r2, [r7, #4]
ARM GAS  C:\Users\awkward\AppData\Local\Temp\cca62GgO.s 			page 7


 206 00d0 0A44     		add	r2, r1, r2
 207 00d2 1278     		ldrb	r2, [r2, #0]	@ zero_extendqisi2
 208 00d4 1A70     		strb	r2, [r3, #0]
 209              		.loc 1 132 0
 210 00d6 7B8A     		ldrh	r3, [r7, #18]	@ movhi
 211 00d8 03F10103 		add	r3, r3, #1
 212 00dc 7B82     		strh	r3, [r7, #18]	@ movhi
 213              	.L11:
 214 00de 7A8A     		ldrh	r2, [r7, #18]
 215 00e0 7B88     		ldrh	r3, [r7, #2]
 216 00e2 9A42     		cmp	r2, r3
 217 00e4 EED3     		bcc	.L12
 218              	.L10:
 134:.\Generated_Source\PSoC5/CySpc.c ****             }
 135:.\Generated_Source\PSoC5/CySpc.c **** 
 136:.\Generated_Source\PSoC5/CySpc.c ****             /* We successfuly wrote the command, the caller can check for errors. */
 137:.\Generated_Source\PSoC5/CySpc.c ****             status = CYRET_STARTED;
 219              		.loc 1 137 0
 220 00e6 4FF00703 		mov	r3, #7
 221 00ea 7B61     		str	r3, [r7, #20]
 138:.\Generated_Source\PSoC5/CySpc.c ****         }
 139:.\Generated_Source\PSoC5/CySpc.c ****         else
 140:.\Generated_Source\PSoC5/CySpc.c ****         {
 141:.\Generated_Source\PSoC5/CySpc.c ****             /* Get the status. */
 142:.\Generated_Source\PSoC5/CySpc.c ****             status = CYRET_CANCELED;
 222              		.loc 1 142 0
 223 00ec 06E0     		b	.L14
 224              	.L7:
 225 00ee 4FF00903 		mov	r3, #9
 226 00f2 7B61     		str	r3, [r7, #20]
 227 00f4 02E0     		b	.L14
 228              	.L6:
 143:.\Generated_Source\PSoC5/CySpc.c ****         }
 144:.\Generated_Source\PSoC5/CySpc.c ****     }
 145:.\Generated_Source\PSoC5/CySpc.c ****     else
 146:.\Generated_Source\PSoC5/CySpc.c ****     {
 147:.\Generated_Source\PSoC5/CySpc.c ****         status = CYRET_LOCKED;
 229              		.loc 1 147 0
 230 00f6 4FF00403 		mov	r3, #4
 231 00fa 7B61     		str	r3, [r7, #20]
 232              	.L14:
 148:.\Generated_Source\PSoC5/CySpc.c ****     }
 149:.\Generated_Source\PSoC5/CySpc.c **** 
 150:.\Generated_Source\PSoC5/CySpc.c ****     return status;
 233              		.loc 1 150 0
 234 00fc 7B69     		ldr	r3, [r7, #20]
 151:.\Generated_Source\PSoC5/CySpc.c **** }
 235              		.loc 1 151 0
 236 00fe 1846     		mov	r0, r3
 237 0100 07F11C07 		add	r7, r7, #28
 238 0104 BD46     		mov	sp, r7
 239 0106 80BC     		pop	{r7}
 240 0108 7047     		bx	lr
 241              		.cfi_endproc
 242              	.LFE1:
 243              		.size	CySpcWriteCommand, .-CySpcWriteCommand
 244 010a 00BF     		.section	.text.CySpcReadData,"ax",%progbits
ARM GAS  C:\Users\awkward\AppData\Local\Temp\cca62GgO.s 			page 8


 245              		.align	2
 246              		.global	CySpcReadData
 247              		.thumb
 248              		.thumb_func
 249              		.type	CySpcReadData, %function
 250              	CySpcReadData:
 251              	.LFB2:
 152:.\Generated_Source\PSoC5/CySpc.c **** 
 153:.\Generated_Source\PSoC5/CySpc.c **** 
 154:.\Generated_Source\PSoC5/CySpc.c **** /*******************************************************************************
 155:.\Generated_Source\PSoC5/CySpc.c **** * Function Name: CySPCReadData
 156:.\Generated_Source\PSoC5/CySpc.c **** ********************************************************************************
 157:.\Generated_Source\PSoC5/CySpc.c **** * Summary:
 158:.\Generated_Source\PSoC5/CySpc.c **** *   Reads data back from the SPC.  
 159:.\Generated_Source\PSoC5/CySpc.c **** *   NOTE: SPC functions are not meant to be called directly by the user application.
 160:.\Generated_Source\PSoC5/CySpc.c **** *
 161:.\Generated_Source\PSoC5/CySpc.c **** * Parameters:
 162:.\Generated_Source\PSoC5/CySpc.c **** * buffer:
 163:.\Generated_Source\PSoC5/CySpc.c **** *   Address to store data read.
 164:.\Generated_Source\PSoC5/CySpc.c **** *
 165:.\Generated_Source\PSoC5/CySpc.c **** * size:
 166:.\Generated_Source\PSoC5/CySpc.c **** *   number of bytes to read from the SPC.
 167:.\Generated_Source\PSoC5/CySpc.c **** *
 168:.\Generated_Source\PSoC5/CySpc.c **** * Return:
 169:.\Generated_Source\PSoC5/CySpc.c **** *   The number of bytes read from the SPC.
 170:.\Generated_Source\PSoC5/CySpc.c **** *
 171:.\Generated_Source\PSoC5/CySpc.c **** *
 172:.\Generated_Source\PSoC5/CySpc.c **** *******************************************************************************/
 173:.\Generated_Source\PSoC5/CySpc.c **** cystatus CySpcReadData(uint8 * buffer, uint8 size) 
 174:.\Generated_Source\PSoC5/CySpc.c **** {
 252              		.loc 1 174 0
 253              		.cfi_startproc
 254              		@ args = 0, pretend = 0, frame = 16
 255              		@ frame_needed = 1, uses_anonymous_args = 0
 256 0000 80B5     		push	{r7, lr}
 257              	.LCFI6:
 258              		.cfi_def_cfa_offset 8
 259 0002 84B0     		sub	sp, sp, #16
 260              	.LCFI7:
 261              		.cfi_def_cfa_offset 24
 262 0004 00AF     		add	r7, sp, #0
 263              		.cfi_offset 14, -4
 264              		.cfi_offset 7, -8
 265              	.LCFI8:
 266              		.cfi_def_cfa_register 7
 267 0006 7860     		str	r0, [r7, #4]
 268 0008 0B46     		mov	r3, r1
 269 000a FB70     		strb	r3, [r7, #3]
 175:.\Generated_Source\PSoC5/CySpc.c ****     uint8 index;
 176:.\Generated_Source\PSoC5/CySpc.c ****     
 177:.\Generated_Source\PSoC5/CySpc.c ****     for(index = 0; index < size; index++)
 270              		.loc 1 177 0
 271 000c 4FF00003 		mov	r3, #0
 272 0010 FB73     		strb	r3, [r7, #15]
 273 0012 1DE0     		b	.L17
 274              	.L19:
 178:.\Generated_Source\PSoC5/CySpc.c ****     {    
ARM GAS  C:\Users\awkward\AppData\Local\Temp\cca62GgO.s 			page 9


 179:.\Generated_Source\PSoC5/CySpc.c ****         while(!(*SPC_STATUS & SPC_DATA_READY))
 180:.\Generated_Source\PSoC5/CySpc.c ****         {
 181:.\Generated_Source\PSoC5/CySpc.c **** 			CyDelayUs(1);
 275              		.loc 1 181 0
 276 0014 4FF00100 		mov	r0, #1
 277 0018 FFF7FEFF 		bl	CyDelayUs
 278 001c 00E0     		b	.L18
 279              	.L22:
 280              		.loc 1 179 0
 281 001e 00BF     		nop
 282              	.L18:
 283 0020 44F22273 		movw	r3, #:lower16:1073760034
 284 0024 C4F20003 		movt	r3, #:upper16:1073760034
 285 0028 1B78     		ldrb	r3, [r3, #0]
 286 002a DBB2     		uxtb	r3, r3
 287 002c 03F00103 		and	r3, r3, #1
 288 0030 002B     		cmp	r3, #0
 289 0032 EFD0     		beq	.L19
 182:.\Generated_Source\PSoC5/CySpc.c ****         }
 183:.\Generated_Source\PSoC5/CySpc.c **** 
 184:.\Generated_Source\PSoC5/CySpc.c ****         buffer[index] = *SPC_CPU_DATA;
 290              		.loc 1 184 0
 291 0034 FA7B     		ldrb	r2, [r7, #15]	@ zero_extendqisi2
 292 0036 7B68     		ldr	r3, [r7, #4]
 293 0038 1A44     		add	r2, r2, r3
 294 003a 44F22073 		movw	r3, #:lower16:1073760032
 295 003e C4F20003 		movt	r3, #:upper16:1073760032
 296 0042 1B78     		ldrb	r3, [r3, #0]
 297 0044 DBB2     		uxtb	r3, r3
 298 0046 1370     		strb	r3, [r2, #0]
 299              		.loc 1 177 0
 300 0048 FB7B     		ldrb	r3, [r7, #15]
 301 004a 03F10103 		add	r3, r3, #1
 302 004e FB73     		strb	r3, [r7, #15]
 303              	.L17:
 304 0050 FA7B     		ldrb	r2, [r7, #15]	@ zero_extendqisi2
 305 0052 FB78     		ldrb	r3, [r7, #3]	@ zero_extendqisi2
 306 0054 9A42     		cmp	r2, r3
 307 0056 E2D3     		bcc	.L22
 185:.\Generated_Source\PSoC5/CySpc.c ****     }
 186:.\Generated_Source\PSoC5/CySpc.c **** 
 187:.\Generated_Source\PSoC5/CySpc.c ****     return index;
 308              		.loc 1 187 0
 309 0058 FB7B     		ldrb	r3, [r7, #15]	@ zero_extendqisi2
 188:.\Generated_Source\PSoC5/CySpc.c **** }
 310              		.loc 1 188 0
 311 005a 1846     		mov	r0, r3
 312 005c 07F11007 		add	r7, r7, #16
 313 0060 BD46     		mov	sp, r7
 314 0062 80BD     		pop	{r7, pc}
 315              		.cfi_endproc
 316              	.LFE2:
 317              		.size	CySpcReadData, .-CySpcReadData
 318              		.section	.text.CySpcUnlock,"ax",%progbits
 319              		.align	2
 320              		.global	CySpcUnlock
 321              		.thumb
ARM GAS  C:\Users\awkward\AppData\Local\Temp\cca62GgO.s 			page 10


 322              		.thumb_func
 323              		.type	CySpcUnlock, %function
 324              	CySpcUnlock:
 325              	.LFB3:
 189:.\Generated_Source\PSoC5/CySpc.c **** 
 190:.\Generated_Source\PSoC5/CySpc.c **** 
 191:.\Generated_Source\PSoC5/CySpc.c **** /*******************************************************************************
 192:.\Generated_Source\PSoC5/CySpc.c **** * Function Name: CySpcUnlock
 193:.\Generated_Source\PSoC5/CySpc.c **** ********************************************************************************
 194:.\Generated_Source\PSoC5/CySpc.c **** * Summary:
 195:.\Generated_Source\PSoC5/CySpc.c **** *   Unlocks the SPC so it can be used by someone else.
 196:.\Generated_Source\PSoC5/CySpc.c **** *   NOTE: SPC functions are not meant to be called directly by the user application.
 197:.\Generated_Source\PSoC5/CySpc.c **** *
 198:.\Generated_Source\PSoC5/CySpc.c **** * Parameters:
 199:.\Generated_Source\PSoC5/CySpc.c **** *   void.
 200:.\Generated_Source\PSoC5/CySpc.c **** *
 201:.\Generated_Source\PSoC5/CySpc.c **** *   
 202:.\Generated_Source\PSoC5/CySpc.c **** * Return:
 203:.\Generated_Source\PSoC5/CySpc.c **** *   void.
 204:.\Generated_Source\PSoC5/CySpc.c **** *
 205:.\Generated_Source\PSoC5/CySpc.c **** *
 206:.\Generated_Source\PSoC5/CySpc.c **** *******************************************************************************/
 207:.\Generated_Source\PSoC5/CySpc.c **** void CySpcUnlock(void)
 208:.\Generated_Source\PSoC5/CySpc.c **** {
 326              		.loc 1 208 0
 327              		.cfi_startproc
 328              		@ args = 0, pretend = 0, frame = 0
 329              		@ frame_needed = 1, uses_anonymous_args = 0
 330              		@ link register save eliminated.
 331 0000 80B4     		push	{r7}
 332              	.LCFI9:
 333              		.cfi_def_cfa_offset 4
 334 0002 00AF     		add	r7, sp, #0
 335              		.cfi_offset 7, -4
 336              	.LCFI10:
 337              		.cfi_def_cfa_register 7
 209:.\Generated_Source\PSoC5/CySpc.c ****     /* Release the SPC object. */
 210:.\Generated_Source\PSoC5/CySpc.c ****     SpcLockState = 0;
 338              		.loc 1 210 0
 339 0004 40F20003 		movw	r3, #:lower16:SpcLockState
 340 0008 C0F20003 		movt	r3, #:upper16:SpcLockState
 341 000c 4FF00002 		mov	r2, #0
 342 0010 1A60     		str	r2, [r3, #0]
 211:.\Generated_Source\PSoC5/CySpc.c **** }
 343              		.loc 1 211 0
 344 0012 BD46     		mov	sp, r7
 345 0014 80BC     		pop	{r7}
 346 0016 7047     		bx	lr
 347              		.cfi_endproc
 348              	.LFE3:
 349              		.size	CySpcUnlock, .-CySpcUnlock
 350              		.section	.text.CySpcCreateCmdLoadMultiByte,"ax",%progbits
 351              		.align	2
 352              		.global	CySpcCreateCmdLoadMultiByte
 353              		.thumb
 354              		.thumb_func
 355              		.type	CySpcCreateCmdLoadMultiByte, %function
ARM GAS  C:\Users\awkward\AppData\Local\Temp\cca62GgO.s 			page 11


 356              	CySpcCreateCmdLoadMultiByte:
 357              	.LFB4:
 212:.\Generated_Source\PSoC5/CySpc.c **** 
 213:.\Generated_Source\PSoC5/CySpc.c **** 
 214:.\Generated_Source\PSoC5/CySpc.c **** /*******************************************************************************
 215:.\Generated_Source\PSoC5/CySpc.c **** * Function Name: CySpcCreateCmdLoadMultiByte
 216:.\Generated_Source\PSoC5/CySpc.c **** ********************************************************************************
 217:.\Generated_Source\PSoC5/CySpc.c **** * Summary:
 218:.\Generated_Source\PSoC5/CySpc.c **** *   Sets up the command to LoadMultiByte.
 219:.\Generated_Source\PSoC5/CySpc.c **** *
 220:.\Generated_Source\PSoC5/CySpc.c **** * Parameters:
 221:.\Generated_Source\PSoC5/CySpc.c **** * array:
 222:.\Generated_Source\PSoC5/CySpc.c **** *   Id of the array.
 223:.\Generated_Source\PSoC5/CySpc.c **** *
 224:.\Generated_Source\PSoC5/CySpc.c **** * address:
 225:.\Generated_Source\PSoC5/CySpc.c **** *   flash/eeprom addrress
 226:.\Generated_Source\PSoC5/CySpc.c **** *
 227:.\Generated_Source\PSoC5/CySpc.c **** * size:
 228:.\Generated_Source\PSoC5/CySpc.c **** *   number bytes to load.
 229:.\Generated_Source\PSoC5/CySpc.c **** *   
 230:.\Generated_Source\PSoC5/CySpc.c **** * Return:
 231:.\Generated_Source\PSoC5/CySpc.c **** *   CYRET_SUCCESS if the command was created sucessfuly.
 232:.\Generated_Source\PSoC5/CySpc.c **** *   CYRET_LOCKED if the SPC is in use.
 233:.\Generated_Source\PSoC5/CySpc.c **** *   CYRET_BAD_PARAM if an invalid parameter was passed.
 234:.\Generated_Source\PSoC5/CySpc.c **** *
 235:.\Generated_Source\PSoC5/CySpc.c **** * Theory:
 236:.\Generated_Source\PSoC5/CySpc.c **** *
 237:.\Generated_Source\PSoC5/CySpc.c **** *
 238:.\Generated_Source\PSoC5/CySpc.c **** *******************************************************************************/
 239:.\Generated_Source\PSoC5/CySpc.c **** cystatus CySpcCreateCmdLoadMultiByte(uint8 array, uint16 address, uint16 number)
 240:.\Generated_Source\PSoC5/CySpc.c **** {
 358              		.loc 1 240 0
 359              		.cfi_startproc
 360              		@ args = 0, pretend = 0, frame = 16
 361              		@ frame_needed = 1, uses_anonymous_args = 0
 362              		@ link register save eliminated.
 363 0000 80B4     		push	{r7}
 364              	.LCFI11:
 365              		.cfi_def_cfa_offset 4
 366 0002 85B0     		sub	sp, sp, #20
 367              	.LCFI12:
 368              		.cfi_def_cfa_offset 24
 369 0004 00AF     		add	r7, sp, #0
 370              		.cfi_offset 7, -4
 371              	.LCFI13:
 372              		.cfi_def_cfa_register 7
 373 0006 1346     		mov	r3, r2
 374 0008 0246     		mov	r2, r0
 375 000a FA71     		strb	r2, [r7, #7]
 376 000c 0A46     		mov	r2, r1	@ movhi
 377 000e BA80     		strh	r2, [r7, #4]	@ movhi
 378 0010 7B80     		strh	r3, [r7, #2]	@ movhi
 241:.\Generated_Source\PSoC5/CySpc.c ****     cystatus status;
 242:.\Generated_Source\PSoC5/CySpc.c **** 
 243:.\Generated_Source\PSoC5/CySpc.c **** 
 244:.\Generated_Source\PSoC5/CySpc.c ****     /* Check if number is correct for array. */
 245:.\Generated_Source\PSoC5/CySpc.c ****     if((array < LAST_FLASH_ARRAYID && number == 32) ||
ARM GAS  C:\Users\awkward\AppData\Local\Temp\cca62GgO.s 			page 12


 379              		.loc 1 245 0
 380 0012 FB79     		ldrb	r3, [r7, #7]	@ zero_extendqisi2
 381 0014 3E2B     		cmp	r3, #62
 382 0016 02D8     		bhi	.L26
 383 0018 7B88     		ldrh	r3, [r7, #2]
 384 001a 202B     		cmp	r3, #32
 385 001c 05D0     		beq	.L27
 386              	.L26:
 387 001e FB79     		ldrb	r3, [r7, #7]	@ zero_extendqisi2
 388 0020 3F2B     		cmp	r3, #63
 389 0022 46D9     		bls	.L28
 390 0024 7B88     		ldrh	r3, [r7, #2]
 391 0026 102B     		cmp	r3, #16
 392 0028 43D1     		bne	.L28
 393              	.L27:
 246:.\Generated_Source\PSoC5/CySpc.c ****        (array > LAST_FLASH_ARRAYID && number == 16))
 247:.\Generated_Source\PSoC5/CySpc.c ****     {
 248:.\Generated_Source\PSoC5/CySpc.c ****         /* Create packet command. */
 249:.\Generated_Source\PSoC5/CySpc.c ****         cyCommand[0] = SPC_KEY_ONE;
 394              		.loc 1 249 0
 395 002a 40F20003 		movw	r3, #:lower16:cyCommand
 396 002e C0F20003 		movt	r3, #:upper16:cyCommand
 397 0032 6FF04902 		mvn	r2, #73
 398 0036 1A70     		strb	r2, [r3, #0]
 250:.\Generated_Source\PSoC5/CySpc.c ****         cyCommand[1] = SPC_KEY_TWO(SPC_CMD_LD_MULTI_BYTE);
 399              		.loc 1 250 0
 400 0038 40F20003 		movw	r3, #:lower16:cyCommand
 401 003c C0F20003 		movt	r3, #:upper16:cyCommand
 402 0040 6FF02B02 		mvn	r2, #43
 403 0044 5A70     		strb	r2, [r3, #1]
 251:.\Generated_Source\PSoC5/CySpc.c ****         cyCommand[2] = SPC_CMD_LD_MULTI_BYTE;
 404              		.loc 1 251 0
 405 0046 40F20003 		movw	r3, #:lower16:cyCommand
 406 004a C0F20003 		movt	r3, #:upper16:cyCommand
 407 004e 4FF00102 		mov	r2, #1
 408 0052 9A70     		strb	r2, [r3, #2]
 252:.\Generated_Source\PSoC5/CySpc.c ****         
 253:.\Generated_Source\PSoC5/CySpc.c ****         /* Create packet parameters. */
 254:.\Generated_Source\PSoC5/CySpc.c ****         cyCommand[3] = array;
 409              		.loc 1 254 0
 410 0054 40F20003 		movw	r3, #:lower16:cyCommand
 411 0058 C0F20003 		movt	r3, #:upper16:cyCommand
 412 005c FA79     		ldrb	r2, [r7, #7]
 413 005e DA70     		strb	r2, [r3, #3]
 255:.\Generated_Source\PSoC5/CySpc.c ****         cyCommand[4] = 1 & HI8(address);
 414              		.loc 1 255 0
 415 0060 BB88     		ldrh	r3, [r7, #4]
 416 0062 4FEA1323 		lsr	r3, r3, #8
 417 0066 9BB2     		uxth	r3, r3
 418 0068 DBB2     		uxtb	r3, r3
 419 006a 1A46     		mov	r2, r3
 420 006c 02F00102 		and	r2, r2, #1
 421 0070 40F20003 		movw	r3, #:lower16:cyCommand
 422 0074 C0F20003 		movt	r3, #:upper16:cyCommand
 423 0078 1A71     		strb	r2, [r3, #4]
 256:.\Generated_Source\PSoC5/CySpc.c ****         cyCommand[5] = LO8(address);
 424              		.loc 1 256 0
ARM GAS  C:\Users\awkward\AppData\Local\Temp\cca62GgO.s 			page 13


 425 007a BB88     		ldrh	r3, [r7, #4]	@ movhi
 426 007c DAB2     		uxtb	r2, r3
 427 007e 40F20003 		movw	r3, #:lower16:cyCommand
 428 0082 C0F20003 		movt	r3, #:upper16:cyCommand
 429 0086 5A71     		strb	r2, [r3, #5]
 257:.\Generated_Source\PSoC5/CySpc.c ****         cyCommand[6] = number - 1;
 430              		.loc 1 257 0
 431 0088 7B88     		ldrh	r3, [r7, #2]	@ movhi
 432 008a DBB2     		uxtb	r3, r3
 433 008c 03F1FF33 		add	r3, r3, #-1
 434 0090 DAB2     		uxtb	r2, r3
 435 0092 40F20003 		movw	r3, #:lower16:cyCommand
 436 0096 C0F20003 		movt	r3, #:upper16:cyCommand
 437 009a 9A71     		strb	r2, [r3, #6]
 258:.\Generated_Source\PSoC5/CySpc.c **** 
 259:.\Generated_Source\PSoC5/CySpc.c ****         cyCommandSize = SIZEOF_CMD_LOAD_MBYTE;
 438              		.loc 1 259 0
 439 009c 40F20003 		movw	r3, #:lower16:cyCommandSize
 440 00a0 C0F20003 		movt	r3, #:upper16:cyCommandSize
 441 00a4 4FF00402 		mov	r2, #4
 442 00a8 1A70     		strb	r2, [r3, #0]
 260:.\Generated_Source\PSoC5/CySpc.c **** 
 261:.\Generated_Source\PSoC5/CySpc.c ****         status = CYRET_SUCCESS;
 443              		.loc 1 261 0
 444 00aa 4FF00003 		mov	r3, #0
 445 00ae FB60     		str	r3, [r7, #12]
 446              		.loc 1 245 0
 447 00b0 02E0     		b	.L29
 448              	.L28:
 262:.\Generated_Source\PSoC5/CySpc.c ****     }
 263:.\Generated_Source\PSoC5/CySpc.c ****     else
 264:.\Generated_Source\PSoC5/CySpc.c ****     {
 265:.\Generated_Source\PSoC5/CySpc.c ****         status = CYRET_BAD_PARAM;
 449              		.loc 1 265 0
 450 00b2 4FF00103 		mov	r3, #1
 451 00b6 FB60     		str	r3, [r7, #12]
 452              	.L29:
 266:.\Generated_Source\PSoC5/CySpc.c ****     }
 267:.\Generated_Source\PSoC5/CySpc.c **** 
 268:.\Generated_Source\PSoC5/CySpc.c ****     return status;
 453              		.loc 1 268 0
 454 00b8 FB68     		ldr	r3, [r7, #12]
 269:.\Generated_Source\PSoC5/CySpc.c **** }
 455              		.loc 1 269 0
 456 00ba 1846     		mov	r0, r3
 457 00bc 07F11407 		add	r7, r7, #20
 458 00c0 BD46     		mov	sp, r7
 459 00c2 80BC     		pop	{r7}
 460 00c4 7047     		bx	lr
 461              		.cfi_endproc
 462              	.LFE4:
 463              		.size	CySpcCreateCmdLoadMultiByte, .-CySpcCreateCmdLoadMultiByte
 464 00c6 00BF     		.section	.text.CySpcCreateCmdLoadRow,"ax",%progbits
 465              		.align	2
 466              		.global	CySpcCreateCmdLoadRow
 467              		.thumb
 468              		.thumb_func
ARM GAS  C:\Users\awkward\AppData\Local\Temp\cca62GgO.s 			page 14


 469              		.type	CySpcCreateCmdLoadRow, %function
 470              	CySpcCreateCmdLoadRow:
 471              	.LFB5:
 270:.\Generated_Source\PSoC5/CySpc.c **** 
 271:.\Generated_Source\PSoC5/CySpc.c **** 
 272:.\Generated_Source\PSoC5/CySpc.c **** /*******************************************************************************
 273:.\Generated_Source\PSoC5/CySpc.c **** * Function Name: CySpcCreateCmdLoadRow
 274:.\Generated_Source\PSoC5/CySpc.c **** ********************************************************************************
 275:.\Generated_Source\PSoC5/CySpc.c **** * Summary:
 276:.\Generated_Source\PSoC5/CySpc.c **** *   Sets up the command to LoadRow.
 277:.\Generated_Source\PSoC5/CySpc.c **** *   NOTE: SPC functions are not meant to be called directly by the user application.
 278:.\Generated_Source\PSoC5/CySpc.c **** *   
 279:.\Generated_Source\PSoC5/CySpc.c **** *
 280:.\Generated_Source\PSoC5/CySpc.c **** * Parameters:
 281:.\Generated_Source\PSoC5/CySpc.c **** * array:
 282:.\Generated_Source\PSoC5/CySpc.c **** *   Id of the array.
 283:.\Generated_Source\PSoC5/CySpc.c **** *
 284:.\Generated_Source\PSoC5/CySpc.c **** *
 285:.\Generated_Source\PSoC5/CySpc.c **** * Return:
 286:.\Generated_Source\PSoC5/CySpc.c **** *   CYRET_SUCCESS if the command was created sucessfuly.
 287:.\Generated_Source\PSoC5/CySpc.c **** *   CYRET_BAD_PARAM if an invalid parameter was passed.
 288:.\Generated_Source\PSoC5/CySpc.c **** *
 289:.\Generated_Source\PSoC5/CySpc.c **** *
 290:.\Generated_Source\PSoC5/CySpc.c **** * Theory:
 291:.\Generated_Source\PSoC5/CySpc.c **** *
 292:.\Generated_Source\PSoC5/CySpc.c **** *
 293:.\Generated_Source\PSoC5/CySpc.c **** *******************************************************************************/
 294:.\Generated_Source\PSoC5/CySpc.c **** cystatus CySpcCreateCmdLoadRow(uint8 array)
 295:.\Generated_Source\PSoC5/CySpc.c **** {
 472              		.loc 1 295 0
 473              		.cfi_startproc
 474              		@ args = 0, pretend = 0, frame = 16
 475              		@ frame_needed = 1, uses_anonymous_args = 0
 476              		@ link register save eliminated.
 477 0000 80B4     		push	{r7}
 478              	.LCFI14:
 479              		.cfi_def_cfa_offset 4
 480 0002 85B0     		sub	sp, sp, #20
 481              	.LCFI15:
 482              		.cfi_def_cfa_offset 24
 483 0004 00AF     		add	r7, sp, #0
 484              		.cfi_offset 7, -4
 485              	.LCFI16:
 486              		.cfi_def_cfa_register 7
 487 0006 0346     		mov	r3, r0
 488 0008 FB71     		strb	r3, [r7, #7]
 296:.\Generated_Source\PSoC5/CySpc.c ****     cystatus status;
 297:.\Generated_Source\PSoC5/CySpc.c **** 
 298:.\Generated_Source\PSoC5/CySpc.c **** 
 299:.\Generated_Source\PSoC5/CySpc.c ****     /* Create packet command. */
 300:.\Generated_Source\PSoC5/CySpc.c ****     cyCommand[0] = SPC_KEY_ONE;
 489              		.loc 1 300 0
 490 000a 40F20003 		movw	r3, #:lower16:cyCommand
 491 000e C0F20003 		movt	r3, #:upper16:cyCommand
 492 0012 6FF04902 		mvn	r2, #73
 493 0016 1A70     		strb	r2, [r3, #0]
 301:.\Generated_Source\PSoC5/CySpc.c ****     cyCommand[1] = SPC_KEY_TWO(SPC_CMD_LD_ROW);
ARM GAS  C:\Users\awkward\AppData\Local\Temp\cca62GgO.s 			page 15


 494              		.loc 1 301 0
 495 0018 40F20003 		movw	r3, #:lower16:cyCommand
 496 001c C0F20003 		movt	r3, #:upper16:cyCommand
 497 0020 6FF02A02 		mvn	r2, #42
 498 0024 5A70     		strb	r2, [r3, #1]
 302:.\Generated_Source\PSoC5/CySpc.c ****     cyCommand[2] = SPC_CMD_LD_ROW;
 499              		.loc 1 302 0
 500 0026 40F20003 		movw	r3, #:lower16:cyCommand
 501 002a C0F20003 		movt	r3, #:upper16:cyCommand
 502 002e 4FF00202 		mov	r2, #2
 503 0032 9A70     		strb	r2, [r3, #2]
 303:.\Generated_Source\PSoC5/CySpc.c ****     
 304:.\Generated_Source\PSoC5/CySpc.c ****     /* Create packet parameters. */
 305:.\Generated_Source\PSoC5/CySpc.c ****     cyCommand[3] = array;
 504              		.loc 1 305 0
 505 0034 40F20003 		movw	r3, #:lower16:cyCommand
 506 0038 C0F20003 		movt	r3, #:upper16:cyCommand
 507 003c FA79     		ldrb	r2, [r7, #7]
 508 003e DA70     		strb	r2, [r3, #3]
 306:.\Generated_Source\PSoC5/CySpc.c **** 
 307:.\Generated_Source\PSoC5/CySpc.c ****     cyCommandSize = SIZEOF_CMD_LOAD_ROW;
 509              		.loc 1 307 0
 510 0040 40F20003 		movw	r3, #:lower16:cyCommandSize
 511 0044 C0F20003 		movt	r3, #:upper16:cyCommandSize
 512 0048 4FF00102 		mov	r2, #1
 513 004c 1A70     		strb	r2, [r3, #0]
 308:.\Generated_Source\PSoC5/CySpc.c **** 
 309:.\Generated_Source\PSoC5/CySpc.c ****     status = CYRET_SUCCESS;
 514              		.loc 1 309 0
 515 004e 4FF00003 		mov	r3, #0
 516 0052 FB60     		str	r3, [r7, #12]
 310:.\Generated_Source\PSoC5/CySpc.c ****     
 311:.\Generated_Source\PSoC5/CySpc.c ****     
 312:.\Generated_Source\PSoC5/CySpc.c ****     return status;
 517              		.loc 1 312 0
 518 0054 FB68     		ldr	r3, [r7, #12]
 313:.\Generated_Source\PSoC5/CySpc.c **** }
 519              		.loc 1 313 0
 520 0056 1846     		mov	r0, r3
 521 0058 07F11407 		add	r7, r7, #20
 522 005c BD46     		mov	sp, r7
 523 005e 80BC     		pop	{r7}
 524 0060 7047     		bx	lr
 525              		.cfi_endproc
 526              	.LFE5:
 527              		.size	CySpcCreateCmdLoadRow, .-CySpcCreateCmdLoadRow
 528 0062 00BF     		.section	.text.CySpcCreateCmdReadMultiByte,"ax",%progbits
 529              		.align	2
 530              		.global	CySpcCreateCmdReadMultiByte
 531              		.thumb
 532              		.thumb_func
 533              		.type	CySpcCreateCmdReadMultiByte, %function
 534              	CySpcCreateCmdReadMultiByte:
 535              	.LFB6:
 314:.\Generated_Source\PSoC5/CySpc.c **** 
 315:.\Generated_Source\PSoC5/CySpc.c **** 
 316:.\Generated_Source\PSoC5/CySpc.c **** /*******************************************************************************
ARM GAS  C:\Users\awkward\AppData\Local\Temp\cca62GgO.s 			page 16


 317:.\Generated_Source\PSoC5/CySpc.c **** * Function Name: CySpcCreateCmdReadMultiByte
 318:.\Generated_Source\PSoC5/CySpc.c **** ********************************************************************************
 319:.\Generated_Source\PSoC5/CySpc.c **** * Summary:
 320:.\Generated_Source\PSoC5/CySpc.c **** *   Sets up the command to ReadMultiByte.
 321:.\Generated_Source\PSoC5/CySpc.c **** *   NOTE: SPC functions are not meant to be called directly by the user application.
 322:.\Generated_Source\PSoC5/CySpc.c **** *
 323:.\Generated_Source\PSoC5/CySpc.c **** * Parameters:
 324:.\Generated_Source\PSoC5/CySpc.c **** * array:
 325:.\Generated_Source\PSoC5/CySpc.c **** *   Id of the array.
 326:.\Generated_Source\PSoC5/CySpc.c **** *
 327:.\Generated_Source\PSoC5/CySpc.c **** * ecc:
 328:.\Generated_Source\PSoC5/CySpc.c **** *   0x80 if reading ecc data.
 329:.\Generated_Source\PSoC5/CySpc.c **** *   0x00 if user data.
 330:.\Generated_Source\PSoC5/CySpc.c **** *
 331:.\Generated_Source\PSoC5/CySpc.c **** * address:
 332:.\Generated_Source\PSoC5/CySpc.c **** *   flash addrress.
 333:.\Generated_Source\PSoC5/CySpc.c **** *
 334:.\Generated_Source\PSoC5/CySpc.c **** * size:
 335:.\Generated_Source\PSoC5/CySpc.c **** *   number bytes to load.
 336:.\Generated_Source\PSoC5/CySpc.c **** *   
 337:.\Generated_Source\PSoC5/CySpc.c **** * Return:
 338:.\Generated_Source\PSoC5/CySpc.c **** *   CYRET_SUCCESS if the command was created sucessfuly.
 339:.\Generated_Source\PSoC5/CySpc.c **** *   CYRET_BAD_PARAM if an invalid parameter was passed.
 340:.\Generated_Source\PSoC5/CySpc.c **** *
 341:.\Generated_Source\PSoC5/CySpc.c **** * Theory:
 342:.\Generated_Source\PSoC5/CySpc.c **** *
 343:.\Generated_Source\PSoC5/CySpc.c **** *
 344:.\Generated_Source\PSoC5/CySpc.c **** *******************************************************************************/
 345:.\Generated_Source\PSoC5/CySpc.c **** cystatus CySpcCreateCmdReadMultiByte(uint8 array, uint8 ecc, uint16 address, uint8 number)
 346:.\Generated_Source\PSoC5/CySpc.c **** {
 536              		.loc 1 346 0
 537              		.cfi_startproc
 538              		@ args = 0, pretend = 0, frame = 16
 539              		@ frame_needed = 1, uses_anonymous_args = 0
 540              		@ link register save eliminated.
 541 0000 80B4     		push	{r7}
 542              	.LCFI17:
 543              		.cfi_def_cfa_offset 4
 544 0002 85B0     		sub	sp, sp, #20
 545              	.LCFI18:
 546              		.cfi_def_cfa_offset 24
 547 0004 00AF     		add	r7, sp, #0
 548              		.cfi_offset 7, -4
 549              	.LCFI19:
 550              		.cfi_def_cfa_register 7
 551 0006 F871     		strb	r0, [r7, #7]
 552 0008 B971     		strb	r1, [r7, #6]
 553 000a BA80     		strh	r2, [r7, #4]	@ movhi
 554 000c FB70     		strb	r3, [r7, #3]
 347:.\Generated_Source\PSoC5/CySpc.c ****     cystatus status;
 348:.\Generated_Source\PSoC5/CySpc.c **** 
 349:.\Generated_Source\PSoC5/CySpc.c **** 
 350:.\Generated_Source\PSoC5/CySpc.c ****     /* Create packet command. */
 351:.\Generated_Source\PSoC5/CySpc.c ****     cyCommand[0] = SPC_KEY_ONE;
 555              		.loc 1 351 0
 556 000e 40F20003 		movw	r3, #:lower16:cyCommand
 557 0012 C0F20003 		movt	r3, #:upper16:cyCommand
ARM GAS  C:\Users\awkward\AppData\Local\Temp\cca62GgO.s 			page 17


 558 0016 6FF04902 		mvn	r2, #73
 559 001a 1A70     		strb	r2, [r3, #0]
 352:.\Generated_Source\PSoC5/CySpc.c ****     cyCommand[1] = SPC_KEY_TWO(SPC_CMD_RD_MULTI_BYTE);
 560              		.loc 1 352 0
 561 001c 40F20003 		movw	r3, #:lower16:cyCommand
 562 0020 C0F20003 		movt	r3, #:upper16:cyCommand
 563 0024 6FF02802 		mvn	r2, #40
 564 0028 5A70     		strb	r2, [r3, #1]
 353:.\Generated_Source\PSoC5/CySpc.c ****     cyCommand[2] = SPC_CMD_RD_MULTI_BYTE;
 565              		.loc 1 353 0
 566 002a 40F20003 		movw	r3, #:lower16:cyCommand
 567 002e C0F20003 		movt	r3, #:upper16:cyCommand
 568 0032 4FF00402 		mov	r2, #4
 569 0036 9A70     		strb	r2, [r3, #2]
 354:.\Generated_Source\PSoC5/CySpc.c ****     
 355:.\Generated_Source\PSoC5/CySpc.c ****     /* Create packet parameters. */
 356:.\Generated_Source\PSoC5/CySpc.c ****     cyCommand[3] = array;
 570              		.loc 1 356 0
 571 0038 40F20003 		movw	r3, #:lower16:cyCommand
 572 003c C0F20003 		movt	r3, #:upper16:cyCommand
 573 0040 FA79     		ldrb	r2, [r7, #7]
 574 0042 DA70     		strb	r2, [r3, #3]
 357:.\Generated_Source\PSoC5/CySpc.c ****     cyCommand[4] = ecc;
 575              		.loc 1 357 0
 576 0044 40F20003 		movw	r3, #:lower16:cyCommand
 577 0048 C0F20003 		movt	r3, #:upper16:cyCommand
 578 004c BA79     		ldrb	r2, [r7, #6]
 579 004e 1A71     		strb	r2, [r3, #4]
 358:.\Generated_Source\PSoC5/CySpc.c ****     cyCommand[5] = HI8(address);
 580              		.loc 1 358 0
 581 0050 BB88     		ldrh	r3, [r7, #4]
 582 0052 4FEA1323 		lsr	r3, r3, #8
 583 0056 9BB2     		uxth	r3, r3
 584 0058 DAB2     		uxtb	r2, r3
 585 005a 40F20003 		movw	r3, #:lower16:cyCommand
 586 005e C0F20003 		movt	r3, #:upper16:cyCommand
 587 0062 5A71     		strb	r2, [r3, #5]
 359:.\Generated_Source\PSoC5/CySpc.c ****     cyCommand[6] = LO8(address);
 588              		.loc 1 359 0
 589 0064 BB88     		ldrh	r3, [r7, #4]	@ movhi
 590 0066 DAB2     		uxtb	r2, r3
 591 0068 40F20003 		movw	r3, #:lower16:cyCommand
 592 006c C0F20003 		movt	r3, #:upper16:cyCommand
 593 0070 9A71     		strb	r2, [r3, #6]
 360:.\Generated_Source\PSoC5/CySpc.c ****     cyCommand[7] = number - 1;
 594              		.loc 1 360 0
 595 0072 FB78     		ldrb	r3, [r7, #3]
 596 0074 03F1FF33 		add	r3, r3, #-1
 597 0078 DAB2     		uxtb	r2, r3
 598 007a 40F20003 		movw	r3, #:lower16:cyCommand
 599 007e C0F20003 		movt	r3, #:upper16:cyCommand
 600 0082 DA71     		strb	r2, [r3, #7]
 361:.\Generated_Source\PSoC5/CySpc.c **** 
 362:.\Generated_Source\PSoC5/CySpc.c ****     cyCommandSize = SIZEOF_CMD_READ_MBYTE;
 601              		.loc 1 362 0
 602 0084 40F20003 		movw	r3, #:lower16:cyCommandSize
 603 0088 C0F20003 		movt	r3, #:upper16:cyCommandSize
ARM GAS  C:\Users\awkward\AppData\Local\Temp\cca62GgO.s 			page 18


 604 008c 4FF00502 		mov	r2, #5
 605 0090 1A70     		strb	r2, [r3, #0]
 363:.\Generated_Source\PSoC5/CySpc.c **** 
 364:.\Generated_Source\PSoC5/CySpc.c ****     status = CYRET_SUCCESS;
 606              		.loc 1 364 0
 607 0092 4FF00003 		mov	r3, #0
 608 0096 FB60     		str	r3, [r7, #12]
 365:.\Generated_Source\PSoC5/CySpc.c ****     
 366:.\Generated_Source\PSoC5/CySpc.c ****     return status;
 609              		.loc 1 366 0
 610 0098 FB68     		ldr	r3, [r7, #12]
 367:.\Generated_Source\PSoC5/CySpc.c **** }
 611              		.loc 1 367 0
 612 009a 1846     		mov	r0, r3
 613 009c 07F11407 		add	r7, r7, #20
 614 00a0 BD46     		mov	sp, r7
 615 00a2 80BC     		pop	{r7}
 616 00a4 7047     		bx	lr
 617              		.cfi_endproc
 618              	.LFE6:
 619              		.size	CySpcCreateCmdReadMultiByte, .-CySpcCreateCmdReadMultiByte
 620 00a6 00BF     		.section	.text.CySpcCreateCmdWriteRow,"ax",%progbits
 621              		.align	2
 622              		.global	CySpcCreateCmdWriteRow
 623              		.thumb
 624              		.thumb_func
 625              		.type	CySpcCreateCmdWriteRow, %function
 626              	CySpcCreateCmdWriteRow:
 627              	.LFB7:
 368:.\Generated_Source\PSoC5/CySpc.c **** 
 369:.\Generated_Source\PSoC5/CySpc.c **** 
 370:.\Generated_Source\PSoC5/CySpc.c **** /*******************************************************************************
 371:.\Generated_Source\PSoC5/CySpc.c **** * Function Name: CySpcCreateCmdWriteRow
 372:.\Generated_Source\PSoC5/CySpc.c **** ********************************************************************************
 373:.\Generated_Source\PSoC5/CySpc.c **** * Summary:
 374:.\Generated_Source\PSoC5/CySpc.c **** *   Sets up the command to WriteRow.
 375:.\Generated_Source\PSoC5/CySpc.c **** *   NOTE: SPC functions are not meant to be called directly by the user application.
 376:.\Generated_Source\PSoC5/CySpc.c **** *   
 377:.\Generated_Source\PSoC5/CySpc.c **** *
 378:.\Generated_Source\PSoC5/CySpc.c **** * Parameters:
 379:.\Generated_Source\PSoC5/CySpc.c **** * array:
 380:.\Generated_Source\PSoC5/CySpc.c **** *   Id of the array.
 381:.\Generated_Source\PSoC5/CySpc.c **** *
 382:.\Generated_Source\PSoC5/CySpc.c **** *
 383:.\Generated_Source\PSoC5/CySpc.c **** * address:
 384:.\Generated_Source\PSoC5/CySpc.c **** *   flash/eeprom addrress
 385:.\Generated_Source\PSoC5/CySpc.c **** *
 386:.\Generated_Source\PSoC5/CySpc.c **** *
 387:.\Generated_Source\PSoC5/CySpc.c **** * tempPolarity:
 388:.\Generated_Source\PSoC5/CySpc.c **** *
 389:.\Generated_Source\PSoC5/CySpc.c **** *
 390:.\Generated_Source\PSoC5/CySpc.c **** * tempMagnitute:
 391:.\Generated_Source\PSoC5/CySpc.c **** *
 392:.\Generated_Source\PSoC5/CySpc.c **** *
 393:.\Generated_Source\PSoC5/CySpc.c **** *
 394:.\Generated_Source\PSoC5/CySpc.c **** *   
 395:.\Generated_Source\PSoC5/CySpc.c **** * Return:
ARM GAS  C:\Users\awkward\AppData\Local\Temp\cca62GgO.s 			page 19


 396:.\Generated_Source\PSoC5/CySpc.c **** *   CYRET_SUCCESS if the command was created sucessfuly.
 397:.\Generated_Source\PSoC5/CySpc.c **** *   CYRET_BAD_PARAM if an invalid parameter was passed.
 398:.\Generated_Source\PSoC5/CySpc.c **** *
 399:.\Generated_Source\PSoC5/CySpc.c **** *
 400:.\Generated_Source\PSoC5/CySpc.c **** * Theory:
 401:.\Generated_Source\PSoC5/CySpc.c **** *
 402:.\Generated_Source\PSoC5/CySpc.c **** *
 403:.\Generated_Source\PSoC5/CySpc.c **** *******************************************************************************/
 404:.\Generated_Source\PSoC5/CySpc.c **** cystatus CySpcCreateCmdWriteRow(uint8 array, uint16 address, uint8 tempPolarity, uint8 tempMagnitut
 405:.\Generated_Source\PSoC5/CySpc.c **** {
 628              		.loc 1 405 0
 629              		.cfi_startproc
 630              		@ args = 0, pretend = 0, frame = 16
 631              		@ frame_needed = 1, uses_anonymous_args = 0
 632              		@ link register save eliminated.
 633 0000 80B4     		push	{r7}
 634              	.LCFI20:
 635              		.cfi_def_cfa_offset 4
 636 0002 85B0     		sub	sp, sp, #20
 637              	.LCFI21:
 638              		.cfi_def_cfa_offset 24
 639 0004 00AF     		add	r7, sp, #0
 640              		.cfi_offset 7, -4
 641              	.LCFI22:
 642              		.cfi_def_cfa_register 7
 643 0006 F871     		strb	r0, [r7, #7]
 644 0008 B980     		strh	r1, [r7, #4]	@ movhi
 645 000a FA70     		strb	r2, [r7, #3]
 646 000c BB70     		strb	r3, [r7, #2]
 406:.\Generated_Source\PSoC5/CySpc.c ****     cystatus status;
 407:.\Generated_Source\PSoC5/CySpc.c **** 
 408:.\Generated_Source\PSoC5/CySpc.c ****     
 409:.\Generated_Source\PSoC5/CySpc.c ****     /* Create packet command. */
 410:.\Generated_Source\PSoC5/CySpc.c ****     cyCommand[0] = SPC_KEY_ONE;
 647              		.loc 1 410 0
 648 000e 40F20003 		movw	r3, #:lower16:cyCommand
 649 0012 C0F20003 		movt	r3, #:upper16:cyCommand
 650 0016 6FF04902 		mvn	r2, #73
 651 001a 1A70     		strb	r2, [r3, #0]
 411:.\Generated_Source\PSoC5/CySpc.c ****     cyCommand[1] = SPC_KEY_TWO(SPC_CMD_WR_ROW);
 652              		.loc 1 411 0
 653 001c 40F20003 		movw	r3, #:lower16:cyCommand
 654 0020 C0F20003 		movt	r3, #:upper16:cyCommand
 655 0024 6FF02702 		mvn	r2, #39
 656 0028 5A70     		strb	r2, [r3, #1]
 412:.\Generated_Source\PSoC5/CySpc.c ****     cyCommand[2] = SPC_CMD_WR_ROW;
 657              		.loc 1 412 0
 658 002a 40F20003 		movw	r3, #:lower16:cyCommand
 659 002e C0F20003 		movt	r3, #:upper16:cyCommand
 660 0032 4FF00502 		mov	r2, #5
 661 0036 9A70     		strb	r2, [r3, #2]
 413:.\Generated_Source\PSoC5/CySpc.c ****     
 414:.\Generated_Source\PSoC5/CySpc.c ****     /* Create packet parameters. */
 415:.\Generated_Source\PSoC5/CySpc.c ****     cyCommand[3] = array;
 662              		.loc 1 415 0
 663 0038 40F20003 		movw	r3, #:lower16:cyCommand
 664 003c C0F20003 		movt	r3, #:upper16:cyCommand
ARM GAS  C:\Users\awkward\AppData\Local\Temp\cca62GgO.s 			page 20


 665 0040 FA79     		ldrb	r2, [r7, #7]
 666 0042 DA70     		strb	r2, [r3, #3]
 416:.\Generated_Source\PSoC5/CySpc.c ****     cyCommand[4] = HI8(address);
 667              		.loc 1 416 0
 668 0044 BB88     		ldrh	r3, [r7, #4]
 669 0046 4FEA1323 		lsr	r3, r3, #8
 670 004a 9BB2     		uxth	r3, r3
 671 004c DAB2     		uxtb	r2, r3
 672 004e 40F20003 		movw	r3, #:lower16:cyCommand
 673 0052 C0F20003 		movt	r3, #:upper16:cyCommand
 674 0056 1A71     		strb	r2, [r3, #4]
 417:.\Generated_Source\PSoC5/CySpc.c ****     cyCommand[5] = LO8(address);
 675              		.loc 1 417 0
 676 0058 BB88     		ldrh	r3, [r7, #4]	@ movhi
 677 005a DAB2     		uxtb	r2, r3
 678 005c 40F20003 		movw	r3, #:lower16:cyCommand
 679 0060 C0F20003 		movt	r3, #:upper16:cyCommand
 680 0064 5A71     		strb	r2, [r3, #5]
 418:.\Generated_Source\PSoC5/CySpc.c ****     cyCommand[6] = tempPolarity;
 681              		.loc 1 418 0
 682 0066 40F20003 		movw	r3, #:lower16:cyCommand
 683 006a C0F20003 		movt	r3, #:upper16:cyCommand
 684 006e FA78     		ldrb	r2, [r7, #3]
 685 0070 9A71     		strb	r2, [r3, #6]
 419:.\Generated_Source\PSoC5/CySpc.c ****     cyCommand[7] = tempMagnitute;
 686              		.loc 1 419 0
 687 0072 40F20003 		movw	r3, #:lower16:cyCommand
 688 0076 C0F20003 		movt	r3, #:upper16:cyCommand
 689 007a BA78     		ldrb	r2, [r7, #2]
 690 007c DA71     		strb	r2, [r3, #7]
 420:.\Generated_Source\PSoC5/CySpc.c **** 
 421:.\Generated_Source\PSoC5/CySpc.c ****     cyCommandSize = SIZEOF_CMD_WR_ROW;
 691              		.loc 1 421 0
 692 007e 40F20003 		movw	r3, #:lower16:cyCommandSize
 693 0082 C0F20003 		movt	r3, #:upper16:cyCommandSize
 694 0086 4FF00502 		mov	r2, #5
 695 008a 1A70     		strb	r2, [r3, #0]
 422:.\Generated_Source\PSoC5/CySpc.c **** 
 423:.\Generated_Source\PSoC5/CySpc.c ****     status = CYRET_SUCCESS;
 696              		.loc 1 423 0
 697 008c 4FF00003 		mov	r3, #0
 698 0090 FB60     		str	r3, [r7, #12]
 424:.\Generated_Source\PSoC5/CySpc.c ****     
 425:.\Generated_Source\PSoC5/CySpc.c ****     return status;
 699              		.loc 1 425 0
 700 0092 FB68     		ldr	r3, [r7, #12]
 426:.\Generated_Source\PSoC5/CySpc.c **** }
 701              		.loc 1 426 0
 702 0094 1846     		mov	r0, r3
 703 0096 07F11407 		add	r7, r7, #20
 704 009a BD46     		mov	sp, r7
 705 009c 80BC     		pop	{r7}
 706 009e 7047     		bx	lr
 707              		.cfi_endproc
 708              	.LFE7:
 709              		.size	CySpcCreateCmdWriteRow, .-CySpcCreateCmdWriteRow
 710              		.section	.text.CySpcCreateCmdProgramRow,"ax",%progbits
ARM GAS  C:\Users\awkward\AppData\Local\Temp\cca62GgO.s 			page 21


 711              		.align	2
 712              		.global	CySpcCreateCmdProgramRow
 713              		.thumb
 714              		.thumb_func
 715              		.type	CySpcCreateCmdProgramRow, %function
 716              	CySpcCreateCmdProgramRow:
 717              	.LFB8:
 427:.\Generated_Source\PSoC5/CySpc.c **** 
 428:.\Generated_Source\PSoC5/CySpc.c **** 
 429:.\Generated_Source\PSoC5/CySpc.c **** /*******************************************************************************
 430:.\Generated_Source\PSoC5/CySpc.c **** * Function Name: CySpcCreateCmdProgramRow
 431:.\Generated_Source\PSoC5/CySpc.c **** ********************************************************************************
 432:.\Generated_Source\PSoC5/CySpc.c **** * Summary:
 433:.\Generated_Source\PSoC5/CySpc.c **** *   Sets up the command to ProgramRow.
 434:.\Generated_Source\PSoC5/CySpc.c **** *   NOTE: SPC functions are not meant to be called directly by the user application.
 435:.\Generated_Source\PSoC5/CySpc.c **** *   
 436:.\Generated_Source\PSoC5/CySpc.c **** *
 437:.\Generated_Source\PSoC5/CySpc.c **** * Parameters:
 438:.\Generated_Source\PSoC5/CySpc.c **** * array:
 439:.\Generated_Source\PSoC5/CySpc.c **** *   Id of the array.
 440:.\Generated_Source\PSoC5/CySpc.c **** *
 441:.\Generated_Source\PSoC5/CySpc.c **** *
 442:.\Generated_Source\PSoC5/CySpc.c **** * address:
 443:.\Generated_Source\PSoC5/CySpc.c **** *   flash/eeprom addrress
 444:.\Generated_Source\PSoC5/CySpc.c **** *
 445:.\Generated_Source\PSoC5/CySpc.c **** *
 446:.\Generated_Source\PSoC5/CySpc.c **** * par3:
 447:.\Generated_Source\PSoC5/CySpc.c **** *
 448:.\Generated_Source\PSoC5/CySpc.c **** *   
 449:.\Generated_Source\PSoC5/CySpc.c **** * Return:
 450:.\Generated_Source\PSoC5/CySpc.c **** *   CYRET_SUCCESS if the command was created sucessfuly.
 451:.\Generated_Source\PSoC5/CySpc.c **** *   CYRET_BAD_PARAM if an invalid parameter was passed.
 452:.\Generated_Source\PSoC5/CySpc.c **** *
 453:.\Generated_Source\PSoC5/CySpc.c **** *
 454:.\Generated_Source\PSoC5/CySpc.c **** * Theory:
 455:.\Generated_Source\PSoC5/CySpc.c **** *
 456:.\Generated_Source\PSoC5/CySpc.c **** *
 457:.\Generated_Source\PSoC5/CySpc.c **** *******************************************************************************/
 458:.\Generated_Source\PSoC5/CySpc.c **** cystatus CySpcCreateCmdProgramRow(uint8 array, uint16 address)
 459:.\Generated_Source\PSoC5/CySpc.c **** {
 718              		.loc 1 459 0
 719              		.cfi_startproc
 720              		@ args = 0, pretend = 0, frame = 16
 721              		@ frame_needed = 1, uses_anonymous_args = 0
 722              		@ link register save eliminated.
 723 0000 80B4     		push	{r7}
 724              	.LCFI23:
 725              		.cfi_def_cfa_offset 4
 726 0002 85B0     		sub	sp, sp, #20
 727              	.LCFI24:
 728              		.cfi_def_cfa_offset 24
 729 0004 00AF     		add	r7, sp, #0
 730              		.cfi_offset 7, -4
 731              	.LCFI25:
 732              		.cfi_def_cfa_register 7
 733 0006 0246     		mov	r2, r0
 734 0008 0B46     		mov	r3, r1
ARM GAS  C:\Users\awkward\AppData\Local\Temp\cca62GgO.s 			page 22


 735 000a FA71     		strb	r2, [r7, #7]
 736 000c BB80     		strh	r3, [r7, #4]	@ movhi
 460:.\Generated_Source\PSoC5/CySpc.c ****     cystatus status;
 461:.\Generated_Source\PSoC5/CySpc.c **** 
 462:.\Generated_Source\PSoC5/CySpc.c **** 
 463:.\Generated_Source\PSoC5/CySpc.c ****     /* Create packet command. */
 464:.\Generated_Source\PSoC5/CySpc.c ****     cyCommand[0] = SPC_KEY_ONE;
 737              		.loc 1 464 0
 738 000e 40F20003 		movw	r3, #:lower16:cyCommand
 739 0012 C0F20003 		movt	r3, #:upper16:cyCommand
 740 0016 6FF04902 		mvn	r2, #73
 741 001a 1A70     		strb	r2, [r3, #0]
 465:.\Generated_Source\PSoC5/CySpc.c ****     cyCommand[1] = SPC_KEY_TWO(SPC_CMD_PRG_ROW);
 742              		.loc 1 465 0
 743 001c 40F20003 		movw	r3, #:lower16:cyCommand
 744 0020 C0F20003 		movt	r3, #:upper16:cyCommand
 745 0024 6FF02502 		mvn	r2, #37
 746 0028 5A70     		strb	r2, [r3, #1]
 466:.\Generated_Source\PSoC5/CySpc.c ****     cyCommand[2] = SPC_CMD_PRG_ROW;
 747              		.loc 1 466 0
 748 002a 40F20003 		movw	r3, #:lower16:cyCommand
 749 002e C0F20003 		movt	r3, #:upper16:cyCommand
 750 0032 4FF00702 		mov	r2, #7
 751 0036 9A70     		strb	r2, [r3, #2]
 467:.\Generated_Source\PSoC5/CySpc.c ****     
 468:.\Generated_Source\PSoC5/CySpc.c ****     /* Create packet parameters. */
 469:.\Generated_Source\PSoC5/CySpc.c ****     cyCommand[3] = array;
 752              		.loc 1 469 0
 753 0038 40F20003 		movw	r3, #:lower16:cyCommand
 754 003c C0F20003 		movt	r3, #:upper16:cyCommand
 755 0040 FA79     		ldrb	r2, [r7, #7]
 756 0042 DA70     		strb	r2, [r3, #3]
 470:.\Generated_Source\PSoC5/CySpc.c ****     cyCommand[4] = HI8(address);
 757              		.loc 1 470 0
 758 0044 BB88     		ldrh	r3, [r7, #4]
 759 0046 4FEA1323 		lsr	r3, r3, #8
 760 004a 9BB2     		uxth	r3, r3
 761 004c DAB2     		uxtb	r2, r3
 762 004e 40F20003 		movw	r3, #:lower16:cyCommand
 763 0052 C0F20003 		movt	r3, #:upper16:cyCommand
 764 0056 1A71     		strb	r2, [r3, #4]
 471:.\Generated_Source\PSoC5/CySpc.c ****     cyCommand[5] = LO8(address);
 765              		.loc 1 471 0
 766 0058 BB88     		ldrh	r3, [r7, #4]	@ movhi
 767 005a DAB2     		uxtb	r2, r3
 768 005c 40F20003 		movw	r3, #:lower16:cyCommand
 769 0060 C0F20003 		movt	r3, #:upper16:cyCommand
 770 0064 5A71     		strb	r2, [r3, #5]
 472:.\Generated_Source\PSoC5/CySpc.c **** 
 473:.\Generated_Source\PSoC5/CySpc.c ****     cyCommandSize = SIZEOF_CMD_PRGM_ROW;
 771              		.loc 1 473 0
 772 0066 40F20003 		movw	r3, #:lower16:cyCommandSize
 773 006a C0F20003 		movt	r3, #:upper16:cyCommandSize
 774 006e 4FF00302 		mov	r2, #3
 775 0072 1A70     		strb	r2, [r3, #0]
 474:.\Generated_Source\PSoC5/CySpc.c **** 
 475:.\Generated_Source\PSoC5/CySpc.c ****     status = CYRET_SUCCESS;
ARM GAS  C:\Users\awkward\AppData\Local\Temp\cca62GgO.s 			page 23


 776              		.loc 1 475 0
 777 0074 4FF00003 		mov	r3, #0
 778 0078 FB60     		str	r3, [r7, #12]
 476:.\Generated_Source\PSoC5/CySpc.c ****     
 477:.\Generated_Source\PSoC5/CySpc.c ****     return status;
 779              		.loc 1 477 0
 780 007a FB68     		ldr	r3, [r7, #12]
 478:.\Generated_Source\PSoC5/CySpc.c **** }
 781              		.loc 1 478 0
 782 007c 1846     		mov	r0, r3
 783 007e 07F11407 		add	r7, r7, #20
 784 0082 BD46     		mov	sp, r7
 785 0084 80BC     		pop	{r7}
 786 0086 7047     		bx	lr
 787              		.cfi_endproc
 788              	.LFE8:
 789              		.size	CySpcCreateCmdProgramRow, .-CySpcCreateCmdProgramRow
 790              		.section	.text.CySpcCreateCmdEraseSector,"ax",%progbits
 791              		.align	2
 792              		.global	CySpcCreateCmdEraseSector
 793              		.thumb
 794              		.thumb_func
 795              		.type	CySpcCreateCmdEraseSector, %function
 796              	CySpcCreateCmdEraseSector:
 797              	.LFB9:
 479:.\Generated_Source\PSoC5/CySpc.c **** 
 480:.\Generated_Source\PSoC5/CySpc.c **** 
 481:.\Generated_Source\PSoC5/CySpc.c **** /*******************************************************************************
 482:.\Generated_Source\PSoC5/CySpc.c **** * Function Name: CySpcCreateCmdEraseSector
 483:.\Generated_Source\PSoC5/CySpc.c **** ********************************************************************************
 484:.\Generated_Source\PSoC5/CySpc.c **** * Summary:
 485:.\Generated_Source\PSoC5/CySpc.c **** *   Sets up the command to EraseSector.
 486:.\Generated_Source\PSoC5/CySpc.c **** *   NOTE: SPC functions are not meant to be called directly by the user application.
 487:.\Generated_Source\PSoC5/CySpc.c **** *   
 488:.\Generated_Source\PSoC5/CySpc.c **** *
 489:.\Generated_Source\PSoC5/CySpc.c **** * Parameters:
 490:.\Generated_Source\PSoC5/CySpc.c **** * array:
 491:.\Generated_Source\PSoC5/CySpc.c **** *   Id of the array.
 492:.\Generated_Source\PSoC5/CySpc.c **** *
 493:.\Generated_Source\PSoC5/CySpc.c **** *
 494:.\Generated_Source\PSoC5/CySpc.c **** * address:
 495:.\Generated_Source\PSoC5/CySpc.c **** *   flash/eeprom addrress
 496:.\Generated_Source\PSoC5/CySpc.c **** *
 497:.\Generated_Source\PSoC5/CySpc.c **** *   
 498:.\Generated_Source\PSoC5/CySpc.c **** * Return:
 499:.\Generated_Source\PSoC5/CySpc.c **** *   CYRET_SUCCESS if the command was created sucessfuly.
 500:.\Generated_Source\PSoC5/CySpc.c **** *   CYRET_BAD_PARAM if an invalid parameter was passed.
 501:.\Generated_Source\PSoC5/CySpc.c **** *
 502:.\Generated_Source\PSoC5/CySpc.c **** *
 503:.\Generated_Source\PSoC5/CySpc.c **** * Theory:
 504:.\Generated_Source\PSoC5/CySpc.c **** *
 505:.\Generated_Source\PSoC5/CySpc.c **** *
 506:.\Generated_Source\PSoC5/CySpc.c **** *******************************************************************************/
 507:.\Generated_Source\PSoC5/CySpc.c **** cystatus CySpcCreateCmdEraseSector(uint8 array, uint16 address)
 508:.\Generated_Source\PSoC5/CySpc.c **** {
 798              		.loc 1 508 0
 799              		.cfi_startproc
ARM GAS  C:\Users\awkward\AppData\Local\Temp\cca62GgO.s 			page 24


 800              		@ args = 0, pretend = 0, frame = 16
 801              		@ frame_needed = 1, uses_anonymous_args = 0
 802              		@ link register save eliminated.
 803 0000 80B4     		push	{r7}
 804              	.LCFI26:
 805              		.cfi_def_cfa_offset 4
 806 0002 85B0     		sub	sp, sp, #20
 807              	.LCFI27:
 808              		.cfi_def_cfa_offset 24
 809 0004 00AF     		add	r7, sp, #0
 810              		.cfi_offset 7, -4
 811              	.LCFI28:
 812              		.cfi_def_cfa_register 7
 813 0006 0246     		mov	r2, r0
 814 0008 0B46     		mov	r3, r1
 815 000a FA71     		strb	r2, [r7, #7]
 816 000c BB80     		strh	r3, [r7, #4]	@ movhi
 509:.\Generated_Source\PSoC5/CySpc.c ****     cystatus status;
 510:.\Generated_Source\PSoC5/CySpc.c **** 
 511:.\Generated_Source\PSoC5/CySpc.c ****     
 512:.\Generated_Source\PSoC5/CySpc.c ****     /* Create packet command. */
 513:.\Generated_Source\PSoC5/CySpc.c ****     cyCommand[0] = SPC_KEY_ONE;
 817              		.loc 1 513 0
 818 000e 40F20003 		movw	r3, #:lower16:cyCommand
 819 0012 C0F20003 		movt	r3, #:upper16:cyCommand
 820 0016 6FF04902 		mvn	r2, #73
 821 001a 1A70     		strb	r2, [r3, #0]
 514:.\Generated_Source\PSoC5/CySpc.c ****     cyCommand[1] = SPC_KEY_TWO(SPC_CMD_ER_SECTOR);
 822              		.loc 1 514 0
 823 001c 40F20003 		movw	r3, #:lower16:cyCommand
 824 0020 C0F20003 		movt	r3, #:upper16:cyCommand
 825 0024 6FF02402 		mvn	r2, #36
 826 0028 5A70     		strb	r2, [r3, #1]
 515:.\Generated_Source\PSoC5/CySpc.c ****     cyCommand[2] = SPC_CMD_ER_SECTOR;
 827              		.loc 1 515 0
 828 002a 40F20003 		movw	r3, #:lower16:cyCommand
 829 002e C0F20003 		movt	r3, #:upper16:cyCommand
 830 0032 4FF00802 		mov	r2, #8
 831 0036 9A70     		strb	r2, [r3, #2]
 516:.\Generated_Source\PSoC5/CySpc.c ****     
 517:.\Generated_Source\PSoC5/CySpc.c ****     /* Create packet parameters. */
 518:.\Generated_Source\PSoC5/CySpc.c ****     cyCommand[3] = array;
 832              		.loc 1 518 0
 833 0038 40F20003 		movw	r3, #:lower16:cyCommand
 834 003c C0F20003 		movt	r3, #:upper16:cyCommand
 835 0040 FA79     		ldrb	r2, [r7, #7]
 836 0042 DA70     		strb	r2, [r3, #3]
 519:.\Generated_Source\PSoC5/CySpc.c **** 
 520:.\Generated_Source\PSoC5/CySpc.c ****     if(array < LAST_FLASH_ARRAYID)
 837              		.loc 1 520 0
 838 0044 FB79     		ldrb	r3, [r7, #7]	@ zero_extendqisi2
 839 0046 3E2B     		cmp	r3, #62
 840 0048 0DD8     		bhi	.L40
 521:.\Generated_Source\PSoC5/CySpc.c ****     {
 522:.\Generated_Source\PSoC5/CySpc.c ****         cyCommand[4] = FLASH_SECTOR_ADDRESS(address);  
 841              		.loc 1 522 0
 842 004a BB88     		ldrh	r3, [r7, #4]
ARM GAS  C:\Users\awkward\AppData\Local\Temp\cca62GgO.s 			page 25


 843 004c 4FEA9323 		lsr	r3, r3, #10
 844 0050 9BB2     		uxth	r3, r3
 845 0052 DBB2     		uxtb	r3, r3
 846 0054 1A46     		mov	r2, r3
 847 0056 02F00302 		and	r2, r2, #3
 848 005a 40F20003 		movw	r3, #:lower16:cyCommand
 849 005e C0F20003 		movt	r3, #:upper16:cyCommand
 850 0062 1A71     		strb	r2, [r3, #4]
 851 0064 0CE0     		b	.L41
 852              	.L40:
 523:.\Generated_Source\PSoC5/CySpc.c ****     }
 524:.\Generated_Source\PSoC5/CySpc.c ****     else
 525:.\Generated_Source\PSoC5/CySpc.c ****     {
 526:.\Generated_Source\PSoC5/CySpc.c ****         cyCommand[4] = EEPRM_SECTOR_ADDRESS(address);  
 853              		.loc 1 526 0
 854 0066 BB88     		ldrh	r3, [r7, #4]
 855 0068 4FEA9313 		lsr	r3, r3, #6
 856 006c 9BB2     		uxth	r3, r3
 857 006e DBB2     		uxtb	r3, r3
 858 0070 1A46     		mov	r2, r3
 859 0072 02F08002 		and	r2, r2, #128
 860 0076 40F20003 		movw	r3, #:lower16:cyCommand
 861 007a C0F20003 		movt	r3, #:upper16:cyCommand
 862 007e 1A71     		strb	r2, [r3, #4]
 863              	.L41:
 527:.\Generated_Source\PSoC5/CySpc.c ****     }
 528:.\Generated_Source\PSoC5/CySpc.c **** 
 529:.\Generated_Source\PSoC5/CySpc.c ****     cyCommandSize = SIZEOF_CMD_ER_SECTOR;
 864              		.loc 1 529 0
 865 0080 40F20003 		movw	r3, #:lower16:cyCommandSize
 866 0084 C0F20003 		movt	r3, #:upper16:cyCommandSize
 867 0088 4FF00202 		mov	r2, #2
 868 008c 1A70     		strb	r2, [r3, #0]
 530:.\Generated_Source\PSoC5/CySpc.c **** 
 531:.\Generated_Source\PSoC5/CySpc.c ****     status = CYRET_SUCCESS;
 869              		.loc 1 531 0
 870 008e 4FF00003 		mov	r3, #0
 871 0092 FB60     		str	r3, [r7, #12]
 532:.\Generated_Source\PSoC5/CySpc.c ****     
 533:.\Generated_Source\PSoC5/CySpc.c ****     return status;
 872              		.loc 1 533 0
 873 0094 FB68     		ldr	r3, [r7, #12]
 534:.\Generated_Source\PSoC5/CySpc.c **** }
 874              		.loc 1 534 0
 875 0096 1846     		mov	r0, r3
 876 0098 07F11407 		add	r7, r7, #20
 877 009c BD46     		mov	sp, r7
 878 009e 80BC     		pop	{r7}
 879 00a0 7047     		bx	lr
 880              		.cfi_endproc
 881              	.LFE9:
 882              		.size	CySpcCreateCmdEraseSector, .-CySpcCreateCmdEraseSector
 883 00a2 00BF     		.section	.text.CySpcCreateCmdGetTemp,"ax",%progbits
 884              		.align	2
 885              		.global	CySpcCreateCmdGetTemp
 886              		.thumb
 887              		.thumb_func
ARM GAS  C:\Users\awkward\AppData\Local\Temp\cca62GgO.s 			page 26


 888              		.type	CySpcCreateCmdGetTemp, %function
 889              	CySpcCreateCmdGetTemp:
 890              	.LFB10:
 535:.\Generated_Source\PSoC5/CySpc.c **** 
 536:.\Generated_Source\PSoC5/CySpc.c **** 
 537:.\Generated_Source\PSoC5/CySpc.c **** /*******************************************************************************
 538:.\Generated_Source\PSoC5/CySpc.c **** * Function Name: CySpcCreateCmdGetTemp
 539:.\Generated_Source\PSoC5/CySpc.c **** ********************************************************************************
 540:.\Generated_Source\PSoC5/CySpc.c **** * Summary:
 541:.\Generated_Source\PSoC5/CySpc.c **** *   Sets up the command to GetTemp.
 542:.\Generated_Source\PSoC5/CySpc.c **** *   NOTE: SPC functions are not meant to be called directly by the user application.
 543:.\Generated_Source\PSoC5/CySpc.c **** *   
 544:.\Generated_Source\PSoC5/CySpc.c **** *
 545:.\Generated_Source\PSoC5/CySpc.c **** * Parameters:
 546:.\Generated_Source\PSoC5/CySpc.c **** * numSamples:
 547:.\Generated_Source\PSoC5/CySpc.c **** *
 548:.\Generated_Source\PSoC5/CySpc.c **** *
 549:.\Generated_Source\PSoC5/CySpc.c **** * timerPeriod:
 550:.\Generated_Source\PSoC5/CySpc.c **** *
 551:.\Generated_Source\PSoC5/CySpc.c **** *
 552:.\Generated_Source\PSoC5/CySpc.c **** * clkDivSelect:
 553:.\Generated_Source\PSoC5/CySpc.c **** *
 554:.\Generated_Source\PSoC5/CySpc.c **** *   
 555:.\Generated_Source\PSoC5/CySpc.c **** * Return:
 556:.\Generated_Source\PSoC5/CySpc.c **** *   CYRET_SUCCESS if the command was created sucessfuly.
 557:.\Generated_Source\PSoC5/CySpc.c **** *   CYRET_BAD_PARAM if an invalid parameter was passed.
 558:.\Generated_Source\PSoC5/CySpc.c **** *
 559:.\Generated_Source\PSoC5/CySpc.c **** * Theory:
 560:.\Generated_Source\PSoC5/CySpc.c **** *
 561:.\Generated_Source\PSoC5/CySpc.c **** *
 562:.\Generated_Source\PSoC5/CySpc.c **** *******************************************************************************/
 563:.\Generated_Source\PSoC5/CySpc.c **** cystatus CySpcCreateCmdGetTemp(uint8 numSamples, uint16 timerPeriod, uint8 clkDivSelect)
 564:.\Generated_Source\PSoC5/CySpc.c **** {
 891              		.loc 1 564 0
 892              		.cfi_startproc
 893              		@ args = 0, pretend = 0, frame = 16
 894              		@ frame_needed = 1, uses_anonymous_args = 0
 895              		@ link register save eliminated.
 896 0000 80B4     		push	{r7}
 897              	.LCFI29:
 898              		.cfi_def_cfa_offset 4
 899 0002 85B0     		sub	sp, sp, #20
 900              	.LCFI30:
 901              		.cfi_def_cfa_offset 24
 902 0004 00AF     		add	r7, sp, #0
 903              		.cfi_offset 7, -4
 904              	.LCFI31:
 905              		.cfi_def_cfa_register 7
 906 0006 1346     		mov	r3, r2
 907 0008 0246     		mov	r2, r0
 908 000a FA71     		strb	r2, [r7, #7]
 909 000c 0A46     		mov	r2, r1	@ movhi
 910 000e BA80     		strh	r2, [r7, #4]	@ movhi
 911 0010 FB70     		strb	r3, [r7, #3]
 565:.\Generated_Source\PSoC5/CySpc.c ****     cystatus status;
 566:.\Generated_Source\PSoC5/CySpc.c **** 
 567:.\Generated_Source\PSoC5/CySpc.c **** 
ARM GAS  C:\Users\awkward\AppData\Local\Temp\cca62GgO.s 			page 27


 568:.\Generated_Source\PSoC5/CySpc.c ****     /* Check parameters. */
 569:.\Generated_Source\PSoC5/CySpc.c ****     if(numSamples)
 912              		.loc 1 569 0
 913 0012 FB79     		ldrb	r3, [r7, #7]	@ zero_extendqisi2
 914 0014 002B     		cmp	r3, #0
 915 0016 3CD0     		beq	.L44
 570:.\Generated_Source\PSoC5/CySpc.c ****     {
 571:.\Generated_Source\PSoC5/CySpc.c ****         /* Create packet command. */
 572:.\Generated_Source\PSoC5/CySpc.c ****         cyCommand[0] = SPC_KEY_ONE;
 916              		.loc 1 572 0
 917 0018 40F20003 		movw	r3, #:lower16:cyCommand
 918 001c C0F20003 		movt	r3, #:upper16:cyCommand
 919 0020 6FF04902 		mvn	r2, #73
 920 0024 1A70     		strb	r2, [r3, #0]
 573:.\Generated_Source\PSoC5/CySpc.c ****         cyCommand[1] = SPC_KEY_TWO(SPC_CMD_GET_TEMP);
 921              		.loc 1 573 0
 922 0026 40F20003 		movw	r3, #:lower16:cyCommand
 923 002a C0F20003 		movt	r3, #:upper16:cyCommand
 924 002e 6FF01E02 		mvn	r2, #30
 925 0032 5A70     		strb	r2, [r3, #1]
 574:.\Generated_Source\PSoC5/CySpc.c ****         cyCommand[2] = SPC_CMD_GET_TEMP;
 926              		.loc 1 574 0
 927 0034 40F20003 		movw	r3, #:lower16:cyCommand
 928 0038 C0F20003 		movt	r3, #:upper16:cyCommand
 929 003c 4FF00E02 		mov	r2, #14
 930 0040 9A70     		strb	r2, [r3, #2]
 575:.\Generated_Source\PSoC5/CySpc.c ****     
 576:.\Generated_Source\PSoC5/CySpc.c ****         /* Create packet parameters. */
 577:.\Generated_Source\PSoC5/CySpc.c ****         cyCommand[3] = numSamples;
 931              		.loc 1 577 0
 932 0042 40F20003 		movw	r3, #:lower16:cyCommand
 933 0046 C0F20003 		movt	r3, #:upper16:cyCommand
 934 004a FA79     		ldrb	r2, [r7, #7]
 935 004c DA70     		strb	r2, [r3, #3]
 578:.\Generated_Source\PSoC5/CySpc.c ****         cyCommand[4] = HI8(timerPeriod);
 936              		.loc 1 578 0
 937 004e BB88     		ldrh	r3, [r7, #4]
 938 0050 4FEA1323 		lsr	r3, r3, #8
 939 0054 9BB2     		uxth	r3, r3
 940 0056 DAB2     		uxtb	r2, r3
 941 0058 40F20003 		movw	r3, #:lower16:cyCommand
 942 005c C0F20003 		movt	r3, #:upper16:cyCommand
 943 0060 1A71     		strb	r2, [r3, #4]
 579:.\Generated_Source\PSoC5/CySpc.c ****         cyCommand[5] = LO8(timerPeriod);
 944              		.loc 1 579 0
 945 0062 BB88     		ldrh	r3, [r7, #4]	@ movhi
 946 0064 DAB2     		uxtb	r2, r3
 947 0066 40F20003 		movw	r3, #:lower16:cyCommand
 948 006a C0F20003 		movt	r3, #:upper16:cyCommand
 949 006e 5A71     		strb	r2, [r3, #5]
 580:.\Generated_Source\PSoC5/CySpc.c ****         cyCommand[6] = clkDivSelect;
 950              		.loc 1 580 0
 951 0070 40F20003 		movw	r3, #:lower16:cyCommand
 952 0074 C0F20003 		movt	r3, #:upper16:cyCommand
 953 0078 FA78     		ldrb	r2, [r7, #3]
 954 007a 9A71     		strb	r2, [r3, #6]
 581:.\Generated_Source\PSoC5/CySpc.c **** 
ARM GAS  C:\Users\awkward\AppData\Local\Temp\cca62GgO.s 			page 28


 582:.\Generated_Source\PSoC5/CySpc.c ****         cyCommandSize = SIZEOF_CMD_GET_TEMP;
 955              		.loc 1 582 0
 956 007c 40F20003 		movw	r3, #:lower16:cyCommandSize
 957 0080 C0F20003 		movt	r3, #:upper16:cyCommandSize
 958 0084 4FF00402 		mov	r2, #4
 959 0088 1A70     		strb	r2, [r3, #0]
 583:.\Generated_Source\PSoC5/CySpc.c **** 
 584:.\Generated_Source\PSoC5/CySpc.c ****         status = CYRET_SUCCESS;
 960              		.loc 1 584 0
 961 008a 4FF00003 		mov	r3, #0
 962 008e FB60     		str	r3, [r7, #12]
 963 0090 02E0     		b	.L45
 964              	.L44:
 585:.\Generated_Source\PSoC5/CySpc.c ****     }
 586:.\Generated_Source\PSoC5/CySpc.c ****     else
 587:.\Generated_Source\PSoC5/CySpc.c ****     {
 588:.\Generated_Source\PSoC5/CySpc.c ****         status = CYRET_BAD_PARAM;
 965              		.loc 1 588 0
 966 0092 4FF00103 		mov	r3, #1
 967 0096 FB60     		str	r3, [r7, #12]
 968              	.L45:
 589:.\Generated_Source\PSoC5/CySpc.c ****     }
 590:.\Generated_Source\PSoC5/CySpc.c **** 
 591:.\Generated_Source\PSoC5/CySpc.c ****     return status;
 969              		.loc 1 591 0
 970 0098 FB68     		ldr	r3, [r7, #12]
 592:.\Generated_Source\PSoC5/CySpc.c **** }
 971              		.loc 1 592 0
 972 009a 1846     		mov	r0, r3
 973 009c 07F11407 		add	r7, r7, #20
 974 00a0 BD46     		mov	sp, r7
 975 00a2 80BC     		pop	{r7}
 976 00a4 7047     		bx	lr
 977              		.cfi_endproc
 978              	.LFE10:
 979              		.size	CySpcCreateCmdGetTemp, .-CySpcCreateCmdGetTemp
 980 00a6 00BF     		.section	.text.CySpcCreateCmdSetupTs,"ax",%progbits
 981              		.align	2
 982              		.global	CySpcCreateCmdSetupTs
 983              		.thumb
 984              		.thumb_func
 985              		.type	CySpcCreateCmdSetupTs, %function
 986              	CySpcCreateCmdSetupTs:
 987              	.LFB11:
 593:.\Generated_Source\PSoC5/CySpc.c **** 
 594:.\Generated_Source\PSoC5/CySpc.c **** 
 595:.\Generated_Source\PSoC5/CySpc.c **** /*******************************************************************************
 596:.\Generated_Source\PSoC5/CySpc.c **** * Function Name: CySpcCreateCmdSetupTs
 597:.\Generated_Source\PSoC5/CySpc.c **** ********************************************************************************
 598:.\Generated_Source\PSoC5/CySpc.c **** * Summary:
 599:.\Generated_Source\PSoC5/CySpc.c **** *   Sets up the command to Setup Temperature Sensor.
 600:.\Generated_Source\PSoC5/CySpc.c **** *   NOTE: SPC functions are not meant to be called directly by the user application.
 601:.\Generated_Source\PSoC5/CySpc.c **** *   
 602:.\Generated_Source\PSoC5/CySpc.c **** *
 603:.\Generated_Source\PSoC5/CySpc.c **** * Parameters:
 604:.\Generated_Source\PSoC5/CySpc.c **** * SeqSelect:
 605:.\Generated_Source\PSoC5/CySpc.c **** *
ARM GAS  C:\Users\awkward\AppData\Local\Temp\cca62GgO.s 			page 29


 606:.\Generated_Source\PSoC5/CySpc.c **** *
 607:.\Generated_Source\PSoC5/CySpc.c **** * SeqFreeze:
 608:.\Generated_Source\PSoC5/CySpc.c **** *
 609:.\Generated_Source\PSoC5/CySpc.c **** *
 610:.\Generated_Source\PSoC5/CySpc.c **** * ClkDivSel:
 611:.\Generated_Source\PSoC5/CySpc.c **** *
 612:.\Generated_Source\PSoC5/CySpc.c **** *
 613:.\Generated_Source\PSoC5/CySpc.c **** * CurvCompEnable:
 614:.\Generated_Source\PSoC5/CySpc.c **** *
 615:.\Generated_Source\PSoC5/CySpc.c **** *
 616:.\Generated_Source\PSoC5/CySpc.c **** *   
 617:.\Generated_Source\PSoC5/CySpc.c **** * Return:
 618:.\Generated_Source\PSoC5/CySpc.c **** *   CYRET_SUCCESS if the command was created sucessfuly.
 619:.\Generated_Source\PSoC5/CySpc.c **** *   CYRET_BAD_PARAM if an invalid parameter was passed.
 620:.\Generated_Source\PSoC5/CySpc.c **** *
 621:.\Generated_Source\PSoC5/CySpc.c **** *
 622:.\Generated_Source\PSoC5/CySpc.c **** * Theory:
 623:.\Generated_Source\PSoC5/CySpc.c **** *
 624:.\Generated_Source\PSoC5/CySpc.c **** *
 625:.\Generated_Source\PSoC5/CySpc.c **** *******************************************************************************/
 626:.\Generated_Source\PSoC5/CySpc.c **** cystatus CySpcCreateCmdSetupTs(uint8 SeqSelect, uint8 SeqFreeze, uint8 ClkDivSel, uint8 CurvCompEna
 627:.\Generated_Source\PSoC5/CySpc.c **** {
 988              		.loc 1 627 0
 989              		.cfi_startproc
 990              		@ args = 0, pretend = 0, frame = 16
 991              		@ frame_needed = 1, uses_anonymous_args = 0
 992              		@ link register save eliminated.
 993 0000 80B4     		push	{r7}
 994              	.LCFI32:
 995              		.cfi_def_cfa_offset 4
 996 0002 85B0     		sub	sp, sp, #20
 997              	.LCFI33:
 998              		.cfi_def_cfa_offset 24
 999 0004 00AF     		add	r7, sp, #0
 1000              		.cfi_offset 7, -4
 1001              	.LCFI34:
 1002              		.cfi_def_cfa_register 7
 1003 0006 F871     		strb	r0, [r7, #7]
 1004 0008 B971     		strb	r1, [r7, #6]
 1005 000a 7A71     		strb	r2, [r7, #5]
 1006 000c 3B71     		strb	r3, [r7, #4]
 628:.\Generated_Source\PSoC5/CySpc.c ****     cystatus status;
 629:.\Generated_Source\PSoC5/CySpc.c **** 
 630:.\Generated_Source\PSoC5/CySpc.c ****     
 631:.\Generated_Source\PSoC5/CySpc.c ****     /* Create packet command. */
 632:.\Generated_Source\PSoC5/CySpc.c ****     cyCommand[0] = SPC_KEY_ONE;
 1007              		.loc 1 632 0
 1008 000e 40F20003 		movw	r3, #:lower16:cyCommand
 1009 0012 C0F20003 		movt	r3, #:upper16:cyCommand
 1010 0016 6FF04902 		mvn	r2, #73
 1011 001a 1A70     		strb	r2, [r3, #0]
 633:.\Generated_Source\PSoC5/CySpc.c ****     cyCommand[1] = SPC_KEY_TWO(SPC_CMD_SETUP_TS);
 1012              		.loc 1 633 0
 1013 001c 40F20003 		movw	r3, #:lower16:cyCommand
 1014 0020 C0F20003 		movt	r3, #:upper16:cyCommand
 1015 0024 6FF01B02 		mvn	r2, #27
 1016 0028 5A70     		strb	r2, [r3, #1]
ARM GAS  C:\Users\awkward\AppData\Local\Temp\cca62GgO.s 			page 30


 634:.\Generated_Source\PSoC5/CySpc.c ****     cyCommand[2] = SPC_CMD_SETUP_TS;
 1017              		.loc 1 634 0
 1018 002a 40F20003 		movw	r3, #:lower16:cyCommand
 1019 002e C0F20003 		movt	r3, #:upper16:cyCommand
 1020 0032 4FF01102 		mov	r2, #17
 1021 0036 9A70     		strb	r2, [r3, #2]
 635:.\Generated_Source\PSoC5/CySpc.c ****     
 636:.\Generated_Source\PSoC5/CySpc.c ****     /* Create packet parameters. */
 637:.\Generated_Source\PSoC5/CySpc.c ****     cyCommand[3] = SeqSelect;
 1022              		.loc 1 637 0
 1023 0038 40F20003 		movw	r3, #:lower16:cyCommand
 1024 003c C0F20003 		movt	r3, #:upper16:cyCommand
 1025 0040 FA79     		ldrb	r2, [r7, #7]
 1026 0042 DA70     		strb	r2, [r3, #3]
 638:.\Generated_Source\PSoC5/CySpc.c ****     cyCommand[4] = SeqFreeze;  
 1027              		.loc 1 638 0
 1028 0044 40F20003 		movw	r3, #:lower16:cyCommand
 1029 0048 C0F20003 		movt	r3, #:upper16:cyCommand
 1030 004c BA79     		ldrb	r2, [r7, #6]
 1031 004e 1A71     		strb	r2, [r3, #4]
 639:.\Generated_Source\PSoC5/CySpc.c ****     cyCommand[5] = ClkDivSel;  
 1032              		.loc 1 639 0
 1033 0050 40F20003 		movw	r3, #:lower16:cyCommand
 1034 0054 C0F20003 		movt	r3, #:upper16:cyCommand
 1035 0058 7A79     		ldrb	r2, [r7, #5]
 1036 005a 5A71     		strb	r2, [r3, #5]
 640:.\Generated_Source\PSoC5/CySpc.c ****     cyCommand[6] = CurvCompEnable;  
 1037              		.loc 1 640 0
 1038 005c 40F20003 		movw	r3, #:lower16:cyCommand
 1039 0060 C0F20003 		movt	r3, #:upper16:cyCommand
 1040 0064 3A79     		ldrb	r2, [r7, #4]
 1041 0066 9A71     		strb	r2, [r3, #6]
 641:.\Generated_Source\PSoC5/CySpc.c **** 
 642:.\Generated_Source\PSoC5/CySpc.c ****     cyCommandSize = SIZEOF_CMD_SETUP_TS;
 1042              		.loc 1 642 0
 1043 0068 40F20003 		movw	r3, #:lower16:cyCommandSize
 1044 006c C0F20003 		movt	r3, #:upper16:cyCommandSize
 1045 0070 4FF00402 		mov	r2, #4
 1046 0074 1A70     		strb	r2, [r3, #0]
 643:.\Generated_Source\PSoC5/CySpc.c **** 
 644:.\Generated_Source\PSoC5/CySpc.c ****     status = CYRET_SUCCESS;
 1047              		.loc 1 644 0
 1048 0076 4FF00003 		mov	r3, #0
 1049 007a FB60     		str	r3, [r7, #12]
 645:.\Generated_Source\PSoC5/CySpc.c ****     
 646:.\Generated_Source\PSoC5/CySpc.c ****     return status;
 1050              		.loc 1 646 0
 1051 007c FB68     		ldr	r3, [r7, #12]
 647:.\Generated_Source\PSoC5/CySpc.c **** }
 1052              		.loc 1 647 0
 1053 007e 1846     		mov	r0, r3
 1054 0080 07F11407 		add	r7, r7, #20
 1055 0084 BD46     		mov	sp, r7
 1056 0086 80BC     		pop	{r7}
 1057 0088 7047     		bx	lr
 1058              		.cfi_endproc
 1059              	.LFE11:
ARM GAS  C:\Users\awkward\AppData\Local\Temp\cca62GgO.s 			page 31


 1060              		.size	CySpcCreateCmdSetupTs, .-CySpcCreateCmdSetupTs
 1061 008a 00BF     		.section	.text.CySpcCreateCmdDisableTs,"ax",%progbits
 1062              		.align	2
 1063              		.global	CySpcCreateCmdDisableTs
 1064              		.thumb
 1065              		.thumb_func
 1066              		.type	CySpcCreateCmdDisableTs, %function
 1067              	CySpcCreateCmdDisableTs:
 1068              	.LFB12:
 648:.\Generated_Source\PSoC5/CySpc.c **** 
 649:.\Generated_Source\PSoC5/CySpc.c **** 
 650:.\Generated_Source\PSoC5/CySpc.c **** /*******************************************************************************
 651:.\Generated_Source\PSoC5/CySpc.c **** * Function Name: CySpcCreateCmdDisableTs
 652:.\Generated_Source\PSoC5/CySpc.c **** ********************************************************************************
 653:.\Generated_Source\PSoC5/CySpc.c **** * Summary:
 654:.\Generated_Source\PSoC5/CySpc.c **** *   Sets up the command to Temperature Sensor.
 655:.\Generated_Source\PSoC5/CySpc.c **** *   NOTE: SPC functions are not meant to be called directly by the user application.
 656:.\Generated_Source\PSoC5/CySpc.c **** *   
 657:.\Generated_Source\PSoC5/CySpc.c **** *
 658:.\Generated_Source\PSoC5/CySpc.c **** * Parameters:
 659:.\Generated_Source\PSoC5/CySpc.c **** * array:
 660:.\Generated_Source\PSoC5/CySpc.c **** *   Id of the array.
 661:.\Generated_Source\PSoC5/CySpc.c **** *
 662:.\Generated_Source\PSoC5/CySpc.c **** *
 663:.\Generated_Source\PSoC5/CySpc.c **** * address:
 664:.\Generated_Source\PSoC5/CySpc.c **** *   flash/eeprom addrress
 665:.\Generated_Source\PSoC5/CySpc.c **** *
 666:.\Generated_Source\PSoC5/CySpc.c **** *   
 667:.\Generated_Source\PSoC5/CySpc.c **** * Return:
 668:.\Generated_Source\PSoC5/CySpc.c **** *   CYRET_SUCCESS if the command was created sucessfuly.
 669:.\Generated_Source\PSoC5/CySpc.c **** *   CYRET_BAD_PARAM if an invalid parameter was passed.
 670:.\Generated_Source\PSoC5/CySpc.c **** *
 671:.\Generated_Source\PSoC5/CySpc.c **** *
 672:.\Generated_Source\PSoC5/CySpc.c **** * Theory:
 673:.\Generated_Source\PSoC5/CySpc.c **** *
 674:.\Generated_Source\PSoC5/CySpc.c **** *
 675:.\Generated_Source\PSoC5/CySpc.c **** *******************************************************************************/
 676:.\Generated_Source\PSoC5/CySpc.c **** cystatus CySpcCreateCmdDisableTs(void)
 677:.\Generated_Source\PSoC5/CySpc.c **** {
 1069              		.loc 1 677 0
 1070              		.cfi_startproc
 1071              		@ args = 0, pretend = 0, frame = 8
 1072              		@ frame_needed = 1, uses_anonymous_args = 0
 1073              		@ link register save eliminated.
 1074 0000 80B4     		push	{r7}
 1075              	.LCFI35:
 1076              		.cfi_def_cfa_offset 4
 1077 0002 83B0     		sub	sp, sp, #12
 1078              	.LCFI36:
 1079              		.cfi_def_cfa_offset 16
 1080 0004 00AF     		add	r7, sp, #0
 1081              		.cfi_offset 7, -4
 1082              	.LCFI37:
 1083              		.cfi_def_cfa_register 7
 678:.\Generated_Source\PSoC5/CySpc.c ****     cystatus status;
 679:.\Generated_Source\PSoC5/CySpc.c **** 
 680:.\Generated_Source\PSoC5/CySpc.c ****     
ARM GAS  C:\Users\awkward\AppData\Local\Temp\cca62GgO.s 			page 32


 681:.\Generated_Source\PSoC5/CySpc.c ****     /* Create packet command. */
 682:.\Generated_Source\PSoC5/CySpc.c ****     cyCommand[0] = SPC_KEY_ONE;
 1084              		.loc 1 682 0
 1085 0006 40F20003 		movw	r3, #:lower16:cyCommand
 1086 000a C0F20003 		movt	r3, #:upper16:cyCommand
 1087 000e 6FF04902 		mvn	r2, #73
 1088 0012 1A70     		strb	r2, [r3, #0]
 683:.\Generated_Source\PSoC5/CySpc.c ****     cyCommand[1] = SPC_KEY_TWO(SPC_CMD_DISABLE_TS);
 1089              		.loc 1 683 0
 1090 0014 40F20003 		movw	r3, #:lower16:cyCommand
 1091 0018 C0F20003 		movt	r3, #:upper16:cyCommand
 1092 001c 6FF01A02 		mvn	r2, #26
 1093 0020 5A70     		strb	r2, [r3, #1]
 684:.\Generated_Source\PSoC5/CySpc.c ****     cyCommand[2] = SPC_CMD_DISABLE_TS;
 1094              		.loc 1 684 0
 1095 0022 40F20003 		movw	r3, #:lower16:cyCommand
 1096 0026 C0F20003 		movt	r3, #:upper16:cyCommand
 1097 002a 4FF01202 		mov	r2, #18
 1098 002e 9A70     		strb	r2, [r3, #2]
 685:.\Generated_Source\PSoC5/CySpc.c ****     
 686:.\Generated_Source\PSoC5/CySpc.c ****     cyCommandSize = SIZEOF_CMD_DISABLE_TS;
 1099              		.loc 1 686 0
 1100 0030 40F20003 		movw	r3, #:lower16:cyCommandSize
 1101 0034 C0F20003 		movt	r3, #:upper16:cyCommandSize
 1102 0038 4FF00002 		mov	r2, #0
 1103 003c 1A70     		strb	r2, [r3, #0]
 687:.\Generated_Source\PSoC5/CySpc.c **** 
 688:.\Generated_Source\PSoC5/CySpc.c ****     status = CYRET_SUCCESS;
 1104              		.loc 1 688 0
 1105 003e 4FF00003 		mov	r3, #0
 1106 0042 7B60     		str	r3, [r7, #4]
 689:.\Generated_Source\PSoC5/CySpc.c ****     
 690:.\Generated_Source\PSoC5/CySpc.c ****     return status;
 1107              		.loc 1 690 0
 1108 0044 7B68     		ldr	r3, [r7, #4]
 691:.\Generated_Source\PSoC5/CySpc.c **** }
 1109              		.loc 1 691 0
 1110 0046 1846     		mov	r0, r3
 1111 0048 07F10C07 		add	r7, r7, #12
 1112 004c BD46     		mov	sp, r7
 1113 004e 80BC     		pop	{r7}
 1114 0050 7047     		bx	lr
 1115              		.cfi_endproc
 1116              	.LFE12:
 1117              		.size	CySpcCreateCmdDisableTs, .-CySpcCreateCmdDisableTs
 1118 0052 00BF     		.section	.text.CySpcActivePower,"ax",%progbits
 1119              		.align	2
 1120              		.global	CySpcActivePower
 1121              		.thumb
 1122              		.thumb_func
 1123              		.type	CySpcActivePower, %function
 1124              	CySpcActivePower:
 1125              	.LFB13:
 692:.\Generated_Source\PSoC5/CySpc.c **** 
 693:.\Generated_Source\PSoC5/CySpc.c **** 
 694:.\Generated_Source\PSoC5/CySpc.c **** /*******************************************************************************
 695:.\Generated_Source\PSoC5/CySpc.c **** * Function Name: CySpcActivePower
ARM GAS  C:\Users\awkward\AppData\Local\Temp\cca62GgO.s 			page 33


 696:.\Generated_Source\PSoC5/CySpc.c **** ********************************************************************************
 697:.\Generated_Source\PSoC5/CySpc.c **** * Summary:
 698:.\Generated_Source\PSoC5/CySpc.c **** *   Selects the power for active operation mode.
 699:.\Generated_Source\PSoC5/CySpc.c **** *   NOTE: SPC functions are not meant to be called directly by the user application.
 700:.\Generated_Source\PSoC5/CySpc.c **** *
 701:.\Generated_Source\PSoC5/CySpc.c **** *
 702:.\Generated_Source\PSoC5/CySpc.c **** * Parameters:
 703:.\Generated_Source\PSoC5/CySpc.c **** *   state:
 704:.\Generated_Source\PSoC5/CySpc.c **** *       Active power state. 1 is active, 0 inactive.
 705:.\Generated_Source\PSoC5/CySpc.c **** *
 706:.\Generated_Source\PSoC5/CySpc.c **** *   
 707:.\Generated_Source\PSoC5/CySpc.c **** * Return:
 708:.\Generated_Source\PSoC5/CySpc.c **** *   void.
 709:.\Generated_Source\PSoC5/CySpc.c **** *
 710:.\Generated_Source\PSoC5/CySpc.c **** *
 711:.\Generated_Source\PSoC5/CySpc.c **** *******************************************************************************/
 712:.\Generated_Source\PSoC5/CySpc.c **** void CySpcActivePower(uint8 state) 
 713:.\Generated_Source\PSoC5/CySpc.c **** {
 1126              		.loc 1 713 0
 1127              		.cfi_startproc
 1128              		@ args = 0, pretend = 0, frame = 8
 1129              		@ frame_needed = 1, uses_anonymous_args = 0
 1130              		@ link register save eliminated.
 1131 0000 80B4     		push	{r7}
 1132              	.LCFI38:
 1133              		.cfi_def_cfa_offset 4
 1134 0002 83B0     		sub	sp, sp, #12
 1135              	.LCFI39:
 1136              		.cfi_def_cfa_offset 16
 1137 0004 00AF     		add	r7, sp, #0
 1138              		.cfi_offset 7, -4
 1139              	.LCFI40:
 1140              		.cfi_def_cfa_register 7
 1141 0006 0346     		mov	r3, r0
 1142 0008 FB71     		strb	r3, [r7, #7]
 714:.\Generated_Source\PSoC5/CySpc.c ****     if(state == 0)
 1143              		.loc 1 714 0
 1144 000a FB79     		ldrb	r3, [r7, #7]	@ zero_extendqisi2
 1145 000c 002B     		cmp	r3, #0
 1146 000e 0DD1     		bne	.L52
 715:.\Generated_Source\PSoC5/CySpc.c ****     {
 716:.\Generated_Source\PSoC5/CySpc.c ****         *PM_ACT_SPC &= ~PM_SPC_MASK;
 1147              		.loc 1 716 0
 1148 0010 44F2A033 		movw	r3, #:lower16:1073759136
 1149 0014 C4F20003 		movt	r3, #:upper16:1073759136
 1150 0018 44F2A032 		movw	r2, #:lower16:1073759136
 1151 001c C4F20002 		movt	r2, #:upper16:1073759136
 1152 0020 1278     		ldrb	r2, [r2, #0]
 1153 0022 D2B2     		uxtb	r2, r2
 1154 0024 02F0F702 		and	r2, r2, #247
 1155 0028 1A70     		strb	r2, [r3, #0]
 1156 002a 0DE0     		b	.L54
 1157              	.L52:
 717:.\Generated_Source\PSoC5/CySpc.c ****     }
 718:.\Generated_Source\PSoC5/CySpc.c ****     else
 719:.\Generated_Source\PSoC5/CySpc.c ****     {
 720:.\Generated_Source\PSoC5/CySpc.c ****         *PM_ACT_SPC |= PM_SPC_MASK;
ARM GAS  C:\Users\awkward\AppData\Local\Temp\cca62GgO.s 			page 34


 1158              		.loc 1 720 0
 1159 002c 44F2A033 		movw	r3, #:lower16:1073759136
 1160 0030 C4F20003 		movt	r3, #:upper16:1073759136
 1161 0034 44F2A032 		movw	r2, #:lower16:1073759136
 1162 0038 C4F20002 		movt	r2, #:upper16:1073759136
 1163 003c 1278     		ldrb	r2, [r2, #0]
 1164 003e D2B2     		uxtb	r2, r2
 1165 0040 42F00802 		orr	r2, r2, #8
 1166 0044 D2B2     		uxtb	r2, r2
 1167 0046 1A70     		strb	r2, [r3, #0]
 1168              	.L54:
 721:.\Generated_Source\PSoC5/CySpc.c ****     }
 722:.\Generated_Source\PSoC5/CySpc.c **** }
 1169              		.loc 1 722 0
 1170 0048 07F10C07 		add	r7, r7, #12
 1171 004c BD46     		mov	sp, r7
 1172 004e 80BC     		pop	{r7}
 1173 0050 7047     		bx	lr
 1174              		.cfi_endproc
 1175              	.LFE13:
 1176              		.size	CySpcActivePower, .-CySpcActivePower
 1177 0052 00BF     		.section	.text.CySpcStandbyPower,"ax",%progbits
 1178              		.align	2
 1179              		.global	CySpcStandbyPower
 1180              		.thumb
 1181              		.thumb_func
 1182              		.type	CySpcStandbyPower, %function
 1183              	CySpcStandbyPower:
 1184              	.LFB14:
 723:.\Generated_Source\PSoC5/CySpc.c **** 
 724:.\Generated_Source\PSoC5/CySpc.c **** /*******************************************************************************
 725:.\Generated_Source\PSoC5/CySpc.c **** * Function Name: CySpcStandbyPower
 726:.\Generated_Source\PSoC5/CySpc.c **** ********************************************************************************
 727:.\Generated_Source\PSoC5/CySpc.c **** * Summary:
 728:.\Generated_Source\PSoC5/CySpc.c **** *   Selects the power for standby operation modes.
 729:.\Generated_Source\PSoC5/CySpc.c **** *   NOTE: SPC functions are not meant to be called directly by the user application.
 730:.\Generated_Source\PSoC5/CySpc.c **** *
 731:.\Generated_Source\PSoC5/CySpc.c **** *
 732:.\Generated_Source\PSoC5/CySpc.c **** * Parameters:
 733:.\Generated_Source\PSoC5/CySpc.c **** *   state:
 734:.\Generated_Source\PSoC5/CySpc.c **** *       Standby power state. 1 is active, 0 inactive.
 735:.\Generated_Source\PSoC5/CySpc.c **** *
 736:.\Generated_Source\PSoC5/CySpc.c **** *   
 737:.\Generated_Source\PSoC5/CySpc.c **** * Return:
 738:.\Generated_Source\PSoC5/CySpc.c **** *   void.
 739:.\Generated_Source\PSoC5/CySpc.c **** *
 740:.\Generated_Source\PSoC5/CySpc.c **** *
 741:.\Generated_Source\PSoC5/CySpc.c **** *******************************************************************************/
 742:.\Generated_Source\PSoC5/CySpc.c **** void CySpcStandbyPower(uint8 state) 
 743:.\Generated_Source\PSoC5/CySpc.c **** {
 1185              		.loc 1 743 0
 1186              		.cfi_startproc
 1187              		@ args = 0, pretend = 0, frame = 8
 1188              		@ frame_needed = 1, uses_anonymous_args = 0
 1189              		@ link register save eliminated.
 1190 0000 80B4     		push	{r7}
 1191              	.LCFI41:
ARM GAS  C:\Users\awkward\AppData\Local\Temp\cca62GgO.s 			page 35


 1192              		.cfi_def_cfa_offset 4
 1193 0002 83B0     		sub	sp, sp, #12
 1194              	.LCFI42:
 1195              		.cfi_def_cfa_offset 16
 1196 0004 00AF     		add	r7, sp, #0
 1197              		.cfi_offset 7, -4
 1198              	.LCFI43:
 1199              		.cfi_def_cfa_register 7
 1200 0006 0346     		mov	r3, r0
 1201 0008 FB71     		strb	r3, [r7, #7]
 744:.\Generated_Source\PSoC5/CySpc.c ****     if(state == 0)
 1202              		.loc 1 744 0
 1203 000a FB79     		ldrb	r3, [r7, #7]	@ zero_extendqisi2
 1204 000c 002B     		cmp	r3, #0
 1205 000e 0DD1     		bne	.L56
 745:.\Generated_Source\PSoC5/CySpc.c ****     {
 746:.\Generated_Source\PSoC5/CySpc.c ****         *PM_STBY_SPC &= ~PM_SPC_MASK;
 1206              		.loc 1 746 0
 1207 0010 44F2B033 		movw	r3, #:lower16:1073759152
 1208 0014 C4F20003 		movt	r3, #:upper16:1073759152
 1209 0018 44F2B032 		movw	r2, #:lower16:1073759152
 1210 001c C4F20002 		movt	r2, #:upper16:1073759152
 1211 0020 1278     		ldrb	r2, [r2, #0]
 1212 0022 D2B2     		uxtb	r2, r2
 1213 0024 02F0F702 		and	r2, r2, #247
 1214 0028 1A70     		strb	r2, [r3, #0]
 1215 002a 0DE0     		b	.L58
 1216              	.L56:
 747:.\Generated_Source\PSoC5/CySpc.c ****     }
 748:.\Generated_Source\PSoC5/CySpc.c ****     else
 749:.\Generated_Source\PSoC5/CySpc.c ****     {
 750:.\Generated_Source\PSoC5/CySpc.c ****         *PM_STBY_SPC |= PM_SPC_MASK;
 1217              		.loc 1 750 0
 1218 002c 44F2B033 		movw	r3, #:lower16:1073759152
 1219 0030 C4F20003 		movt	r3, #:upper16:1073759152
 1220 0034 44F2B032 		movw	r2, #:lower16:1073759152
 1221 0038 C4F20002 		movt	r2, #:upper16:1073759152
 1222 003c 1278     		ldrb	r2, [r2, #0]
 1223 003e D2B2     		uxtb	r2, r2
 1224 0040 42F00802 		orr	r2, r2, #8
 1225 0044 D2B2     		uxtb	r2, r2
 1226 0046 1A70     		strb	r2, [r3, #0]
 1227              	.L58:
 751:.\Generated_Source\PSoC5/CySpc.c ****     }
 752:.\Generated_Source\PSoC5/CySpc.c **** }
 1228              		.loc 1 752 0
 1229 0048 07F10C07 		add	r7, r7, #12
 1230 004c BD46     		mov	sp, r7
 1231 004e 80BC     		pop	{r7}
 1232 0050 7047     		bx	lr
 1233              		.cfi_endproc
 1234              	.LFE14:
 1235              		.size	CySpcStandbyPower, .-CySpcStandbyPower
 1236 0052 00BF     		.text
 1237              	.Letext0: