ARM GAS  C:\Users\awkward\AppData\Local\Temp\ccb5UfPh.s 			page 1


   1              		.syntax unified
   2              		.cpu cortex-m3
   3              		.fpu softvfp
   4              		.eabi_attribute 20, 1
   5              		.eabi_attribute 21, 1
   6              		.eabi_attribute 23, 3
   7              		.eabi_attribute 24, 1
   8              		.eabi_attribute 25, 1
   9              		.eabi_attribute 26, 1
  10              		.eabi_attribute 30, 6
  11              		.eabi_attribute 18, 4
  12              		.thumb
  13              		.file	"CyFlash.c"
  20 0000 66010000 		.text
  20      02005F00 
  20      00000201 
  20      FB0E0D00 
  20      01010101 
  21              	.Ltext0:
  22              		.cfi_sections	.debug_frame
  23              		.comm	dieTemperature,2,4
  24              		.bss
  25              		.align	2
  26              	rowBuffer:
  27 0000 00000000 		.space	4
  28              		.section	.text.CyFlash_Start,"ax",%progbits
  29              		.align	2
  30              		.global	CyFlash_Start
  31              		.thumb
  32              		.thumb_func
  33              		.type	CyFlash_Start, %function
  34              	CyFlash_Start:
  35              	.LFB0:
  36              		.file 1 ".\\Generated_Source\\PSoC5\\CyFlash.c"
   1:.\Generated_Source\PSoC5/CyFlash.c **** /*******************************************************************************
   2:.\Generated_Source\PSoC5/CyFlash.c **** * File Name: CyFlash.c  
   3:.\Generated_Source\PSoC5/CyFlash.c **** * Version 2.21
   4:.\Generated_Source\PSoC5/CyFlash.c **** *
   5:.\Generated_Source\PSoC5/CyFlash.c **** *  Description:
   6:.\Generated_Source\PSoC5/CyFlash.c **** *   Provides an API for the FLASH/EEPROM.
   7:.\Generated_Source\PSoC5/CyFlash.c **** *
   8:.\Generated_Source\PSoC5/CyFlash.c **** *  Note:
   9:.\Generated_Source\PSoC5/CyFlash.c **** *   This code is endian agnostic.
  10:.\Generated_Source\PSoC5/CyFlash.c **** *
  11:.\Generated_Source\PSoC5/CyFlash.c **** *  Note: 
  12:.\Generated_Source\PSoC5/CyFlash.c **** *   Documentation of the API's in this file is located in the
  13:.\Generated_Source\PSoC5/CyFlash.c **** *   System Reference Guide provided with PSoC Creator.
  14:.\Generated_Source\PSoC5/CyFlash.c **** *
  15:.\Generated_Source\PSoC5/CyFlash.c **** *******************************************************************************
  16:.\Generated_Source\PSoC5/CyFlash.c **** * Copyright 2008-2011, Cypress Semiconductor Corporation.  All rights reserved.
  17:.\Generated_Source\PSoC5/CyFlash.c **** * You may use this file only in accordance with the license, terms, conditions, 
ARM GAS  C:\Users\awkward\AppData\Local\Temp\ccb5UfPh.s 			page 2


  18:.\Generated_Source\PSoC5/CyFlash.c **** * disclaimers, and limitations in the end user license agreement accompanying 
  19:.\Generated_Source\PSoC5/CyFlash.c **** * the software package with which this file was provided.
  20:.\Generated_Source\PSoC5/CyFlash.c **** ********************************************************************************/
  21:.\Generated_Source\PSoC5/CyFlash.c **** 
  22:.\Generated_Source\PSoC5/CyFlash.c **** #include <Cydevice_trm.h>
  23:.\Generated_Source\PSoC5/CyFlash.c **** #include "CYFLASH.H"
  24:.\Generated_Source\PSoC5/CyFlash.c **** 
  25:.\Generated_Source\PSoC5/CyFlash.c **** uint8 dieTemperature[2];
  26:.\Generated_Source\PSoC5/CyFlash.c **** 
  27:.\Generated_Source\PSoC5/CyFlash.c **** #if (CYDEV_ECC_ENABLE == 0)
  28:.\Generated_Source\PSoC5/CyFlash.c ****     static uint8 * rowBuffer = 0;
  29:.\Generated_Source\PSoC5/CyFlash.c **** #endif
  30:.\Generated_Source\PSoC5/CyFlash.c **** 
  31:.\Generated_Source\PSoC5/CyFlash.c **** 
  32:.\Generated_Source\PSoC5/CyFlash.c **** /*******************************************************************************
  33:.\Generated_Source\PSoC5/CyFlash.c **** * Function Name: CyFlash_Start
  34:.\Generated_Source\PSoC5/CyFlash.c **** ********************************************************************************
  35:.\Generated_Source\PSoC5/CyFlash.c **** *
  36:.\Generated_Source\PSoC5/CyFlash.c **** * Summary:
  37:.\Generated_Source\PSoC5/CyFlash.c **** *  Enable the EEPROM/Flash. In PSOC3_ES2/PSOC5_ES1, this will enable both
  38:.\Generated_Source\PSoC5/CyFlash.c **** *  Flash and EEPROM. In PSOC3_ES3/PSOC5_ES2, this will enable only Flash.
  39:.\Generated_Source\PSoC5/CyFlash.c **** *   
  40:.\Generated_Source\PSoC5/CyFlash.c **** * Parameters:
  41:.\Generated_Source\PSoC5/CyFlash.c **** *  void
  42:.\Generated_Source\PSoC5/CyFlash.c **** * 
  43:.\Generated_Source\PSoC5/CyFlash.c **** * Return:
  44:.\Generated_Source\PSoC5/CyFlash.c **** *  void  
  45:.\Generated_Source\PSoC5/CyFlash.c **** * 
  46:.\Generated_Source\PSoC5/CyFlash.c **** * Reentrant
  47:.\Generated_Source\PSoC5/CyFlash.c **** *  No
  48:.\Generated_Source\PSoC5/CyFlash.c **** *
  49:.\Generated_Source\PSoC5/CyFlash.c **** *******************************************************************************/
  50:.\Generated_Source\PSoC5/CyFlash.c **** void CyFlash_Start(void) 
  51:.\Generated_Source\PSoC5/CyFlash.c **** {
  37              		.loc 1 51 0
  38              		.cfi_startproc
  39              		@ args = 0, pretend = 0, frame = 0
  40              		@ frame_needed = 1, uses_anonymous_args = 0
  41              		@ link register save eliminated.
  42 0000 80B4     		push	{r7}
  43              	.LCFI0:
  44              		.cfi_def_cfa_offset 4
  45 0002 00AF     		add	r7, sp, #0
  46              		.cfi_offset 7, -4
  47              	.LCFI1:
  48              		.cfi_def_cfa_register 7
  52:.\Generated_Source\PSoC5/CyFlash.c ****     #if (PSOC3_ES2 || PSOC5_ES1)
  53:.\Generated_Source\PSoC5/CyFlash.c ****         /* Active Power Mode */
  54:.\Generated_Source\PSoC5/CyFlash.c ****         *PM_ACT_EEFLASH |= PM_FLASH_EE_MASK;
  49              		.loc 1 54 0
  50 0004 44F2A033 		movw	r3, #:lower16:1073759136
  51 0008 C4F20003 		movt	r3, #:upper16:1073759136
  52 000c 44F2A032 		movw	r2, #:lower16:1073759136
  53 0010 C4F20002 		movt	r2, #:upper16:1073759136
  54 0014 1278     		ldrb	r2, [r2, #0]
  55 0016 D2B2     		uxtb	r2, r2
  56 0018 6FEA4262 		mvn	r2, r2, lsl #25
ARM GAS  C:\Users\awkward\AppData\Local\Temp\ccb5UfPh.s 			page 3


  57 001c 6FEA5262 		mvn	r2, r2, lsr #25
  58 0020 D2B2     		uxtb	r2, r2
  59 0022 1A70     		strb	r2, [r3, #0]
  55:.\Generated_Source\PSoC5/CyFlash.c ****         /* Standby Power Mode */
  56:.\Generated_Source\PSoC5/CyFlash.c ****         *PM_STBY_EEFLASH |= PM_FLASH_EE_MASK;
  60              		.loc 1 56 0
  61 0024 44F2B033 		movw	r3, #:lower16:1073759152
  62 0028 C4F20003 		movt	r3, #:upper16:1073759152
  63 002c 44F2B032 		movw	r2, #:lower16:1073759152
  64 0030 C4F20002 		movt	r2, #:upper16:1073759152
  65 0034 1278     		ldrb	r2, [r2, #0]
  66 0036 D2B2     		uxtb	r2, r2
  67 0038 6FEA4262 		mvn	r2, r2, lsl #25
  68 003c 6FEA5262 		mvn	r2, r2, lsr #25
  69 0040 D2B2     		uxtb	r2, r2
  70 0042 1A70     		strb	r2, [r3, #0]
  57:.\Generated_Source\PSoC5/CyFlash.c ****     #endif
  58:.\Generated_Source\PSoC5/CyFlash.c ****     
  59:.\Generated_Source\PSoC5/CyFlash.c ****     #if (PSOC3_ES3 || PSOC5_ES2)
  60:.\Generated_Source\PSoC5/CyFlash.c ****         /* Active Power Mode */
  61:.\Generated_Source\PSoC5/CyFlash.c ****         *PM_ACT_FLASH_PTR |= PM_FLASH_MASK;
  62:.\Generated_Source\PSoC5/CyFlash.c ****         /* Standby Power Mode */
  63:.\Generated_Source\PSoC5/CyFlash.c ****         *PM_STBY_FLASH_PTR |= PM_FLASH_MASK;
  64:.\Generated_Source\PSoC5/CyFlash.c ****     #endif
  65:.\Generated_Source\PSoC5/CyFlash.c **** }
  71              		.loc 1 65 0
  72 0044 BD46     		mov	sp, r7
  73 0046 80BC     		pop	{r7}
  74 0048 7047     		bx	lr
  75              		.cfi_endproc
  76              	.LFE0:
  77              		.size	CyFlash_Start, .-CyFlash_Start
  78 004a 00BF     		.section	.text.CyFlash_Stop,"ax",%progbits
  79              		.align	2
  80              		.global	CyFlash_Stop
  81              		.thumb
  82              		.thumb_func
  83              		.type	CyFlash_Stop, %function
  84              	CyFlash_Stop:
  85              	.LFB1:
  66:.\Generated_Source\PSoC5/CyFlash.c **** 
  67:.\Generated_Source\PSoC5/CyFlash.c **** 
  68:.\Generated_Source\PSoC5/CyFlash.c **** /*******************************************************************************
  69:.\Generated_Source\PSoC5/CyFlash.c **** * Function Name: CyFlash_Stop
  70:.\Generated_Source\PSoC5/CyFlash.c **** ********************************************************************************
  71:.\Generated_Source\PSoC5/CyFlash.c **** *
  72:.\Generated_Source\PSoC5/CyFlash.c **** * Summary:
  73:.\Generated_Source\PSoC5/CyFlash.c **** *  Disable the EEPROM/Flash. In PSOC3_ES2/PSOC5_ES1, this will disable both
  74:.\Generated_Source\PSoC5/CyFlash.c **** *  Flash and EEPROM. In PSOC3_ES3/PSOC5_ES2, this will disable only Flash.
  75:.\Generated_Source\PSoC5/CyFlash.c **** *
  76:.\Generated_Source\PSoC5/CyFlash.c **** * Parameters:
  77:.\Generated_Source\PSoC5/CyFlash.c **** *  void
  78:.\Generated_Source\PSoC5/CyFlash.c **** *
  79:.\Generated_Source\PSoC5/CyFlash.c **** * Return:
  80:.\Generated_Source\PSoC5/CyFlash.c **** *  void  
  81:.\Generated_Source\PSoC5/CyFlash.c **** * 
  82:.\Generated_Source\PSoC5/CyFlash.c **** * Side Effects:
ARM GAS  C:\Users\awkward\AppData\Local\Temp\ccb5UfPh.s 			page 4


  83:.\Generated_Source\PSoC5/CyFlash.c **** *  This setting is ignored as long as the CPU is currently running.  This will 
  84:.\Generated_Source\PSoC5/CyFlash.c **** *  only take effect when the CPU is later disabled.
  85:.\Generated_Source\PSoC5/CyFlash.c **** *
  86:.\Generated_Source\PSoC5/CyFlash.c **** * Reentrant
  87:.\Generated_Source\PSoC5/CyFlash.c **** *  Yes
  88:.\Generated_Source\PSoC5/CyFlash.c **** *
  89:.\Generated_Source\PSoC5/CyFlash.c **** *******************************************************************************/
  90:.\Generated_Source\PSoC5/CyFlash.c **** void CyFlash_Stop (void) 
  91:.\Generated_Source\PSoC5/CyFlash.c **** {
  86              		.loc 1 91 0
  87              		.cfi_startproc
  88              		@ args = 0, pretend = 0, frame = 0
  89              		@ frame_needed = 1, uses_anonymous_args = 0
  90              		@ link register save eliminated.
  91 0000 80B4     		push	{r7}
  92              	.LCFI2:
  93              		.cfi_def_cfa_offset 4
  94 0002 00AF     		add	r7, sp, #0
  95              		.cfi_offset 7, -4
  96              	.LCFI3:
  97              		.cfi_def_cfa_register 7
  92:.\Generated_Source\PSoC5/CyFlash.c ****     #if (PSOC3_ES2 || PSOC5_ES1)
  93:.\Generated_Source\PSoC5/CyFlash.c ****         /* Active Power Mode */
  94:.\Generated_Source\PSoC5/CyFlash.c ****         *PM_ACT_EEFLASH &= ~PM_FLASH_EE_MASK;
  98              		.loc 1 94 0
  99 0004 44F2A033 		movw	r3, #:lower16:1073759136
 100 0008 C4F20003 		movt	r3, #:upper16:1073759136
 101 000c 44F2A032 		movw	r2, #:lower16:1073759136
 102 0010 C4F20002 		movt	r2, #:upper16:1073759136
 103 0014 1278     		ldrb	r2, [r2, #0]
 104 0016 D2B2     		uxtb	r2, r2
 105 0018 02F07F02 		and	r2, r2, #127
 106 001c 1A70     		strb	r2, [r3, #0]
  95:.\Generated_Source\PSoC5/CyFlash.c ****         /* Standby Power Mode */
  96:.\Generated_Source\PSoC5/CyFlash.c ****         *PM_STBY_EEFLASH &= ~PM_FLASH_EE_MASK;
 107              		.loc 1 96 0
 108 001e 44F2B033 		movw	r3, #:lower16:1073759152
 109 0022 C4F20003 		movt	r3, #:upper16:1073759152
 110 0026 44F2B032 		movw	r2, #:lower16:1073759152
 111 002a C4F20002 		movt	r2, #:upper16:1073759152
 112 002e 1278     		ldrb	r2, [r2, #0]
 113 0030 D2B2     		uxtb	r2, r2
 114 0032 02F07F02 		and	r2, r2, #127
 115 0036 1A70     		strb	r2, [r3, #0]
  97:.\Generated_Source\PSoC5/CyFlash.c ****     #endif
  98:.\Generated_Source\PSoC5/CyFlash.c ****     
  99:.\Generated_Source\PSoC5/CyFlash.c ****     #if (PSOC3_ES3 || PSOC5_ES2)
 100:.\Generated_Source\PSoC5/CyFlash.c ****         /* Active Power Mode */
 101:.\Generated_Source\PSoC5/CyFlash.c ****         *PM_ACT_FLASH_PTR &= ~PM_FLASH_MASK;
 102:.\Generated_Source\PSoC5/CyFlash.c ****         /* Standby Power Mode */
 103:.\Generated_Source\PSoC5/CyFlash.c ****         *PM_STBY_FLASH_PTR &= ~PM_FLASH_MASK;
 104:.\Generated_Source\PSoC5/CyFlash.c ****     #endif
 105:.\Generated_Source\PSoC5/CyFlash.c **** }
 116              		.loc 1 105 0
 117 0038 BD46     		mov	sp, r7
 118 003a 80BC     		pop	{r7}
 119 003c 7047     		bx	lr
ARM GAS  C:\Users\awkward\AppData\Local\Temp\ccb5UfPh.s 			page 5


 120              		.cfi_endproc
 121              	.LFE1:
 122              		.size	CyFlash_Stop, .-CyFlash_Stop
 123 003e 00BF     		.section	.text.CySetTempInt,"ax",%progbits
 124              		.align	2
 125              		.global	CySetTempInt
 126              		.thumb
 127              		.thumb_func
 128              		.type	CySetTempInt, %function
 129              	CySetTempInt:
 130              	.LFB2:
 106:.\Generated_Source\PSoC5/CyFlash.c **** 
 107:.\Generated_Source\PSoC5/CyFlash.c **** 
 108:.\Generated_Source\PSoC5/CyFlash.c **** /*******************************************************************************
 109:.\Generated_Source\PSoC5/CyFlash.c **** * Function Name: CySetTemp
 110:.\Generated_Source\PSoC5/CyFlash.c **** ********************************************************************************
 111:.\Generated_Source\PSoC5/CyFlash.c **** *
 112:.\Generated_Source\PSoC5/CyFlash.c **** * Summary:
 113:.\Generated_Source\PSoC5/CyFlash.c **** *  Sends a command to the SPC to read the die temperature. Sets a global value
 114:.\Generated_Source\PSoC5/CyFlash.c **** *  used by the Write functions. This function must be called once before executing
 115:.\Generated_Source\PSoC5/CyFlash.c **** *  a series of Flash writing functions.
 116:.\Generated_Source\PSoC5/CyFlash.c **** 
 117:.\Generated_Source\PSoC5/CyFlash.c **** *
 118:.\Generated_Source\PSoC5/CyFlash.c **** * Parameters:
 119:.\Generated_Source\PSoC5/CyFlash.c **** *  void
 120:.\Generated_Source\PSoC5/CyFlash.c **** *
 121:.\Generated_Source\PSoC5/CyFlash.c **** * Return:
 122:.\Generated_Source\PSoC5/CyFlash.c **** *  status:
 123:.\Generated_Source\PSoC5/CyFlash.c **** *   CYRET_SUCCESS if successful. The first byte is the sign of the temperature 
 124:.\Generated_Source\PSoC5/CyFlash.c **** *   (0 = negative, 1 = positive).
 125:.\Generated_Source\PSoC5/CyFlash.c **** *   The second byte is the magnitude.
 126:.\Generated_Source\PSoC5/CyFlash.c **** *   CYRET_LOCKED if Flash writing already in use
 127:.\Generated_Source\PSoC5/CyFlash.c **** *   CYRET_UNKNOWN if there was an SPC error.
 128:.\Generated_Source\PSoC5/CyFlash.c **** *  
 129:.\Generated_Source\PSoC5/CyFlash.c **** * Side Effects:
 130:.\Generated_Source\PSoC5/CyFlash.c **** *  Execution of this function takes an extended period of time.
 131:.\Generated_Source\PSoC5/CyFlash.c **** *
 132:.\Generated_Source\PSoC5/CyFlash.c **** * Reentrant
 133:.\Generated_Source\PSoC5/CyFlash.c **** *  Yes
 134:.\Generated_Source\PSoC5/CyFlash.c **** *
 135:.\Generated_Source\PSoC5/CyFlash.c **** *******************************************************************************/
 136:.\Generated_Source\PSoC5/CyFlash.c **** cystatus CySetTempInt(void) 
 137:.\Generated_Source\PSoC5/CyFlash.c **** {
 131              		.loc 1 137 0
 132              		.cfi_startproc
 133              		@ args = 0, pretend = 0, frame = 8
 134              		@ frame_needed = 1, uses_anonymous_args = 0
 135 0000 80B5     		push	{r7, lr}
 136              	.LCFI4:
 137              		.cfi_def_cfa_offset 8
 138 0002 82B0     		sub	sp, sp, #8
 139              	.LCFI5:
 140              		.cfi_def_cfa_offset 16
 141 0004 00AF     		add	r7, sp, #0
 142              		.cfi_offset 14, -4
 143              		.cfi_offset 7, -8
 144              	.LCFI6:
ARM GAS  C:\Users\awkward\AppData\Local\Temp\ccb5UfPh.s 			page 6


 145              		.cfi_def_cfa_register 7
 138:.\Generated_Source\PSoC5/CyFlash.c ****     uint8 ticks;
 139:.\Generated_Source\PSoC5/CyFlash.c ****     cystatus status;
 140:.\Generated_Source\PSoC5/CyFlash.c **** 
 141:.\Generated_Source\PSoC5/CyFlash.c ****     /* Make sure SPC is powered. */
 142:.\Generated_Source\PSoC5/CyFlash.c ****     CySpcActivePower(1);
 146              		.loc 1 142 0
 147 0006 4FF00100 		mov	r0, #1
 148 000a FFF7FEFF 		bl	CySpcActivePower
 143:.\Generated_Source\PSoC5/CyFlash.c **** 
 144:.\Generated_Source\PSoC5/CyFlash.c ****     /* Plan for failure. */
 145:.\Generated_Source\PSoC5/CyFlash.c ****     status = CYRET_UNKNOWN;
 149              		.loc 1 145 0
 150 000e 4FF0FF33 		mov	r3, #-1
 151 0012 7B60     		str	r3, [r7, #4]
 146:.\Generated_Source\PSoC5/CyFlash.c **** 
 147:.\Generated_Source\PSoC5/CyFlash.c ****     /* See if we can get the SPC. */
 148:.\Generated_Source\PSoC5/CyFlash.c ****     if(CySpcLock() == CYRET_SUCCESS)
 152              		.loc 1 148 0
 153 0014 FFF7FEFF 		bl	CySpcLock
 154 0018 0346     		mov	r3, r0
 155 001a 002B     		cmp	r3, #0
 156 001c 4CD1     		bne	.L6
 149:.\Generated_Source\PSoC5/CyFlash.c ****     {
 150:.\Generated_Source\PSoC5/CyFlash.c ****         /* Create the command. */
 151:.\Generated_Source\PSoC5/CyFlash.c ****         if(CySpcCreateCmdGetTemp(TEMP_NUMBER_OF_SAMPLES, TEMP_TIMER_PERIOD, TEMP_CLK_DIV_SELECT) ==
 157              		.loc 1 151 0
 158 001e 4FF00100 		mov	r0, #1
 159 0022 40F6FF71 		movw	r1, #4095
 160 0026 4FF00402 		mov	r2, #4
 161 002a FFF7FEFF 		bl	CySpcCreateCmdGetTemp
 162 002e 0346     		mov	r3, r0
 163 0030 002B     		cmp	r3, #0
 164 0032 3ED1     		bne	.L7
 152:.\Generated_Source\PSoC5/CyFlash.c ****         {
 153:.\Generated_Source\PSoC5/CyFlash.c ****             /* Write the command. */
 154:.\Generated_Source\PSoC5/CyFlash.c ****             if(CySpcWriteCommand(0, 0) == CYRET_STARTED)
 165              		.loc 1 154 0
 166 0034 4FF00000 		mov	r0, #0
 167 0038 4FF00001 		mov	r1, #0
 168 003c FFF7FEFF 		bl	CySpcWriteCommand
 169 0040 0346     		mov	r3, r0
 170 0042 072B     		cmp	r3, #7
 171 0044 35D1     		bne	.L7
 155:.\Generated_Source\PSoC5/CyFlash.c ****             {
 156:.\Generated_Source\PSoC5/CyFlash.c ****                 ticks = (uint8) TEMP_MAX_WAIT;
 172              		.loc 1 156 0
 173 0046 4FF06D03 		mov	r3, #109
 174 004a FB70     		strb	r3, [r7, #3]
 175              	.L11:
 157:.\Generated_Source\PSoC5/CyFlash.c **** 
 158:.\Generated_Source\PSoC5/CyFlash.c ****                 do
 159:.\Generated_Source\PSoC5/CyFlash.c ****                 {
 160:.\Generated_Source\PSoC5/CyFlash.c ****                     if(CySpcReadData(dieTemperature, 2) == 2)
 176              		.loc 1 160 0
 177 004c 40F20000 		movw	r0, #:lower16:dieTemperature
 178 0050 C0F20000 		movt	r0, #:upper16:dieTemperature
ARM GAS  C:\Users\awkward\AppData\Local\Temp\ccb5UfPh.s 			page 7


 179 0054 4FF00201 		mov	r1, #2
 180 0058 FFF7FEFF 		bl	CySpcReadData
 181 005c 0346     		mov	r3, r0
 182 005e 022B     		cmp	r3, #2
 183 0060 12D1     		bne	.L8
 161:.\Generated_Source\PSoC5/CyFlash.c ****                     {
 162:.\Generated_Source\PSoC5/CyFlash.c ****                         status = CYRET_SUCCESS;
 184              		.loc 1 162 0
 185 0062 4FF00003 		mov	r3, #0
 186 0066 7B60     		str	r3, [r7, #4]
 163:.\Generated_Source\PSoC5/CyFlash.c **** 						while(!(*SPC_STATUS & SPC_SPC_IDLE))
 187              		.loc 1 163 0
 188 0068 03E0     		b	.L9
 189              	.L10:
 164:.\Generated_Source\PSoC5/CyFlash.c **** 						{
 165:.\Generated_Source\PSoC5/CyFlash.c **** 							CyDelayUs(1);
 190              		.loc 1 165 0
 191 006a 4FF00100 		mov	r0, #1
 192 006e FFF7FEFF 		bl	CyDelayUs
 193              	.L9:
 194              		.loc 1 163 0
 195 0072 44F22273 		movw	r3, #:lower16:1073760034
 196 0076 C4F20003 		movt	r3, #:upper16:1073760034
 197 007a 1B78     		ldrb	r3, [r3, #0]
 198 007c DBB2     		uxtb	r3, r3
 199 007e 03F00203 		and	r3, r3, #2
 200 0082 002B     		cmp	r3, #0
 201 0084 F1D0     		beq	.L10
 166:.\Generated_Source\PSoC5/CyFlash.c **** 						}
 167:.\Generated_Source\PSoC5/CyFlash.c ****                         break;
 202              		.loc 1 167 0
 203 0086 14E0     		b	.L7
 204              	.L8:
 168:.\Generated_Source\PSoC5/CyFlash.c ****                     }
 169:.\Generated_Source\PSoC5/CyFlash.c ****                     
 170:.\Generated_Source\PSoC5/CyFlash.c ****                     /* Wait for the reading to come in. */
 171:.\Generated_Source\PSoC5/CyFlash.c ****                     CyDelay(1);
 205              		.loc 1 171 0
 206 0088 4FF00100 		mov	r0, #1
 207 008c FFF7FEFF 		bl	CyDelay
 172:.\Generated_Source\PSoC5/CyFlash.c ****                     ticks--;
 208              		.loc 1 172 0
 209 0090 FB78     		ldrb	r3, [r7, #3]
 210 0092 03F1FF33 		add	r3, r3, #-1
 211 0096 FB70     		strb	r3, [r7, #3]
 173:.\Generated_Source\PSoC5/CyFlash.c **** 
 174:.\Generated_Source\PSoC5/CyFlash.c ****                 } while(ticks && !(*SPC_STATUS & SPC_SPC_IDLE));
 212              		.loc 1 174 0
 213 0098 FB78     		ldrb	r3, [r7, #3]	@ zero_extendqisi2
 214 009a 002B     		cmp	r3, #0
 215 009c 09D0     		beq	.L7
 216 009e 44F22273 		movw	r3, #:lower16:1073760034
 217 00a2 C4F20003 		movt	r3, #:upper16:1073760034
 218 00a6 1B78     		ldrb	r3, [r3, #0]
 219 00a8 DBB2     		uxtb	r3, r3
 220 00aa 03F00203 		and	r3, r3, #2
 221 00ae 002B     		cmp	r3, #0
ARM GAS  C:\Users\awkward\AppData\Local\Temp\ccb5UfPh.s 			page 8


 222 00b0 CCD0     		beq	.L11
 223              	.L7:
 175:.\Generated_Source\PSoC5/CyFlash.c ****             }
 176:.\Generated_Source\PSoC5/CyFlash.c ****         }
 177:.\Generated_Source\PSoC5/CyFlash.c **** 
 178:.\Generated_Source\PSoC5/CyFlash.c ****         /* Unlock the SPC so someone else can use it. */
 179:.\Generated_Source\PSoC5/CyFlash.c ****         CySpcUnlock();
 224              		.loc 1 179 0
 225 00b2 FFF7FEFF 		bl	CySpcUnlock
 226 00b6 02E0     		b	.L12
 227              	.L6:
 180:.\Generated_Source\PSoC5/CyFlash.c ****     }
 181:.\Generated_Source\PSoC5/CyFlash.c ****     else
 182:.\Generated_Source\PSoC5/CyFlash.c ****     {
 183:.\Generated_Source\PSoC5/CyFlash.c ****         status = CYRET_LOCKED;
 228              		.loc 1 183 0
 229 00b8 4FF00403 		mov	r3, #4
 230 00bc 7B60     		str	r3, [r7, #4]
 231              	.L12:
 184:.\Generated_Source\PSoC5/CyFlash.c ****     }
 185:.\Generated_Source\PSoC5/CyFlash.c **** 
 186:.\Generated_Source\PSoC5/CyFlash.c ****     return status;
 232              		.loc 1 186 0
 233 00be 7B68     		ldr	r3, [r7, #4]
 187:.\Generated_Source\PSoC5/CyFlash.c **** }
 234              		.loc 1 187 0
 235 00c0 1846     		mov	r0, r3
 236 00c2 07F10807 		add	r7, r7, #8
 237 00c6 BD46     		mov	sp, r7
 238 00c8 80BD     		pop	{r7, pc}
 239              		.cfi_endproc
 240              	.LFE2:
 241              		.size	CySetTempInt, .-CySetTempInt
 242 00ca 00BF     		.section	.text.CySetTemp,"ax",%progbits
 243              		.align	2
 244              		.global	CySetTemp
 245              		.thumb
 246              		.thumb_func
 247              		.type	CySetTemp, %function
 248              	CySetTemp:
 249              	.LFB3:
 188:.\Generated_Source\PSoC5/CyFlash.c **** 
 189:.\Generated_Source\PSoC5/CyFlash.c **** cystatus CySetTemp(void) 
 190:.\Generated_Source\PSoC5/CyFlash.c **** {
 250              		.loc 1 190 0
 251              		.cfi_startproc
 252              		@ args = 0, pretend = 0, frame = 8
 253              		@ frame_needed = 1, uses_anonymous_args = 0
 254 0000 80B5     		push	{r7, lr}
 255              	.LCFI7:
 256              		.cfi_def_cfa_offset 8
 257 0002 82B0     		sub	sp, sp, #8
 258              	.LCFI8:
 259              		.cfi_def_cfa_offset 16
 260 0004 00AF     		add	r7, sp, #0
 261              		.cfi_offset 14, -4
 262              		.cfi_offset 7, -8
ARM GAS  C:\Users\awkward\AppData\Local\Temp\ccb5UfPh.s 			page 9


 263              	.LCFI9:
 264              		.cfi_def_cfa_register 7
 191:.\Generated_Source\PSoC5/CyFlash.c ****     cystatus status = CySetTempInt();
 265              		.loc 1 191 0
 266 0006 FFF7FEFF 		bl	CySetTempInt
 267 000a 0346     		mov	r3, r0
 268 000c 7B60     		str	r3, [r7, #4]
 192:.\Generated_Source\PSoC5/CyFlash.c ****     if(status == CYRET_SUCCESS)
 269              		.loc 1 192 0
 270 000e 7B68     		ldr	r3, [r7, #4]
 271 0010 002B     		cmp	r3, #0
 272 0012 03D1     		bne	.L15
 193:.\Generated_Source\PSoC5/CyFlash.c ****     {
 194:.\Generated_Source\PSoC5/CyFlash.c ****         status = CySetTempInt();
 273              		.loc 1 194 0
 274 0014 FFF7FEFF 		bl	CySetTempInt
 275 0018 0346     		mov	r3, r0
 276 001a 7B60     		str	r3, [r7, #4]
 277              	.L15:
 195:.\Generated_Source\PSoC5/CyFlash.c ****     }
 196:.\Generated_Source\PSoC5/CyFlash.c ****     return status;
 278              		.loc 1 196 0
 279 001c 7B68     		ldr	r3, [r7, #4]
 197:.\Generated_Source\PSoC5/CyFlash.c **** }
 280              		.loc 1 197 0
 281 001e 1846     		mov	r0, r3
 282 0020 07F10807 		add	r7, r7, #8
 283 0024 BD46     		mov	sp, r7
 284 0026 80BD     		pop	{r7, pc}
 285              		.cfi_endproc
 286              	.LFE3:
 287              		.size	CySetTemp, .-CySetTemp
 288              		.section	.text.CySetFlashEEBuffer,"ax",%progbits
 289              		.align	2
 290              		.global	CySetFlashEEBuffer
 291              		.thumb
 292              		.thumb_func
 293              		.type	CySetFlashEEBuffer, %function
 294              	CySetFlashEEBuffer:
 295              	.LFB4:
 198:.\Generated_Source\PSoC5/CyFlash.c **** 
 199:.\Generated_Source\PSoC5/CyFlash.c **** /*******************************************************************************
 200:.\Generated_Source\PSoC5/CyFlash.c **** * Function Name: CySetFlashEEBuffer
 201:.\Generated_Source\PSoC5/CyFlash.c **** ********************************************************************************
 202:.\Generated_Source\PSoC5/CyFlash.c **** *
 203:.\Generated_Source\PSoC5/CyFlash.c **** * Summary:
 204:.\Generated_Source\PSoC5/CyFlash.c **** *  Sets the user supplied temporary buffer to store SPC data while performing
 205:.\Generated_Source\PSoC5/CyFlash.c **** *  flash and EEPROM commands. This buffer is only necessary when Flash ECC is 
 206:.\Generated_Source\PSoC5/CyFlash.c **** *  disabled.
 207:.\Generated_Source\PSoC5/CyFlash.c **** *
 208:.\Generated_Source\PSoC5/CyFlash.c **** *
 209:.\Generated_Source\PSoC5/CyFlash.c **** * Parameters:
 210:.\Generated_Source\PSoC5/CyFlash.c **** *  buffer:
 211:.\Generated_Source\PSoC5/CyFlash.c **** *       Address of block of memory to store temporary memory. The size of the
 212:.\Generated_Source\PSoC5/CyFlash.c **** *       block of memory is SIZEOF_FLASH_ROW + SIZEOF_ECC_ROW.
 213:.\Generated_Source\PSoC5/CyFlash.c **** *   
 214:.\Generated_Source\PSoC5/CyFlash.c **** * Return:
ARM GAS  C:\Users\awkward\AppData\Local\Temp\ccb5UfPh.s 			page 10


 215:.\Generated_Source\PSoC5/CyFlash.c **** *  status:
 216:.\Generated_Source\PSoC5/CyFlash.c **** *   CYRET_SUCCESS if successful.
 217:.\Generated_Source\PSoC5/CyFlash.c **** *   CYRET_LOCKED if the SPC is already in use.
 218:.\Generated_Source\PSoC5/CyFlash.c **** *
 219:.\Generated_Source\PSoC5/CyFlash.c **** * Reentrant
 220:.\Generated_Source\PSoC5/CyFlash.c **** *  Yes
 221:.\Generated_Source\PSoC5/CyFlash.c **** *
 222:.\Generated_Source\PSoC5/CyFlash.c **** *******************************************************************************/
 223:.\Generated_Source\PSoC5/CyFlash.c **** cystatus CySetFlashEEBuffer(uint8 * buffer) 
 224:.\Generated_Source\PSoC5/CyFlash.c **** {
 296              		.loc 1 224 0
 297              		.cfi_startproc
 298              		@ args = 0, pretend = 0, frame = 16
 299              		@ frame_needed = 1, uses_anonymous_args = 0
 300 0000 80B5     		push	{r7, lr}
 301              	.LCFI10:
 302              		.cfi_def_cfa_offset 8
 303 0002 84B0     		sub	sp, sp, #16
 304              	.LCFI11:
 305              		.cfi_def_cfa_offset 24
 306 0004 00AF     		add	r7, sp, #0
 307              		.cfi_offset 14, -4
 308              		.cfi_offset 7, -8
 309              	.LCFI12:
 310              		.cfi_def_cfa_register 7
 311 0006 7860     		str	r0, [r7, #4]
 225:.\Generated_Source\PSoC5/CyFlash.c ****     cystatus status;
 226:.\Generated_Source\PSoC5/CyFlash.c **** 
 227:.\Generated_Source\PSoC5/CyFlash.c ****     /* Make sure SPC is powerd. */
 228:.\Generated_Source\PSoC5/CyFlash.c ****     CySpcActivePower(1);
 312              		.loc 1 228 0
 313 0008 4FF00100 		mov	r0, #1
 314 000c FFF7FEFF 		bl	CySpcActivePower
 229:.\Generated_Source\PSoC5/CyFlash.c **** 
 230:.\Generated_Source\PSoC5/CyFlash.c ****     if(!buffer)
 315              		.loc 1 230 0
 316 0010 7B68     		ldr	r3, [r7, #4]
 317 0012 002B     		cmp	r3, #0
 318 0014 03D1     		bne	.L18
 231:.\Generated_Source\PSoC5/CyFlash.c ****     {
 232:.\Generated_Source\PSoC5/CyFlash.c ****         status = CYRET_BAD_PARAM;
 319              		.loc 1 232 0
 320 0016 4FF00103 		mov	r3, #1
 321 001a FB60     		str	r3, [r7, #12]
 322 001c 13E0     		b	.L19
 323              	.L18:
 233:.\Generated_Source\PSoC5/CyFlash.c ****     }
 234:.\Generated_Source\PSoC5/CyFlash.c ****     /* See if we can get the SPC. */
 235:.\Generated_Source\PSoC5/CyFlash.c ****     else if(CySpcLock() != CYRET_SUCCESS)
 324              		.loc 1 235 0
 325 001e FFF7FEFF 		bl	CySpcLock
 326 0022 0346     		mov	r3, r0
 327 0024 002B     		cmp	r3, #0
 328 0026 03D0     		beq	.L20
 236:.\Generated_Source\PSoC5/CyFlash.c ****     {
 237:.\Generated_Source\PSoC5/CyFlash.c ****         status = CYRET_LOCKED;
 329              		.loc 1 237 0
ARM GAS  C:\Users\awkward\AppData\Local\Temp\ccb5UfPh.s 			page 11


 330 0028 4FF00403 		mov	r3, #4
 331 002c FB60     		str	r3, [r7, #12]
 332 002e 0AE0     		b	.L19
 333              	.L20:
 238:.\Generated_Source\PSoC5/CyFlash.c ****     }
 239:.\Generated_Source\PSoC5/CyFlash.c ****     else
 240:.\Generated_Source\PSoC5/CyFlash.c ****     {
 241:.\Generated_Source\PSoC5/CyFlash.c ****         #if (CYDEV_ECC_ENABLE == 0)
 242:.\Generated_Source\PSoC5/CyFlash.c ****             rowBuffer = buffer;
 334              		.loc 1 242 0
 335 0030 40F20003 		movw	r3, #:lower16:rowBuffer
 336 0034 C0F20003 		movt	r3, #:upper16:rowBuffer
 337 0038 7A68     		ldr	r2, [r7, #4]
 338 003a 1A60     		str	r2, [r3, #0]
 243:.\Generated_Source\PSoC5/CyFlash.c ****         #endif
 244:.\Generated_Source\PSoC5/CyFlash.c ****         status = CYRET_SUCCESS;
 339              		.loc 1 244 0
 340 003c 4FF00003 		mov	r3, #0
 341 0040 FB60     		str	r3, [r7, #12]
 245:.\Generated_Source\PSoC5/CyFlash.c **** 
 246:.\Generated_Source\PSoC5/CyFlash.c ****         /* Unlock the SPC so someone else can use it. */
 247:.\Generated_Source\PSoC5/CyFlash.c ****         CySpcUnlock();
 342              		.loc 1 247 0
 343 0042 FFF7FEFF 		bl	CySpcUnlock
 344              	.L19:
 248:.\Generated_Source\PSoC5/CyFlash.c ****     }
 249:.\Generated_Source\PSoC5/CyFlash.c **** 
 250:.\Generated_Source\PSoC5/CyFlash.c ****     return status;
 345              		.loc 1 250 0
 346 0046 FB68     		ldr	r3, [r7, #12]
 251:.\Generated_Source\PSoC5/CyFlash.c **** }
 347              		.loc 1 251 0
 348 0048 1846     		mov	r0, r3
 349 004a 07F11007 		add	r7, r7, #16
 350 004e BD46     		mov	sp, r7
 351 0050 80BD     		pop	{r7, pc}
 352              		.cfi_endproc
 353              	.LFE4:
 354              		.size	CySetFlashEEBuffer, .-CySetFlashEEBuffer
 355 0052 00BF     		.section	.text.CyWriteRowData,"ax",%progbits
 356              		.align	2
 357              		.global	CyWriteRowData
 358              		.thumb
 359              		.thumb_func
 360              		.type	CyWriteRowData, %function
 361              	CyWriteRowData:
 362              	.LFB5:
 252:.\Generated_Source\PSoC5/CyFlash.c **** 
 253:.\Generated_Source\PSoC5/CyFlash.c ****                       
 254:.\Generated_Source\PSoC5/CyFlash.c **** #if (CYDEV_ECC_ENABLE == 1)
 255:.\Generated_Source\PSoC5/CyFlash.c **** 
 256:.\Generated_Source\PSoC5/CyFlash.c **** /*******************************************************************************
 257:.\Generated_Source\PSoC5/CyFlash.c **** * Function Name: CyWriteRowData
 258:.\Generated_Source\PSoC5/CyFlash.c **** ********************************************************************************
 259:.\Generated_Source\PSoC5/CyFlash.c **** *
 260:.\Generated_Source\PSoC5/CyFlash.c **** * Summary:
 261:.\Generated_Source\PSoC5/CyFlash.c **** *   Sends a command to the SPC to load and program a row of data in flash.
ARM GAS  C:\Users\awkward\AppData\Local\Temp\ccb5UfPh.s 			page 12


 262:.\Generated_Source\PSoC5/CyFlash.c **** *
 263:.\Generated_Source\PSoC5/CyFlash.c **** *
 264:.\Generated_Source\PSoC5/CyFlash.c **** * Parameters:
 265:.\Generated_Source\PSoC5/CyFlash.c **** *  arrayID: 
 266:.\Generated_Source\PSoC5/CyFlash.c **** *   ID of the array to write.
 267:.\Generated_Source\PSoC5/CyFlash.c **** *  rowAddress:
 268:.\Generated_Source\PSoC5/CyFlash.c **** *   rowAddress of flash row to program.
 269:.\Generated_Source\PSoC5/CyFlash.c **** *  rowData:
 270:.\Generated_Source\PSoC5/CyFlash.c **** *   Array of bytes to write.
 271:.\Generated_Source\PSoC5/CyFlash.c **** * 
 272:.\Generated_Source\PSoC5/CyFlash.c **** * Return:
 273:.\Generated_Source\PSoC5/CyFlash.c **** *  status:
 274:.\Generated_Source\PSoC5/CyFlash.c **** *   CYRET_SUCCESS if successful.
 275:.\Generated_Source\PSoC5/CyFlash.c **** *   CYRET_LOCKED if the SPC is already in use.
 276:.\Generated_Source\PSoC5/CyFlash.c **** *   CYRET_CANCELED if command not accepted
 277:.\Generated_Source\PSoC5/CyFlash.c **** *   CYRET_UNKNOWN if there was an SPC error.
 278:.\Generated_Source\PSoC5/CyFlash.c **** *
 279:.\Generated_Source\PSoC5/CyFlash.c **** * Reentrant
 280:.\Generated_Source\PSoC5/CyFlash.c **** *  Yes
 281:.\Generated_Source\PSoC5/CyFlash.c **** *
 282:.\Generated_Source\PSoC5/CyFlash.c **** *******************************************************************************/
 283:.\Generated_Source\PSoC5/CyFlash.c **** cystatus CyWriteRowData(uint8 arrayId, uint16 rowAddress, uint8 * rowData) 
 284:.\Generated_Source\PSoC5/CyFlash.c **** {
 285:.\Generated_Source\PSoC5/CyFlash.c ****     uint16 rowSize;
 286:.\Generated_Source\PSoC5/CyFlash.c ****     cystatus status;
 287:.\Generated_Source\PSoC5/CyFlash.c **** 
 288:.\Generated_Source\PSoC5/CyFlash.c ****     rowSize = (arrayId > LAST_FLASH_ARRAYID) ? SIZEOF_EEPROM_ROW : SIZEOF_FLASH_ROW;
 289:.\Generated_Source\PSoC5/CyFlash.c **** 
 290:.\Generated_Source\PSoC5/CyFlash.c ****     status = CyWriteRowFull(arrayId, rowAddress, rowData, rowSize);
 291:.\Generated_Source\PSoC5/CyFlash.c ****     return status;
 292:.\Generated_Source\PSoC5/CyFlash.c **** }
 293:.\Generated_Source\PSoC5/CyFlash.c **** 
 294:.\Generated_Source\PSoC5/CyFlash.c **** #else /* CYDEV_ECC_ENABLE == 0 */
 295:.\Generated_Source\PSoC5/CyFlash.c **** 
 296:.\Generated_Source\PSoC5/CyFlash.c **** /*******************************************************************************
 297:.\Generated_Source\PSoC5/CyFlash.c **** * Function Name: CyWriteRowData
 298:.\Generated_Source\PSoC5/CyFlash.c **** ********************************************************************************
 299:.\Generated_Source\PSoC5/CyFlash.c **** *
 300:.\Generated_Source\PSoC5/CyFlash.c **** * Summary:
 301:.\Generated_Source\PSoC5/CyFlash.c **** *   Sends a command to the SPC to load and program a row of data in flash.
 302:.\Generated_Source\PSoC5/CyFlash.c **** *
 303:.\Generated_Source\PSoC5/CyFlash.c **** *
 304:.\Generated_Source\PSoC5/CyFlash.c **** * Parameters:
 305:.\Generated_Source\PSoC5/CyFlash.c **** *  arrayID: 
 306:.\Generated_Source\PSoC5/CyFlash.c **** *   ID of the array to write.
 307:.\Generated_Source\PSoC5/CyFlash.c **** *  rowAddress:
 308:.\Generated_Source\PSoC5/CyFlash.c **** *   rowAddress of flash row to program.
 309:.\Generated_Source\PSoC5/CyFlash.c **** *  rowData:
 310:.\Generated_Source\PSoC5/CyFlash.c **** *   Array of bytes to write.
 311:.\Generated_Source\PSoC5/CyFlash.c **** * 
 312:.\Generated_Source\PSoC5/CyFlash.c **** * Return:
 313:.\Generated_Source\PSoC5/CyFlash.c **** *  status:
 314:.\Generated_Source\PSoC5/CyFlash.c **** *   CYRET_SUCCESS if successful.
 315:.\Generated_Source\PSoC5/CyFlash.c **** *   CYRET_LOCKED if the SPC is already in use.
 316:.\Generated_Source\PSoC5/CyFlash.c **** *   CYRET_CANCELED if command not accepted
 317:.\Generated_Source\PSoC5/CyFlash.c **** *   CYRET_UNKNOWN if there was an SPC error.
 318:.\Generated_Source\PSoC5/CyFlash.c **** *
ARM GAS  C:\Users\awkward\AppData\Local\Temp\ccb5UfPh.s 			page 13


 319:.\Generated_Source\PSoC5/CyFlash.c **** * Reentrant
 320:.\Generated_Source\PSoC5/CyFlash.c **** *  Yes
 321:.\Generated_Source\PSoC5/CyFlash.c **** *
 322:.\Generated_Source\PSoC5/CyFlash.c **** *******************************************************************************/
 323:.\Generated_Source\PSoC5/CyFlash.c **** cystatus CyWriteRowData(uint8 arrayId, uint16 rowAddress, uint8 * rowData) 
 324:.\Generated_Source\PSoC5/CyFlash.c **** {
 363              		.loc 1 324 0
 364              		.cfi_startproc
 365              		@ args = 0, pretend = 0, frame = 24
 366              		@ frame_needed = 1, uses_anonymous_args = 0
 367 0000 80B5     		push	{r7, lr}
 368              	.LCFI13:
 369              		.cfi_def_cfa_offset 8
 370 0002 86B0     		sub	sp, sp, #24
 371              	.LCFI14:
 372              		.cfi_def_cfa_offset 32
 373 0004 00AF     		add	r7, sp, #0
 374              		.cfi_offset 14, -4
 375              		.cfi_offset 7, -8
 376              	.LCFI15:
 377              		.cfi_def_cfa_register 7
 378 0006 0B46     		mov	r3, r1
 379 0008 3A60     		str	r2, [r7, #0]
 380 000a 0246     		mov	r2, r0
 381 000c FA71     		strb	r2, [r7, #7]
 382 000e BB80     		strh	r3, [r7, #4]	@ movhi
 325:.\Generated_Source\PSoC5/CyFlash.c ****     uint8 index;
 326:.\Generated_Source\PSoC5/CyFlash.c ****     uint32 offset;
 327:.\Generated_Source\PSoC5/CyFlash.c ****     uint16 rowSize;
 328:.\Generated_Source\PSoC5/CyFlash.c ****     cystatus status;
 329:.\Generated_Source\PSoC5/CyFlash.c **** 
 330:.\Generated_Source\PSoC5/CyFlash.c ****     rowSize = (arrayId > LAST_FLASH_ARRAYID) ? SIZEOF_EEPROM_ROW : (SIZEOF_FLASH_ROW + SIZEOF_ECC_R
 383              		.loc 1 330 0
 384 0010 FB79     		ldrb	r3, [r7, #7]	@ zero_extendqisi2
 385 0012 3F2B     		cmp	r3, #63
 386 0014 02D9     		bls	.L23
 387 0016 4FF01003 		mov	r3, #16
 388 001a 01E0     		b	.L24
 389              	.L23:
 390 001c 4FF49073 		mov	r3, #288
 391              	.L24:
 392 0020 7B82     		strh	r3, [r7, #18]	@ movhi
 331:.\Generated_Source\PSoC5/CyFlash.c **** 
 332:.\Generated_Source\PSoC5/CyFlash.c ****     if (rowSize != SIZEOF_EEPROM_ROW)
 393              		.loc 1 332 0
 394 0022 7B8A     		ldrh	r3, [r7, #18]
 395 0024 102B     		cmp	r3, #16
 396 0026 1FD0     		beq	.L25
 333:.\Generated_Source\PSoC5/CyFlash.c ****     {
 334:.\Generated_Source\PSoC5/CyFlash.c ****         /* Save the ECC area. */
 335:.\Generated_Source\PSoC5/CyFlash.c ****         offset = CYDEV_ECC_BASE + ((uint32) rowAddress * SIZEOF_ECC_ROW);
 397              		.loc 1 335 0
 398 0028 BB88     		ldrh	r3, [r7, #4]
 399 002a 03F11073 		add	r3, r3, #37748736
 400 002e 4FEA4313 		lsl	r3, r3, #5
 401 0032 FB60     		str	r3, [r7, #12]
 336:.\Generated_Source\PSoC5/CyFlash.c ****         for (index = 0; index < SIZEOF_ECC_ROW; index++)
ARM GAS  C:\Users\awkward\AppData\Local\Temp\ccb5UfPh.s 			page 14


 402              		.loc 1 336 0
 403 0034 4FF00003 		mov	r3, #0
 404 0038 FB72     		strb	r3, [r7, #11]
 405 003a 12E0     		b	.L26
 406              	.L27:
 337:.\Generated_Source\PSoC5/CyFlash.c ****         {
 338:.\Generated_Source\PSoC5/CyFlash.c ****             rowBuffer[SIZEOF_FLASH_ROW + index] = CY_GET_XTND_REG8((void CYFAR *)(offset + index));
 407              		.loc 1 338 0
 408 003c 40F20003 		movw	r3, #:lower16:rowBuffer
 409 0040 C0F20003 		movt	r3, #:upper16:rowBuffer
 410 0044 1A68     		ldr	r2, [r3, #0]
 411 0046 FB7A     		ldrb	r3, [r7, #11]	@ zero_extendqisi2
 412 0048 03F58073 		add	r3, r3, #256
 413 004c 1344     		add	r3, r2, r3
 414 004e F97A     		ldrb	r1, [r7, #11]	@ zero_extendqisi2
 415 0050 FA68     		ldr	r2, [r7, #12]
 416 0052 0A44     		add	r2, r1, r2
 417 0054 1278     		ldrb	r2, [r2, #0]
 418 0056 D2B2     		uxtb	r2, r2
 419 0058 1A70     		strb	r2, [r3, #0]
 420              		.loc 1 336 0
 421 005a FB7A     		ldrb	r3, [r7, #11]
 422 005c 03F10103 		add	r3, r3, #1
 423 0060 FB72     		strb	r3, [r7, #11]
 424              	.L26:
 425 0062 FB7A     		ldrb	r3, [r7, #11]	@ zero_extendqisi2
 426 0064 1F2B     		cmp	r3, #31
 427 0066 E9D9     		bls	.L27
 428              	.L25:
 339:.\Generated_Source\PSoC5/CyFlash.c ****         }
 340:.\Generated_Source\PSoC5/CyFlash.c ****     }
 341:.\Generated_Source\PSoC5/CyFlash.c **** 
 342:.\Generated_Source\PSoC5/CyFlash.c ****     /* Copy the rowdata to the temporary buffer. */
 343:.\Generated_Source\PSoC5/CyFlash.c ****     cymemcpy(rowBuffer, rowData, SIZEOF_FLASH_ROW);
 429              		.loc 1 343 0
 430 0068 40F20003 		movw	r3, #:lower16:rowBuffer
 431 006c C0F20003 		movt	r3, #:upper16:rowBuffer
 432 0070 1B68     		ldr	r3, [r3, #0]
 433 0072 1846     		mov	r0, r3
 434 0074 3968     		ldr	r1, [r7, #0]
 435 0076 4FF48072 		mov	r2, #256
 436 007a FFF7FEFF 		bl	memcpy
 344:.\Generated_Source\PSoC5/CyFlash.c **** 
 345:.\Generated_Source\PSoC5/CyFlash.c ****     status = CyWriteRowFull(arrayId, rowAddress, rowBuffer, rowSize);
 437              		.loc 1 345 0
 438 007e 40F20003 		movw	r3, #:lower16:rowBuffer
 439 0082 C0F20003 		movt	r3, #:upper16:rowBuffer
 440 0086 1A68     		ldr	r2, [r3, #0]
 441 0088 F879     		ldrb	r0, [r7, #7]	@ zero_extendqisi2
 442 008a B988     		ldrh	r1, [r7, #4]
 443 008c 7B8A     		ldrh	r3, [r7, #18]
 444 008e FFF7FEFF 		bl	CyWriteRowFull
 445 0092 0346     		mov	r3, r0
 446 0094 7B61     		str	r3, [r7, #20]
 346:.\Generated_Source\PSoC5/CyFlash.c ****     return status;
 447              		.loc 1 346 0
 448 0096 7B69     		ldr	r3, [r7, #20]
ARM GAS  C:\Users\awkward\AppData\Local\Temp\ccb5UfPh.s 			page 15


 347:.\Generated_Source\PSoC5/CyFlash.c **** }
 449              		.loc 1 347 0
 450 0098 1846     		mov	r0, r3
 451 009a 07F11807 		add	r7, r7, #24
 452 009e BD46     		mov	sp, r7
 453 00a0 80BD     		pop	{r7, pc}
 454              		.cfi_endproc
 455              	.LFE5:
 456              		.size	CyWriteRowData, .-CyWriteRowData
 457 00a2 00BF     		.section	.text.CyWriteRowFull,"ax",%progbits
 458              		.align	2
 459              		.global	CyWriteRowFull
 460              		.thumb
 461              		.thumb_func
 462              		.type	CyWriteRowFull, %function
 463              	CyWriteRowFull:
 464              	.LFB6:
 348:.\Generated_Source\PSoC5/CyFlash.c **** 
 349:.\Generated_Source\PSoC5/CyFlash.c **** #endif /* CYDEV_ECC_ENABLE == 0 */
 350:.\Generated_Source\PSoC5/CyFlash.c **** 
 351:.\Generated_Source\PSoC5/CyFlash.c **** #if (CYDEV_ECC_ENABLE == 0 && CYDEV_CONFIGURATION_ECC == 0)
 352:.\Generated_Source\PSoC5/CyFlash.c **** 
 353:.\Generated_Source\PSoC5/CyFlash.c **** /*******************************************************************************
 354:.\Generated_Source\PSoC5/CyFlash.c **** * Function Name: CyWriteRowConfig
 355:.\Generated_Source\PSoC5/CyFlash.c **** ********************************************************************************
 356:.\Generated_Source\PSoC5/CyFlash.c **** *
 357:.\Generated_Source\PSoC5/CyFlash.c **** * Summary:
 358:.\Generated_Source\PSoC5/CyFlash.c **** *  Sends a command to the SPC to load and program a row of config data in flash.
 359:.\Generated_Source\PSoC5/CyFlash.c **** *  This function is only valid for Flash array IDs (not for EEPROM).
 360:.\Generated_Source\PSoC5/CyFlash.c **** *
 361:.\Generated_Source\PSoC5/CyFlash.c **** *
 362:.\Generated_Source\PSoC5/CyFlash.c **** * Parameters:
 363:.\Generated_Source\PSoC5/CyFlash.c **** *  arrayId:
 364:.\Generated_Source\PSoC5/CyFlash.c **** *   ID of the array to write
 365:.\Generated_Source\PSoC5/CyFlash.c **** *  rowAddress:
 366:.\Generated_Source\PSoC5/CyFlash.c **** *   Address of the sector to erase.
 367:.\Generated_Source\PSoC5/CyFlash.c **** *  rowData:  
 368:.\Generated_Source\PSoC5/CyFlash.c **** *   Array of bytes to write.
 369:.\Generated_Source\PSoC5/CyFlash.c **** *   
 370:.\Generated_Source\PSoC5/CyFlash.c **** * Return:
 371:.\Generated_Source\PSoC5/CyFlash.c **** *  status:
 372:.\Generated_Source\PSoC5/CyFlash.c **** *   CYRET_SUCCESS if successful.
 373:.\Generated_Source\PSoC5/CyFlash.c **** *   CYRET_LOCKED if the SPC is already in use.
 374:.\Generated_Source\PSoC5/CyFlash.c **** *   CYRET_CANCELED if command not accepted
 375:.\Generated_Source\PSoC5/CyFlash.c **** *   CYRET_UNKNOWN if there was an SPC error.
 376:.\Generated_Source\PSoC5/CyFlash.c **** *
 377:.\Generated_Source\PSoC5/CyFlash.c **** * Reentrant
 378:.\Generated_Source\PSoC5/CyFlash.c **** *  Yes
 379:.\Generated_Source\PSoC5/CyFlash.c **** *
 380:.\Generated_Source\PSoC5/CyFlash.c **** *******************************************************************************/
 381:.\Generated_Source\PSoC5/CyFlash.c **** cystatus CyWriteRowConfig(uint8 arrayId, uint16 rowAddress, uint8 * rowData) 
 382:.\Generated_Source\PSoC5/CyFlash.c **** {
 383:.\Generated_Source\PSoC5/CyFlash.c ****     uint32 offset;
 384:.\Generated_Source\PSoC5/CyFlash.c ****     uint16 index;
 385:.\Generated_Source\PSoC5/CyFlash.c ****     cystatus status;
 386:.\Generated_Source\PSoC5/CyFlash.c **** 
 387:.\Generated_Source\PSoC5/CyFlash.c ****     /* Read the existing flash data. */
ARM GAS  C:\Users\awkward\AppData\Local\Temp\ccb5UfPh.s 			page 16


 388:.\Generated_Source\PSoC5/CyFlash.c ****     offset = CYDEV_FLS_BASE + ((uint32) rowAddress * SIZEOF_FLASH_ROW);
 389:.\Generated_Source\PSoC5/CyFlash.c ****     for (index = 0; index < SIZEOF_FLASH_ROW; index++)
 390:.\Generated_Source\PSoC5/CyFlash.c ****     {
 391:.\Generated_Source\PSoC5/CyFlash.c ****         rowBuffer[index] = CY_GET_XTND_REG8((void CYFAR *)(offset + index));
 392:.\Generated_Source\PSoC5/CyFlash.c ****     }
 393:.\Generated_Source\PSoC5/CyFlash.c **** 
 394:.\Generated_Source\PSoC5/CyFlash.c ****     /* Copy the rowData to the temporary buffer. */
 395:.\Generated_Source\PSoC5/CyFlash.c ****     cymemcpy(&rowBuffer[SIZEOF_FLASH_ROW], rowData, SIZEOF_ECC_ROW);
 396:.\Generated_Source\PSoC5/CyFlash.c **** 
 397:.\Generated_Source\PSoC5/CyFlash.c ****     status = CyWriteRowFull(arrayId, rowAddress, rowBuffer, SIZEOF_FLASH_ROW + SIZEOF_ECC_ROW);
 398:.\Generated_Source\PSoC5/CyFlash.c ****     return status;
 399:.\Generated_Source\PSoC5/CyFlash.c **** }
 400:.\Generated_Source\PSoC5/CyFlash.c **** 
 401:.\Generated_Source\PSoC5/CyFlash.c **** #endif  /* (CYDEV_ECC_ENABLE == 1 && CYDEV_CONFIGURATION_ECC == 0) */
 402:.\Generated_Source\PSoC5/CyFlash.c **** 
 403:.\Generated_Source\PSoC5/CyFlash.c **** 
 404:.\Generated_Source\PSoC5/CyFlash.c **** /*******************************************************************************
 405:.\Generated_Source\PSoC5/CyFlash.c **** * Function Name: CyWriteRowFull
 406:.\Generated_Source\PSoC5/CyFlash.c **** ********************************************************************************
 407:.\Generated_Source\PSoC5/CyFlash.c **** * Summary:
 408:.\Generated_Source\PSoC5/CyFlash.c **** *   Sends a command to the SPC to load and program a row of data in flash. 
 409:.\Generated_Source\PSoC5/CyFlash.c **** *   rowData array is expected to contain Flash and ECC data if needed.
 410:.\Generated_Source\PSoC5/CyFlash.c **** *
 411:.\Generated_Source\PSoC5/CyFlash.c **** *
 412:.\Generated_Source\PSoC5/CyFlash.c **** * Parameters:
 413:.\Generated_Source\PSoC5/CyFlash.c **** *
 414:.\Generated_Source\PSoC5/CyFlash.c **** *       arrayId: FLASH or EEPROM array id.
 415:.\Generated_Source\PSoC5/CyFlash.c **** *       rowData: pointer to a row of data to write.
 416:.\Generated_Source\PSoC5/CyFlash.c **** *       rowNumber: Zero based number of the row.
 417:.\Generated_Source\PSoC5/CyFlash.c **** *       rowSize: Size of the row.
 418:.\Generated_Source\PSoC5/CyFlash.c **** *   
 419:.\Generated_Source\PSoC5/CyFlash.c **** * Return:
 420:.\Generated_Source\PSoC5/CyFlash.c **** *   CYRET_SUCCESS if successful.
 421:.\Generated_Source\PSoC5/CyFlash.c **** *   CYRET_LOCKED if the SPC is already in use.
 422:.\Generated_Source\PSoC5/CyFlash.c **** *   CYRET_CANCELED if command not accepted
 423:.\Generated_Source\PSoC5/CyFlash.c **** *   CYRET_UNKNOWN if there was an SPC error.
 424:.\Generated_Source\PSoC5/CyFlash.c **** *
 425:.\Generated_Source\PSoC5/CyFlash.c **** *
 426:.\Generated_Source\PSoC5/CyFlash.c **** *******************************************************************************/
 427:.\Generated_Source\PSoC5/CyFlash.c **** cystatus CyWriteRowFull(uint8 arrayId, uint16 rowNumber, uint8* rowData, uint16 rowSize) 
 428:.\Generated_Source\PSoC5/CyFlash.c **** {
 465              		.loc 1 428 0
 466              		.cfi_startproc
 467              		@ args = 0, pretend = 0, frame = 24
 468              		@ frame_needed = 1, uses_anonymous_args = 0
 469 0000 80B5     		push	{r7, lr}
 470              	.LCFI16:
 471              		.cfi_def_cfa_offset 8
 472 0002 86B0     		sub	sp, sp, #24
 473              	.LCFI17:
 474              		.cfi_def_cfa_offset 32
 475 0004 00AF     		add	r7, sp, #0
 476              		.cfi_offset 14, -4
 477              		.cfi_offset 7, -8
 478              	.LCFI18:
 479              		.cfi_def_cfa_register 7
 480 0006 BA60     		str	r2, [r7, #8]
ARM GAS  C:\Users\awkward\AppData\Local\Temp\ccb5UfPh.s 			page 17


 481 0008 0246     		mov	r2, r0
 482 000a FA73     		strb	r2, [r7, #15]
 483 000c 0A46     		mov	r2, r1	@ movhi
 484 000e BA81     		strh	r2, [r7, #12]	@ movhi
 485 0010 FB80     		strh	r3, [r7, #6]	@ movhi
 429:.\Generated_Source\PSoC5/CyFlash.c ****     cystatus status;
 430:.\Generated_Source\PSoC5/CyFlash.c **** 
 431:.\Generated_Source\PSoC5/CyFlash.c ****     /* See if we can get the SPC. */
 432:.\Generated_Source\PSoC5/CyFlash.c ****     if (CySpcLock() == CYRET_SUCCESS)
 486              		.loc 1 432 0
 487 0012 FFF7FEFF 		bl	CySpcLock
 488 0016 0346     		mov	r3, r0
 489 0018 002B     		cmp	r3, #0
 490 001a 76D1     		bne	.L30
 433:.\Generated_Source\PSoC5/CyFlash.c ****     {
 434:.\Generated_Source\PSoC5/CyFlash.c ****         /* Create the command. */
 435:.\Generated_Source\PSoC5/CyFlash.c ****         status = CySpcCreateCmdLoadRow(arrayId);
 491              		.loc 1 435 0
 492 001c FB7B     		ldrb	r3, [r7, #15]	@ zero_extendqisi2
 493 001e 1846     		mov	r0, r3
 494 0020 FFF7FEFF 		bl	CySpcCreateCmdLoadRow
 495 0024 0346     		mov	r3, r0
 496 0026 7B61     		str	r3, [r7, #20]
 436:.\Generated_Source\PSoC5/CyFlash.c ****         if (status == CYRET_SUCCESS)
 497              		.loc 1 436 0
 498 0028 7B69     		ldr	r3, [r7, #20]
 499 002a 002B     		cmp	r3, #0
 500 002c 29D1     		bne	.L31
 437:.\Generated_Source\PSoC5/CyFlash.c ****         {
 438:.\Generated_Source\PSoC5/CyFlash.c ****             /* Write the command. */
 439:.\Generated_Source\PSoC5/CyFlash.c ****             status = CySpcWriteCommand(rowData, rowSize);
 501              		.loc 1 439 0
 502 002e FB88     		ldrh	r3, [r7, #6]
 503 0030 B868     		ldr	r0, [r7, #8]
 504 0032 1946     		mov	r1, r3
 505 0034 FFF7FEFF 		bl	CySpcWriteCommand
 506 0038 0346     		mov	r3, r0
 507 003a 7B61     		str	r3, [r7, #20]
 440:.\Generated_Source\PSoC5/CyFlash.c ****             if (status == CYRET_STARTED)
 508              		.loc 1 440 0
 509 003c 7B69     		ldr	r3, [r7, #20]
 510 003e 072B     		cmp	r3, #7
 511 0040 1FD1     		bne	.L31
 441:.\Generated_Source\PSoC5/CyFlash.c ****             {
 442:.\Generated_Source\PSoC5/CyFlash.c ****                 /* Spin until completion. */
 443:.\Generated_Source\PSoC5/CyFlash.c ****                 while(!(*SPC_STATUS & SPC_SPC_IDLE))
 512              		.loc 1 443 0
 513 0042 03E0     		b	.L32
 514              	.L33:
 444:.\Generated_Source\PSoC5/CyFlash.c **** 				{
 445:.\Generated_Source\PSoC5/CyFlash.c **** 					CyDelayUs(1);
 515              		.loc 1 445 0
 516 0044 4FF00100 		mov	r0, #1
 517 0048 FFF7FEFF 		bl	CyDelayUs
 518              	.L32:
 519              		.loc 1 443 0
 520 004c 44F22273 		movw	r3, #:lower16:1073760034
ARM GAS  C:\Users\awkward\AppData\Local\Temp\ccb5UfPh.s 			page 18


 521 0050 C4F20003 		movt	r3, #:upper16:1073760034
 522 0054 1B78     		ldrb	r3, [r3, #0]
 523 0056 DBB2     		uxtb	r3, r3
 524 0058 03F00203 		and	r3, r3, #2
 525 005c 002B     		cmp	r3, #0
 526 005e F1D0     		beq	.L33
 446:.\Generated_Source\PSoC5/CyFlash.c **** 				}
 447:.\Generated_Source\PSoC5/CyFlash.c **** 
 448:.\Generated_Source\PSoC5/CyFlash.c ****                 status = CySpcReadStatus;
 527              		.loc 1 448 0
 528 0060 44F22273 		movw	r3, #:lower16:1073760034
 529 0064 C4F20003 		movt	r3, #:upper16:1073760034
 530 0068 1B78     		ldrb	r3, [r3, #0]
 531 006a DBB2     		uxtb	r3, r3
 532 006c 4FEA9303 		lsr	r3, r3, #2
 533 0070 DBB2     		uxtb	r3, r3
 534 0072 7B61     		str	r3, [r7, #20]
 449:.\Generated_Source\PSoC5/CyFlash.c ****                 /* See if we were successful. */
 450:.\Generated_Source\PSoC5/CyFlash.c ****                 if(status != SPC_SUCCESS)
 535              		.loc 1 450 0
 536 0074 7B69     		ldr	r3, [r7, #20]
 537 0076 002B     		cmp	r3, #0
 538 0078 03D0     		beq	.L31
 451:.\Generated_Source\PSoC5/CyFlash.c ****                     status |= CYRET_SPC_ERROR_MASK;
 539              		.loc 1 451 0
 540 007a 7B69     		ldr	r3, [r7, #20]
 541 007c 43F08003 		orr	r3, r3, #128
 542 0080 7B61     		str	r3, [r7, #20]
 543              	.L31:
 452:.\Generated_Source\PSoC5/CyFlash.c ****             }
 453:.\Generated_Source\PSoC5/CyFlash.c ****         }
 454:.\Generated_Source\PSoC5/CyFlash.c **** 
 455:.\Generated_Source\PSoC5/CyFlash.c ****         /* Create the command. */
 456:.\Generated_Source\PSoC5/CyFlash.c ****         if (status == SPC_SUCCESS)
 544              		.loc 1 456 0
 545 0082 7B69     		ldr	r3, [r7, #20]
 546 0084 002B     		cmp	r3, #0
 547 0086 3DD1     		bne	.L34
 457:.\Generated_Source\PSoC5/CyFlash.c ****         {
 458:.\Generated_Source\PSoC5/CyFlash.c ****             status = CySpcCreateCmdWriteRow(arrayId, rowNumber, dieTemperature[0], dieTemperature[1
 548              		.loc 1 458 0
 549 0088 40F20003 		movw	r3, #:lower16:dieTemperature
 550 008c C0F20003 		movt	r3, #:upper16:dieTemperature
 551 0090 1A78     		ldrb	r2, [r3, #0]	@ zero_extendqisi2
 552 0092 40F20003 		movw	r3, #:lower16:dieTemperature
 553 0096 C0F20003 		movt	r3, #:upper16:dieTemperature
 554 009a 5B78     		ldrb	r3, [r3, #1]	@ zero_extendqisi2
 555 009c F87B     		ldrb	r0, [r7, #15]	@ zero_extendqisi2
 556 009e B989     		ldrh	r1, [r7, #12]
 557 00a0 FFF7FEFF 		bl	CySpcCreateCmdWriteRow
 558 00a4 0346     		mov	r3, r0
 559 00a6 7B61     		str	r3, [r7, #20]
 459:.\Generated_Source\PSoC5/CyFlash.c ****             if (status == CYRET_SUCCESS)
 560              		.loc 1 459 0
 561 00a8 7B69     		ldr	r3, [r7, #20]
 562 00aa 002B     		cmp	r3, #0
 563 00ac 2AD1     		bne	.L34
ARM GAS  C:\Users\awkward\AppData\Local\Temp\ccb5UfPh.s 			page 19


 460:.\Generated_Source\PSoC5/CyFlash.c ****             {
 461:.\Generated_Source\PSoC5/CyFlash.c ****                 /* Write the command. */
 462:.\Generated_Source\PSoC5/CyFlash.c ****                 status = CySpcWriteCommand(0, 0);
 564              		.loc 1 462 0
 565 00ae 4FF00000 		mov	r0, #0
 566 00b2 4FF00001 		mov	r1, #0
 567 00b6 FFF7FEFF 		bl	CySpcWriteCommand
 568 00ba 0346     		mov	r3, r0
 569 00bc 7B61     		str	r3, [r7, #20]
 463:.\Generated_Source\PSoC5/CyFlash.c ****                 if (status == CYRET_STARTED)
 570              		.loc 1 463 0
 571 00be 7B69     		ldr	r3, [r7, #20]
 572 00c0 072B     		cmp	r3, #7
 573 00c2 1FD1     		bne	.L34
 464:.\Generated_Source\PSoC5/CyFlash.c ****                 {
 465:.\Generated_Source\PSoC5/CyFlash.c ****                     /* Spin until completion. */
 466:.\Generated_Source\PSoC5/CyFlash.c ****                     while(!(*SPC_STATUS & SPC_SPC_IDLE))
 574              		.loc 1 466 0
 575 00c4 03E0     		b	.L35
 576              	.L36:
 467:.\Generated_Source\PSoC5/CyFlash.c **** 					{
 468:.\Generated_Source\PSoC5/CyFlash.c **** 						CyDelayUs(1);
 577              		.loc 1 468 0
 578 00c6 4FF00100 		mov	r0, #1
 579 00ca FFF7FEFF 		bl	CyDelayUs
 580              	.L35:
 581              		.loc 1 466 0
 582 00ce 44F22273 		movw	r3, #:lower16:1073760034
 583 00d2 C4F20003 		movt	r3, #:upper16:1073760034
 584 00d6 1B78     		ldrb	r3, [r3, #0]
 585 00d8 DBB2     		uxtb	r3, r3
 586 00da 03F00203 		and	r3, r3, #2
 587 00de 002B     		cmp	r3, #0
 588 00e0 F1D0     		beq	.L36
 469:.\Generated_Source\PSoC5/CyFlash.c **** 					}
 470:.\Generated_Source\PSoC5/CyFlash.c **** 
 471:.\Generated_Source\PSoC5/CyFlash.c ****                     status = CySpcReadStatus;
 589              		.loc 1 471 0
 590 00e2 44F22273 		movw	r3, #:lower16:1073760034
 591 00e6 C4F20003 		movt	r3, #:upper16:1073760034
 592 00ea 1B78     		ldrb	r3, [r3, #0]
 593 00ec DBB2     		uxtb	r3, r3
 594 00ee 4FEA9303 		lsr	r3, r3, #2
 595 00f2 DBB2     		uxtb	r3, r3
 596 00f4 7B61     		str	r3, [r7, #20]
 472:.\Generated_Source\PSoC5/CyFlash.c ****                     /* See if we were successful. */
 473:.\Generated_Source\PSoC5/CyFlash.c ****                     if(status != SPC_SUCCESS)
 597              		.loc 1 473 0
 598 00f6 7B69     		ldr	r3, [r7, #20]
 599 00f8 002B     		cmp	r3, #0
 600 00fa 03D0     		beq	.L34
 474:.\Generated_Source\PSoC5/CyFlash.c ****                         status |= CYRET_SPC_ERROR_MASK;
 601              		.loc 1 474 0
 602 00fc 7B69     		ldr	r3, [r7, #20]
 603 00fe 43F08003 		orr	r3, r3, #128
 604 0102 7B61     		str	r3, [r7, #20]
 605              	.L34:
ARM GAS  C:\Users\awkward\AppData\Local\Temp\ccb5UfPh.s 			page 20


 475:.\Generated_Source\PSoC5/CyFlash.c ****                 }
 476:.\Generated_Source\PSoC5/CyFlash.c ****             }
 477:.\Generated_Source\PSoC5/CyFlash.c ****         }
 478:.\Generated_Source\PSoC5/CyFlash.c **** 
 479:.\Generated_Source\PSoC5/CyFlash.c ****         /* Unlock the SPC so someone else can use it. */
 480:.\Generated_Source\PSoC5/CyFlash.c ****         CySpcUnlock();
 606              		.loc 1 480 0
 607 0104 FFF7FEFF 		bl	CySpcUnlock
 608 0108 02E0     		b	.L37
 609              	.L30:
 481:.\Generated_Source\PSoC5/CyFlash.c ****     }
 482:.\Generated_Source\PSoC5/CyFlash.c ****     else
 483:.\Generated_Source\PSoC5/CyFlash.c ****     {
 484:.\Generated_Source\PSoC5/CyFlash.c ****         status = CYRET_LOCKED;
 610              		.loc 1 484 0
 611 010a 4FF00403 		mov	r3, #4
 612 010e 7B61     		str	r3, [r7, #20]
 613              	.L37:
 485:.\Generated_Source\PSoC5/CyFlash.c ****     }
 486:.\Generated_Source\PSoC5/CyFlash.c **** 
 487:.\Generated_Source\PSoC5/CyFlash.c ****     return status;
 614              		.loc 1 487 0
 615 0110 7B69     		ldr	r3, [r7, #20]
 488:.\Generated_Source\PSoC5/CyFlash.c **** }
 616              		.loc 1 488 0
 617 0112 1846     		mov	r0, r3
 618 0114 07F11807 		add	r7, r7, #24
 619 0118 BD46     		mov	sp, r7
 620 011a 80BD     		pop	{r7, pc}
 621              		.cfi_endproc
 622              	.LFE6:
 623              		.size	CyWriteRowFull, .-CyWriteRowFull
 624              		.section	.text.CyFlash_SetWaitCycles,"ax",%progbits
 625              		.align	2
 626              		.global	CyFlash_SetWaitCycles
 627              		.thumb
 628              		.thumb_func
 629              		.type	CyFlash_SetWaitCycles, %function
 630              	CyFlash_SetWaitCycles:
 631              	.LFB7:
 489:.\Generated_Source\PSoC5/CyFlash.c **** 
 490:.\Generated_Source\PSoC5/CyFlash.c **** 
 491:.\Generated_Source\PSoC5/CyFlash.c **** /*******************************************************************************
 492:.\Generated_Source\PSoC5/CyFlash.c **** * Function Name: CyFlash_SetWaitCycles
 493:.\Generated_Source\PSoC5/CyFlash.c **** ********************************************************************************
 494:.\Generated_Source\PSoC5/CyFlash.c **** *
 495:.\Generated_Source\PSoC5/CyFlash.c **** * Summary:
 496:.\Generated_Source\PSoC5/CyFlash.c **** *  Sets the correct number of wait cycles for the flash based on the frequency 
 497:.\Generated_Source\PSoC5/CyFlash.c **** *  of operation of the devices. This function should be called before increasing 
 498:.\Generated_Source\PSoC5/CyFlash.c **** *  the clock frequency.  It can optionally be called after lowering the clock 
 499:.\Generated_Source\PSoC5/CyFlash.c **** *  frequency in order to improve CPU performance.
 500:.\Generated_Source\PSoC5/CyFlash.c **** *   
 501:.\Generated_Source\PSoC5/CyFlash.c **** * Parameters:
 502:.\Generated_Source\PSoC5/CyFlash.c **** *  freq:
 503:.\Generated_Source\PSoC5/CyFlash.c **** *   Frequency of operation in Megahertz.
 504:.\Generated_Source\PSoC5/CyFlash.c **** * 
 505:.\Generated_Source\PSoC5/CyFlash.c **** * Return:
ARM GAS  C:\Users\awkward\AppData\Local\Temp\ccb5UfPh.s 			page 21


 506:.\Generated_Source\PSoC5/CyFlash.c **** *  void  
 507:.\Generated_Source\PSoC5/CyFlash.c **** * 
 508:.\Generated_Source\PSoC5/CyFlash.c **** * Reentrant
 509:.\Generated_Source\PSoC5/CyFlash.c **** *  Yes
 510:.\Generated_Source\PSoC5/CyFlash.c **** *
 511:.\Generated_Source\PSoC5/CyFlash.c **** *******************************************************************************/
 512:.\Generated_Source\PSoC5/CyFlash.c **** void CyFlash_SetWaitCycles(uint8 freq) 
 513:.\Generated_Source\PSoC5/CyFlash.c **** {
 632              		.loc 1 513 0
 633              		.cfi_startproc
 634              		@ args = 0, pretend = 0, frame = 8
 635              		@ frame_needed = 1, uses_anonymous_args = 0
 636              		@ link register save eliminated.
 637 0000 80B4     		push	{r7}
 638              	.LCFI19:
 639              		.cfi_def_cfa_offset 4
 640 0002 83B0     		sub	sp, sp, #12
 641              	.LCFI20:
 642              		.cfi_def_cfa_offset 16
 643 0004 00AF     		add	r7, sp, #0
 644              		.cfi_offset 7, -4
 645              	.LCFI21:
 646              		.cfi_def_cfa_register 7
 647 0006 0346     		mov	r3, r0
 648 0008 FB71     		strb	r3, [r7, #7]
 514:.\Generated_Source\PSoC5/CyFlash.c ****     /* Clear the Flash Cycles bit fields */
 515:.\Generated_Source\PSoC5/CyFlash.c ****     *FLASH_CYCLES_PTR &= ~FLASH_CYCLES_MASK;
 649              		.loc 1 515 0
 650 000a 44F60003 		movw	r3, #:lower16:1073760256
 651 000e C4F20003 		movt	r3, #:upper16:1073760256
 652 0012 44F60002 		movw	r2, #:lower16:1073760256
 653 0016 C4F20002 		movt	r2, #:upper16:1073760256
 654 001a 1278     		ldrb	r2, [r2, #0]
 655 001c D2B2     		uxtb	r2, r2
 656 001e 02F03F02 		and	r2, r2, #63
 657 0022 1A70     		strb	r2, [r3, #0]
 516:.\Generated_Source\PSoC5/CyFlash.c ****     
 517:.\Generated_Source\PSoC5/CyFlash.c ****     /* Set Flash Cycles bit fields with frequency value*/
 518:.\Generated_Source\PSoC5/CyFlash.c ****     #if (PSOC3_ES2)
 519:.\Generated_Source\PSoC5/CyFlash.c ****         if (freq <= 24u)            
 520:.\Generated_Source\PSoC5/CyFlash.c ****             *FLASH_CYCLES_PTR |= (LESSER_OR_EQUAL_24MHz << FLASH_CYCLES_MASK_SHIFT);
 521:.\Generated_Source\PSoC5/CyFlash.c ****         else if (freq <= 48u)
 522:.\Generated_Source\PSoC5/CyFlash.c ****             *FLASH_CYCLES_PTR |= (LESSER_OR_EQUAL_48MHz << FLASH_CYCLES_MASK_SHIFT);
 523:.\Generated_Source\PSoC5/CyFlash.c ****         else
 524:.\Generated_Source\PSoC5/CyFlash.c ****             *FLASH_CYCLES_PTR |= (GREATER_48MHz << FLASH_CYCLES_MASK_SHIFT);
 525:.\Generated_Source\PSoC5/CyFlash.c ****     #endif
 526:.\Generated_Source\PSoC5/CyFlash.c ****     
 527:.\Generated_Source\PSoC5/CyFlash.c ****     #if (PSOC3_ES3)
 528:.\Generated_Source\PSoC5/CyFlash.c ****         if (freq <= 22u)            
 529:.\Generated_Source\PSoC5/CyFlash.c ****             *FLASH_CYCLES_PTR |= (LESSER_OR_EQUAL_22MHz << FLASH_CYCLES_MASK_SHIFT);
 530:.\Generated_Source\PSoC5/CyFlash.c ****         else if (freq <= 44u)
 531:.\Generated_Source\PSoC5/CyFlash.c ****             *FLASH_CYCLES_PTR |= (LESSER_OR_EQUAL_44MHz << FLASH_CYCLES_MASK_SHIFT);
 532:.\Generated_Source\PSoC5/CyFlash.c ****         else
 533:.\Generated_Source\PSoC5/CyFlash.c ****             *FLASH_CYCLES_PTR |= (GREATER_44MHz << FLASH_CYCLES_MASK_SHIFT);
 534:.\Generated_Source\PSoC5/CyFlash.c ****     #endif
 535:.\Generated_Source\PSoC5/CyFlash.c ****     
 536:.\Generated_Source\PSoC5/CyFlash.c ****     #if (PSOC5_ES1)
ARM GAS  C:\Users\awkward\AppData\Local\Temp\ccb5UfPh.s 			page 22


 537:.\Generated_Source\PSoC5/CyFlash.c ****         if (freq <= 16u)            
 658              		.loc 1 537 0
 659 0024 FB79     		ldrb	r3, [r7, #7]	@ zero_extendqisi2
 660 0026 102B     		cmp	r3, #16
 661 0028 0ED8     		bhi	.L40
 538:.\Generated_Source\PSoC5/CyFlash.c ****             *FLASH_CYCLES_PTR |= (LESSER_OR_EQUAL_16MHz << FLASH_CYCLES_MASK_SHIFT);
 662              		.loc 1 538 0
 663 002a 44F60003 		movw	r3, #:lower16:1073760256
 664 002e C4F20003 		movt	r3, #:upper16:1073760256
 665 0032 44F60002 		movw	r2, #:lower16:1073760256
 666 0036 C4F20002 		movt	r2, #:upper16:1073760256
 667 003a 1278     		ldrb	r2, [r2, #0]
 668 003c D2B2     		uxtb	r2, r2
 669 003e 42F04002 		orr	r2, r2, #64
 670 0042 D2B2     		uxtb	r2, r2
 671 0044 1A70     		strb	r2, [r3, #0]
 672 0046 32E0     		b	.L44
 673              	.L40:
 539:.\Generated_Source\PSoC5/CyFlash.c ****         else if (freq <= 33u)
 674              		.loc 1 539 0
 675 0048 FB79     		ldrb	r3, [r7, #7]	@ zero_extendqisi2
 676 004a 212B     		cmp	r3, #33
 677 004c 10D8     		bhi	.L42
 540:.\Generated_Source\PSoC5/CyFlash.c ****             *FLASH_CYCLES_PTR |= (LESSER_OR_EQUAL_33MHz << FLASH_CYCLES_MASK_SHIFT);
 678              		.loc 1 540 0
 679 004e 44F60003 		movw	r3, #:lower16:1073760256
 680 0052 C4F20003 		movt	r3, #:upper16:1073760256
 681 0056 44F60002 		movw	r2, #:lower16:1073760256
 682 005a C4F20002 		movt	r2, #:upper16:1073760256
 683 005e 1278     		ldrb	r2, [r2, #0]
 684 0060 D2B2     		uxtb	r2, r2
 685 0062 6FEA4262 		mvn	r2, r2, lsl #25
 686 0066 6FEA5262 		mvn	r2, r2, lsr #25
 687 006a D2B2     		uxtb	r2, r2
 688 006c 1A70     		strb	r2, [r3, #0]
 689 006e 1EE0     		b	.L44
 690              	.L42:
 541:.\Generated_Source\PSoC5/CyFlash.c ****         else if (freq <= 50u)
 691              		.loc 1 541 0
 692 0070 FB79     		ldrb	r3, [r7, #7]	@ zero_extendqisi2
 693 0072 322B     		cmp	r3, #50
 694 0074 10D8     		bhi	.L43
 542:.\Generated_Source\PSoC5/CyFlash.c ****             *FLASH_CYCLES_PTR |= (LESSER_OR_EQUAL_50MHz << FLASH_CYCLES_MASK_SHIFT);
 695              		.loc 1 542 0
 696 0076 44F60003 		movw	r3, #:lower16:1073760256
 697 007a C4F20003 		movt	r3, #:upper16:1073760256
 698 007e 44F60002 		movw	r2, #:lower16:1073760256
 699 0082 C4F20002 		movt	r2, #:upper16:1073760256
 700 0086 1278     		ldrb	r2, [r2, #0]
 701 0088 D2B2     		uxtb	r2, r2
 702 008a 6FEA8262 		mvn	r2, r2, lsl #26
 703 008e 6FEA9262 		mvn	r2, r2, lsr #26
 704 0092 D2B2     		uxtb	r2, r2
 705 0094 1A70     		strb	r2, [r3, #0]
 706 0096 0AE0     		b	.L44
 707              	.L43:
 543:.\Generated_Source\PSoC5/CyFlash.c ****         else
ARM GAS  C:\Users\awkward\AppData\Local\Temp\ccb5UfPh.s 			page 23


 544:.\Generated_Source\PSoC5/CyFlash.c ****             *FLASH_CYCLES_PTR |= (GREATER_51MHz << FLASH_CYCLES_MASK_SHIFT);
 708              		.loc 1 544 0
 709 0098 44F60003 		movw	r3, #:lower16:1073760256
 710 009c C4F20003 		movt	r3, #:upper16:1073760256
 711 00a0 44F60002 		movw	r2, #:lower16:1073760256
 712 00a4 C4F20002 		movt	r2, #:upper16:1073760256
 713 00a8 1278     		ldrb	r2, [r2, #0]
 714 00aa D2B2     		uxtb	r2, r2
 715 00ac 1A70     		strb	r2, [r3, #0]
 716              	.L44:
 545:.\Generated_Source\PSoC5/CyFlash.c ****     #endif
 546:.\Generated_Source\PSoC5/CyFlash.c **** }
 717              		.loc 1 546 0
 718 00ae 07F10C07 		add	r7, r7, #12
 719 00b2 BD46     		mov	sp, r7
 720 00b4 80BC     		pop	{r7}
 721 00b6 7047     		bx	lr
 722              		.cfi_endproc
 723              	.LFE7:
 724              		.size	CyFlash_SetWaitCycles, .-CyFlash_SetWaitCycles
 725              		.section	.text.CyEEPROM_ReadReserve,"ax",%progbits
 726              		.align	2
 727              		.global	CyEEPROM_ReadReserve
 728              		.thumb
 729              		.thumb_func
 730              		.type	CyEEPROM_ReadReserve, %function
 731              	CyEEPROM_ReadReserve:
 732              	.LFB8:
 547:.\Generated_Source\PSoC5/CyFlash.c **** 
 548:.\Generated_Source\PSoC5/CyFlash.c **** 
 549:.\Generated_Source\PSoC5/CyFlash.c **** #if (PSOC3_ES3 || PSOC5_ES2)
 550:.\Generated_Source\PSoC5/CyFlash.c **** 
 551:.\Generated_Source\PSoC5/CyFlash.c **** /*******************************************************************************
 552:.\Generated_Source\PSoC5/CyFlash.c **** * Function Name: CyEEPROM_Start
 553:.\Generated_Source\PSoC5/CyFlash.c **** ********************************************************************************
 554:.\Generated_Source\PSoC5/CyFlash.c **** *
 555:.\Generated_Source\PSoC5/CyFlash.c **** * Summary:
 556:.\Generated_Source\PSoC5/CyFlash.c **** *  Enable the EEPROM.
 557:.\Generated_Source\PSoC5/CyFlash.c **** *   
 558:.\Generated_Source\PSoC5/CyFlash.c **** * Parameters:
 559:.\Generated_Source\PSoC5/CyFlash.c **** *  void
 560:.\Generated_Source\PSoC5/CyFlash.c **** * 
 561:.\Generated_Source\PSoC5/CyFlash.c **** * Return:
 562:.\Generated_Source\PSoC5/CyFlash.c **** *  void  
 563:.\Generated_Source\PSoC5/CyFlash.c **** * 
 564:.\Generated_Source\PSoC5/CyFlash.c **** * Reentrant
 565:.\Generated_Source\PSoC5/CyFlash.c **** *  Yes
 566:.\Generated_Source\PSoC5/CyFlash.c **** *
 567:.\Generated_Source\PSoC5/CyFlash.c **** *******************************************************************************/
 568:.\Generated_Source\PSoC5/CyFlash.c **** void CyEEPROM_Start(void) 
 569:.\Generated_Source\PSoC5/CyFlash.c **** {    
 570:.\Generated_Source\PSoC5/CyFlash.c ****     /* Active Power Mode */
 571:.\Generated_Source\PSoC5/CyFlash.c ****     *PM_ACT_EE_PTR |= PM_EE_MASK;
 572:.\Generated_Source\PSoC5/CyFlash.c ****     /* Standby Power Mode */
 573:.\Generated_Source\PSoC5/CyFlash.c ****     *PM_STBY_EE_PTR |= PM_EE_MASK;    
 574:.\Generated_Source\PSoC5/CyFlash.c **** }
 575:.\Generated_Source\PSoC5/CyFlash.c **** 
ARM GAS  C:\Users\awkward\AppData\Local\Temp\ccb5UfPh.s 			page 24


 576:.\Generated_Source\PSoC5/CyFlash.c **** 
 577:.\Generated_Source\PSoC5/CyFlash.c **** /*******************************************************************************
 578:.\Generated_Source\PSoC5/CyFlash.c **** * Function Name: CyEEPROM_Stop
 579:.\Generated_Source\PSoC5/CyFlash.c **** ********************************************************************************
 580:.\Generated_Source\PSoC5/CyFlash.c **** *
 581:.\Generated_Source\PSoC5/CyFlash.c **** * Summary:
 582:.\Generated_Source\PSoC5/CyFlash.c **** *  Disable the EEPROM.
 583:.\Generated_Source\PSoC5/CyFlash.c **** *   
 584:.\Generated_Source\PSoC5/CyFlash.c **** * Parameters:
 585:.\Generated_Source\PSoC5/CyFlash.c **** *  void
 586:.\Generated_Source\PSoC5/CyFlash.c **** * 
 587:.\Generated_Source\PSoC5/CyFlash.c **** * Return:
 588:.\Generated_Source\PSoC5/CyFlash.c **** *  void  
 589:.\Generated_Source\PSoC5/CyFlash.c **** * 
 590:.\Generated_Source\PSoC5/CyFlash.c **** * Reentrant
 591:.\Generated_Source\PSoC5/CyFlash.c **** *  Yes
 592:.\Generated_Source\PSoC5/CyFlash.c **** *
 593:.\Generated_Source\PSoC5/CyFlash.c **** *******************************************************************************/
 594:.\Generated_Source\PSoC5/CyFlash.c **** void CyEEPROM_Stop (void) 
 595:.\Generated_Source\PSoC5/CyFlash.c **** {
 596:.\Generated_Source\PSoC5/CyFlash.c ****     /* Active Power Mode */
 597:.\Generated_Source\PSoC5/CyFlash.c ****     *PM_ACT_EE_PTR &= ~PM_EE_MASK;
 598:.\Generated_Source\PSoC5/CyFlash.c ****     /* Standby Power Mode */
 599:.\Generated_Source\PSoC5/CyFlash.c ****     *PM_STBY_EE_PTR &= ~PM_EE_MASK;
 600:.\Generated_Source\PSoC5/CyFlash.c **** }
 601:.\Generated_Source\PSoC5/CyFlash.c **** 
 602:.\Generated_Source\PSoC5/CyFlash.c **** #endif /* (PSOC3_ES3 || PSOC5_ES2) */
 603:.\Generated_Source\PSoC5/CyFlash.c **** 
 604:.\Generated_Source\PSoC5/CyFlash.c **** 
 605:.\Generated_Source\PSoC5/CyFlash.c **** /*******************************************************************************
 606:.\Generated_Source\PSoC5/CyFlash.c **** * Function Name: CyEEPROM_ReadReserve
 607:.\Generated_Source\PSoC5/CyFlash.c **** ********************************************************************************
 608:.\Generated_Source\PSoC5/CyFlash.c **** *
 609:.\Generated_Source\PSoC5/CyFlash.c **** * Summary:
 610:.\Generated_Source\PSoC5/CyFlash.c **** *  Request access to the EEPROM for reading and wait until access is available.
 611:.\Generated_Source\PSoC5/CyFlash.c **** *   
 612:.\Generated_Source\PSoC5/CyFlash.c **** * Parameters:
 613:.\Generated_Source\PSoC5/CyFlash.c **** *  void
 614:.\Generated_Source\PSoC5/CyFlash.c **** * 
 615:.\Generated_Source\PSoC5/CyFlash.c **** * Return:
 616:.\Generated_Source\PSoC5/CyFlash.c **** *  void  
 617:.\Generated_Source\PSoC5/CyFlash.c **** *   
 618:.\Generated_Source\PSoC5/CyFlash.c **** * Reentrant
 619:.\Generated_Source\PSoC5/CyFlash.c **** *  Yes
 620:.\Generated_Source\PSoC5/CyFlash.c **** *
 621:.\Generated_Source\PSoC5/CyFlash.c **** *******************************************************************************/
 622:.\Generated_Source\PSoC5/CyFlash.c **** void CyEEPROM_ReadReserve(void) 
 623:.\Generated_Source\PSoC5/CyFlash.c **** {
 733              		.loc 1 623 0
 734              		.cfi_startproc
 735              		@ args = 0, pretend = 0, frame = 0
 736              		@ frame_needed = 1, uses_anonymous_args = 0
 737              		@ link register save eliminated.
 738 0000 80B4     		push	{r7}
 739              	.LCFI22:
 740              		.cfi_def_cfa_offset 4
 741 0002 00AF     		add	r7, sp, #0
ARM GAS  C:\Users\awkward\AppData\Local\Temp\ccb5UfPh.s 			page 25


 742              		.cfi_offset 7, -4
 743              	.LCFI23:
 744              		.cfi_def_cfa_register 7
 624:.\Generated_Source\PSoC5/CyFlash.c ****     /* Make a request for PHUB to have access */
 625:.\Generated_Source\PSoC5/CyFlash.c ****     *AHUB_EE_REQ_ACK_PTR |= 0x01u;    
 745              		.loc 1 625 0
 746 0004 44F20273 		movw	r3, #:lower16:1073760002
 747 0008 C4F20003 		movt	r3, #:upper16:1073760002
 748 000c 44F20272 		movw	r2, #:lower16:1073760002
 749 0010 C4F20002 		movt	r2, #:upper16:1073760002
 750 0014 1278     		ldrb	r2, [r2, #0]
 751 0016 D2B2     		uxtb	r2, r2
 752 0018 42F00102 		orr	r2, r2, #1
 753 001c D2B2     		uxtb	r2, r2
 754 001e 1A70     		strb	r2, [r3, #0]
 755              	.L46:
 626:.\Generated_Source\PSoC5/CyFlash.c ****     /* Wait for acknowledgement from PHUB */
 627:.\Generated_Source\PSoC5/CyFlash.c ****     while (!(*AHUB_EE_REQ_ACK_PTR & 0x02u));    
 756              		.loc 1 627 0
 757 0020 44F20273 		movw	r3, #:lower16:1073760002
 758 0024 C4F20003 		movt	r3, #:upper16:1073760002
 759 0028 1B78     		ldrb	r3, [r3, #0]
 760 002a DBB2     		uxtb	r3, r3
 761 002c 03F00203 		and	r3, r3, #2
 762 0030 002B     		cmp	r3, #0
 763 0032 F5D0     		beq	.L46
 628:.\Generated_Source\PSoC5/CyFlash.c **** }
 764              		.loc 1 628 0
 765 0034 BD46     		mov	sp, r7
 766 0036 80BC     		pop	{r7}
 767 0038 7047     		bx	lr
 768              		.cfi_endproc
 769              	.LFE8:
 770              		.size	CyEEPROM_ReadReserve, .-CyEEPROM_ReadReserve
 771 003a 00BF     		.section	.text.CyEEPROM_ReadRelease,"ax",%progbits
 772              		.align	2
 773              		.global	CyEEPROM_ReadRelease
 774              		.thumb
 775              		.thumb_func
 776              		.type	CyEEPROM_ReadRelease, %function
 777              	CyEEPROM_ReadRelease:
 778              	.LFB9:
 629:.\Generated_Source\PSoC5/CyFlash.c **** 
 630:.\Generated_Source\PSoC5/CyFlash.c **** 
 631:.\Generated_Source\PSoC5/CyFlash.c **** /*******************************************************************************
 632:.\Generated_Source\PSoC5/CyFlash.c **** * Function Name: CyEEPROM_ReadRelease
 633:.\Generated_Source\PSoC5/CyFlash.c **** ********************************************************************************
 634:.\Generated_Source\PSoC5/CyFlash.c **** *
 635:.\Generated_Source\PSoC5/CyFlash.c **** * Summary:
 636:.\Generated_Source\PSoC5/CyFlash.c **** *  Release the read reservation of the EEPROM.
 637:.\Generated_Source\PSoC5/CyFlash.c **** *   
 638:.\Generated_Source\PSoC5/CyFlash.c **** * Parameters:
 639:.\Generated_Source\PSoC5/CyFlash.c **** *  void
 640:.\Generated_Source\PSoC5/CyFlash.c **** * 
 641:.\Generated_Source\PSoC5/CyFlash.c **** * Return:
 642:.\Generated_Source\PSoC5/CyFlash.c **** *  void  
 643:.\Generated_Source\PSoC5/CyFlash.c **** * 
ARM GAS  C:\Users\awkward\AppData\Local\Temp\ccb5UfPh.s 			page 26


 644:.\Generated_Source\PSoC5/CyFlash.c **** * Reentrant
 645:.\Generated_Source\PSoC5/CyFlash.c **** *  Yes
 646:.\Generated_Source\PSoC5/CyFlash.c **** *
 647:.\Generated_Source\PSoC5/CyFlash.c **** *******************************************************************************/
 648:.\Generated_Source\PSoC5/CyFlash.c **** void CyEEPROM_ReadRelease(void) 
 649:.\Generated_Source\PSoC5/CyFlash.c **** {
 779              		.loc 1 649 0
 780              		.cfi_startproc
 781              		@ args = 0, pretend = 0, frame = 0
 782              		@ frame_needed = 1, uses_anonymous_args = 0
 783              		@ link register save eliminated.
 784 0000 80B4     		push	{r7}
 785              	.LCFI24:
 786              		.cfi_def_cfa_offset 4
 787 0002 00AF     		add	r7, sp, #0
 788              		.cfi_offset 7, -4
 789              	.LCFI25:
 790              		.cfi_def_cfa_register 7
 650:.\Generated_Source\PSoC5/CyFlash.c ****     *AHUB_EE_REQ_ACK_PTR |= 0x00u;   
 791              		.loc 1 650 0
 792 0004 44F20273 		movw	r3, #:lower16:1073760002
 793 0008 C4F20003 		movt	r3, #:upper16:1073760002
 794 000c 44F20272 		movw	r2, #:lower16:1073760002
 795 0010 C4F20002 		movt	r2, #:upper16:1073760002
 796 0014 1278     		ldrb	r2, [r2, #0]
 797 0016 D2B2     		uxtb	r2, r2
 798 0018 1A70     		strb	r2, [r3, #0]
 651:.\Generated_Source\PSoC5/CyFlash.c **** }
 799              		.loc 1 651 0
 800 001a BD46     		mov	sp, r7
 801 001c 80BC     		pop	{r7}
 802 001e 7047     		bx	lr
 803              		.cfi_endproc
 804              	.LFE9:
 805              		.size	CyEEPROM_ReadRelease, .-CyEEPROM_ReadRelease
 806              		.text
 807              	.Letext0: