ARM GAS  C:\Users\awkward\AppData\Local\Temp\ccGxpKjT.s 			page 1


   1              		.syntax unified
   2              		.cpu cortex-m3
   3              		.fpu softvfp
   4              		.eabi_attribute 20, 1
   5              		.eabi_attribute 21, 1
   6              		.eabi_attribute 23, 3
   7              		.eabi_attribute 24, 1
   8              		.eabi_attribute 25, 1
   9              		.eabi_attribute 26, 1
  10              		.eabi_attribute 30, 6
  11              		.eabi_attribute 18, 4
  12              		.thumb
  13              		.file	"main.c"
  20 0000 5B010000 		.text
  20      02005300 
  20      00000201 
  20      FB0E0D00 
  20      01010101 
  21              	.Ltext0:
  22              		.cfi_sections	.debug_frame
  23              		.section	.rodata
  24              		.align	2
  25              	.LC0:
  26 0000 525800   		.ascii	"RX\000"
  27 0003 00       		.align	2
  28              	.LC1:
  29 0004 5300     		.ascii	"S\000"
  30 0006 0000     		.align	2
  31              	.LC2:
  32 0008 4100     		.ascii	"A\000"
  33 000a 0000     		.section	.text.main,"ax",%progbits
  34              		.align	2
  35              		.global	main
  36              		.thumb
  37              		.thumb_func
  38              		.type	main, %function
  39              	main:
  40              	.LFB29:
  41              		.file 1 ".\\main.c"
   1:.\main.c      **** /* ========================================
   2:.\main.c      ****  *
   3:.\main.c      ****  * Copyright YOUR COMPANY, THE YEAR
   4:.\main.c      ****  * All Rights Reserved
   5:.\main.c      ****  * UNPUBLISHED, LICENSED SOFTWARE.
   6:.\main.c      ****  *
   7:.\main.c      ****  * CONFIDENTIAL AND PROPRIETARY INFORMATION
   8:.\main.c      ****  * WHICH IS THE PROPERTY OF your company.
   9:.\main.c      ****  *
  10:.\main.c      ****  * ========================================
  11:.\main.c      **** */
  12:.\main.c      **** #include <device.h>
ARM GAS  C:\Users\awkward\AppData\Local\Temp\ccGxpKjT.s 			page 2


  13:.\main.c      **** #include <lpregs.h>
  14:.\main.c      **** 
  15:.\main.c      **** void radioWrite(uint16,uint16);
  16:.\main.c      **** uint16 radioRead(uint16);
  17:.\main.c      **** void radioInit();
  18:.\main.c      **** void radioStartReceive();
  19:.\main.c      **** uint8 radioGetState();
  20:.\main.c      **** uint8 radioEndReceive(uint8);
  21:.\main.c      **** uint16 radioReadBuf(uint16);
  22:.\main.c      **** 
  23:.\main.c      **** void main()
  24:.\main.c      **** {
  42              		.loc 1 24 0
  43              		.cfi_startproc
  44              		@ args = 0, pretend = 0, frame = 8
  45              		@ frame_needed = 1, uses_anonymous_args = 0
  46 0000 80B5     		push	{r7, lr}
  47              	.LCFI0:
  48              		.cfi_def_cfa_offset 8
  49 0002 82B0     		sub	sp, sp, #8
  50              	.LCFI1:
  51              		.cfi_def_cfa_offset 16
  52 0004 00AF     		add	r7, sp, #0
  53              		.cfi_offset 14, -4
  54              		.cfi_offset 7, -8
  55              	.LCFI2:
  56              		.cfi_def_cfa_register 7
  25:.\main.c      ****     CYGlobalIntEnable;  /* Uncomment this line to enable global interrupts. */
  57              		.loc 1 25 0
  58              	@ 25 ".\main.c" 1
  59 0006 62B6     		CPSIE   i
  60              	@ 0 "" 2
  26:.\main.c      **** 	uint16 rxState=0x00;	
  61              		.loc 1 26 0
  62              		.thumb
  63 0008 4FF00003 		mov	r3, #0
  64 000c 7B80     		strh	r3, [r7, #2]	@ movhi
  27:.\main.c      **** 	uint16 val=0x00;
  65              		.loc 1 27 0
  66 000e 4FF00003 		mov	r3, #0
  67 0012 BB80     		strh	r3, [r7, #4]	@ movhi
  28:.\main.c      **** 	uint16 i=0x00;
  68              		.loc 1 28 0
  69 0014 4FF00003 		mov	r3, #0
  70 0018 FB80     		strh	r3, [r7, #6]	@ movhi
  29:.\main.c      **** 	
  30:.\main.c      **** 	 LCD_Start();
  71              		.loc 1 30 0
  72 001a FFF7FEFF 		bl	LCD_Start
  31:.\main.c      **** 	 LCD_ClearDisplay();
  73              		.loc 1 31 0
  74 001e 4FF00100 		mov	r0, #1
  75 0022 FFF7FEFF 		bl	LCD_WriteControl
  32:.\main.c      **** 	 LCD_Position(0,0);
  76              		.loc 1 32 0
  77 0026 4FF00000 		mov	r0, #0
  78 002a 4FF00001 		mov	r1, #0
ARM GAS  C:\Users\awkward\AppData\Local\Temp\ccGxpKjT.s 			page 3


  79 002e FFF7FEFF 		bl	LCD_Position
  33:.\main.c      **** 	 LCD_PrintString("RX");
  80              		.loc 1 33 0
  81 0032 40F20000 		movw	r0, #:lower16:.LC0
  82 0036 C0F20000 		movt	r0, #:upper16:.LC0
  83 003a FFF7FEFF 		bl	LCD_PrintString
  34:.\main.c      **** 	 
  35:.\main.c      **** 	 SPIM_Start();
  84              		.loc 1 35 0
  85 003e FFF7FEFF 		bl	SPIM_Start
  36:.\main.c      **** 	 SPIM_ClearRxBuffer();
  86              		.loc 1 36 0
  87 0042 FFF7FEFF 		bl	SPIM_ClearRxBuffer
  37:.\main.c      **** 	 SPIM_ClearTxBuffer();
  88              		.loc 1 37 0
  89 0046 FFF7FEFF 		bl	SPIM_ClearTxBuffer
  38:.\main.c      **** 	 SPIM_ClearFIFO();
  90              		.loc 1 38 0
  91 004a FFF7FEFF 		bl	SPIM_ClearFIFO
  39:.\main.c      **** 	
  40:.\main.c      **** 	radioInit();
  92              		.loc 1 40 0
  93 004e FFF7FEFF 		bl	radioInit
  41:.\main.c      **** 	
  42:.\main.c      **** 	radioWrite(0x01,0x02);
  94              		.loc 1 42 0
  95 0052 4FF00100 		mov	r0, #1
  96 0056 4FF00201 		mov	r1, #2
  97 005a FFF7FEFF 		bl	radioWrite
  43:.\main.c      **** 	val=radioRead(0x01);
  98              		.loc 1 43 0
  99 005e 4FF00100 		mov	r0, #1
 100 0062 FFF7FEFF 		bl	radioRead
 101 0066 0346     		mov	r3, r0
 102 0068 BB80     		strh	r3, [r7, #4]	@ movhi
  44:.\main.c      **** 	if (val==0x02){
 103              		.loc 1 44 0
 104 006a BB88     		ldrh	r3, [r7, #4]
 105 006c 022B     		cmp	r3, #2
 106 006e 0BD1     		bne	.L2
  45:.\main.c      **** 	LCD_Position(1,0);
 107              		.loc 1 45 0
 108 0070 4FF00100 		mov	r0, #1
 109 0074 4FF00001 		mov	r1, #0
 110 0078 FFF7FEFF 		bl	LCD_Position
  46:.\main.c      **** 	LCD_PrintString("S");
 111              		.loc 1 46 0
 112 007c 40F20000 		movw	r0, #:lower16:.LC1
 113 0080 C0F20000 		movt	r0, #:upper16:.LC1
 114 0084 FFF7FEFF 		bl	LCD_PrintString
 115              	.L2:
  47:.\main.c      **** 	}
  48:.\main.c      **** 		
  49:.\main.c      **** 		
  50:.\main.c      **** 	radioStartReceive();
 116              		.loc 1 50 0
 117 0088 FFF7FEFF 		bl	radioStartReceive
ARM GAS  C:\Users\awkward\AppData\Local\Temp\ccGxpKjT.s 			page 4


 118 008c 00E0     		b	.L7
 119              	.L9:
  51:.\main.c      **** 	
  52:.\main.c      **** 	while (1){
  53:.\main.c      **** 	
  54:.\main.c      **** 	rxState=radioGetState();
  55:.\main.c      **** 	   // store the packet onto a local buffer if
  56:.\main.c      **** 	   LCD_Position(1,5);
  57:.\main.c      **** 	   LCD_PrintInt8(rxState);
  58:.\main.c      **** 	   
  59:.\main.c      **** 	   if (rxState==8 || rxState==7){
  60:.\main.c      **** 		radioStartReceive();
  61:.\main.c      **** 		 LCD_Position(1,4);
  62:.\main.c      **** 		LCD_PrintString("A");
  63:.\main.c      **** 		}
  64:.\main.c      ****    //receive operation complete
  65:.\main.c      ****    if (rxState & RXC_IRQ)
  66:.\main.c      ****     {
  67:.\main.c      **** 	
  68:.\main.c      ****    if (radioEndReceive(rxState))
  69:.\main.c      ****     {
  70:.\main.c      **** 	
  71:.\main.c      ****     val=radioReadBuf(RX_BUFFER_ADR);
  72:.\main.c      **** 	//retrieved data displayed on the LCD screen
  73:.\main.c      **** 
  74:.\main.c      ****     LCD_Position(0,3);
  75:.\main.c      **** 	LCD_PrintInt8(val);
  76:.\main.c      ****     //generate a small delay before receiving the next data
  77:.\main.c      **** 	//CyDelay(100);
  78:.\main.c      **** 	
  79:.\main.c      **** 	}
  80:.\main.c      **** 	//restart the receive operation
  81:.\main.c      **** 	radioStartReceive();
  82:.\main.c      **** 	i++;
  83:.\main.c      **** 	 // store the packet onto a local buffer if
  84:.\main.c      **** 	LCD_Position(0,14);
  85:.\main.c      **** 	LCD_PrintInt8(i);
  86:.\main.c      **** 	}
  87:.\main.c      ****     }
 120              		.loc 1 87 0
 121 008e 00BF     		nop
 122              	.L7:
 123              		.loc 1 54 0
 124 0090 FFF7FEFF 		bl	radioGetState
 125 0094 0346     		mov	r3, r0
 126 0096 7B80     		strh	r3, [r7, #2]	@ movhi
 127              		.loc 1 56 0
 128 0098 4FF00100 		mov	r0, #1
 129 009c 4FF00501 		mov	r1, #5
 130 00a0 FFF7FEFF 		bl	LCD_Position
 131              		.loc 1 57 0
 132 00a4 7B88     		ldrh	r3, [r7, #2]	@ movhi
 133 00a6 DBB2     		uxtb	r3, r3
 134 00a8 1846     		mov	r0, r3
 135 00aa FFF7FEFF 		bl	LCD_PrintHexUint8
 136              		.loc 1 59 0
 137 00ae 7B88     		ldrh	r3, [r7, #2]
ARM GAS  C:\Users\awkward\AppData\Local\Temp\ccGxpKjT.s 			page 5


 138 00b0 082B     		cmp	r3, #8
 139 00b2 02D0     		beq	.L3
 140 00b4 7B88     		ldrh	r3, [r7, #2]
 141 00b6 072B     		cmp	r3, #7
 142 00b8 0DD1     		bne	.L4
 143              	.L3:
 144              		.loc 1 60 0
 145 00ba FFF7FEFF 		bl	radioStartReceive
 146              		.loc 1 61 0
 147 00be 4FF00100 		mov	r0, #1
 148 00c2 4FF00401 		mov	r1, #4
 149 00c6 FFF7FEFF 		bl	LCD_Position
 150              		.loc 1 62 0
 151 00ca 40F20000 		movw	r0, #:lower16:.LC2
 152 00ce C0F20000 		movt	r0, #:upper16:.LC2
 153 00d2 FFF7FEFF 		bl	LCD_PrintString
 154              	.L4:
 155              		.loc 1 65 0
 156 00d6 7B88     		ldrh	r3, [r7, #2]
 157 00d8 03F00203 		and	r3, r3, #2
 158 00dc 002B     		cmp	r3, #0
 159 00de D6D0     		beq	.L9
 160              		.loc 1 68 0
 161 00e0 7B88     		ldrh	r3, [r7, #2]	@ movhi
 162 00e2 DBB2     		uxtb	r3, r3
 163 00e4 1846     		mov	r0, r3
 164 00e6 FFF7FEFF 		bl	radioEndReceive
 165 00ea 0346     		mov	r3, r0
 166 00ec 002B     		cmp	r3, #0
 167 00ee 10D0     		beq	.L6
 168              		.loc 1 71 0
 169 00f0 4FF02100 		mov	r0, #33
 170 00f4 FFF7FEFF 		bl	radioReadBuf
 171 00f8 0346     		mov	r3, r0
 172 00fa BB80     		strh	r3, [r7, #4]	@ movhi
 173              		.loc 1 74 0
 174 00fc 4FF00000 		mov	r0, #0
 175 0100 4FF00301 		mov	r1, #3
 176 0104 FFF7FEFF 		bl	LCD_Position
 177              		.loc 1 75 0
 178 0108 BB88     		ldrh	r3, [r7, #4]	@ movhi
 179 010a DBB2     		uxtb	r3, r3
 180 010c 1846     		mov	r0, r3
 181 010e FFF7FEFF 		bl	LCD_PrintHexUint8
 182              	.L6:
 183              		.loc 1 81 0
 184 0112 FFF7FEFF 		bl	radioStartReceive
 185              		.loc 1 82 0
 186 0116 FB88     		ldrh	r3, [r7, #6]	@ movhi
 187 0118 03F10103 		add	r3, r3, #1
 188 011c FB80     		strh	r3, [r7, #6]	@ movhi
 189              		.loc 1 84 0
 190 011e 4FF00000 		mov	r0, #0
 191 0122 4FF00E01 		mov	r1, #14
 192 0126 FFF7FEFF 		bl	LCD_Position
 193              		.loc 1 85 0
 194 012a FB88     		ldrh	r3, [r7, #6]	@ movhi
ARM GAS  C:\Users\awkward\AppData\Local\Temp\ccGxpKjT.s 			page 6


 195 012c DBB2     		uxtb	r3, r3
 196 012e 1846     		mov	r0, r3
 197 0130 FFF7FEFF 		bl	LCD_PrintHexUint8
 198              		.loc 1 87 0
 199 0134 ACE7     		b	.L7
 200              		.cfi_endproc
 201              	.LFE29:
 202              		.size	main, .-main
 203 0136 00BF     		.section	.text.radioWrite,"ax",%progbits
 204              		.align	2
 205              		.global	radioWrite
 206              		.thumb
 207              		.thumb_func
 208              		.type	radioWrite, %function
 209              	radioWrite:
 210              	.LFB30:
  88:.\main.c      **** }
  89:.\main.c      **** 
  90:.\main.c      **** 	 
  91:.\main.c      **** 	
  92:.\main.c      **** 
  93:.\main.c      **** 
  94:.\main.c      **** void radioWrite(uint16 addr,uint16 dat){
 211              		.loc 1 94 0
 212              		.cfi_startproc
 213              		@ args = 0, pretend = 0, frame = 8
 214              		@ frame_needed = 1, uses_anonymous_args = 0
 215 0000 80B5     		push	{r7, lr}
 216              	.LCFI3:
 217              		.cfi_def_cfa_offset 8
 218 0002 82B0     		sub	sp, sp, #8
 219              	.LCFI4:
 220              		.cfi_def_cfa_offset 16
 221 0004 00AF     		add	r7, sp, #0
 222              		.cfi_offset 14, -4
 223              		.cfi_offset 7, -8
 224              	.LCFI5:
 225              		.cfi_def_cfa_register 7
 226 0006 0246     		mov	r2, r0
 227 0008 0B46     		mov	r3, r1
 228 000a FA80     		strh	r2, [r7, #6]	@ movhi
 229 000c BB80     		strh	r3, [r7, #4]	@ movhi
  95:.\main.c      **** 	SPIM_ClearRxBuffer();
 230              		.loc 1 95 0
 231 000e FFF7FEFF 		bl	SPIM_ClearRxBuffer
  96:.\main.c      **** 	SPIM_ClearTxBuffer();
 232              		.loc 1 96 0
 233 0012 FFF7FEFF 		bl	SPIM_ClearTxBuffer
  97:.\main.c      **** 	
  98:.\main.c      **** 	SPIM_WriteTxData(0x80+addr);
 234              		.loc 1 98 0
 235 0016 FB88     		ldrh	r3, [r7, #6]	@ movhi
 236 0018 DBB2     		uxtb	r3, r3
 237 001a A3F18003 		sub	r3, r3, #128
 238 001e DBB2     		uxtb	r3, r3
 239 0020 1846     		mov	r0, r3
 240 0022 FFF7FEFF 		bl	SPIM_WriteTxData
ARM GAS  C:\Users\awkward\AppData\Local\Temp\ccGxpKjT.s 			page 7


  99:.\main.c      **** 	SPIM_WriteTxData(dat);
 241              		.loc 1 99 0
 242 0026 BB88     		ldrh	r3, [r7, #4]	@ movhi
 243 0028 DBB2     		uxtb	r3, r3
 244 002a 1846     		mov	r0, r3
 245 002c FFF7FEFF 		bl	SPIM_WriteTxData
 246              	.L11:
 100:.\main.c      **** 	while(!SPIM_ReadTxStatus() & SPIM_STS_SPI_DONE);
 247              		.loc 1 100 0
 248 0030 FFF7FEFF 		bl	SPIM_ReadTxStatus
 249 0034 0346     		mov	r3, r0
 250 0036 002B     		cmp	r3, #0
 251 0038 FAD0     		beq	.L11
 101:.\main.c      **** }
 252              		.loc 1 101 0
 253 003a 07F10807 		add	r7, r7, #8
 254 003e BD46     		mov	sp, r7
 255 0040 80BD     		pop	{r7, pc}
 256              		.cfi_endproc
 257              	.LFE30:
 258              		.size	radioWrite, .-radioWrite
 259 0042 00BF     		.section	.text.radioReadBuf,"ax",%progbits
 260              		.align	2
 261              		.global	radioReadBuf
 262              		.thumb
 263              		.thumb_func
 264              		.type	radioReadBuf, %function
 265              	radioReadBuf:
 266              	.LFB31:
 102:.\main.c      **** 
 103:.\main.c      **** uint16 radioReadBuf(uint16 addr){
 267              		.loc 1 103 0
 268              		.cfi_startproc
 269              		@ args = 0, pretend = 0, frame = 16
 270              		@ frame_needed = 1, uses_anonymous_args = 0
 271 0000 80B5     		push	{r7, lr}
 272              	.LCFI6:
 273              		.cfi_def_cfa_offset 8
 274 0002 84B0     		sub	sp, sp, #16
 275              	.LCFI7:
 276              		.cfi_def_cfa_offset 24
 277 0004 00AF     		add	r7, sp, #0
 278              		.cfi_offset 14, -4
 279              		.cfi_offset 7, -8
 280              	.LCFI8:
 281              		.cfi_def_cfa_register 7
 282 0006 0346     		mov	r3, r0
 283 0008 FB80     		strh	r3, [r7, #6]	@ movhi
 104:.\main.c      **** 	uint16 val=0x00;
 284              		.loc 1 104 0
 285 000a 4FF00003 		mov	r3, #0
 286 000e BB81     		strh	r3, [r7, #12]	@ movhi
 105:.\main.c      **** 	uint16 i=0;
 287              		.loc 1 105 0
 288 0010 4FF00003 		mov	r3, #0
 289 0014 FB81     		strh	r3, [r7, #14]	@ movhi
 106:.\main.c      **** 	SPIM_ClearRxBuffer();
ARM GAS  C:\Users\awkward\AppData\Local\Temp\ccGxpKjT.s 			page 8


 290              		.loc 1 106 0
 291 0016 FFF7FEFF 		bl	SPIM_ClearRxBuffer
 107:.\main.c      **** 	SPIM_ClearTxBuffer();
 292              		.loc 1 107 0
 293 001a FFF7FEFF 		bl	SPIM_ClearTxBuffer
 108:.\main.c      **** 	
 109:.\main.c      **** 	SPIM_WriteTxData(addr);
 294              		.loc 1 109 0
 295 001e FB88     		ldrh	r3, [r7, #6]	@ movhi
 296 0020 DBB2     		uxtb	r3, r3
 297 0022 1846     		mov	r0, r3
 298 0024 FFF7FEFF 		bl	SPIM_WriteTxData
 110:.\main.c      **** 	SPIM_WriteTxData(0x00);
 299              		.loc 1 110 0
 300 0028 4FF00000 		mov	r0, #0
 301 002c FFF7FEFF 		bl	SPIM_WriteTxData
 111:.\main.c      **** 	SPIM_WriteTxData(0x00);
 302              		.loc 1 111 0
 303 0030 4FF00000 		mov	r0, #0
 304 0034 FFF7FEFF 		bl	SPIM_WriteTxData
 112:.\main.c      **** 	SPIM_WriteTxData(0x00);
 305              		.loc 1 112 0
 306 0038 4FF00000 		mov	r0, #0
 307 003c FFF7FEFF 		bl	SPIM_WriteTxData
 308              	.L14:
 113:.\main.c      **** 
 114:.\main.c      **** 	while(!SPIM_ReadTxStatus() & SPIM_STS_SPI_DONE);
 309              		.loc 1 114 0
 310 0040 FFF7FEFF 		bl	SPIM_ReadTxStatus
 311 0044 0346     		mov	r3, r0
 312 0046 002B     		cmp	r3, #0
 313 0048 FAD0     		beq	.L14
 115:.\main.c      **** 	
 116:.\main.c      **** 	//for (i=0;i<4;i++){
 117:.\main.c      **** 			val=SPIM_ReadRxData();
 314              		.loc 1 117 0
 315 004a FFF7FEFF 		bl	SPIM_ReadRxData
 316 004e 0346     		mov	r3, r0
 317 0050 BB81     		strh	r3, [r7, #12]	@ movhi
 118:.\main.c      **** 			LCD_Position(0,5);
 318              		.loc 1 118 0
 319 0052 4FF00000 		mov	r0, #0
 320 0056 4FF00501 		mov	r1, #5
 321 005a FFF7FEFF 		bl	LCD_Position
 119:.\main.c      **** 			LCD_PrintInt8(val);
 322              		.loc 1 119 0
 323 005e BB89     		ldrh	r3, [r7, #12]	@ movhi
 324 0060 DBB2     		uxtb	r3, r3
 325 0062 1846     		mov	r0, r3
 326 0064 FFF7FEFF 		bl	LCD_PrintHexUint8
 120:.\main.c      **** 			i=SPIM_ReadRxData();
 327              		.loc 1 120 0
 328 0068 FFF7FEFF 		bl	SPIM_ReadRxData
 329 006c 0346     		mov	r3, r0
 330 006e FB81     		strh	r3, [r7, #14]	@ movhi
 121:.\main.c      **** 			LCD_Position(0,7);
 331              		.loc 1 121 0
ARM GAS  C:\Users\awkward\AppData\Local\Temp\ccGxpKjT.s 			page 9


 332 0070 4FF00000 		mov	r0, #0
 333 0074 4FF00701 		mov	r1, #7
 334 0078 FFF7FEFF 		bl	LCD_Position
 122:.\main.c      **** 			LCD_PrintInt8(i);
 335              		.loc 1 122 0
 336 007c FB89     		ldrh	r3, [r7, #14]	@ movhi
 337 007e DBB2     		uxtb	r3, r3
 338 0080 1846     		mov	r0, r3
 339 0082 FFF7FEFF 		bl	LCD_PrintHexUint8
 123:.\main.c      **** 			val=SPIM_ReadRxData();
 340              		.loc 1 123 0
 341 0086 FFF7FEFF 		bl	SPIM_ReadRxData
 342 008a 0346     		mov	r3, r0
 343 008c BB81     		strh	r3, [r7, #12]	@ movhi
 124:.\main.c      **** 			LCD_Position(0,9);
 344              		.loc 1 124 0
 345 008e 4FF00000 		mov	r0, #0
 346 0092 4FF00901 		mov	r1, #9
 347 0096 FFF7FEFF 		bl	LCD_Position
 125:.\main.c      **** 			LCD_PrintInt8(val);
 348              		.loc 1 125 0
 349 009a BB89     		ldrh	r3, [r7, #12]	@ movhi
 350 009c DBB2     		uxtb	r3, r3
 351 009e 1846     		mov	r0, r3
 352 00a0 FFF7FEFF 		bl	LCD_PrintHexUint8
 126:.\main.c      **** 			val=SPIM_ReadRxData();
 353              		.loc 1 126 0
 354 00a4 FFF7FEFF 		bl	SPIM_ReadRxData
 355 00a8 0346     		mov	r3, r0
 356 00aa BB81     		strh	r3, [r7, #12]	@ movhi
 127:.\main.c      **** 			LCD_Position(0,11);
 357              		.loc 1 127 0
 358 00ac 4FF00000 		mov	r0, #0
 359 00b0 4FF00B01 		mov	r1, #11
 360 00b4 FFF7FEFF 		bl	LCD_Position
 128:.\main.c      **** 			LCD_PrintInt8(val);
 361              		.loc 1 128 0
 362 00b8 BB89     		ldrh	r3, [r7, #12]	@ movhi
 363 00ba DBB2     		uxtb	r3, r3
 364 00bc 1846     		mov	r0, r3
 365 00be FFF7FEFF 		bl	LCD_PrintHexUint8
 129:.\main.c      **** 	return i;
 366              		.loc 1 129 0
 367 00c2 FB89     		ldrh	r3, [r7, #14]
 130:.\main.c      **** }
 368              		.loc 1 130 0
 369 00c4 1846     		mov	r0, r3
 370 00c6 07F11007 		add	r7, r7, #16
 371 00ca BD46     		mov	sp, r7
 372 00cc 80BD     		pop	{r7, pc}
 373              		.cfi_endproc
 374              	.LFE31:
 375              		.size	radioReadBuf, .-radioReadBuf
 376 00ce 00BF     		.section	.text.radioRead,"ax",%progbits
 377              		.align	2
 378              		.global	radioRead
 379              		.thumb
ARM GAS  C:\Users\awkward\AppData\Local\Temp\ccGxpKjT.s 			page 10


 380              		.thumb_func
 381              		.type	radioRead, %function
 382              	radioRead:
 383              	.LFB32:
 131:.\main.c      **** 
 132:.\main.c      **** 
 133:.\main.c      **** 
 134:.\main.c      **** 
 135:.\main.c      **** 
 136:.\main.c      **** uint16 radioRead(uint16 addr){
 384              		.loc 1 136 0
 385              		.cfi_startproc
 386              		@ args = 0, pretend = 0, frame = 16
 387              		@ frame_needed = 1, uses_anonymous_args = 0
 388 0000 80B5     		push	{r7, lr}
 389              	.LCFI9:
 390              		.cfi_def_cfa_offset 8
 391 0002 84B0     		sub	sp, sp, #16
 392              	.LCFI10:
 393              		.cfi_def_cfa_offset 24
 394 0004 00AF     		add	r7, sp, #0
 395              		.cfi_offset 14, -4
 396              		.cfi_offset 7, -8
 397              	.LCFI11:
 398              		.cfi_def_cfa_register 7
 399 0006 0346     		mov	r3, r0
 400 0008 FB80     		strh	r3, [r7, #6]	@ movhi
 137:.\main.c      **** 	uint16 val=0x00;
 401              		.loc 1 137 0
 402 000a 4FF00003 		mov	r3, #0
 403 000e BB81     		strh	r3, [r7, #12]	@ movhi
 138:.\main.c      **** 	uint16 i=0;
 404              		.loc 1 138 0
 405 0010 4FF00003 		mov	r3, #0
 406 0014 FB81     		strh	r3, [r7, #14]	@ movhi
 139:.\main.c      **** 	SPIM_ClearRxBuffer();
 407              		.loc 1 139 0
 408 0016 FFF7FEFF 		bl	SPIM_ClearRxBuffer
 140:.\main.c      **** 	SPIM_ClearTxBuffer();
 409              		.loc 1 140 0
 410 001a FFF7FEFF 		bl	SPIM_ClearTxBuffer
 141:.\main.c      **** 	
 142:.\main.c      **** 	SPIM_WriteTxData(addr);
 411              		.loc 1 142 0
 412 001e FB88     		ldrh	r3, [r7, #6]	@ movhi
 413 0020 DBB2     		uxtb	r3, r3
 414 0022 1846     		mov	r0, r3
 415 0024 FFF7FEFF 		bl	SPIM_WriteTxData
 143:.\main.c      **** 	SPIM_WriteTxData(0x00);
 416              		.loc 1 143 0
 417 0028 4FF00000 		mov	r0, #0
 418 002c FFF7FEFF 		bl	SPIM_WriteTxData
 144:.\main.c      **** 	SPIM_WriteTxData(0x00);
 419              		.loc 1 144 0
 420 0030 4FF00000 		mov	r0, #0
 421 0034 FFF7FEFF 		bl	SPIM_WriteTxData
 145:.\main.c      **** 	SPIM_WriteTxData(0x00);
ARM GAS  C:\Users\awkward\AppData\Local\Temp\ccGxpKjT.s 			page 11


 422              		.loc 1 145 0
 423 0038 4FF00000 		mov	r0, #0
 424 003c FFF7FEFF 		bl	SPIM_WriteTxData
 425              	.L17:
 146:.\main.c      **** 
 147:.\main.c      **** 	while(!SPIM_ReadTxStatus() & SPIM_STS_SPI_DONE);
 426              		.loc 1 147 0
 427 0040 FFF7FEFF 		bl	SPIM_ReadTxStatus
 428 0044 0346     		mov	r3, r0
 429 0046 002B     		cmp	r3, #0
 430 0048 FAD0     		beq	.L17
 148:.\main.c      **** 	
 149:.\main.c      **** 	for (i=0;i<2;i++){
 431              		.loc 1 149 0
 432 004a 4FF00003 		mov	r3, #0
 433 004e FB81     		strh	r3, [r7, #14]	@ movhi
 434 0050 12E0     		b	.L18
 435              	.L19:
 150:.\main.c      **** 			val=SPIM_ReadRxData();
 436              		.loc 1 150 0
 437 0052 FFF7FEFF 		bl	SPIM_ReadRxData
 438 0056 0346     		mov	r3, r0
 439 0058 BB81     		strh	r3, [r7, #12]	@ movhi
 151:.\main.c      **** 			LCD_Position(1,14);
 440              		.loc 1 151 0
 441 005a 4FF00100 		mov	r0, #1
 442 005e 4FF00E01 		mov	r1, #14
 443 0062 FFF7FEFF 		bl	LCD_Position
 152:.\main.c      **** 			LCD_PrintInt8(val);
 444              		.loc 1 152 0
 445 0066 BB89     		ldrh	r3, [r7, #12]	@ movhi
 446 0068 DBB2     		uxtb	r3, r3
 447 006a 1846     		mov	r0, r3
 448 006c FFF7FEFF 		bl	LCD_PrintHexUint8
 449              		.loc 1 149 0
 450 0070 FB89     		ldrh	r3, [r7, #14]	@ movhi
 451 0072 03F10103 		add	r3, r3, #1
 452 0076 FB81     		strh	r3, [r7, #14]	@ movhi
 453              	.L18:
 454 0078 FB89     		ldrh	r3, [r7, #14]
 455 007a 012B     		cmp	r3, #1
 456 007c E9D9     		bls	.L19
 153:.\main.c      **** 		//	CyDelay(1000);
 154:.\main.c      **** 		}
 155:.\main.c      **** 	return val;
 457              		.loc 1 155 0
 458 007e BB89     		ldrh	r3, [r7, #12]
 156:.\main.c      **** }
 459              		.loc 1 156 0
 460 0080 1846     		mov	r0, r3
 461 0082 07F11007 		add	r7, r7, #16
 462 0086 BD46     		mov	sp, r7
 463 0088 80BD     		pop	{r7, pc}
 464              		.cfi_endproc
 465              	.LFE32:
 466              		.size	radioRead, .-radioRead
 467 008a 00BF     		.section	.text.radioInit,"ax",%progbits
ARM GAS  C:\Users\awkward\AppData\Local\Temp\ccGxpKjT.s 			page 12


 468              		.align	2
 469              		.global	radioInit
 470              		.thumb
 471              		.thumb_func
 472              		.type	radioInit, %function
 473              	radioInit:
 474              	.LFB33:
 157:.\main.c      **** 
 158:.\main.c      **** void radioInit(){
 475              		.loc 1 158 0
 476              		.cfi_startproc
 477              		@ args = 0, pretend = 0, frame = 0
 478              		@ frame_needed = 1, uses_anonymous_args = 0
 479 0000 80B5     		push	{r7, lr}
 480              	.LCFI12:
 481              		.cfi_def_cfa_offset 8
 482 0002 00AF     		add	r7, sp, #0
 483              		.cfi_offset 14, -4
 484              		.cfi_offset 7, -8
 485              	.LCFI13:
 486              		.cfi_def_cfa_register 7
 159:.\main.c      ****  
 160:.\main.c      **** 	 /* Reset the LP through the SPI (soft reset). */
 161:.\main.c      **** 	radioWrite(MODE_OVERRIDE_ADR, RST);
 487              		.loc 1 161 0
 488 0004 4FF01D00 		mov	r0, #29
 489 0008 4FF00101 		mov	r1, #1
 490 000c FFF7FEFF 		bl	radioWrite
 162:.\main.c      **** 
 163:.\main.c      ****     /* Set up to use auto-cal for VCO. */
 164:.\main.c      ****    radioWrite(AUTO_CAL_TIME_ADR, AUTO_CAL_TIME_MAX); /* Extend autoCal time to max. */
 491              		.loc 1 164 0
 492 0010 4FF03200 		mov	r0, #50
 493 0014 4FF03C01 		mov	r1, #60
 494 0018 FFF7FEFF 		bl	radioWrite
 165:.\main.c      **** 
 166:.\main.c      ****     radioWrite(AUTO_CAL_OFFSET_ADR, AUTO_CAL_OFFSET_MINUS_4); /* AutoCal offset to -4. */
 495              		.loc 1 166 0
 496 001c 4FF03500 		mov	r0, #53
 497 0020 4FF01401 		mov	r1, #20
 498 0024 FFF7FEFF 		bl	radioWrite
 167:.\main.c      **** 
 168:.\main.c      ****     /* Set IRQ polarity to positive. */
 169:.\main.c      ****     radioWrite(IO_CFG_ADR, IRQ_POL);
 499              		.loc 1 169 0
 500 0028 4FF00D00 		mov	r0, #13
 501 002c 4FF04001 		mov	r1, #64
 502 0030 FFF7FEFF 		bl	radioWrite
 170:.\main.c      **** 
 171:.\main.c      ****     /* Set the XTAL Startup delay to 150uSec to handle warm restarts of the XTAL. */
 172:.\main.c      ****    radioWrite(XTAL_CFG_ADR, 0x08);
 503              		.loc 1 172 0
 504 0034 4FF02600 		mov	r0, #38
 505 0038 4FF00801 		mov	r1, #8
 506 003c FFF7FEFF 		bl	radioWrite
 173:.\main.c      ****    radioWrite(XACT_CFG_ADR, 0x90);
 507              		.loc 1 173 0
ARM GAS  C:\Users\awkward\AppData\Local\Temp\ccGxpKjT.s 			page 13


 508 0040 4FF00F00 		mov	r0, #15
 509 0044 4FF09001 		mov	r1, #144
 510 0048 FFF7FEFF 		bl	radioWrite
 174:.\main.c      **** 	
 175:.\main.c      **** 	/*
 176:.\main.c      ****      * Enable HiLo for quick-turn-around. Use low side injection for receive 
 177:.\main.c      ****      * this should result in non-inverted data, so no need to hit the invert
 178:.\main.c      ****      * bit. Turn off AGC and force the LNA on.
 179:.\main.c      ****      */
 180:.\main.c      ****    radioWrite(RX_CFG_ADR,
 511              		.loc 1 180 0
 512 004c 4FF00600 		mov	r0, #6
 513 0050 4FF04801 		mov	r1, #72
 514 0054 FFF7FEFF 		bl	radioWrite
 181:.\main.c      ****                  ((RX_CFG_RST | FASTTURN_EN | LNA_EN ) & ~( HI | RXOW_EN | AUTO_AGC_EN)));
 182:.\main.c      **** 
 183:.\main.c      ****     /*
 184:.\main.c      ****      * Set the TX Offset to +1MHz.
 185:.\main.c      ****      * THIS MEANS THE ACTUAL TRANSMIT CARRIER WILL BE 1MHz ABOVE THE PLL
 186:.\main.c      ****      * FREQUENCY PROGRAMMED IN THE CHANNEL OR A & N REGISTERS.
 187:.\main.c      ****      * RadioSetFrequency COMPENSATES FOR THIS OFFSET.
 188:.\main.c      ****      */
 189:.\main.c      ****     radioWrite(TX_OFFSET_LSB_ADR, 0x55);
 515              		.loc 1 189 0
 516 0058 4FF01B00 		mov	r0, #27
 517 005c 4FF05501 		mov	r1, #85
 518 0060 FFF7FEFF 		bl	radioWrite
 190:.\main.c      ****     radioWrite(TX_OFFSET_MSB_ADR, 0x05);
 519              		.loc 1 190 0
 520 0064 4FF01C00 		mov	r0, #28
 521 0068 4FF00501 		mov	r1, #5
 522 006c FFF7FEFF 		bl	radioWrite
 191:.\main.c      **** 	radioWrite(DATA32_THOLD_ADR,0x05);
 523              		.loc 1 191 0
 524 0070 4FF01100 		mov	r0, #17
 525 0074 4FF00501 		mov	r1, #5
 526 0078 FFF7FEFF 		bl	radioWrite
 192:.\main.c      **** 	radioWrite(FRAMING_CFG_ADR,0xA4);
 527              		.loc 1 192 0
 528 007c 4FF01000 		mov	r0, #16
 529 0080 4FF0A401 		mov	r1, #164
 530 0084 FFF7FEFF 		bl	radioWrite
 193:.\main.c      **** 	
 194:.\main.c      ****     /* Set Data Mode to 250kbps */
 195:.\main.c      ****    radioWrite(TX_CFG_ADR, TX_CFG_RST | DATMODE_8DR);
 531              		.loc 1 195 0
 532 0088 4FF00300 		mov	r0, #3
 533 008c 4FF00D01 		mov	r1, #13
 534 0090 FFF7FEFF 		bl	radioWrite
 196:.\main.c      **** }
 535              		.loc 1 196 0
 536 0094 80BD     		pop	{r7, pc}
 537              		.cfi_endproc
 538              	.LFE33:
 539              		.size	radioInit, .-radioInit
 540 0096 00BF     		.section	.text.radioStartReceive,"ax",%progbits
 541              		.align	2
ARM GAS  C:\Users\awkward\AppData\Local\Temp\ccGxpKjT.s 			page 14


 542              		.global	radioStartReceive
 543              		.thumb
 544              		.thumb_func
 545              		.type	radioStartReceive, %function
 546              	radioStartReceive:
 547              	.LFB34:
 197:.\main.c      **** 
 198:.\main.c      **** void radioStartReceive(){
 548              		.loc 1 198 0
 549              		.cfi_startproc
 550              		@ args = 0, pretend = 0, frame = 8
 551              		@ frame_needed = 1, uses_anonymous_args = 0
 552 0000 80B5     		push	{r7, lr}
 553              	.LCFI14:
 554              		.cfi_def_cfa_offset 8
 555 0002 82B0     		sub	sp, sp, #8
 556              	.LCFI15:
 557              		.cfi_def_cfa_offset 16
 558 0004 00AF     		add	r7, sp, #0
 559              		.cfi_offset 14, -4
 560              		.cfi_offset 7, -8
 561              	.LCFI16:
 562              		.cfi_def_cfa_register 7
 199:.\main.c      **** 	uint16 val=0x00;
 563              		.loc 1 199 0
 564 0006 4FF00003 		mov	r3, #0
 565 000a FB80     		strh	r3, [r7, #6]	@ movhi
 200:.\main.c      ****     radioWrite(RX_CTRL_ADR, (RX_GO | RXC_IRQ | RXE_IRQ));
 566              		.loc 1 200 0
 567 000c 4FF00500 		mov	r0, #5
 568 0010 4FF08301 		mov	r1, #131
 569 0014 FFF7FEFF 		bl	radioWrite
 201:.\main.c      ****     /* Clear RSSI */
 202:.\main.c      ****     radioRead(RSSI_ADR);
 570              		.loc 1 202 0
 571 0018 4FF01300 		mov	r0, #19
 572 001c FFF7FEFF 		bl	radioRead
 203:.\main.c      **** 	val=radioRead(RX_CTRL_ADR);
 573              		.loc 1 203 0
 574 0020 4FF00500 		mov	r0, #5
 575 0024 FFF7FEFF 		bl	radioRead
 576 0028 0346     		mov	r3, r0
 577 002a FB80     		strh	r3, [r7, #6]	@ movhi
 204:.\main.c      **** 	LCD_Position(1,2);
 578              		.loc 1 204 0
 579 002c 4FF00100 		mov	r0, #1
 580 0030 4FF00201 		mov	r1, #2
 581 0034 FFF7FEFF 		bl	LCD_Position
 205:.\main.c      **** 	LCD_PrintInt8(val);
 582              		.loc 1 205 0
 583 0038 FB88     		ldrh	r3, [r7, #6]	@ movhi
 584 003a DBB2     		uxtb	r3, r3
 585 003c 1846     		mov	r0, r3
 586 003e FFF7FEFF 		bl	LCD_PrintHexUint8
 206:.\main.c      **** }
 587              		.loc 1 206 0
 588 0042 07F10807 		add	r7, r7, #8
ARM GAS  C:\Users\awkward\AppData\Local\Temp\ccGxpKjT.s 			page 15


 589 0046 BD46     		mov	sp, r7
 590 0048 80BD     		pop	{r7, pc}
 591              		.cfi_endproc
 592              	.LFE34:
 593              		.size	radioStartReceive, .-radioStartReceive
 594 004a 00BF     		.section	.text.radioGetState,"ax",%progbits
 595              		.align	2
 596              		.global	radioGetState
 597              		.thumb
 598              		.thumb_func
 599              		.type	radioGetState, %function
 600              	radioGetState:
 601              	.LFB35:
 207:.\main.c      **** 
 208:.\main.c      **** uint8 radioGetState()
 209:.\main.c      **** {
 602              		.loc 1 209 0
 603              		.cfi_startproc
 604              		@ args = 0, pretend = 0, frame = 8
 605              		@ frame_needed = 1, uses_anonymous_args = 0
 606 0000 80B5     		push	{r7, lr}
 607              	.LCFI17:
 608              		.cfi_def_cfa_offset 8
 609 0002 82B0     		sub	sp, sp, #8
 610              	.LCFI18:
 611              		.cfi_def_cfa_offset 16
 612 0004 00AF     		add	r7, sp, #0
 613              		.cfi_offset 14, -4
 614              		.cfi_offset 7, -8
 615              	.LCFI19:
 616              		.cfi_def_cfa_register 7
 210:.\main.c      ****     uint8 Status = 0;
 617              		.loc 1 210 0
 618 0006 4FF00003 		mov	r3, #0
 619 000a FB71     		strb	r3, [r7, #7]
 211:.\main.c      ****    
 212:.\main.c      **** 	/* This register needs to be debounced. */
 213:.\main.c      ****      Status  = radioRead(RX_IRQ_STATUS_ADR);
 620              		.loc 1 213 0
 621 000c 4FF00700 		mov	r0, #7
 622 0010 FFF7FEFF 		bl	radioRead
 623 0014 0346     		mov	r3, r0
 624 0016 FB71     		strb	r3, [r7, #7]
 214:.\main.c      ****      Status |= radioRead(RX_IRQ_STATUS_ADR);
 625              		.loc 1 214 0
 626 0018 4FF00700 		mov	r0, #7
 627 001c FFF7FEFF 		bl	radioRead
 628 0020 0346     		mov	r3, r0
 629 0022 DAB2     		uxtb	r2, r3
 630 0024 FB79     		ldrb	r3, [r7, #7]
 631 0026 42EA0303 		orr	r3, r2, r3
 632 002a FB71     		strb	r3, [r7, #7]
 215:.\main.c      ****      if (Status & (RXBERR_IRQ | RXE_IRQ))
 633              		.loc 1 215 0
 634 002c FB79     		ldrb	r3, [r7, #7]	@ zero_extendqisi2
 635 002e 03F00503 		and	r3, r3, #5
 636 0032 002B     		cmp	r3, #0
ARM GAS  C:\Users\awkward\AppData\Local\Temp\ccGxpKjT.s 			page 16


 637 0034 03D0     		beq	.L26
 216:.\main.c      ****         {
 217:.\main.c      ****              /* If overflow, set the completion bit to force the end of packet. */
 218:.\main.c      ****             Status |= (RXC_IRQ | RXE_IRQ);
 638              		.loc 1 218 0
 639 0036 FB79     		ldrb	r3, [r7, #7]
 640 0038 43F00303 		orr	r3, r3, #3
 641 003c FB71     		strb	r3, [r7, #7]
 642              	.L26:
 219:.\main.c      ****         }
 220:.\main.c      ****     
 221:.\main.c      ****     return Status;
 643              		.loc 1 221 0
 644 003e FB79     		ldrb	r3, [r7, #7]	@ zero_extendqisi2
 222:.\main.c      **** }	
 645              		.loc 1 222 0
 646 0040 1846     		mov	r0, r3
 647 0042 07F10807 		add	r7, r7, #8
 648 0046 BD46     		mov	sp, r7
 649 0048 80BD     		pop	{r7, pc}
 650              		.cfi_endproc
 651              	.LFE35:
 652              		.size	radioGetState, .-radioGetState
 653 004a 00BF     		.section	.text.radioEndReceive,"ax",%progbits
 654              		.align	2
 655              		.global	radioEndReceive
 656              		.thumb
 657              		.thumb_func
 658              		.type	radioEndReceive, %function
 659              	radioEndReceive:
 660              	.LFB36:
 223:.\main.c      **** 
 224:.\main.c      **** uint8 radioEndReceive(uint8 RadioState)
 225:.\main.c      **** {
 661              		.loc 1 225 0
 662              		.cfi_startproc
 663              		@ args = 0, pretend = 0, frame = 16
 664              		@ frame_needed = 1, uses_anonymous_args = 0
 665 0000 80B5     		push	{r7, lr}
 666              	.LCFI20:
 667              		.cfi_def_cfa_offset 8
 668 0002 84B0     		sub	sp, sp, #16
 669              	.LCFI21:
 670              		.cfi_def_cfa_offset 24
 671 0004 00AF     		add	r7, sp, #0
 672              		.cfi_offset 14, -4
 673              		.cfi_offset 7, -8
 674              	.LCFI22:
 675              		.cfi_def_cfa_register 7
 676 0006 0346     		mov	r3, r0
 677 0008 FB71     		strb	r3, [r7, #7]
 226:.\main.c      ****     uint8 Count;
 227:.\main.c      **** 	uint8 val=0x00;
 678              		.loc 1 227 0
 679 000a 4FF00003 		mov	r3, #0
 680 000e BB73     		strb	r3, [r7, #14]
 228:.\main.c      ****     Count = radioRead(RX_LENGTH_ADR);
ARM GAS  C:\Users\awkward\AppData\Local\Temp\ccGxpKjT.s 			page 17


 681              		.loc 1 228 0
 682 0010 4FF00A00 		mov	r0, #10
 683 0014 FFF7FEFF 		bl	radioRead
 684 0018 0346     		mov	r3, r0
 685 001a 7B73     		strb	r3, [r7, #13]
 229:.\main.c      **** 	LCD_Position(1,11);
 686              		.loc 1 229 0
 687 001c 4FF00100 		mov	r0, #1
 688 0020 4FF00B01 		mov	r1, #11
 689 0024 FFF7FEFF 		bl	LCD_Position
 230:.\main.c      **** 	LCD_PrintInt8(Count);
 690              		.loc 1 230 0
 691 0028 7B7B     		ldrb	r3, [r7, #13]	@ zero_extendqisi2
 692 002a 1846     		mov	r0, r3
 693 002c FFF7FEFF 		bl	LCD_PrintHexUint8
 231:.\main.c      ****     
 232:.\main.c      **** 	if (RadioState & RXE_IRQ)
 694              		.loc 1 232 0
 695 0030 FB79     		ldrb	r3, [r7, #7]	@ zero_extendqisi2
 696 0032 03F00103 		and	r3, r3, #1
 697 0036 DBB2     		uxtb	r3, r3
 698 0038 002B     		cmp	r3, #0
 699 003a 11D0     		beq	.L29
 700              	.LBB2:
 233:.\main.c      ****     {
 234:.\main.c      ****         uint8 index;
 235:.\main.c      **** 
 236:.\main.c      ****         /* burp the buffer */
 237:.\main.c      ****         for (index = 15; index; --index)
 701              		.loc 1 237 0
 702 003c 4FF00F03 		mov	r3, #15
 703 0040 FB73     		strb	r3, [r7, #15]
 704 0042 07E0     		b	.L30
 705              	.L31:
 238:.\main.c      ****         {
 239:.\main.c      ****             radioRead(RX_BUFFER_ADR);
 706              		.loc 1 239 0
 707 0044 4FF02100 		mov	r0, #33
 708 0048 FFF7FEFF 		bl	radioRead
 709              		.loc 1 237 0
 710 004c FB7B     		ldrb	r3, [r7, #15]
 711 004e 03F1FF33 		add	r3, r3, #-1
 712 0052 FB73     		strb	r3, [r7, #15]
 713              	.L30:
 714 0054 FB7B     		ldrb	r3, [r7, #15]	@ zero_extendqisi2
 715 0056 002B     		cmp	r3, #0
 716 0058 F4D1     		bne	.L31
 240:.\main.c      ****         }
 241:.\main.c      ****         /* Packet was bad. */
 242:.\main.c      ****         Count = 0;
 717              		.loc 1 242 0
 718 005a 4FF00003 		mov	r3, #0
 719 005e 7B73     		strb	r3, [r7, #13]
 720              	.L29:
 721              	.LBE2:
 243:.\main.c      ****     }
 244:.\main.c      ****     /* Abort by writing the FRC_END_STATE bit in the XACT_CFG register. */
ARM GAS  C:\Users\awkward\AppData\Local\Temp\ccGxpKjT.s 			page 18


 245:.\main.c      ****    radioWrite(XACT_CFG_ADR, radioRead(XACT_CFG_ADR) | FRC_END_STATE);
 722              		.loc 1 245 0
 723 0060 4FF00F00 		mov	r0, #15
 724 0064 FFF7FEFF 		bl	radioRead
 725 0068 0346     		mov	r3, r0
 726 006a 43F02003 		orr	r3, r3, #32
 727 006e 9BB2     		uxth	r3, r3
 728 0070 4FF00F00 		mov	r0, #15
 729 0074 1946     		mov	r1, r3
 730 0076 FFF7FEFF 		bl	radioWrite
 731              	.L32:
 246:.\main.c      ****     /*
 247:.\main.c      ****      * Wait for the FRC_END_STATE bit in the XACT_CFG register to clear
 248:.\main.c      ****      * indicating the force has completed.
 249:.\main.c      ****      */
 250:.\main.c      **** 
 251:.\main.c      ****     while(radioRead( XACT_CFG_ADR) &  FRC_END_STATE) {};
 732              		.loc 1 251 0
 733 007a 4FF00F00 		mov	r0, #15
 734 007e FFF7FEFF 		bl	radioRead
 735 0082 0346     		mov	r3, r0
 736 0084 03F02003 		and	r3, r3, #32
 737 0088 002B     		cmp	r3, #0
 738 008a F6D1     		bne	.L32
 252:.\main.c      **** 	
 253:.\main.c      **** 	val=radioRead(RX_STATUS_ADR);
 739              		.loc 1 253 0
 740 008c 4FF00800 		mov	r0, #8
 741 0090 FFF7FEFF 		bl	radioRead
 742 0094 0346     		mov	r3, r0
 743 0096 BB73     		strb	r3, [r7, #14]
 254:.\main.c      **** 	LCD_Position(1,8);
 744              		.loc 1 254 0
 745 0098 4FF00100 		mov	r0, #1
 746 009c 4FF00801 		mov	r1, #8
 747 00a0 FFF7FEFF 		bl	LCD_Position
 255:.\main.c      **** 	LCD_PrintInt8(val);
 748              		.loc 1 255 0
 749 00a4 BB7B     		ldrb	r3, [r7, #14]	@ zero_extendqisi2
 750 00a6 1846     		mov	r0, r3
 751 00a8 FFF7FEFF 		bl	LCD_PrintHexUint8
 256:.\main.c      **** 	
 257:.\main.c      **** 	
 258:.\main.c      **** 	
 259:.\main.c      ****     return Count;
 752              		.loc 1 259 0
 753 00ac 7B7B     		ldrb	r3, [r7, #13]	@ zero_extendqisi2
 260:.\main.c      **** }
 754              		.loc 1 260 0
 755 00ae 1846     		mov	r0, r3
 756 00b0 07F11007 		add	r7, r7, #16
 757 00b4 BD46     		mov	sp, r7
 758 00b6 80BD     		pop	{r7, pc}
 759              		.cfi_endproc
 760              	.LFE36:
 761              		.size	radioEndReceive, .-radioEndReceive
 762              		.text
ARM GAS  C:\Users\awkward\AppData\Local\Temp\ccGxpKjT.s 			page 19


 763              	.Letext0: