ARM GAS  C:\Users\CHARLI~1\AppData\Local\Temp\ccRmkpzd.s 			page 1


   1              		.syntax unified
   2              		.cpu cortex-m3
   3              		.fpu softvfp
   4              		.eabi_attribute 20, 1
   5              		.eabi_attribute 21, 1
   6              		.eabi_attribute 23, 3
   7              		.eabi_attribute 24, 1
   8              		.eabi_attribute 25, 1
   9              		.eabi_attribute 26, 1
  10              		.eabi_attribute 30, 6
  11              		.eabi_attribute 18, 4
  12              		.thumb
  13              		.file	"SPIM_1_PM.c"
  20 0000 AF000000 		.text
  20      02005400 
  20      00000201 
  20      FB0E0D00 
  20      01010101 
  21              	.Ltext0:
  22              		.cfi_sections	.debug_frame
  23              		.data
  24              		.align	2
  25              		.type	SPIM_1_backup, %object
  26              		.size	SPIM_1_backup, 4
  27              	SPIM_1_backup:
  28 0000 00       		.byte	0
  29 0001 0F       		.byte	15
  30 0002 17       		.byte	23
  31 0003 70       		.byte	112
  32              		.section	.text.SPIM_1_SaveConfig,"ax",%progbits
  33              		.align	2
  34              		.global	SPIM_1_SaveConfig
  35              		.thumb
  36              		.thumb_func
  37              		.type	SPIM_1_SaveConfig, %function
  38              	SPIM_1_SaveConfig:
  39              	.LFB0:
  40              		.file 1 "./Generated_Source/PSoC5/SPIM_1_PM.c"
   1:./Generated_Source/PSoC5/SPIM_1_PM.c **** /*******************************************************************************
   2:./Generated_Source/PSoC5/SPIM_1_PM.c **** * File Name: SPIM_1_PM.c
   3:./Generated_Source/PSoC5/SPIM_1_PM.c **** * Version 2.10
   4:./Generated_Source/PSoC5/SPIM_1_PM.c **** *
   5:./Generated_Source/PSoC5/SPIM_1_PM.c **** * Description:
   6:./Generated_Source/PSoC5/SPIM_1_PM.c **** *  This file contains the setup, control and status commands to support 
   7:./Generated_Source/PSoC5/SPIM_1_PM.c **** *  component operations in low power mode.  
   8:./Generated_Source/PSoC5/SPIM_1_PM.c **** *
   9:./Generated_Source/PSoC5/SPIM_1_PM.c **** * Note:
  10:./Generated_Source/PSoC5/SPIM_1_PM.c **** *
  11:./Generated_Source/PSoC5/SPIM_1_PM.c **** ********************************************************************************
  12:./Generated_Source/PSoC5/SPIM_1_PM.c **** * Copyright 2008-2010, Cypress Semiconductor Corporation.  All rights reserved.
  13:./Generated_Source/PSoC5/SPIM_1_PM.c **** * You may use this file only in accordance with the license, terms, conditions,
ARM GAS  C:\Users\CHARLI~1\AppData\Local\Temp\ccRmkpzd.s 			page 2


  14:./Generated_Source/PSoC5/SPIM_1_PM.c **** * disclaimers, and limitations in the end user license agreement accompanying
  15:./Generated_Source/PSoC5/SPIM_1_PM.c **** * the software package with which this file was provided.
  16:./Generated_Source/PSoC5/SPIM_1_PM.c **** *******************************************************************************/
  17:./Generated_Source/PSoC5/SPIM_1_PM.c **** 
  18:./Generated_Source/PSoC5/SPIM_1_PM.c **** #include "SPIM_1.h"
  19:./Generated_Source/PSoC5/SPIM_1_PM.c **** 
  20:./Generated_Source/PSoC5/SPIM_1_PM.c **** static SPIM_1_BACKUP_STRUCT SPIM_1_backup = {
  21:./Generated_Source/PSoC5/SPIM_1_PM.c ****                                         0u,
  22:./Generated_Source/PSoC5/SPIM_1_PM.c ****                                         SPIM_1_BITCTR_INIT,
  23:./Generated_Source/PSoC5/SPIM_1_PM.c ****                                         #if(SPIM_1_PSOC3_ES2 || SPIM_1_PSOC5_ES1)
  24:./Generated_Source/PSoC5/SPIM_1_PM.c ****                                             SPIM_1_TX_INIT_INTERRUPTS_MASK,
  25:./Generated_Source/PSoC5/SPIM_1_PM.c ****                                             SPIM_1_RX_INIT_INTERRUPTS_MASK
  26:./Generated_Source/PSoC5/SPIM_1_PM.c ****                                         #endif /* SPIM_1_PSOC3_ES2 || SPIM_1_PSOC5_ES1 */
  27:./Generated_Source/PSoC5/SPIM_1_PM.c ****                                         };
  28:./Generated_Source/PSoC5/SPIM_1_PM.c **** 
  29:./Generated_Source/PSoC5/SPIM_1_PM.c **** #if (SPIM_1_TXBUFFERSIZE > 4u)
  30:./Generated_Source/PSoC5/SPIM_1_PM.c **** 
  31:./Generated_Source/PSoC5/SPIM_1_PM.c ****     extern volatile uint8 SPIM_1_txBufferRead;
  32:./Generated_Source/PSoC5/SPIM_1_PM.c ****     extern volatile uint8 SPIM_1_txBufferWrite;
  33:./Generated_Source/PSoC5/SPIM_1_PM.c ****     
  34:./Generated_Source/PSoC5/SPIM_1_PM.c **** #endif /* SPIM_1_TXBUFFERSIZE > 4u */
  35:./Generated_Source/PSoC5/SPIM_1_PM.c **** 
  36:./Generated_Source/PSoC5/SPIM_1_PM.c **** #if (SPIM_1_RXBUFFERSIZE > 4u)
  37:./Generated_Source/PSoC5/SPIM_1_PM.c **** 
  38:./Generated_Source/PSoC5/SPIM_1_PM.c ****     extern volatile uint8 SPIM_1_rxBufferRead;
  39:./Generated_Source/PSoC5/SPIM_1_PM.c ****     extern volatile uint8 SPIM_1_rxBufferWrite;
  40:./Generated_Source/PSoC5/SPIM_1_PM.c ****     
  41:./Generated_Source/PSoC5/SPIM_1_PM.c **** #endif /* SPIM_1_RXBUFFERSIZE > 4u */
  42:./Generated_Source/PSoC5/SPIM_1_PM.c **** 
  43:./Generated_Source/PSoC5/SPIM_1_PM.c **** 
  44:./Generated_Source/PSoC5/SPIM_1_PM.c **** /*******************************************************************************
  45:./Generated_Source/PSoC5/SPIM_1_PM.c **** * Function Name: SPIM_1_SaveConfig
  46:./Generated_Source/PSoC5/SPIM_1_PM.c **** ********************************************************************************
  47:./Generated_Source/PSoC5/SPIM_1_PM.c **** *
  48:./Generated_Source/PSoC5/SPIM_1_PM.c **** * Summary:
  49:./Generated_Source/PSoC5/SPIM_1_PM.c **** *  Saves SPIM configuration.
  50:./Generated_Source/PSoC5/SPIM_1_PM.c **** *
  51:./Generated_Source/PSoC5/SPIM_1_PM.c **** * Parameters:
  52:./Generated_Source/PSoC5/SPIM_1_PM.c **** *  None.
  53:./Generated_Source/PSoC5/SPIM_1_PM.c **** *
  54:./Generated_Source/PSoC5/SPIM_1_PM.c **** * Return:
  55:./Generated_Source/PSoC5/SPIM_1_PM.c **** *  None.
  56:./Generated_Source/PSoC5/SPIM_1_PM.c **** * 
  57:./Generated_Source/PSoC5/SPIM_1_PM.c **** * Global Variables:
  58:./Generated_Source/PSoC5/SPIM_1_PM.c **** *  SPIM_1_backup - modified when non-retention registers are saved.
  59:./Generated_Source/PSoC5/SPIM_1_PM.c **** *
  60:./Generated_Source/PSoC5/SPIM_1_PM.c **** * Reentrant:
  61:./Generated_Source/PSoC5/SPIM_1_PM.c **** *  No.
  62:./Generated_Source/PSoC5/SPIM_1_PM.c **** *
  63:./Generated_Source/PSoC5/SPIM_1_PM.c **** *******************************************************************************/
  64:./Generated_Source/PSoC5/SPIM_1_PM.c **** void SPIM_1_SaveConfig(void)
  65:./Generated_Source/PSoC5/SPIM_1_PM.c **** {
  41              		.loc 1 65 0
  42              		.cfi_startproc
  43              		@ args = 0, pretend = 0, frame = 0
  44              		@ frame_needed = 1, uses_anonymous_args = 0
  45              		@ link register save eliminated.
ARM GAS  C:\Users\CHARLI~1\AppData\Local\Temp\ccRmkpzd.s 			page 3


  46 0000 80B4     		push	{r7}
  47              	.LCFI0:
  48              		.cfi_def_cfa_offset 4
  49 0002 00AF     		add	r7, sp, #0
  50              		.cfi_offset 7, -4
  51              	.LCFI1:
  52              		.cfi_def_cfa_register 7
  66:./Generated_Source/PSoC5/SPIM_1_PM.c ****     /* Store Status Mask registers */
  67:./Generated_Source/PSoC5/SPIM_1_PM.c ****     #if (SPIM_1_PSOC3_ES2 || SPIM_1_PSOC5_ES1)     
  68:./Generated_Source/PSoC5/SPIM_1_PM.c ****     
  69:./Generated_Source/PSoC5/SPIM_1_PM.c ****        SPIM_1_backup.saveSrTxIntMask = SPIM_1_TX_STATUS_MASK_REG;
  53              		.loc 1 69 0
  54 0004 46F28843 		movw	r3, #:lower16:1073767560
  55 0008 C4F20003 		movt	r3, #:upper16:1073767560
  56 000c 1B78     		ldrb	r3, [r3, #0]
  57 000e DAB2     		uxtb	r2, r3
  58 0010 40F20003 		movw	r3, #:lower16:SPIM_1_backup
  59 0014 C0F20003 		movt	r3, #:upper16:SPIM_1_backup
  60 0018 9A70     		strb	r2, [r3, #2]
  70:./Generated_Source/PSoC5/SPIM_1_PM.c ****        SPIM_1_backup.saveSrRxIntMask = SPIM_1_RX_STATUS_MASK_REG;
  61              		.loc 1 70 0
  62 001a 46F28953 		movw	r3, #:lower16:1073767817
  63 001e C4F20003 		movt	r3, #:upper16:1073767817
  64 0022 1B78     		ldrb	r3, [r3, #0]
  65 0024 DAB2     		uxtb	r2, r3
  66 0026 40F20003 		movw	r3, #:lower16:SPIM_1_backup
  67 002a C0F20003 		movt	r3, #:upper16:SPIM_1_backup
  68 002e DA70     		strb	r2, [r3, #3]
  71:./Generated_Source/PSoC5/SPIM_1_PM.c ****        SPIM_1_backup.cntrPeriod = SPIM_1_COUNTER_PERIOD_REG;
  69              		.loc 1 71 0
  70 0030 46F28853 		movw	r3, #:lower16:1073767816
  71 0034 C4F20003 		movt	r3, #:upper16:1073767816
  72 0038 1B78     		ldrb	r3, [r3, #0]
  73 003a DAB2     		uxtb	r2, r3
  74 003c 40F20003 		movw	r3, #:lower16:SPIM_1_backup
  75 0040 C0F20003 		movt	r3, #:upper16:SPIM_1_backup
  76 0044 5A70     		strb	r2, [r3, #1]
  72:./Generated_Source/PSoC5/SPIM_1_PM.c ****        
  73:./Generated_Source/PSoC5/SPIM_1_PM.c ****     #endif /* (SPIM_1_PSOC3_ES2 || SPIM_1_PSOC5_ES1) */
  74:./Generated_Source/PSoC5/SPIM_1_PM.c **** }
  77              		.loc 1 74 0
  78 0046 BD46     		mov	sp, r7
  79 0048 80BC     		pop	{r7}
  80 004a 7047     		bx	lr
  81              		.cfi_endproc
  82              	.LFE0:
  83              		.size	SPIM_1_SaveConfig, .-SPIM_1_SaveConfig
  84              		.section	.text.SPIM_1_RestoreConfig,"ax",%progbits
  85              		.align	2
  86              		.global	SPIM_1_RestoreConfig
  87              		.thumb
  88              		.thumb_func
  89              		.type	SPIM_1_RestoreConfig, %function
  90              	SPIM_1_RestoreConfig:
  91              	.LFB1:
  75:./Generated_Source/PSoC5/SPIM_1_PM.c **** 
  76:./Generated_Source/PSoC5/SPIM_1_PM.c **** 
ARM GAS  C:\Users\CHARLI~1\AppData\Local\Temp\ccRmkpzd.s 			page 4


  77:./Generated_Source/PSoC5/SPIM_1_PM.c **** /*******************************************************************************
  78:./Generated_Source/PSoC5/SPIM_1_PM.c **** * Function Name: SPIM_1_RestoreConfig
  79:./Generated_Source/PSoC5/SPIM_1_PM.c **** ********************************************************************************
  80:./Generated_Source/PSoC5/SPIM_1_PM.c **** *
  81:./Generated_Source/PSoC5/SPIM_1_PM.c **** * Summary:
  82:./Generated_Source/PSoC5/SPIM_1_PM.c **** *  Restores SPIM configuration.
  83:./Generated_Source/PSoC5/SPIM_1_PM.c **** *
  84:./Generated_Source/PSoC5/SPIM_1_PM.c **** * Parameters:
  85:./Generated_Source/PSoC5/SPIM_1_PM.c **** *  None.
  86:./Generated_Source/PSoC5/SPIM_1_PM.c **** *
  87:./Generated_Source/PSoC5/SPIM_1_PM.c **** * Return:
  88:./Generated_Source/PSoC5/SPIM_1_PM.c **** *  None.
  89:./Generated_Source/PSoC5/SPIM_1_PM.c **** *
  90:./Generated_Source/PSoC5/SPIM_1_PM.c **** * Global Variables:
  91:./Generated_Source/PSoC5/SPIM_1_PM.c **** *  SPIM_1_backup - used when non-retention registers are restored.
  92:./Generated_Source/PSoC5/SPIM_1_PM.c **** *
  93:./Generated_Source/PSoC5/SPIM_1_PM.c **** * Side Effects:
  94:./Generated_Source/PSoC5/SPIM_1_PM.c **** *  If this API is called without first calling SaveConfig then in the following
  95:./Generated_Source/PSoC5/SPIM_1_PM.c **** *  registers will be default values from Customizer: 
  96:./Generated_Source/PSoC5/SPIM_1_PM.c **** *  SPIM_1_STATUS_MASK_REG and SPIM_1_COUNTER_PERIOD_REG.
  97:./Generated_Source/PSoC5/SPIM_1_PM.c **** *
  98:./Generated_Source/PSoC5/SPIM_1_PM.c **** *******************************************************************************/
  99:./Generated_Source/PSoC5/SPIM_1_PM.c **** void SPIM_1_RestoreConfig(void) 
 100:./Generated_Source/PSoC5/SPIM_1_PM.c **** {
  92              		.loc 1 100 0
  93              		.cfi_startproc
  94              		@ args = 0, pretend = 0, frame = 0
  95              		@ frame_needed = 1, uses_anonymous_args = 0
  96              		@ link register save eliminated.
  97 0000 80B4     		push	{r7}
  98              	.LCFI2:
  99              		.cfi_def_cfa_offset 4
 100 0002 00AF     		add	r7, sp, #0
 101              		.cfi_offset 7, -4
 102              	.LCFI3:
 103              		.cfi_def_cfa_register 7
 101:./Generated_Source/PSoC5/SPIM_1_PM.c ****     /* Restore the data, saved by SaveConfig() function */
 102:./Generated_Source/PSoC5/SPIM_1_PM.c ****     #if (SPIM_1_PSOC3_ES2 || SPIM_1_PSOC5_ES1)
 103:./Generated_Source/PSoC5/SPIM_1_PM.c ****     
 104:./Generated_Source/PSoC5/SPIM_1_PM.c ****         SPIM_1_TX_STATUS_MASK_REG = SPIM_1_backup.saveSrTxIntMask;
 104              		.loc 1 104 0
 105 0004 46F28843 		movw	r3, #:lower16:1073767560
 106 0008 C4F20003 		movt	r3, #:upper16:1073767560
 107 000c 40F20002 		movw	r2, #:lower16:SPIM_1_backup
 108 0010 C0F20002 		movt	r2, #:upper16:SPIM_1_backup
 109 0014 9278     		ldrb	r2, [r2, #2]	@ zero_extendqisi2
 110 0016 1A70     		strb	r2, [r3, #0]
 105:./Generated_Source/PSoC5/SPIM_1_PM.c ****         SPIM_1_RX_STATUS_MASK_REG = SPIM_1_backup.saveSrRxIntMask;
 111              		.loc 1 105 0
 112 0018 46F28953 		movw	r3, #:lower16:1073767817
 113 001c C4F20003 		movt	r3, #:upper16:1073767817
 114 0020 40F20002 		movw	r2, #:lower16:SPIM_1_backup
 115 0024 C0F20002 		movt	r2, #:upper16:SPIM_1_backup
 116 0028 D278     		ldrb	r2, [r2, #3]	@ zero_extendqisi2
 117 002a 1A70     		strb	r2, [r3, #0]
 106:./Generated_Source/PSoC5/SPIM_1_PM.c ****         SPIM_1_COUNTER_PERIOD_REG = SPIM_1_backup.cntrPeriod;
 118              		.loc 1 106 0
ARM GAS  C:\Users\CHARLI~1\AppData\Local\Temp\ccRmkpzd.s 			page 5


 119 002c 46F28853 		movw	r3, #:lower16:1073767816
 120 0030 C4F20003 		movt	r3, #:upper16:1073767816
 121 0034 40F20002 		movw	r2, #:lower16:SPIM_1_backup
 122 0038 C0F20002 		movt	r2, #:upper16:SPIM_1_backup
 123 003c 5278     		ldrb	r2, [r2, #1]	@ zero_extendqisi2
 124 003e 1A70     		strb	r2, [r3, #0]
 107:./Generated_Source/PSoC5/SPIM_1_PM.c ****         
 108:./Generated_Source/PSoC5/SPIM_1_PM.c ****     #endif /* (SPIM_1_PSOC3_ES2 || SPIM_1_PSOC5_ES1) */
 109:./Generated_Source/PSoC5/SPIM_1_PM.c **** }
 125              		.loc 1 109 0
 126 0040 BD46     		mov	sp, r7
 127 0042 80BC     		pop	{r7}
 128 0044 7047     		bx	lr
 129              		.cfi_endproc
 130              	.LFE1:
 131              		.size	SPIM_1_RestoreConfig, .-SPIM_1_RestoreConfig
 132 0046 00BF     		.section	.text.SPIM_1_Sleep,"ax",%progbits
 133              		.align	2
 134              		.global	SPIM_1_Sleep
 135              		.thumb
 136              		.thumb_func
 137              		.type	SPIM_1_Sleep, %function
 138              	SPIM_1_Sleep:
 139              	.LFB2:
 110:./Generated_Source/PSoC5/SPIM_1_PM.c **** 
 111:./Generated_Source/PSoC5/SPIM_1_PM.c **** 
 112:./Generated_Source/PSoC5/SPIM_1_PM.c **** /*******************************************************************************
 113:./Generated_Source/PSoC5/SPIM_1_PM.c **** * Function Name: SPIM_1_Sleep
 114:./Generated_Source/PSoC5/SPIM_1_PM.c **** ********************************************************************************
 115:./Generated_Source/PSoC5/SPIM_1_PM.c **** *
 116:./Generated_Source/PSoC5/SPIM_1_PM.c **** * Summary:
 117:./Generated_Source/PSoC5/SPIM_1_PM.c **** *  Prepare SPIM Component goes to sleep.
 118:./Generated_Source/PSoC5/SPIM_1_PM.c **** *
 119:./Generated_Source/PSoC5/SPIM_1_PM.c **** * Parameters:  
 120:./Generated_Source/PSoC5/SPIM_1_PM.c **** *  None.
 121:./Generated_Source/PSoC5/SPIM_1_PM.c **** *
 122:./Generated_Source/PSoC5/SPIM_1_PM.c **** * Return: 
 123:./Generated_Source/PSoC5/SPIM_1_PM.c **** *  None.
 124:./Generated_Source/PSoC5/SPIM_1_PM.c **** *
 125:./Generated_Source/PSoC5/SPIM_1_PM.c **** * Global Variables:
 126:./Generated_Source/PSoC5/SPIM_1_PM.c **** *  SPIM_1_backup - modified when non-retention registers are saved.
 127:./Generated_Source/PSoC5/SPIM_1_PM.c **** *
 128:./Generated_Source/PSoC5/SPIM_1_PM.c **** * Reentrant:
 129:./Generated_Source/PSoC5/SPIM_1_PM.c **** *  No.
 130:./Generated_Source/PSoC5/SPIM_1_PM.c **** *
 131:./Generated_Source/PSoC5/SPIM_1_PM.c **** *******************************************************************************/
 132:./Generated_Source/PSoC5/SPIM_1_PM.c **** void SPIM_1_Sleep(void)
 133:./Generated_Source/PSoC5/SPIM_1_PM.c **** {
 140              		.loc 1 133 0
 141              		.cfi_startproc
 142              		@ args = 0, pretend = 0, frame = 0
 143              		@ frame_needed = 1, uses_anonymous_args = 0
 144 0000 80B5     		push	{r7, lr}
 145              	.LCFI4:
 146              		.cfi_def_cfa_offset 8
 147 0002 00AF     		add	r7, sp, #0
 148              		.cfi_offset 14, -4
ARM GAS  C:\Users\CHARLI~1\AppData\Local\Temp\ccRmkpzd.s 			page 6


 149              		.cfi_offset 7, -8
 150              	.LCFI5:
 151              		.cfi_def_cfa_register 7
 134:./Generated_Source/PSoC5/SPIM_1_PM.c ****     /* Save components enable state */
 135:./Generated_Source/PSoC5/SPIM_1_PM.c ****     if ((SPIM_1_TX_STATUS_ACTL_REG & SPIM_1_INT_ENABLE) == SPIM_1_INT_ENABLE)
 152              		.loc 1 135 0
 153 0004 46F29843 		movw	r3, #:lower16:1073767576
 154 0008 C4F20003 		movt	r3, #:upper16:1073767576
 155 000c 1B78     		ldrb	r3, [r3, #0]
 156 000e DBB2     		uxtb	r3, r3
 157 0010 03F01003 		and	r3, r3, #16
 158 0014 002B     		cmp	r3, #0
 159 0016 07D0     		beq	.L6
 136:./Generated_Source/PSoC5/SPIM_1_PM.c ****     {
 137:./Generated_Source/PSoC5/SPIM_1_PM.c ****         SPIM_1_backup.enableState = 1u;
 160              		.loc 1 137 0
 161 0018 40F20003 		movw	r3, #:lower16:SPIM_1_backup
 162 001c C0F20003 		movt	r3, #:upper16:SPIM_1_backup
 163 0020 4FF00102 		mov	r2, #1
 164 0024 1A70     		strb	r2, [r3, #0]
 165 0026 06E0     		b	.L7
 166              	.L6:
 138:./Generated_Source/PSoC5/SPIM_1_PM.c ****     }
 139:./Generated_Source/PSoC5/SPIM_1_PM.c ****     else /* Components block is disabled */
 140:./Generated_Source/PSoC5/SPIM_1_PM.c ****     {
 141:./Generated_Source/PSoC5/SPIM_1_PM.c ****         SPIM_1_backup.enableState = 0u;
 167              		.loc 1 141 0
 168 0028 40F20003 		movw	r3, #:lower16:SPIM_1_backup
 169 002c C0F20003 		movt	r3, #:upper16:SPIM_1_backup
 170 0030 4FF00002 		mov	r2, #0
 171 0034 1A70     		strb	r2, [r3, #0]
 172              	.L7:
 142:./Generated_Source/PSoC5/SPIM_1_PM.c ****     }
 143:./Generated_Source/PSoC5/SPIM_1_PM.c **** 
 144:./Generated_Source/PSoC5/SPIM_1_PM.c ****     SPIM_1_Stop();
 173              		.loc 1 144 0
 174 0036 FFF7FEFF 		bl	SPIM_1_Stop
 145:./Generated_Source/PSoC5/SPIM_1_PM.c **** 
 146:./Generated_Source/PSoC5/SPIM_1_PM.c ****     SPIM_1_SaveConfig();
 175              		.loc 1 146 0
 176 003a FFF7FEFF 		bl	SPIM_1_SaveConfig
 147:./Generated_Source/PSoC5/SPIM_1_PM.c **** }
 177              		.loc 1 147 0
 178 003e 80BD     		pop	{r7, pc}
 179              		.cfi_endproc
 180              	.LFE2:
 181              		.size	SPIM_1_Sleep, .-SPIM_1_Sleep
 182              		.section	.text.SPIM_1_Wakeup,"ax",%progbits
 183              		.align	2
 184              		.global	SPIM_1_Wakeup
 185              		.thumb
 186              		.thumb_func
 187              		.type	SPIM_1_Wakeup, %function
 188              	SPIM_1_Wakeup:
 189              	.LFB3:
 148:./Generated_Source/PSoC5/SPIM_1_PM.c **** 
 149:./Generated_Source/PSoC5/SPIM_1_PM.c **** 
ARM GAS  C:\Users\CHARLI~1\AppData\Local\Temp\ccRmkpzd.s 			page 7


 150:./Generated_Source/PSoC5/SPIM_1_PM.c **** /*******************************************************************************
 151:./Generated_Source/PSoC5/SPIM_1_PM.c **** * Function Name: SPIM_1_Wakeup
 152:./Generated_Source/PSoC5/SPIM_1_PM.c **** ********************************************************************************
 153:./Generated_Source/PSoC5/SPIM_1_PM.c **** *
 154:./Generated_Source/PSoC5/SPIM_1_PM.c **** * Summary:
 155:./Generated_Source/PSoC5/SPIM_1_PM.c **** *  Prepare SPIM Component to wake up.
 156:./Generated_Source/PSoC5/SPIM_1_PM.c **** *
 157:./Generated_Source/PSoC5/SPIM_1_PM.c **** * Parameters:  
 158:./Generated_Source/PSoC5/SPIM_1_PM.c **** *  None.
 159:./Generated_Source/PSoC5/SPIM_1_PM.c **** *
 160:./Generated_Source/PSoC5/SPIM_1_PM.c **** * Return: 
 161:./Generated_Source/PSoC5/SPIM_1_PM.c **** *  None.
 162:./Generated_Source/PSoC5/SPIM_1_PM.c **** *
 163:./Generated_Source/PSoC5/SPIM_1_PM.c **** * Global Variables:
 164:./Generated_Source/PSoC5/SPIM_1_PM.c **** *  SPIM_1_backup - used when non-retention registers are restored.
 165:./Generated_Source/PSoC5/SPIM_1_PM.c **** *  SPIM_1_txBufferWrite - modified every function call - resets to 
 166:./Generated_Source/PSoC5/SPIM_1_PM.c **** *  zero.
 167:./Generated_Source/PSoC5/SPIM_1_PM.c **** *  SPIM_1_txBufferRead - modified every function call - resets to 
 168:./Generated_Source/PSoC5/SPIM_1_PM.c **** *  zero.
 169:./Generated_Source/PSoC5/SPIM_1_PM.c **** *  SPIM_1_rxBufferWrite - modified every function call - resets to
 170:./Generated_Source/PSoC5/SPIM_1_PM.c **** *  zero.
 171:./Generated_Source/PSoC5/SPIM_1_PM.c **** *  SPIM_1_rxBufferRead - modified every function call - resets to
 172:./Generated_Source/PSoC5/SPIM_1_PM.c **** *  zero. 
 173:./Generated_Source/PSoC5/SPIM_1_PM.c **** *
 174:./Generated_Source/PSoC5/SPIM_1_PM.c **** * Reentrant:
 175:./Generated_Source/PSoC5/SPIM_1_PM.c **** *  No.
 176:./Generated_Source/PSoC5/SPIM_1_PM.c **** *
 177:./Generated_Source/PSoC5/SPIM_1_PM.c **** *******************************************************************************/
 178:./Generated_Source/PSoC5/SPIM_1_PM.c **** void SPIM_1_Wakeup(void)
 179:./Generated_Source/PSoC5/SPIM_1_PM.c **** {        
 190              		.loc 1 179 0
 191              		.cfi_startproc
 192              		@ args = 0, pretend = 0, frame = 0
 193              		@ frame_needed = 1, uses_anonymous_args = 0
 194 0000 80B5     		push	{r7, lr}
 195              	.LCFI6:
 196              		.cfi_def_cfa_offset 8
 197 0002 00AF     		add	r7, sp, #0
 198              		.cfi_offset 14, -4
 199              		.cfi_offset 7, -8
 200              	.LCFI7:
 201              		.cfi_def_cfa_register 7
 180:./Generated_Source/PSoC5/SPIM_1_PM.c ****     SPIM_1_RestoreConfig();
 202              		.loc 1 180 0
 203 0004 FFF7FEFF 		bl	SPIM_1_RestoreConfig
 181:./Generated_Source/PSoC5/SPIM_1_PM.c ****          
 182:./Generated_Source/PSoC5/SPIM_1_PM.c ****     #if (SPIM_1_TXBUFFERSIZE > 4u)
 183:./Generated_Source/PSoC5/SPIM_1_PM.c ****     
 184:./Generated_Source/PSoC5/SPIM_1_PM.c ****         SPIM_1_txBufferRead = 0u;
 185:./Generated_Source/PSoC5/SPIM_1_PM.c ****         SPIM_1_txBufferWrite = 0u;
 186:./Generated_Source/PSoC5/SPIM_1_PM.c ****         
 187:./Generated_Source/PSoC5/SPIM_1_PM.c ****     #endif /* SPIM_1_TXBUFFERSIZE > 4u */
 188:./Generated_Source/PSoC5/SPIM_1_PM.c ****     
 189:./Generated_Source/PSoC5/SPIM_1_PM.c ****     #if (SPIM_1_RXBUFFERSIZE > 4u)    
 190:./Generated_Source/PSoC5/SPIM_1_PM.c ****     
 191:./Generated_Source/PSoC5/SPIM_1_PM.c ****         SPIM_1_rxBufferRead = 0u;
 192:./Generated_Source/PSoC5/SPIM_1_PM.c ****         SPIM_1_rxBufferWrite = 0u;
ARM GAS  C:\Users\CHARLI~1\AppData\Local\Temp\ccRmkpzd.s 			page 8


 193:./Generated_Source/PSoC5/SPIM_1_PM.c ****         
 194:./Generated_Source/PSoC5/SPIM_1_PM.c ****     #endif /* SPIM_1_RXBUFFERSIZE > 4u */ 
 195:./Generated_Source/PSoC5/SPIM_1_PM.c ****     
 196:./Generated_Source/PSoC5/SPIM_1_PM.c ****     SPIM_1_ClearFIFO();
 204              		.loc 1 196 0
 205 0008 FFF7FEFF 		bl	SPIM_1_ClearFIFO
 197:./Generated_Source/PSoC5/SPIM_1_PM.c ****     
 198:./Generated_Source/PSoC5/SPIM_1_PM.c ****     /* Restore components block enable state */
 199:./Generated_Source/PSoC5/SPIM_1_PM.c ****     if (SPIM_1_backup.enableState != 0u)
 206              		.loc 1 199 0
 207 000c 40F20003 		movw	r3, #:lower16:SPIM_1_backup
 208 0010 C0F20003 		movt	r3, #:upper16:SPIM_1_backup
 209 0014 1B78     		ldrb	r3, [r3, #0]	@ zero_extendqisi2
 210 0016 002B     		cmp	r3, #0
 211 0018 01D0     		beq	.L11
 200:./Generated_Source/PSoC5/SPIM_1_PM.c ****     {
 201:./Generated_Source/PSoC5/SPIM_1_PM.c ****          /* Components block was enabled */
 202:./Generated_Source/PSoC5/SPIM_1_PM.c ****          SPIM_1_Enable();
 212              		.loc 1 202 0
 213 001a FFF7FEFF 		bl	SPIM_1_Enable
 214              	.L11:
 203:./Generated_Source/PSoC5/SPIM_1_PM.c ****     } /* Do nothing if components block was disabled */
 204:./Generated_Source/PSoC5/SPIM_1_PM.c **** }
 215              		.loc 1 204 0
 216 001e 80BD     		pop	{r7, pc}
 217              		.cfi_endproc
 218              	.LFE3:
 219              		.size	SPIM_1_Wakeup, .-SPIM_1_Wakeup
 220              		.text
 221              	.Letext0: