ARM GAS  C:\Users\CHARLI~1\AppData\Local\Temp\ccYyN2mF.s 			page 1


   1              		.syntax unified
   2              		.cpu cortex-m3
   3              		.fpu softvfp
   4              		.eabi_attribute 20, 1
   5              		.eabi_attribute 21, 1
   6              		.eabi_attribute 23, 3
   7              		.eabi_attribute 24, 1
   8              		.eabi_attribute 25, 1
   9              		.eabi_attribute 26, 1
  10              		.eabi_attribute 30, 6
  11              		.eabi_attribute 18, 4
  12              		.thumb
  13              		.file	"cyfitter_cfg.c"
  20 0000 38010000 		.text
  20      02005700 
  20      00000201 
  20      FB0E0D00 
  20      01010101 
  21              	.Ltext0:
  22              		.cfi_sections	.debug_frame
  23              		.section	.text.CyClockStartupError,"ax",%progbits
  24              		.align	2
  25              		.thumb
  26              		.thumb_func
  27              		.type	CyClockStartupError, %function
  28              	CyClockStartupError:
  29              	.LFB0:
  30              		.file 1 "./Generated_Source/PSoC5/cyfitter_cfg.c"
   1:./Generated_Source/PSoC5/cyfitter_cfg.c **** /*******************************************************************************
   2:./Generated_Source/PSoC5/cyfitter_cfg.c **** * FILENAME: cyfitter_cfg.c
   3:./Generated_Source/PSoC5/cyfitter_cfg.c **** * PSoC Creator 1.0 Service Pack 2
   4:./Generated_Source/PSoC5/cyfitter_cfg.c **** *
   5:./Generated_Source/PSoC5/cyfitter_cfg.c **** * Description:
   6:./Generated_Source/PSoC5/cyfitter_cfg.c **** * This file contains device initialization code. This file is automatically
   7:./Generated_Source/PSoC5/cyfitter_cfg.c **** * generated by PSoC Creator.
   8:./Generated_Source/PSoC5/cyfitter_cfg.c **** *
   9:./Generated_Source/PSoC5/cyfitter_cfg.c **** ********************************************************************************
  10:./Generated_Source/PSoC5/cyfitter_cfg.c **** * Copyright 2010, Cypress Semiconductor Corporation.  All rights reserved.
  11:./Generated_Source/PSoC5/cyfitter_cfg.c **** * You may use this file only in accordance with the license, terms, conditions, 
  12:./Generated_Source/PSoC5/cyfitter_cfg.c **** * disclaimers, and limitations in the end user license agreement accompanying 
  13:./Generated_Source/PSoC5/cyfitter_cfg.c **** * the software package with which this file was provided.
  14:./Generated_Source/PSoC5/cyfitter_cfg.c **** ********************************************************************************/
  15:./Generated_Source/PSoC5/cyfitter_cfg.c **** 
  16:./Generated_Source/PSoC5/cyfitter_cfg.c **** #include <string.h>
  17:./Generated_Source/PSoC5/cyfitter_cfg.c **** #include <cytypes.h>
  18:./Generated_Source/PSoC5/cyfitter_cfg.c **** #include <cydevice_trm.h>
  19:./Generated_Source/PSoC5/cyfitter_cfg.c **** #include <cyfitter.h>
  20:./Generated_Source/PSoC5/cyfitter_cfg.c **** #include <CyLib.h>
  21:./Generated_Source/PSoC5/cyfitter_cfg.c **** #include <CyDmac.h>
  22:./Generated_Source/PSoC5/cyfitter_cfg.c **** #include <cyfitter_cfg.h>
  23:./Generated_Source/PSoC5/cyfitter_cfg.c **** 
ARM GAS  C:\Users\CHARLI~1\AppData\Local\Temp\ccYyN2mF.s 			page 2


  24:./Generated_Source/PSoC5/cyfitter_cfg.c **** /* Clock startup error codes                                                   */
  25:./Generated_Source/PSoC5/cyfitter_cfg.c **** #define CYCLOCKSTART_NO_ERROR    0
  26:./Generated_Source/PSoC5/cyfitter_cfg.c **** #define CYCLOCKSTART_XTAL_ERROR  1
  27:./Generated_Source/PSoC5/cyfitter_cfg.c **** #define CYCLOCKSTART_32KHZ_ERROR 2
  28:./Generated_Source/PSoC5/cyfitter_cfg.c **** #define CYCLOCKSTART_PLL_ERROR   3
  29:./Generated_Source/PSoC5/cyfitter_cfg.c **** 
  30:./Generated_Source/PSoC5/cyfitter_cfg.c **** /*******************************************************************************
  31:./Generated_Source/PSoC5/cyfitter_cfg.c **** * Function Name: CyClockStartupError
  32:./Generated_Source/PSoC5/cyfitter_cfg.c **** ********************************************************************************
  33:./Generated_Source/PSoC5/cyfitter_cfg.c **** * Summary:
  34:./Generated_Source/PSoC5/cyfitter_cfg.c **** *  If an error is encountered during clock configuration (crystal startup error,
  35:./Generated_Source/PSoC5/cyfitter_cfg.c **** *  PLL lock error, etc) the system will end up here.  Unless reimplemented by 
  36:./Generated_Source/PSoC5/cyfitter_cfg.c **** *  the customer, an infinite loop will be encountered.
  37:./Generated_Source/PSoC5/cyfitter_cfg.c **** *
  38:./Generated_Source/PSoC5/cyfitter_cfg.c **** * Parameters:  
  39:./Generated_Source/PSoC5/cyfitter_cfg.c **** *   void.
  40:./Generated_Source/PSoC5/cyfitter_cfg.c **** *
  41:./Generated_Source/PSoC5/cyfitter_cfg.c **** *
  42:./Generated_Source/PSoC5/cyfitter_cfg.c **** * Return:
  43:./Generated_Source/PSoC5/cyfitter_cfg.c **** *   void.
  44:./Generated_Source/PSoC5/cyfitter_cfg.c **** *
  45:./Generated_Source/PSoC5/cyfitter_cfg.c **** *******************************************************************************/
  46:./Generated_Source/PSoC5/cyfitter_cfg.c **** #if defined(__GNUC__) || defined(__ARMCC_VERSION)
  47:./Generated_Source/PSoC5/cyfitter_cfg.c **** __attribute__ ((unused))
  48:./Generated_Source/PSoC5/cyfitter_cfg.c **** #endif
  49:./Generated_Source/PSoC5/cyfitter_cfg.c **** static void CyClockStartupError(uint8 errorCode)
  50:./Generated_Source/PSoC5/cyfitter_cfg.c **** {
  31              		.loc 1 50 0
  32              		.cfi_startproc
  33              		@ args = 0, pretend = 0, frame = 8
  34              		@ frame_needed = 1, uses_anonymous_args = 0
  35              		@ link register save eliminated.
  36 0000 80B4     		push	{r7}
  37              	.LCFI0:
  38              		.cfi_def_cfa_offset 4
  39 0002 83B0     		sub	sp, sp, #12
  40              	.LCFI1:
  41              		.cfi_def_cfa_offset 16
  42 0004 00AF     		add	r7, sp, #0
  43              		.cfi_offset 7, -4
  44              	.LCFI2:
  45              		.cfi_def_cfa_register 7
  46 0006 0346     		mov	r3, r0
  47 0008 FB71     		strb	r3, [r7, #7]
  48              	.L2:
  51:./Generated_Source/PSoC5/cyfitter_cfg.c ****     /* To remove the compiler warning if errorCode not used.                */
  52:./Generated_Source/PSoC5/cyfitter_cfg.c ****     errorCode = errorCode;
  53:./Generated_Source/PSoC5/cyfitter_cfg.c **** 
  54:./Generated_Source/PSoC5/cyfitter_cfg.c ****     /* `#START CyClockStartupError` */
  55:./Generated_Source/PSoC5/cyfitter_cfg.c **** 
  56:./Generated_Source/PSoC5/cyfitter_cfg.c ****     /* If we have a clock startup error (bad MHz crystal, PLL lock, etc)    */
  57:./Generated_Source/PSoC5/cyfitter_cfg.c ****     /* we will end up here to allow the customer to implement something to  */
  58:./Generated_Source/PSoC5/cyfitter_cfg.c ****     /* deal with the clock condition.                                       */
  59:./Generated_Source/PSoC5/cyfitter_cfg.c **** 
  60:./Generated_Source/PSoC5/cyfitter_cfg.c ****     /* `#END` */
  61:./Generated_Source/PSoC5/cyfitter_cfg.c **** 
  62:./Generated_Source/PSoC5/cyfitter_cfg.c ****     /* If nothing else, stop here since the clocks have not started         */
ARM GAS  C:\Users\CHARLI~1\AppData\Local\Temp\ccYyN2mF.s 			page 3


  63:./Generated_Source/PSoC5/cyfitter_cfg.c ****     /* correctly.                                                           */
  64:./Generated_Source/PSoC5/cyfitter_cfg.c ****     while(1) {}
  49              		.loc 1 64 0
  50 000a FEE7     		b	.L2
  51              		.cfi_endproc
  52              	.LFE0:
  53              		.size	CyClockStartupError, .-CyClockStartupError
  54              		.section	.text.cymemzero8,"ax",%progbits
  55              		.align	2
  56              		.thumb
  57              		.thumb_func
  58              		.type	cymemzero8, %function
  59              	cymemzero8:
  60              	.LFB1:
  65:./Generated_Source/PSoC5/cyfitter_cfg.c **** }
  66:./Generated_Source/PSoC5/cyfitter_cfg.c **** 
  67:./Generated_Source/PSoC5/cyfitter_cfg.c **** /* This file contains the data used to initialize the device. */
  68:./Generated_Source/PSoC5/cyfitter_cfg.c **** 
  69:./Generated_Source/PSoC5/cyfitter_cfg.c **** #undef CYCODE
  70:./Generated_Source/PSoC5/cyfitter_cfg.c **** #undef CYDATA
  71:./Generated_Source/PSoC5/cyfitter_cfg.c **** #undef CYXDATA
  72:./Generated_Source/PSoC5/cyfitter_cfg.c **** #undef CYFAR
  73:./Generated_Source/PSoC5/cyfitter_cfg.c **** #if defined(__C51__) || defined(__CX51__)
  74:./Generated_Source/PSoC5/cyfitter_cfg.c **** #define CYCODE code
  75:./Generated_Source/PSoC5/cyfitter_cfg.c **** #define CYDATA data
  76:./Generated_Source/PSoC5/cyfitter_cfg.c **** #define CYXDATA xdata
  77:./Generated_Source/PSoC5/cyfitter_cfg.c **** #define CYFAR far
  78:./Generated_Source/PSoC5/cyfitter_cfg.c **** extern void cymemzero(void CYFAR *addr, uint16 size);
  79:./Generated_Source/PSoC5/cyfitter_cfg.c **** extern void cyconfigcpy(uint16 size, const void CYFAR *src, void CYFAR *dest) small;
  80:./Generated_Source/PSoC5/cyfitter_cfg.c **** extern void cyconfigcpycode(uint16 size, const void CYCODE *src, void CYFAR *dest);
  81:./Generated_Source/PSoC5/cyfitter_cfg.c **** #define CYMEMZERO(a,c) cymemzero((a),(c))
  82:./Generated_Source/PSoC5/cyfitter_cfg.c **** #define CYCONFIGCPY(d,s,c) cyconfigcpy((c),(s),(d))
  83:./Generated_Source/PSoC5/cyfitter_cfg.c **** #define CYCONFIGCPYCODE(d,s,c) cyconfigcpycode((c),(s),(d))
  84:./Generated_Source/PSoC5/cyfitter_cfg.c **** #else
  85:./Generated_Source/PSoC5/cyfitter_cfg.c **** #define CYCODE
  86:./Generated_Source/PSoC5/cyfitter_cfg.c **** #define CYDATA
  87:./Generated_Source/PSoC5/cyfitter_cfg.c **** #define CYXDATA
  88:./Generated_Source/PSoC5/cyfitter_cfg.c **** #define CYFAR
  89:./Generated_Source/PSoC5/cyfitter_cfg.c **** #define CYMEMZERO(a,c) cymemset((a),0,(c))
  90:./Generated_Source/PSoC5/cyfitter_cfg.c **** #define CYCONFIGCPY(d,s,c) cymemcpy((d),(s),(c))
  91:./Generated_Source/PSoC5/cyfitter_cfg.c **** #define CYCONFIGCPYCODE(d,s,c) cymemcpy((d),(s),(c))
  92:./Generated_Source/PSoC5/cyfitter_cfg.c **** #endif
  93:./Generated_Source/PSoC5/cyfitter_cfg.c **** 
  94:./Generated_Source/PSoC5/cyfitter_cfg.c **** #if defined(__GNUC__) || defined(__ARMCC_VERSION)
  95:./Generated_Source/PSoC5/cyfitter_cfg.c **** #define CYPACKED __attribute__ ((packed))
  96:./Generated_Source/PSoC5/cyfitter_cfg.c **** #define CYALIGNED __attribute__ ((aligned))
  97:./Generated_Source/PSoC5/cyfitter_cfg.c **** #if CYDEV_CONFIGURATION_DMA
  98:./Generated_Source/PSoC5/cyfitter_cfg.c **** #define DMAINITSEC __attribute__ ((section (".dma_init")))
  99:./Generated_Source/PSoC5/cyfitter_cfg.c **** #else
 100:./Generated_Source/PSoC5/cyfitter_cfg.c **** #define DMAINITSEC
 101:./Generated_Source/PSoC5/cyfitter_cfg.c **** #endif
 102:./Generated_Source/PSoC5/cyfitter_cfg.c **** #if defined(__ARMCC_VERSION)
 103:./Generated_Source/PSoC5/cyfitter_cfg.c **** #define CY_CFG_MEMORY_BARRIER() __memory_changed()
 104:./Generated_Source/PSoC5/cyfitter_cfg.c **** #else
 105:./Generated_Source/PSoC5/cyfitter_cfg.c **** #define CY_CFG_MEMORY_BARRIER() __sync_synchronize()
 106:./Generated_Source/PSoC5/cyfitter_cfg.c **** #endif
 107:./Generated_Source/PSoC5/cyfitter_cfg.c **** #else
ARM GAS  C:\Users\CHARLI~1\AppData\Local\Temp\ccYyN2mF.s 			page 4


 108:./Generated_Source/PSoC5/cyfitter_cfg.c **** /* Keil C51 and others */
 109:./Generated_Source/PSoC5/cyfitter_cfg.c **** #define CYPACKED
 110:./Generated_Source/PSoC5/cyfitter_cfg.c **** #define CYALIGNED
 111:./Generated_Source/PSoC5/cyfitter_cfg.c **** #define DMAINITSEC
 112:./Generated_Source/PSoC5/cyfitter_cfg.c **** #define CY_CFG_MEMORY_BARRIER()
 113:./Generated_Source/PSoC5/cyfitter_cfg.c **** #endif
 114:./Generated_Source/PSoC5/cyfitter_cfg.c **** 
 115:./Generated_Source/PSoC5/cyfitter_cfg.c **** typedef struct {
 116:./Generated_Source/PSoC5/cyfitter_cfg.c **** 	void CYFAR *address;
 117:./Generated_Source/PSoC5/cyfitter_cfg.c **** 	uint16 size;
 118:./Generated_Source/PSoC5/cyfitter_cfg.c **** } CYPACKED cfg_memset_t;
 119:./Generated_Source/PSoC5/cyfitter_cfg.c **** 
 120:./Generated_Source/PSoC5/cyfitter_cfg.c **** typedef struct {
 121:./Generated_Source/PSoC5/cyfitter_cfg.c **** 	void CYFAR *dest;
 122:./Generated_Source/PSoC5/cyfitter_cfg.c **** 	const void CYFAR *src;
 123:./Generated_Source/PSoC5/cyfitter_cfg.c **** 	uint16 size;
 124:./Generated_Source/PSoC5/cyfitter_cfg.c **** } CYPACKED cfg_memcpy_t;
 125:./Generated_Source/PSoC5/cyfitter_cfg.c **** 
 126:./Generated_Source/PSoC5/cyfitter_cfg.c **** /* TD structure for little-endian systems
 127:./Generated_Source/PSoC5/cyfitter_cfg.c ****  * Does not require endian swap */
 128:./Generated_Source/PSoC5/cyfitter_cfg.c **** struct td_t {
 129:./Generated_Source/PSoC5/cyfitter_cfg.c **** 	uint16 size;
 130:./Generated_Source/PSoC5/cyfitter_cfg.c **** 	uint8 next_td_ptr;
 131:./Generated_Source/PSoC5/cyfitter_cfg.c **** 	uint8 flags;
 132:./Generated_Source/PSoC5/cyfitter_cfg.c **** 	uint16 src;
 133:./Generated_Source/PSoC5/cyfitter_cfg.c **** 	uint16 dest;
 134:./Generated_Source/PSoC5/cyfitter_cfg.c **** } CYPACKED;
 135:./Generated_Source/PSoC5/cyfitter_cfg.c **** 
 136:./Generated_Source/PSoC5/cyfitter_cfg.c **** 
 137:./Generated_Source/PSoC5/cyfitter_cfg.c **** #if defined(__C51__) || defined(__CX51__)
 138:./Generated_Source/PSoC5/cyfitter_cfg.c **** #define CYMEMZERO8(a,c) cymemzero((a),(c))
 139:./Generated_Source/PSoC5/cyfitter_cfg.c **** #define CYCONFIGCPY8(d,s,c) cyconfigcpy((c),(s),(d))
 140:./Generated_Source/PSoC5/cyfitter_cfg.c **** #define CYCONFIGCPYCODE8(d,s,c) cyconfigcpycode((c),(s),(d))
 141:./Generated_Source/PSoC5/cyfitter_cfg.c **** #else
 142:./Generated_Source/PSoC5/cyfitter_cfg.c **** #if defined(__GNUC__) || defined(__ARMCC_VERSION)
 143:./Generated_Source/PSoC5/cyfitter_cfg.c **** __attribute__ ((unused))
 144:./Generated_Source/PSoC5/cyfitter_cfg.c **** #endif
 145:./Generated_Source/PSoC5/cyfitter_cfg.c **** static void cymemzero8(void *addr, unsigned int count)
 146:./Generated_Source/PSoC5/cyfitter_cfg.c **** {
  61              		.loc 1 146 0
  62              		.cfi_startproc
  63              		@ args = 0, pretend = 0, frame = 16
  64              		@ frame_needed = 1, uses_anonymous_args = 0
  65              		@ link register save eliminated.
  66 0000 80B4     		push	{r7}
  67              	.LCFI3:
  68              		.cfi_def_cfa_offset 4
  69 0002 85B0     		sub	sp, sp, #20
  70              	.LCFI4:
  71              		.cfi_def_cfa_offset 24
  72 0004 00AF     		add	r7, sp, #0
  73              		.cfi_offset 7, -4
  74              	.LCFI5:
  75              		.cfi_def_cfa_register 7
  76 0006 7860     		str	r0, [r7, #4]
  77 0008 3960     		str	r1, [r7, #0]
 147:./Generated_Source/PSoC5/cyfitter_cfg.c **** 	volatile uint8 *addr8 = (uint8 *)addr;
ARM GAS  C:\Users\CHARLI~1\AppData\Local\Temp\ccYyN2mF.s 			page 5


  78              		.loc 1 147 0
  79 000a 7B68     		ldr	r3, [r7, #4]
  80 000c FB60     		str	r3, [r7, #12]
 148:./Generated_Source/PSoC5/cyfitter_cfg.c **** 	while (count--)
  81              		.loc 1 148 0
  82 000e 07E0     		b	.L5
  83              	.L6:
 149:./Generated_Source/PSoC5/cyfitter_cfg.c **** 	{
 150:./Generated_Source/PSoC5/cyfitter_cfg.c **** 		*addr8 = 0;
  84              		.loc 1 150 0
  85 0010 FB68     		ldr	r3, [r7, #12]
  86 0012 4FF00002 		mov	r2, #0
  87 0016 1A70     		strb	r2, [r3, #0]
 151:./Generated_Source/PSoC5/cyfitter_cfg.c **** 		addr8++;
  88              		.loc 1 151 0
  89 0018 FB68     		ldr	r3, [r7, #12]
  90 001a 03F10103 		add	r3, r3, #1
  91 001e FB60     		str	r3, [r7, #12]
  92              	.L5:
  93              		.loc 1 148 0
  94 0020 3B68     		ldr	r3, [r7, #0]
  95 0022 002B     		cmp	r3, #0
  96 0024 0CBF     		ite	eq
  97 0026 0023     		moveq	r3, #0
  98 0028 0123     		movne	r3, #1
  99 002a DBB2     		uxtb	r3, r3
 100 002c 3A68     		ldr	r2, [r7, #0]
 101 002e 02F1FF32 		add	r2, r2, #-1
 102 0032 3A60     		str	r2, [r7, #0]
 103 0034 002B     		cmp	r3, #0
 104 0036 EBD1     		bne	.L6
 152:./Generated_Source/PSoC5/cyfitter_cfg.c **** 	}
 153:./Generated_Source/PSoC5/cyfitter_cfg.c **** }
 105              		.loc 1 153 0
 106 0038 07F11407 		add	r7, r7, #20
 107 003c BD46     		mov	sp, r7
 108 003e 80BC     		pop	{r7}
 109 0040 7047     		bx	lr
 110              		.cfi_endproc
 111              	.LFE1:
 112              		.size	cymemzero8, .-cymemzero8
 113 0042 00BF     		.section	.text.cymemcpy8,"ax",%progbits
 114              		.align	2
 115              		.thumb
 116              		.thumb_func
 117              		.type	cymemcpy8, %function
 118              	cymemcpy8:
 119              	.LFB2:
 154:./Generated_Source/PSoC5/cyfitter_cfg.c **** 
 155:./Generated_Source/PSoC5/cyfitter_cfg.c **** #if defined(__GNUC__) || defined(__ARMCC_VERSION)
 156:./Generated_Source/PSoC5/cyfitter_cfg.c **** __attribute__ ((unused))
 157:./Generated_Source/PSoC5/cyfitter_cfg.c **** #endif
 158:./Generated_Source/PSoC5/cyfitter_cfg.c **** static void cymemcpy8(void *dest, const void *src, unsigned int count)
 159:./Generated_Source/PSoC5/cyfitter_cfg.c **** {
 120              		.loc 1 159 0
 121              		.cfi_startproc
 122              		@ args = 0, pretend = 0, frame = 24
ARM GAS  C:\Users\CHARLI~1\AppData\Local\Temp\ccYyN2mF.s 			page 6


 123              		@ frame_needed = 1, uses_anonymous_args = 0
 124              		@ link register save eliminated.
 125 0000 80B4     		push	{r7}
 126              	.LCFI6:
 127              		.cfi_def_cfa_offset 4
 128 0002 87B0     		sub	sp, sp, #28
 129              	.LCFI7:
 130              		.cfi_def_cfa_offset 32
 131 0004 00AF     		add	r7, sp, #0
 132              		.cfi_offset 7, -4
 133              	.LCFI8:
 134              		.cfi_def_cfa_register 7
 135 0006 F860     		str	r0, [r7, #12]
 136 0008 B960     		str	r1, [r7, #8]
 137 000a 7A60     		str	r2, [r7, #4]
 160:./Generated_Source/PSoC5/cyfitter_cfg.c **** 	volatile uint8 *dest8 = (uint8 *)dest;
 138              		.loc 1 160 0
 139 000c FB68     		ldr	r3, [r7, #12]
 140 000e 3B61     		str	r3, [r7, #16]
 161:./Generated_Source/PSoC5/cyfitter_cfg.c **** 	const uint8 *src8 = (const uint8 *)src;
 141              		.loc 1 161 0
 142 0010 BB68     		ldr	r3, [r7, #8]
 143 0012 7B61     		str	r3, [r7, #20]
 162:./Generated_Source/PSoC5/cyfitter_cfg.c **** 
 163:./Generated_Source/PSoC5/cyfitter_cfg.c **** 	while (count--)
 144              		.loc 1 163 0
 145 0014 0BE0     		b	.L9
 146              	.L10:
 164:./Generated_Source/PSoC5/cyfitter_cfg.c **** 	{
 165:./Generated_Source/PSoC5/cyfitter_cfg.c **** 		*dest8 = *src8;
 147              		.loc 1 165 0
 148 0016 7B69     		ldr	r3, [r7, #20]
 149 0018 1A78     		ldrb	r2, [r3, #0]	@ zero_extendqisi2
 150 001a 3B69     		ldr	r3, [r7, #16]
 151 001c 1A70     		strb	r2, [r3, #0]
 166:./Generated_Source/PSoC5/cyfitter_cfg.c **** 		dest8++;
 152              		.loc 1 166 0
 153 001e 3B69     		ldr	r3, [r7, #16]
 154 0020 03F10103 		add	r3, r3, #1
 155 0024 3B61     		str	r3, [r7, #16]
 167:./Generated_Source/PSoC5/cyfitter_cfg.c **** 		src8++;
 156              		.loc 1 167 0
 157 0026 7B69     		ldr	r3, [r7, #20]
 158 0028 03F10103 		add	r3, r3, #1
 159 002c 7B61     		str	r3, [r7, #20]
 160              	.L9:
 161              		.loc 1 163 0
 162 002e 7B68     		ldr	r3, [r7, #4]
 163 0030 002B     		cmp	r3, #0
 164 0032 0CBF     		ite	eq
 165 0034 0023     		moveq	r3, #0
 166 0036 0123     		movne	r3, #1
 167 0038 DBB2     		uxtb	r3, r3
 168 003a 7A68     		ldr	r2, [r7, #4]
 169 003c 02F1FF32 		add	r2, r2, #-1
 170 0040 7A60     		str	r2, [r7, #4]
 171 0042 002B     		cmp	r3, #0
ARM GAS  C:\Users\CHARLI~1\AppData\Local\Temp\ccYyN2mF.s 			page 7


 172 0044 E7D1     		bne	.L10
 168:./Generated_Source/PSoC5/cyfitter_cfg.c **** 	}
 169:./Generated_Source/PSoC5/cyfitter_cfg.c **** }
 173              		.loc 1 169 0
 174 0046 07F11C07 		add	r7, r7, #28
 175 004a BD46     		mov	sp, r7
 176 004c 80BC     		pop	{r7}
 177 004e 7047     		bx	lr
 178              		.cfi_endproc
 179              	.LFE2:
 180              		.size	cymemcpy8, .-cymemcpy8
 181              		.section	.dma_init,"a",%progbits
 182              		.align	2
 183              		.type	CH1_ADDR_DATA0, %object
 184              		.size	CH1_ADDR_DATA0, 8
 185              	CH1_ADDR_DATA0:
 186 0000 01       		.byte	1
 187 0001 00       		.byte	0
 188 0002 00       		.byte	0
 189 0003 00       		.byte	0
 190 0004 00       		.byte	0
 191 0005 20       		.byte	32
 192 0006 00       		.byte	0
 193 0007 40       		.byte	64
 194              		.align	2
 195              		.type	CH2_ADDR_DATA0, %object
 196              		.size	CH2_ADDR_DATA0, 8
 197              	CH2_ADDR_DATA0:
 198 0008 01       		.byte	1
 199 0009 00       		.byte	0
 200 000a 00       		.byte	0
 201 000b 00       		.byte	0
 202 000c 00       		.byte	0
 203 000d 20       		.byte	32
 204 000e 01       		.byte	1
 205 000f 40       		.byte	64
 206              		.align	2
 207              		.type	CH5_ADDR_DATA0, %object
 208              		.size	CH5_ADDR_DATA0, 8
 209              	CH5_ADDR_DATA0:
 210 0010 01       		.byte	1
 211 0011 00       		.byte	0
 212 0012 00       		.byte	0
 213 0013 00       		.byte	0
 214 0014 00       		.byte	0
 215 0015 48       		.byte	72
 216 0016 00       		.byte	0
 217 0017 40       		.byte	64
 218              		.align	2
 219              		.type	CH6_ADDR_DATA0, %object
 220              		.size	CH6_ADDR_DATA0, 8
 221              	CH6_ADDR_DATA0:
 222 0018 01       		.byte	1
 223 0019 00       		.byte	0
 224 001a 00       		.byte	0
 225 001b 00       		.byte	0
 226 001c 00       		.byte	0
ARM GAS  C:\Users\CHARLI~1\AppData\Local\Temp\ccYyN2mF.s 			page 8


 227 001d 48       		.byte	72
 228 001e 01       		.byte	1
 229 001f 40       		.byte	64
 230              		.align	2
 231              		.type	DMA_TD_START_CMD, %object
 232              		.size	DMA_TD_START_CMD, 5
 233              	DMA_TD_START_CMD:
 234 0020 01       		.byte	1
 235 0021 00       		.byte	0
 236 0022 00       		.byte	0
 237 0023 00       		.byte	0
 238 0024 01       		.byte	1
 239              		.bss
 240              		.align	3
 241              	DMA_ZERO_VAL:
 242 0000 00000000 		.space	4
 243 0004 00000000 		.section	.dma_init
 244 0025 000000   		.align	2
 245              		.type	CFG_TD_LIST0, %object
 246              		.size	CFG_TD_LIST0, 344
 247              	CFG_TD_LIST0:
 248 0028 0800     		.short	8
 249 002a 02       		.byte	2
 250 002b 23       		.byte	35
 251 002c 0000     		.short	0
 252 002e 0876     		.short	30216
 253 0030 0800     		.short	8
 254 0032 03       		.byte	3
 255 0033 23       		.byte	35
 256 0034 0000     		.short	0
 257 0036 1076     		.short	30224
 258 0038 0800     		.short	8
 259 003a 04       		.byte	4
 260 003b 23       		.byte	35
 261 003c 0000     		.short	0
 262 003e 2876     		.short	30248
 263 0040 0800     		.short	8
 264 0042 05       		.byte	5
 265 0043 23       		.byte	35
 266 0044 0000     		.short	0
 267 0046 3076     		.short	30256
 268 0048 0500     		.short	5
 269 004a 06       		.byte	6
 270 004b 23       		.byte	35
 271 004c 0000     		.short	0
 272 004e 2070     		.short	28704
 273 0050 0500     		.short	5
 274 0052 07       		.byte	7
 275 0053 23       		.byte	35
 276 0054 0000     		.short	0
 277 0056 3070     		.short	28720
 278 0058 0500     		.short	5
 279 005a 08       		.byte	8
 280 005b 23       		.byte	35
 281 005c 0000     		.short	0
 282 005e 6070     		.short	28768
 283 0060 0500     		.short	5
ARM GAS  C:\Users\CHARLI~1\AppData\Local\Temp\ccYyN2mF.s 			page 9


 284 0062 FF       		.byte	-1
 285 0063 23       		.byte	35
 286 0064 0000     		.short	0
 287 0066 7070     		.short	28784
 288 0068 1000     		.short	16
 289 006a 0A       		.byte	10
 290 006b 22       		.byte	34
 291 006c 0000     		.short	0
 292 006e 0051     		.short	20736
 293 0070 4000     		.short	64
 294 0072 0B       		.byte	11
 295 0073 22       		.byte	34
 296 0074 0000     		.short	0
 297 0076 3051     		.short	20784
 298 0078 1000     		.short	16
 299 007a 0C       		.byte	12
 300 007b 22       		.byte	34
 301 007c 0000     		.short	0
 302 007e C051     		.short	20928
 303 0080 1000     		.short	16
 304 0082 FF       		.byte	-1
 305 0083 22       		.byte	34
 306 0084 0000     		.short	0
 307 0086 F051     		.short	20976
 308 0088 0004     		.short	1024
 309 008a 0E       		.byte	14
 310 008b 22       		.byte	34
 311 008c 0000     		.short	0
 312 008e 0000     		.short	0
 313 0090 8000     		.short	128
 314 0092 0F       		.byte	15
 315 0093 22       		.byte	34
 316 0094 0000     		.short	0
 317 0096 0006     		.short	1536
 318 0098 0008     		.short	2048
 319 009a 10       		.byte	16
 320 009b 22       		.byte	34
 321 009c 0000     		.short	0
 322 009e 0008     		.short	2048
 323 00a0 8001     		.short	384
 324 00a2 11       		.byte	17
 325 00a3 22       		.byte	34
 326 00a4 0000     		.short	0
 327 00a6 0014     		.short	5120
 328 00a8 8001     		.short	384
 329 00aa 12       		.byte	18
 330 00ab 22       		.byte	34
 331 00ac 0000     		.short	0
 332 00ae 0018     		.short	6144
 333 00b0 8001     		.short	384
 334 00b2 13       		.byte	19
 335 00b3 22       		.byte	34
 336 00b4 0000     		.short	0
 337 00b6 001A     		.short	6656
 338 00b8 0008     		.short	2048
 339 00ba 14       		.byte	20
 340 00bb 22       		.byte	34
ARM GAS  C:\Users\CHARLI~1\AppData\Local\Temp\ccYyN2mF.s 			page 10


 341 00bc 0000     		.short	0
 342 00be 0040     		.short	16384
 343 00c0 0001     		.short	256
 344 00c2 FF       		.byte	-1
 345 00c3 22       		.byte	34
 346 00c4 0000     		.short	0
 347 00c6 004C     		.short	19456
 348 00c8 2000     		.short	32
 349 00ca FF       		.byte	-1
 350 00cb 23       		.byte	35
 351 00cc 0000     		.short	0
 352 00ce 7064     		.short	25712
 353 00d0 8000     		.short	128
 354 00d2 17       		.byte	23
 355 00d3 23       		.byte	35
 356 00d4 0000     		.short	0
 357 00d6 0004     		.short	1024
 358 00d8 8000     		.short	128
 359 00da 18       		.byte	24
 360 00db 23       		.byte	35
 361 00dc 0000     		.short	0
 362 00de 8004     		.short	1152
 363 00e0 8000     		.short	128
 364 00e2 19       		.byte	25
 365 00e3 23       		.byte	35
 366 00e4 0000     		.short	0
 367 00e6 8006     		.short	1664
 368 00e8 8000     		.short	128
 369 00ea 1A       		.byte	26
 370 00eb 23       		.byte	35
 371 00ec 0000     		.short	0
 372 00ee 0016     		.short	5632
 373 00f0 8000     		.short	128
 374 00f2 1B       		.byte	27
 375 00f3 23       		.byte	35
 376 00f4 0000     		.short	0
 377 00f6 8016     		.short	5760
 378 00f8 8000     		.short	128
 379 00fa 1C       		.byte	28
 380 00fb 23       		.byte	35
 381 00fc 0000     		.short	0
 382 00fe 004D     		.short	19712
 383 0100 8000     		.short	128
 384 0102 1D       		.byte	29
 385 0103 23       		.byte	35
 386 0104 0000     		.short	0
 387 0106 804D     		.short	19840
 388 0108 8000     		.short	128
 389 010a 1E       		.byte	30
 390 010b 23       		.byte	35
 391 010c 0000     		.short	0
 392 010e 801B     		.short	7040
 393 0110 8000     		.short	128
 394 0112 1F       		.byte	31
 395 0113 23       		.byte	35
 396 0114 0000     		.short	0
 397 0116 8015     		.short	5504
ARM GAS  C:\Users\CHARLI~1\AppData\Local\Temp\ccYyN2mF.s 			page 11


 398 0118 8000     		.short	128
 399 011a 20       		.byte	32
 400 011b 23       		.byte	35
 401 011c 0000     		.short	0
 402 011e 8019     		.short	6528
 403 0120 8000     		.short	128
 404 0122 21       		.byte	33
 405 0123 23       		.byte	35
 406 0124 0000     		.short	0
 407 0126 0017     		.short	5888
 408 0128 8000     		.short	128
 409 012a 22       		.byte	34
 410 012b 23       		.byte	35
 411 012c 0000     		.short	0
 412 012e 8017     		.short	6016
 413 0130 8000     		.short	128
 414 0132 23       		.byte	35
 415 0133 23       		.byte	35
 416 0134 0000     		.short	0
 417 0136 0007     		.short	1792
 418 0138 8000     		.short	128
 419 013a 24       		.byte	36
 420 013b 23       		.byte	35
 421 013c 0000     		.short	0
 422 013e 8007     		.short	1920
 423 0140 8000     		.short	128
 424 0142 25       		.byte	37
 425 0143 23       		.byte	35
 426 0144 0000     		.short	0
 427 0146 0005     		.short	1280
 428 0148 8000     		.short	128
 429 014a 26       		.byte	38
 430 014b 23       		.byte	35
 431 014c 0000     		.short	0
 432 014e 8005     		.short	1408
 433 0150 8000     		.short	128
 434 0152 27       		.byte	39
 435 0153 23       		.byte	35
 436 0154 0000     		.short	0
 437 0156 0049     		.short	18688
 438 0158 8000     		.short	128
 439 015a 28       		.byte	40
 440 015b 23       		.byte	35
 441 015c 0000     		.short	0
 442 015e 8049     		.short	18816
 443 0160 8000     		.short	128
 444 0162 29       		.byte	41
 445 0163 23       		.byte	35
 446 0164 0000     		.short	0
 447 0166 0048     		.short	18432
 448 0168 8000     		.short	128
 449 016a 2A       		.byte	42
 450 016b 23       		.byte	35
 451 016c 0000     		.short	0
 452 016e 8048     		.short	18560
 453 0170 1000     		.short	16
 454 0172 2B       		.byte	43
ARM GAS  C:\Users\CHARLI~1\AppData\Local\Temp\ccYyN2mF.s 			page 12


 455 0173 23       		.byte	35
 456 0174 0000     		.short	0
 457 0176 1050     		.short	20496
 458 0178 1000     		.short	16
 459 017a FF       		.byte	-1
 460 017b 23       		.byte	35
 461 017c 0000     		.short	0
 462 017e 0050     		.short	20480
 463              		.section	.rodata
 464              		.align	2
 465              		.type	CFG_TD_ADDR0, %object
 466              		.size	CFG_TD_ADDR0, 172
 467              	CFG_TD_ADDR0:
 468 0000 00000000 		.word	CH1_ADDR_DATA0
 469 0004 08000000 		.word	CH2_ADDR_DATA0
 470 0008 10000000 		.word	CH5_ADDR_DATA0
 471 000c 18000000 		.word	CH6_ADDR_DATA0
 472 0010 20000000 		.word	DMA_TD_START_CMD
 473 0014 20000000 		.word	DMA_TD_START_CMD
 474 0018 20000000 		.word	DMA_TD_START_CMD
 475 001c 20000000 		.word	DMA_TD_START_CMD
 476 0020 00000000 		.word	DMA_ZERO_VAL
 477 0024 00000000 		.word	DMA_ZERO_VAL
 478 0028 00000000 		.word	DMA_ZERO_VAL
 479 002c 00000000 		.word	DMA_ZERO_VAL
 480 0030 00000000 		.word	DMA_ZERO_VAL
 481 0034 00000000 		.word	DMA_ZERO_VAL
 482 0038 00000000 		.word	DMA_ZERO_VAL
 483 003c 00000000 		.word	DMA_ZERO_VAL
 484 0040 00000000 		.word	DMA_ZERO_VAL
 485 0044 00000000 		.word	DMA_ZERO_VAL
 486 0048 00000000 		.word	DMA_ZERO_VAL
 487 004c 00000000 		.word	DMA_ZERO_VAL
 488 0050 80020048 		.word	1207960192
 489 0054 00000048 		.word	1207959552
 490 0058 80000048 		.word	1207959680
 491 005c 00010048 		.word	1207959808
 492 0060 80010048 		.word	1207959936
 493 0064 00020048 		.word	1207960064
 494 0068 A0020048 		.word	1207960224
 495 006c 20030048 		.word	1207960352
 496 0070 A0030048 		.word	1207960480
 497 0074 20040048 		.word	1207960608
 498 0078 A0040048 		.word	1207960736
 499 007c 20050048 		.word	1207960864
 500 0080 A0050048 		.word	1207960992
 501 0084 20060048 		.word	1207961120
 502 0088 A0060048 		.word	1207961248
 503 008c 20070048 		.word	1207961376
 504 0090 A0070048 		.word	1207961504
 505 0094 20080048 		.word	1207961632
 506 0098 A0080048 		.word	1207961760
 507 009c 20090048 		.word	1207961888
 508 00a0 A0090048 		.word	1207962016
 509 00a4 200A0048 		.word	1207962144
 510 00a8 300A0048 		.word	1207962160
 511              		.section	.text.cfg_dma_init,"ax",%progbits
ARM GAS  C:\Users\CHARLI~1\AppData\Local\Temp\ccYyN2mF.s 			page 13


 512              		.align	2
 513              		.thumb
 514              		.thumb_func
 515              		.type	cfg_dma_init, %function
 516              	cfg_dma_init:
 517              	.LFB3:
 170:./Generated_Source/PSoC5/cyfitter_cfg.c **** 
 171:./Generated_Source/PSoC5/cyfitter_cfg.c **** #define CYMEMZERO8(a,c) cymemzero8((a),(c))
 172:./Generated_Source/PSoC5/cyfitter_cfg.c **** #define CYCONFIGCPY8(d,s,c) cymemcpy8((d),(s),(c))
 173:./Generated_Source/PSoC5/cyfitter_cfg.c **** #define CYCONFIGCPYCODE8(d,s,c) cymemcpy8((d),(s),(c))
 174:./Generated_Source/PSoC5/cyfitter_cfg.c **** #endif
 175:./Generated_Source/PSoC5/cyfitter_cfg.c **** 
 176:./Generated_Source/PSoC5/cyfitter_cfg.c **** /* UDB_1_3_0_CONFIG Address: CYDEV_UCFG_B0_P2_U0_BASE Size (bytes): 128 */
 177:./Generated_Source/PSoC5/cyfitter_cfg.c **** #define BS_UDB_1_3_0_CONFIG_VAL ((const uint8 CYFAR *)0x48000000)
 178:./Generated_Source/PSoC5/cyfitter_cfg.c **** 
 179:./Generated_Source/PSoC5/cyfitter_cfg.c **** /* UDB_1_3_1_CONFIG Address: CYDEV_UCFG_B0_P2_U1_BASE Size (bytes): 128 */
 180:./Generated_Source/PSoC5/cyfitter_cfg.c **** #define BS_UDB_1_3_1_CONFIG_VAL ((const uint8 CYFAR *)0x48000080)
 181:./Generated_Source/PSoC5/cyfitter_cfg.c **** 
 182:./Generated_Source/PSoC5/cyfitter_cfg.c **** /* UDB_1_2_0_CONFIG Address: CYDEV_UCFG_B0_P3_U1_BASE Size (bytes): 128 */
 183:./Generated_Source/PSoC5/cyfitter_cfg.c **** #define BS_UDB_1_2_0_CONFIG_VAL ((const uint8 CYFAR *)0x48000100)
 184:./Generated_Source/PSoC5/cyfitter_cfg.c **** 
 185:./Generated_Source/PSoC5/cyfitter_cfg.c **** /* UDB_1_1_1_CONFIG Address: CYDEV_UCFG_B1_P3_U0_BASE Size (bytes): 128 */
 186:./Generated_Source/PSoC5/cyfitter_cfg.c **** #define BS_UDB_1_1_1_CONFIG_VAL ((const uint8 CYFAR *)0x48000180)
 187:./Generated_Source/PSoC5/cyfitter_cfg.c **** 
 188:./Generated_Source/PSoC5/cyfitter_cfg.c **** /* UDB_1_1_0_CONFIG Address: CYDEV_UCFG_B1_P3_U1_BASE Size (bytes): 128 */
 189:./Generated_Source/PSoC5/cyfitter_cfg.c **** #define BS_UDB_1_1_0_CONFIG_VAL ((const uint8 CYFAR *)0x48000200)
 190:./Generated_Source/PSoC5/cyfitter_cfg.c **** 
 191:./Generated_Source/PSoC5/cyfitter_cfg.c **** /* UWRK_B0_WRK_STATCTL_BITS Address: CYDEV_UWRK_UWRK8_B0_BASE + 0x00000070 Size (bytes): 32 */
 192:./Generated_Source/PSoC5/cyfitter_cfg.c **** #define BS_UWRK_B0_WRK_STATCTL_BITS_VAL ((const uint8 CYFAR *)0x48000280)
 193:./Generated_Source/PSoC5/cyfitter_cfg.c **** 
 194:./Generated_Source/PSoC5/cyfitter_cfg.c **** /* DSISWITCH_0_0 Address: CYDEV_UCFG_DSI13_BASE Size (bytes): 128 */
 195:./Generated_Source/PSoC5/cyfitter_cfg.c **** #define BS_DSISWITCH_0_0_VAL ((const uint8 CYFAR *)0x480002A0)
 196:./Generated_Source/PSoC5/cyfitter_cfg.c **** 
 197:./Generated_Source/PSoC5/cyfitter_cfg.c **** /* DSI0_0_HV_ROUTING Address: CYDEV_UCFG_DSI13_BASE + 0x00000080 Size (bytes): 128 */
 198:./Generated_Source/PSoC5/cyfitter_cfg.c **** #define BS_DSI0_0_HV_ROUTING_VAL ((const uint8 CYFAR *)0x48000320)
 199:./Generated_Source/PSoC5/cyfitter_cfg.c **** 
 200:./Generated_Source/PSoC5/cyfitter_cfg.c **** /* UDB_1_0_HV_ROUTING Address: CYDEV_UCFG_B1_P5_ROUTE_BASE + 0x00000080 Size (bytes): 128 */
 201:./Generated_Source/PSoC5/cyfitter_cfg.c **** #define BS_UDB_1_0_HV_ROUTING_VAL ((const uint8 CYFAR *)0x480003A0)
 202:./Generated_Source/PSoC5/cyfitter_cfg.c **** 
 203:./Generated_Source/PSoC5/cyfitter_cfg.c **** /* UDB_2_0_HV_ROUTING Address: CYDEV_UCFG_B1_P2_ROUTE_BASE + 0x00000080 Size (bytes): 128 */
 204:./Generated_Source/PSoC5/cyfitter_cfg.c **** #define BS_UDB_2_0_HV_ROUTING_VAL ((const uint8 CYFAR *)0x48000420)
 205:./Generated_Source/PSoC5/cyfitter_cfg.c **** 
 206:./Generated_Source/PSoC5/cyfitter_cfg.c **** /* UDB_1_1_HV_ROUTING Address: CYDEV_UCFG_B1_P4_ROUTE_BASE + 0x00000080 Size (bytes): 128 */
 207:./Generated_Source/PSoC5/cyfitter_cfg.c **** #define BS_UDB_1_1_HV_ROUTING_VAL ((const uint8 CYFAR *)0x480004A0)
 208:./Generated_Source/PSoC5/cyfitter_cfg.c **** 
 209:./Generated_Source/PSoC5/cyfitter_cfg.c **** /* UDBSWITCH_1_1 Address: CYDEV_UCFG_B1_P3_ROUTE_BASE Size (bytes): 128 */
 210:./Generated_Source/PSoC5/cyfitter_cfg.c **** #define BS_UDBSWITCH_1_1_VAL ((const uint8 CYFAR *)0x48000520)
 211:./Generated_Source/PSoC5/cyfitter_cfg.c **** 
 212:./Generated_Source/PSoC5/cyfitter_cfg.c **** /* UDB_2_1_HV_ROUTING Address: CYDEV_UCFG_B1_P3_ROUTE_BASE + 0x00000080 Size (bytes): 128 */
 213:./Generated_Source/PSoC5/cyfitter_cfg.c **** #define BS_UDB_2_1_HV_ROUTING_VAL ((const uint8 CYFAR *)0x480005A0)
 214:./Generated_Source/PSoC5/cyfitter_cfg.c **** 
 215:./Generated_Source/PSoC5/cyfitter_cfg.c **** /* UDBSWITCH_1_2 Address: CYDEV_UCFG_B0_P3_ROUTE_BASE Size (bytes): 128 */
 216:./Generated_Source/PSoC5/cyfitter_cfg.c **** #define BS_UDBSWITCH_1_2_VAL ((const uint8 CYFAR *)0x48000620)
 217:./Generated_Source/PSoC5/cyfitter_cfg.c **** 
 218:./Generated_Source/PSoC5/cyfitter_cfg.c **** /* UDB_2_2_HV_ROUTING Address: CYDEV_UCFG_B0_P3_ROUTE_BASE + 0x00000080 Size (bytes): 128 */
 219:./Generated_Source/PSoC5/cyfitter_cfg.c **** #define BS_UDB_2_2_HV_ROUTING_VAL ((const uint8 CYFAR *)0x480006A0)
 220:./Generated_Source/PSoC5/cyfitter_cfg.c **** 
ARM GAS  C:\Users\CHARLI~1\AppData\Local\Temp\ccYyN2mF.s 			page 14


 221:./Generated_Source/PSoC5/cyfitter_cfg.c **** /* UDBSWITCH_1_3 Address: CYDEV_UCFG_B0_P2_ROUTE_BASE Size (bytes): 128 */
 222:./Generated_Source/PSoC5/cyfitter_cfg.c **** #define BS_UDBSWITCH_1_3_VAL ((const uint8 CYFAR *)0x48000720)
 223:./Generated_Source/PSoC5/cyfitter_cfg.c **** 
 224:./Generated_Source/PSoC5/cyfitter_cfg.c **** /* UDB_2_3_HV_ROUTING Address: CYDEV_UCFG_B0_P2_ROUTE_BASE + 0x00000080 Size (bytes): 128 */
 225:./Generated_Source/PSoC5/cyfitter_cfg.c **** #define BS_UDB_2_3_HV_ROUTING_VAL ((const uint8 CYFAR *)0x480007A0)
 226:./Generated_Source/PSoC5/cyfitter_cfg.c **** 
 227:./Generated_Source/PSoC5/cyfitter_cfg.c **** /* DSISWITCH_1_0 Address: CYDEV_UCFG_DSI9_BASE Size (bytes): 128 */
 228:./Generated_Source/PSoC5/cyfitter_cfg.c **** #define BS_DSISWITCH_1_0_VAL ((const uint8 CYFAR *)0x48000820)
 229:./Generated_Source/PSoC5/cyfitter_cfg.c **** 
 230:./Generated_Source/PSoC5/cyfitter_cfg.c **** /* DSI3_0_HV_ROUTING Address: CYDEV_UCFG_DSI9_BASE + 0x00000080 Size (bytes): 128 */
 231:./Generated_Source/PSoC5/cyfitter_cfg.c **** #define BS_DSI3_0_HV_ROUTING_VAL ((const uint8 CYFAR *)0x480008A0)
 232:./Generated_Source/PSoC5/cyfitter_cfg.c **** 
 233:./Generated_Source/PSoC5/cyfitter_cfg.c **** /* DSISWITCH_1_1 Address: CYDEV_UCFG_DSI8_BASE Size (bytes): 128 */
 234:./Generated_Source/PSoC5/cyfitter_cfg.c **** #define BS_DSISWITCH_1_1_VAL ((const uint8 CYFAR *)0x48000920)
 235:./Generated_Source/PSoC5/cyfitter_cfg.c **** 
 236:./Generated_Source/PSoC5/cyfitter_cfg.c **** /* DSI3_1_HV_ROUTING Address: CYDEV_UCFG_DSI8_BASE + 0x00000080 Size (bytes): 128 */
 237:./Generated_Source/PSoC5/cyfitter_cfg.c **** #define BS_DSI3_1_HV_ROUTING_VAL ((const uint8 CYFAR *)0x480009A0)
 238:./Generated_Source/PSoC5/cyfitter_cfg.c **** 
 239:./Generated_Source/PSoC5/cyfitter_cfg.c **** /* UCFG_BCTL1 Address: CYREG_BCTL1_MDCLK_EN Size (bytes): 16 */
 240:./Generated_Source/PSoC5/cyfitter_cfg.c **** #define BS_UCFG_BCTL1_VAL ((const uint8 CYFAR *)0x48000A20)
 241:./Generated_Source/PSoC5/cyfitter_cfg.c **** 
 242:./Generated_Source/PSoC5/cyfitter_cfg.c **** /* UCFG_BCTL0 Address: CYREG_BCTL0_MDCLK_EN Size (bytes): 16 */
 243:./Generated_Source/PSoC5/cyfitter_cfg.c **** #define BS_UCFG_BCTL0_VAL ((const uint8 CYFAR *)0x48000A30)
 244:./Generated_Source/PSoC5/cyfitter_cfg.c **** 
 245:./Generated_Source/PSoC5/cyfitter_cfg.c **** /* IOPINS0_1 Address: CYREG_PRT1_DM0 Size (bytes): 8 */
 246:./Generated_Source/PSoC5/cyfitter_cfg.c **** #define BS_IOPINS0_1_VAL ((const uint8 CYFAR *)0x48000A40)
 247:./Generated_Source/PSoC5/cyfitter_cfg.c **** 
 248:./Generated_Source/PSoC5/cyfitter_cfg.c **** /* IOPINS0_2 Address: CYREG_PRT2_DM0 Size (bytes): 8 */
 249:./Generated_Source/PSoC5/cyfitter_cfg.c **** #define BS_IOPINS0_2_VAL ((const uint8 CYFAR *)0x48000A48)
 250:./Generated_Source/PSoC5/cyfitter_cfg.c **** 
 251:./Generated_Source/PSoC5/cyfitter_cfg.c **** /* IOPORT_1 Address: CYDEV_PRTDSI_PRT1_BASE Size (bytes): 7 */
 252:./Generated_Source/PSoC5/cyfitter_cfg.c **** #define BS_IOPORT_1_VAL ((const uint8 CYFAR *)0x48000A50)
 253:./Generated_Source/PSoC5/cyfitter_cfg.c **** 
 254:./Generated_Source/PSoC5/cyfitter_cfg.c **** /* IOPORT_2 Address: CYDEV_PRTDSI_PRT2_BASE Size (bytes): 7 */
 255:./Generated_Source/PSoC5/cyfitter_cfg.c **** #define BS_IOPORT_2_VAL ((const uint8 CYFAR *)0x48000A58)
 256:./Generated_Source/PSoC5/cyfitter_cfg.c **** 
 257:./Generated_Source/PSoC5/cyfitter_cfg.c **** 
 258:./Generated_Source/PSoC5/cyfitter_cfg.c **** static const uint8 CYCODE CH1_ADDR_DATA0[] DMAINITSEC = { 0x01, 0x00, 0x00, 0x00, 0x00, 0x20, 0x00,
 259:./Generated_Source/PSoC5/cyfitter_cfg.c **** 
 260:./Generated_Source/PSoC5/cyfitter_cfg.c **** static const uint8 CYCODE CH2_ADDR_DATA0[] DMAINITSEC = { 0x01, 0x00, 0x00, 0x00, 0x00, 0x20, 0x01,
 261:./Generated_Source/PSoC5/cyfitter_cfg.c **** 
 262:./Generated_Source/PSoC5/cyfitter_cfg.c **** static const uint8 CYCODE CH5_ADDR_DATA0[] DMAINITSEC = { 0x01, 0x00, 0x00, 0x00, 0x00, 0x48, 0x00,
 263:./Generated_Source/PSoC5/cyfitter_cfg.c **** 
 264:./Generated_Source/PSoC5/cyfitter_cfg.c **** static const uint8 CYCODE CH6_ADDR_DATA0[] DMAINITSEC = { 0x01, 0x00, 0x00, 0x00, 0x00, 0x48, 0x01,
 265:./Generated_Source/PSoC5/cyfitter_cfg.c **** 
 266:./Generated_Source/PSoC5/cyfitter_cfg.c **** static const uint8 CYCODE DMA_TD_START_CMD[] DMAINITSEC = { 0x01, 0x00, 0x00, 0x00, 0x01 };
 267:./Generated_Source/PSoC5/cyfitter_cfg.c **** 
 268:./Generated_Source/PSoC5/cyfitter_cfg.c **** static uint32 CYXDATA DMA_ZERO_VAL CYALIGNED;
 269:./Generated_Source/PSoC5/cyfitter_cfg.c **** 
 270:./Generated_Source/PSoC5/cyfitter_cfg.c **** static const struct td_t CYCODE CFG_TD_LIST0[] DMAINITSEC = {
 271:./Generated_Source/PSoC5/cyfitter_cfg.c **** /* Size, Next, Flags, Source, Destination */
 272:./Generated_Source/PSoC5/cyfitter_cfg.c **** 	{ 8, 0x02, 0x23, (uint16)(0), (uint16)(CYREG_PHUB_CFGMEM1_CFG0) },	/* TD 1 */
 273:./Generated_Source/PSoC5/cyfitter_cfg.c **** 	{ 8, 0x03, 0x23, (uint16)(0), (uint16)(CYREG_PHUB_CFGMEM2_CFG0) },	/* TD 2 */
 274:./Generated_Source/PSoC5/cyfitter_cfg.c **** 	{ 8, 0x04, 0x23, (uint16)(0), (uint16)(CYREG_PHUB_CFGMEM5_CFG0) },	/* TD 3 */
 275:./Generated_Source/PSoC5/cyfitter_cfg.c **** 	{ 8, 0x05, 0x23, (uint16)(0), (uint16)(CYREG_PHUB_CFGMEM6_CFG0) },	/* TD 4 */
 276:./Generated_Source/PSoC5/cyfitter_cfg.c **** 	{ 5, 0x06, 0x23, (uint16)(0), (uint16)(CYREG_PHUB_CH1_BASIC_CFG) },	/* TD 5 */
 277:./Generated_Source/PSoC5/cyfitter_cfg.c **** 	{ 5, 0x07, 0x23, (uint16)(0), (uint16)(CYREG_PHUB_CH2_BASIC_CFG) },	/* TD 6 */
ARM GAS  C:\Users\CHARLI~1\AppData\Local\Temp\ccYyN2mF.s 			page 15


 278:./Generated_Source/PSoC5/cyfitter_cfg.c **** 	{ 5, 0x08, 0x23, (uint16)(0), (uint16)(CYREG_PHUB_CH5_BASIC_CFG) },	/* TD 7 */
 279:./Generated_Source/PSoC5/cyfitter_cfg.c **** 	{ 5, 0xFF, 0x23, (uint16)(0), (uint16)(CYREG_PHUB_CH6_BASIC_CFG) },	/* TD 8 */
 280:./Generated_Source/PSoC5/cyfitter_cfg.c **** 	{ 16, 0x0A, 0x22, (uint16)(0), (uint16)(CYREG_PRT0_DR) },	/* TD 9 */
 281:./Generated_Source/PSoC5/cyfitter_cfg.c **** 	{ 64, 0x0B, 0x22, (uint16)(0), (uint16)(CYREG_PRT3_DR) },	/* TD 10 */
 282:./Generated_Source/PSoC5/cyfitter_cfg.c **** 	{ 16, 0x0C, 0x22, (uint16)(0), (uint16)(CYREG_PRT12_DR) },	/* TD 11 */
 283:./Generated_Source/PSoC5/cyfitter_cfg.c **** 	{ 16, 0xFF, 0x22, (uint16)(0), (uint16)(CYREG_PRT15_DR) },	/* TD 12 */
 284:./Generated_Source/PSoC5/cyfitter_cfg.c **** 	{ 1024, 0x0E, 0x22, (uint16)(0), (uint16)(CYDEV_UCFG_B0_P0_U0_BASE) },	/* TD 13 */
 285:./Generated_Source/PSoC5/cyfitter_cfg.c **** 	{ 128, 0x0F, 0x22, (uint16)(0), (uint16)(CYDEV_UCFG_B0_P3_U0_BASE) },	/* TD 14 */
 286:./Generated_Source/PSoC5/cyfitter_cfg.c **** 	{ 2048, 0x10, 0x22, (uint16)(0), (uint16)(CYDEV_UCFG_B0_P4_U0_BASE) },	/* TD 15 */
 287:./Generated_Source/PSoC5/cyfitter_cfg.c **** 	{ 384, 0x11, 0x22, (uint16)(0), (uint16)(CYDEV_UCFG_B1_P2_U0_BASE) },	/* TD 16 */
 288:./Generated_Source/PSoC5/cyfitter_cfg.c **** 	{ 384, 0x12, 0x22, (uint16)(0), (uint16)(CYDEV_UCFG_B1_P4_U0_BASE) },	/* TD 17 */
 289:./Generated_Source/PSoC5/cyfitter_cfg.c **** 	{ 384, 0x13, 0x22, (uint16)(0), (uint16)(CYDEV_UCFG_B1_P5_U0_BASE) },	/* TD 18 */
 290:./Generated_Source/PSoC5/cyfitter_cfg.c **** 	{ 2048, 0x14, 0x22, (uint16)(0), (uint16)(CYDEV_UCFG_DSI0_BASE) },	/* TD 19 */
 291:./Generated_Source/PSoC5/cyfitter_cfg.c **** 	{ 256, 0xFF, 0x22, (uint16)(0), (uint16)(CYDEV_UCFG_DSI12_BASE) },	/* TD 20 */
 292:./Generated_Source/PSoC5/cyfitter_cfg.c **** 	{ 32, 0xFF, 0x23, (uint16)(0), (uint16)(CYDEV_UWRK_UWRK8_B0_BASE + 0x00000070) },	/* TD 21 */
 293:./Generated_Source/PSoC5/cyfitter_cfg.c **** 	{ 128, 0x17, 0x23, (uint16)(0), (uint16)(CYDEV_UCFG_B0_P2_U0_BASE) },	/* TD 22 */
 294:./Generated_Source/PSoC5/cyfitter_cfg.c **** 	{ 128, 0x18, 0x23, (uint16)(0), (uint16)(CYDEV_UCFG_B0_P2_U1_BASE) },	/* TD 23 */
 295:./Generated_Source/PSoC5/cyfitter_cfg.c **** 	{ 128, 0x19, 0x23, (uint16)(0), (uint16)(CYDEV_UCFG_B0_P3_U1_BASE) },	/* TD 24 */
 296:./Generated_Source/PSoC5/cyfitter_cfg.c **** 	{ 128, 0x1A, 0x23, (uint16)(0), (uint16)(CYDEV_UCFG_B1_P3_U0_BASE) },	/* TD 25 */
 297:./Generated_Source/PSoC5/cyfitter_cfg.c **** 	{ 128, 0x1B, 0x23, (uint16)(0), (uint16)(CYDEV_UCFG_B1_P3_U1_BASE) },	/* TD 26 */
 298:./Generated_Source/PSoC5/cyfitter_cfg.c **** 	{ 128, 0x1C, 0x23, (uint16)(0), (uint16)(CYDEV_UCFG_DSI13_BASE) },	/* TD 27 */
 299:./Generated_Source/PSoC5/cyfitter_cfg.c **** 	{ 128, 0x1D, 0x23, (uint16)(0), (uint16)(CYDEV_UCFG_DSI13_BASE + 0x00000080) },	/* TD 28 */
 300:./Generated_Source/PSoC5/cyfitter_cfg.c **** 	{ 128, 0x1E, 0x23, (uint16)(0), (uint16)(CYDEV_UCFG_B1_P5_ROUTE_BASE + 0x00000080) },	/* TD 29 */
 301:./Generated_Source/PSoC5/cyfitter_cfg.c **** 	{ 128, 0x1F, 0x23, (uint16)(0), (uint16)(CYDEV_UCFG_B1_P2_ROUTE_BASE + 0x00000080) },	/* TD 30 */
 302:./Generated_Source/PSoC5/cyfitter_cfg.c **** 	{ 128, 0x20, 0x23, (uint16)(0), (uint16)(CYDEV_UCFG_B1_P4_ROUTE_BASE + 0x00000080) },	/* TD 31 */
 303:./Generated_Source/PSoC5/cyfitter_cfg.c **** 	{ 128, 0x21, 0x23, (uint16)(0), (uint16)(CYDEV_UCFG_B1_P3_ROUTE_BASE) },	/* TD 32 */
 304:./Generated_Source/PSoC5/cyfitter_cfg.c **** 	{ 128, 0x22, 0x23, (uint16)(0), (uint16)(CYDEV_UCFG_B1_P3_ROUTE_BASE + 0x00000080) },	/* TD 33 */
 305:./Generated_Source/PSoC5/cyfitter_cfg.c **** 	{ 128, 0x23, 0x23, (uint16)(0), (uint16)(CYDEV_UCFG_B0_P3_ROUTE_BASE) },	/* TD 34 */
 306:./Generated_Source/PSoC5/cyfitter_cfg.c **** 	{ 128, 0x24, 0x23, (uint16)(0), (uint16)(CYDEV_UCFG_B0_P3_ROUTE_BASE + 0x00000080) },	/* TD 35 */
 307:./Generated_Source/PSoC5/cyfitter_cfg.c **** 	{ 128, 0x25, 0x23, (uint16)(0), (uint16)(CYDEV_UCFG_B0_P2_ROUTE_BASE) },	/* TD 36 */
 308:./Generated_Source/PSoC5/cyfitter_cfg.c **** 	{ 128, 0x26, 0x23, (uint16)(0), (uint16)(CYDEV_UCFG_B0_P2_ROUTE_BASE + 0x00000080) },	/* TD 37 */
 309:./Generated_Source/PSoC5/cyfitter_cfg.c **** 	{ 128, 0x27, 0x23, (uint16)(0), (uint16)(CYDEV_UCFG_DSI9_BASE) },	/* TD 38 */
 310:./Generated_Source/PSoC5/cyfitter_cfg.c **** 	{ 128, 0x28, 0x23, (uint16)(0), (uint16)(CYDEV_UCFG_DSI9_BASE + 0x00000080) },	/* TD 39 */
 311:./Generated_Source/PSoC5/cyfitter_cfg.c **** 	{ 128, 0x29, 0x23, (uint16)(0), (uint16)(CYDEV_UCFG_DSI8_BASE) },	/* TD 40 */
 312:./Generated_Source/PSoC5/cyfitter_cfg.c **** 	{ 128, 0x2A, 0x23, (uint16)(0), (uint16)(CYDEV_UCFG_DSI8_BASE + 0x00000080) },	/* TD 41 */
 313:./Generated_Source/PSoC5/cyfitter_cfg.c **** 	{ 16, 0x2B, 0x23, (uint16)(0), (uint16)(CYREG_BCTL1_MDCLK_EN) },	/* TD 42 */
 314:./Generated_Source/PSoC5/cyfitter_cfg.c **** 	{ 16, 0xFF, 0x23, (uint16)(0), (uint16)(CYREG_BCTL0_MDCLK_EN) },	/* TD 43 */
 315:./Generated_Source/PSoC5/cyfitter_cfg.c **** };
 316:./Generated_Source/PSoC5/cyfitter_cfg.c **** static const void * const CFG_TD_ADDR0[] = {
 317:./Generated_Source/PSoC5/cyfitter_cfg.c **** 	(const void *)(&CH1_ADDR_DATA0),	/* TD 1 */
 318:./Generated_Source/PSoC5/cyfitter_cfg.c **** 	(const void *)(&CH2_ADDR_DATA0),	/* TD 2 */
 319:./Generated_Source/PSoC5/cyfitter_cfg.c **** 	(const void *)(&CH5_ADDR_DATA0),	/* TD 3 */
 320:./Generated_Source/PSoC5/cyfitter_cfg.c **** 	(const void *)(&CH6_ADDR_DATA0),	/* TD 4 */
 321:./Generated_Source/PSoC5/cyfitter_cfg.c **** 	(const void *)(&DMA_TD_START_CMD),	/* TD 5 */
 322:./Generated_Source/PSoC5/cyfitter_cfg.c **** 	(const void *)(&DMA_TD_START_CMD),	/* TD 6 */
 323:./Generated_Source/PSoC5/cyfitter_cfg.c **** 	(const void *)(&DMA_TD_START_CMD),	/* TD 7 */
 324:./Generated_Source/PSoC5/cyfitter_cfg.c **** 	(const void *)(&DMA_TD_START_CMD),	/* TD 8 */
 325:./Generated_Source/PSoC5/cyfitter_cfg.c **** 	(const void *)(&DMA_ZERO_VAL),	/* TD 9 */
 326:./Generated_Source/PSoC5/cyfitter_cfg.c **** 	(const void *)(&DMA_ZERO_VAL),	/* TD 10 */
 327:./Generated_Source/PSoC5/cyfitter_cfg.c **** 	(const void *)(&DMA_ZERO_VAL),	/* TD 11 */
 328:./Generated_Source/PSoC5/cyfitter_cfg.c **** 	(const void *)(&DMA_ZERO_VAL),	/* TD 12 */
 329:./Generated_Source/PSoC5/cyfitter_cfg.c **** 	(const void *)(&DMA_ZERO_VAL),	/* TD 13 */
 330:./Generated_Source/PSoC5/cyfitter_cfg.c **** 	(const void *)(&DMA_ZERO_VAL),	/* TD 14 */
 331:./Generated_Source/PSoC5/cyfitter_cfg.c **** 	(const void *)(&DMA_ZERO_VAL),	/* TD 15 */
 332:./Generated_Source/PSoC5/cyfitter_cfg.c **** 	(const void *)(&DMA_ZERO_VAL),	/* TD 16 */
 333:./Generated_Source/PSoC5/cyfitter_cfg.c **** 	(const void *)(&DMA_ZERO_VAL),	/* TD 17 */
 334:./Generated_Source/PSoC5/cyfitter_cfg.c **** 	(const void *)(&DMA_ZERO_VAL),	/* TD 18 */
ARM GAS  C:\Users\CHARLI~1\AppData\Local\Temp\ccYyN2mF.s 			page 16


 335:./Generated_Source/PSoC5/cyfitter_cfg.c **** 	(const void *)(&DMA_ZERO_VAL),	/* TD 19 */
 336:./Generated_Source/PSoC5/cyfitter_cfg.c **** 	(const void *)(&DMA_ZERO_VAL),	/* TD 20 */
 337:./Generated_Source/PSoC5/cyfitter_cfg.c **** 	(const void *)(BS_UWRK_B0_WRK_STATCTL_BITS_VAL),	/* TD 21 */
 338:./Generated_Source/PSoC5/cyfitter_cfg.c **** 	(const void *)(BS_UDB_1_3_0_CONFIG_VAL),	/* TD 22 */
 339:./Generated_Source/PSoC5/cyfitter_cfg.c **** 	(const void *)(BS_UDB_1_3_1_CONFIG_VAL),	/* TD 23 */
 340:./Generated_Source/PSoC5/cyfitter_cfg.c **** 	(const void *)(BS_UDB_1_2_0_CONFIG_VAL),	/* TD 24 */
 341:./Generated_Source/PSoC5/cyfitter_cfg.c **** 	(const void *)(BS_UDB_1_1_1_CONFIG_VAL),	/* TD 25 */
 342:./Generated_Source/PSoC5/cyfitter_cfg.c **** 	(const void *)(BS_UDB_1_1_0_CONFIG_VAL),	/* TD 26 */
 343:./Generated_Source/PSoC5/cyfitter_cfg.c **** 	(const void *)(BS_DSISWITCH_0_0_VAL),	/* TD 27 */
 344:./Generated_Source/PSoC5/cyfitter_cfg.c **** 	(const void *)(BS_DSI0_0_HV_ROUTING_VAL),	/* TD 28 */
 345:./Generated_Source/PSoC5/cyfitter_cfg.c **** 	(const void *)(BS_UDB_1_0_HV_ROUTING_VAL),	/* TD 29 */
 346:./Generated_Source/PSoC5/cyfitter_cfg.c **** 	(const void *)(BS_UDB_2_0_HV_ROUTING_VAL),	/* TD 30 */
 347:./Generated_Source/PSoC5/cyfitter_cfg.c **** 	(const void *)(BS_UDB_1_1_HV_ROUTING_VAL),	/* TD 31 */
 348:./Generated_Source/PSoC5/cyfitter_cfg.c **** 	(const void *)(BS_UDBSWITCH_1_1_VAL),	/* TD 32 */
 349:./Generated_Source/PSoC5/cyfitter_cfg.c **** 	(const void *)(BS_UDB_2_1_HV_ROUTING_VAL),	/* TD 33 */
 350:./Generated_Source/PSoC5/cyfitter_cfg.c **** 	(const void *)(BS_UDBSWITCH_1_2_VAL),	/* TD 34 */
 351:./Generated_Source/PSoC5/cyfitter_cfg.c **** 	(const void *)(BS_UDB_2_2_HV_ROUTING_VAL),	/* TD 35 */
 352:./Generated_Source/PSoC5/cyfitter_cfg.c **** 	(const void *)(BS_UDBSWITCH_1_3_VAL),	/* TD 36 */
 353:./Generated_Source/PSoC5/cyfitter_cfg.c **** 	(const void *)(BS_UDB_2_3_HV_ROUTING_VAL),	/* TD 37 */
 354:./Generated_Source/PSoC5/cyfitter_cfg.c **** 	(const void *)(BS_DSISWITCH_1_0_VAL),	/* TD 38 */
 355:./Generated_Source/PSoC5/cyfitter_cfg.c **** 	(const void *)(BS_DSI3_0_HV_ROUTING_VAL),	/* TD 39 */
 356:./Generated_Source/PSoC5/cyfitter_cfg.c **** 	(const void *)(BS_DSISWITCH_1_1_VAL),	/* TD 40 */
 357:./Generated_Source/PSoC5/cyfitter_cfg.c **** 	(const void *)(BS_DSI3_1_HV_ROUTING_VAL),	/* TD 41 */
 358:./Generated_Source/PSoC5/cyfitter_cfg.c **** 	(const void *)(BS_UCFG_BCTL1_VAL),	/* TD 42 */
 359:./Generated_Source/PSoC5/cyfitter_cfg.c **** 	(const void *)(BS_UCFG_BCTL0_VAL),	/* TD 43 */
 360:./Generated_Source/PSoC5/cyfitter_cfg.c **** };
 361:./Generated_Source/PSoC5/cyfitter_cfg.c **** static void cfg_dma_init(void)
 362:./Generated_Source/PSoC5/cyfitter_cfg.c **** {
 518              		.loc 1 362 0
 519              		.cfi_startproc
 520              		@ args = 0, pretend = 0, frame = 8
 521              		@ frame_needed = 1, uses_anonymous_args = 0
 522              		@ link register save eliminated.
 523 0000 80B4     		push	{r7}
 524              	.LCFI9:
 525              		.cfi_def_cfa_offset 4
 526 0002 83B0     		sub	sp, sp, #12
 527              	.LCFI10:
 528              		.cfi_def_cfa_offset 16
 529 0004 00AF     		add	r7, sp, #0
 530              		.cfi_offset 7, -4
 531              	.LCFI11:
 532              		.cfi_def_cfa_register 7
 363:./Generated_Source/PSoC5/cyfitter_cfg.c **** 	int i;
 364:./Generated_Source/PSoC5/cyfitter_cfg.c **** 
 365:./Generated_Source/PSoC5/cyfitter_cfg.c **** 	DMA_ZERO_VAL = 0u;
 533              		.loc 1 365 0
 534 0006 40F20003 		movw	r3, #:lower16:DMA_ZERO_VAL
 535 000a C0F20003 		movt	r3, #:upper16:DMA_ZERO_VAL
 536 000e 4FF00002 		mov	r2, #0
 537 0012 1A60     		str	r2, [r3, #0]
 366:./Generated_Source/PSoC5/cyfitter_cfg.c **** 	DMAC_CFGMEM[0].CFG0[0] = 0x10;		/* set burstcount */
 538              		.loc 1 366 0
 539 0014 47F20063 		movw	r3, #:lower16:1073772032
 540 0018 C4F20003 		movt	r3, #:upper16:1073772032
 541 001c 4FF01002 		mov	r2, #16
 542 0020 1A70     		strb	r2, [r3, #0]
ARM GAS  C:\Users\CHARLI~1\AppData\Local\Temp\ccYyN2mF.s 			page 17


 367:./Generated_Source/PSoC5/cyfitter_cfg.c **** 	DMAC_CH[0].basic_cfg[0] = 0x01u;	/* enable channel0 */
 543              		.loc 1 367 0
 544 0022 47F21003 		movw	r3, #:lower16:1073770512
 545 0026 C4F20003 		movt	r3, #:upper16:1073770512
 546 002a 4FF00102 		mov	r2, #1
 547 002e 1A70     		strb	r2, [r3, #0]
 368:./Generated_Source/PSoC5/cyfitter_cfg.c **** 	DMAC_CH[0].basic_status[1] = 0;		/* set channel0's first td to 0 */
 548              		.loc 1 368 0
 549 0030 47F21003 		movw	r3, #:lower16:1073770512
 550 0034 C4F20003 		movt	r3, #:upper16:1073770512
 551 0038 4FF00002 		mov	r2, #0
 552 003c 5A72     		strb	r2, [r3, #9]
 369:./Generated_Source/PSoC5/cyfitter_cfg.c **** 	
 370:./Generated_Source/PSoC5/cyfitter_cfg.c **** 	DMAC_TDMEM[0].TD0[2] = 0x01;		/* set td0's next td to 1 */
 553              		.loc 1 370 0
 554 003e 47F60003 		movw	r3, #:lower16:1073772544
 555 0042 C4F20003 		movt	r3, #:upper16:1073772544
 556 0046 4FF00102 		mov	r2, #1
 557 004a 9A70     		strb	r2, [r3, #2]
 371:./Generated_Source/PSoC5/cyfitter_cfg.c **** 	DMAC_TDMEM[0].TD0[3] = 0x03;		/* set td0's flags */
 558              		.loc 1 371 0
 559 004c 47F60003 		movw	r3, #:lower16:1073772544
 560 0050 C4F20003 		movt	r3, #:upper16:1073772544
 561 0054 4FF00302 		mov	r2, #3
 562 0058 DA70     		strb	r2, [r3, #3]
 372:./Generated_Source/PSoC5/cyfitter_cfg.c **** 	CY_SET_REG16((reg16 *) &DMAC_TDMEM[0].TD0[0], 43*8);					/* set td0's size */
 563              		.loc 1 372 0
 564 005a 47F60003 		movw	r3, #:lower16:1073772544
 565 005e C4F20003 		movt	r3, #:upper16:1073772544
 566 0062 4FF4AC72 		mov	r2, #344
 567 0066 1A80     		strh	r2, [r3, #0]	@ movhi
 373:./Generated_Source/PSoC5/cyfitter_cfg.c **** 	CY_SET_REG16((reg16 *) &DMAC_TDMEM[0].TD1[0], (uint16)(uint32)CFG_TD_LIST0);	/* set td0's src addr
 568              		.loc 1 373 0
 569 0068 47F60403 		movw	r3, #:lower16:1073772548
 570 006c C4F20003 		movt	r3, #:upper16:1073772548
 571 0070 40F20002 		movw	r2, #:lower16:CFG_TD_LIST0
 572 0074 C0F20002 		movt	r2, #:upper16:CFG_TD_LIST0
 573 0078 92B2     		uxth	r2, r2
 574 007a 1A80     		strh	r2, [r3, #0]	@ movhi
 374:./Generated_Source/PSoC5/cyfitter_cfg.c **** 	CY_SET_REG16((reg16 *) &DMAC_TDMEM[0].TD1[2], CYDEV_PHUB_TDMEM1_BASE);	/* set td0's dst addr */
 575              		.loc 1 374 0
 576 007c 47F60603 		movw	r3, #:lower16:1073772550
 577 0080 C4F20003 		movt	r3, #:upper16:1073772550
 578 0084 47F60802 		movw	r2, #30728
 579 0088 1A80     		strh	r2, [r3, #0]	@ movhi
 375:./Generated_Source/PSoC5/cyfitter_cfg.c **** 	CY_SET_REG16((reg16 *) &DMAC_CFGMEM[0].CFG1[0], (uint16)(CYDEV_FLASH_BASE >> 16));				/* set ch0's
 580              		.loc 1 375 0
 581 008a 47F20463 		movw	r3, #:lower16:1073772036
 582 008e C4F20003 		movt	r3, #:upper16:1073772036
 583 0092 4FF00002 		mov	r2, #0
 584 0096 1A80     		strh	r2, [r3, #0]	@ movhi
 376:./Generated_Source/PSoC5/cyfitter_cfg.c **** 	CY_SET_REG16((reg16 *) &DMAC_CFGMEM[0].CFG1[2], (uint16)(CYDEV_PHUB_TDMEM1_BASE >> 16));				/* set
 585              		.loc 1 376 0
 586 0098 47F20663 		movw	r3, #:lower16:1073772038
 587 009c C4F20003 		movt	r3, #:upper16:1073772038
 588 00a0 4FF48042 		mov	r2, #16384
 589 00a4 1A80     		strh	r2, [r3, #0]	@ movhi
ARM GAS  C:\Users\CHARLI~1\AppData\Local\Temp\ccYyN2mF.s 			page 18


 377:./Generated_Source/PSoC5/cyfitter_cfg.c **** 	DMAC_CH[1].basic_status[1] = 0x09;
 590              		.loc 1 377 0
 591 00a6 47F22003 		movw	r3, #:lower16:1073770528
 592 00aa C4F20003 		movt	r3, #:upper16:1073770528
 593 00ae 4FF00902 		mov	r2, #9
 594 00b2 5A72     		strb	r2, [r3, #9]
 378:./Generated_Source/PSoC5/cyfitter_cfg.c **** 	DMAC_CH[2].basic_status[1] = 0x0D;
 595              		.loc 1 378 0
 596 00b4 47F23003 		movw	r3, #:lower16:1073770544
 597 00b8 C4F20003 		movt	r3, #:upper16:1073770544
 598 00bc 4FF00D02 		mov	r2, #13
 599 00c0 5A72     		strb	r2, [r3, #9]
 379:./Generated_Source/PSoC5/cyfitter_cfg.c **** 	DMAC_CH[5].basic_status[1] = 0x15;
 600              		.loc 1 379 0
 601 00c2 47F26003 		movw	r3, #:lower16:1073770592
 602 00c6 C4F20003 		movt	r3, #:upper16:1073770592
 603 00ca 4FF01502 		mov	r2, #21
 604 00ce 5A72     		strb	r2, [r3, #9]
 380:./Generated_Source/PSoC5/cyfitter_cfg.c **** 	DMAC_CH[6].basic_status[1] = 0x16;
 605              		.loc 1 380 0
 606 00d0 47F27003 		movw	r3, #:lower16:1073770608
 607 00d4 C4F20003 		movt	r3, #:upper16:1073770608
 608 00d8 4FF01602 		mov	r2, #22
 609 00dc 5A72     		strb	r2, [r3, #9]
 381:./Generated_Source/PSoC5/cyfitter_cfg.c **** 
 382:./Generated_Source/PSoC5/cyfitter_cfg.c **** 	CY_CFG_MEMORY_BARRIER();
 610              		.loc 1 382 0
 383:./Generated_Source/PSoC5/cyfitter_cfg.c **** 	DMAC_CH[0].action[0] = CPU_REQ;    /* initiate the DMA transfer */
 611              		.loc 1 383 0
 612 00de 47F21003 		movw	r3, #:lower16:1073770512
 613 00e2 C4F20003 		movt	r3, #:upper16:1073770512
 614 00e6 4FF00102 		mov	r2, #1
 615 00ea 1A71     		strb	r2, [r3, #4]
 384:./Generated_Source/PSoC5/cyfitter_cfg.c **** 	CY_CFG_MEMORY_BARRIER();
 616              		.loc 1 384 0
 617              	.L13:
 385:./Generated_Source/PSoC5/cyfitter_cfg.c **** 
 386:./Generated_Source/PSoC5/cyfitter_cfg.c **** 	while ((*(volatile uint16 *)(DMAC_TDMEM[0].TD0))) {}
 618              		.loc 1 386 0
 619 00ec 47F60003 		movw	r3, #:lower16:1073772544
 620 00f0 C4F20003 		movt	r3, #:upper16:1073772544
 621 00f4 1B88     		ldrh	r3, [r3, #0]	@ movhi
 622 00f6 9BB2     		uxth	r3, r3
 623 00f8 002B     		cmp	r3, #0
 624 00fa F7D1     		bne	.L13
 387:./Generated_Source/PSoC5/cyfitter_cfg.c **** 
 388:./Generated_Source/PSoC5/cyfitter_cfg.c **** 	for (i = 0; i < 43; i++)
 625              		.loc 1 388 0
 626 00fc 4FF00003 		mov	r3, #0
 627 0100 3B60     		str	r3, [r7, #0]
 628 0102 18E0     		b	.L14
 629              	.L15:
 630              	.LBB2:
 389:./Generated_Source/PSoC5/cyfitter_cfg.c **** 	{
 390:./Generated_Source/PSoC5/cyfitter_cfg.c **** 		volatile uint8 *srcAddrPtr = &DMAC_TDMEM[i+1].TD1[0];
 631              		.loc 1 390 0
 632 0104 3B68     		ldr	r3, [r7, #0]
ARM GAS  C:\Users\CHARLI~1\AppData\Local\Temp\ccYyN2mF.s 			page 19


 633 0106 4FEAC302 		lsl	r2, r3, #3
 634 010a 47F60803 		movw	r3, #:lower16:1073772552
 635 010e C4F20003 		movt	r3, #:upper16:1073772552
 636 0112 1344     		add	r3, r2, r3
 637 0114 03F10403 		add	r3, r3, #4
 638 0118 7B60     		str	r3, [r7, #4]
 391:./Generated_Source/PSoC5/cyfitter_cfg.c **** 		CY_SET_REG16(srcAddrPtr, (uint16)(uint32)CFG_TD_ADDR0[i]);
 639              		.loc 1 391 0
 640 011a 7A68     		ldr	r2, [r7, #4]
 641 011c 3968     		ldr	r1, [r7, #0]
 642 011e 40F20003 		movw	r3, #:lower16:CFG_TD_ADDR0
 643 0122 C0F20003 		movt	r3, #:upper16:CFG_TD_ADDR0
 644 0126 53F82130 		ldr	r3, [r3, r1, lsl #2]
 645 012a 9BB2     		uxth	r3, r3
 646 012c 1380     		strh	r3, [r2, #0]	@ movhi
 647              	.LBE2:
 648              		.loc 1 388 0
 649 012e 3B68     		ldr	r3, [r7, #0]
 650 0130 03F10103 		add	r3, r3, #1
 651 0134 3B60     		str	r3, [r7, #0]
 652              	.L14:
 653 0136 3B68     		ldr	r3, [r7, #0]
 654 0138 2A2B     		cmp	r3, #42
 655 013a E3DD     		ble	.L15
 392:./Generated_Source/PSoC5/cyfitter_cfg.c **** 	}
 393:./Generated_Source/PSoC5/cyfitter_cfg.c **** 
 394:./Generated_Source/PSoC5/cyfitter_cfg.c **** 	CY_CFG_MEMORY_BARRIER();
 656              		.loc 1 394 0
 395:./Generated_Source/PSoC5/cyfitter_cfg.c **** 	DMAC_CH[0].action[0] = CPU_REQ;    /* initiate the DMA transfer */
 657              		.loc 1 395 0
 658 013c 47F21003 		movw	r3, #:lower16:1073770512
 659 0140 C4F20003 		movt	r3, #:upper16:1073770512
 660 0144 4FF00102 		mov	r2, #1
 661 0148 1A71     		strb	r2, [r3, #4]
 396:./Generated_Source/PSoC5/cyfitter_cfg.c **** 	CY_CFG_MEMORY_BARRIER();
 662              		.loc 1 396 0
 663              	.L16:
 397:./Generated_Source/PSoC5/cyfitter_cfg.c **** 
 398:./Generated_Source/PSoC5/cyfitter_cfg.c **** 	while((CY_GET_REG8(CYREG_PHUB_CH0_BASIC_STATUS) & 0x01u)){}
 664              		.loc 1 398 0
 665 014a 47F21803 		movw	r3, #:lower16:1073770520
 666 014e C4F20003 		movt	r3, #:upper16:1073770520
 667 0152 1B78     		ldrb	r3, [r3, #0]
 668 0154 DBB2     		uxtb	r3, r3
 669 0156 03F00103 		and	r3, r3, #1
 670 015a DBB2     		uxtb	r3, r3
 671 015c 002B     		cmp	r3, #0
 672 015e F4D1     		bne	.L16
 673              	.L17:
 399:./Generated_Source/PSoC5/cyfitter_cfg.c **** 	while((CY_GET_REG8(CYREG_PHUB_CH1_BASIC_STATUS) & 0x01u)){}
 674              		.loc 1 399 0
 675 0160 47F22803 		movw	r3, #:lower16:1073770536
 676 0164 C4F20003 		movt	r3, #:upper16:1073770536
 677 0168 1B78     		ldrb	r3, [r3, #0]
 678 016a DBB2     		uxtb	r3, r3
 679 016c 03F00103 		and	r3, r3, #1
 680 0170 DBB2     		uxtb	r3, r3
ARM GAS  C:\Users\CHARLI~1\AppData\Local\Temp\ccYyN2mF.s 			page 20


 681 0172 002B     		cmp	r3, #0
 682 0174 F4D1     		bne	.L17
 683              	.L18:
 400:./Generated_Source/PSoC5/cyfitter_cfg.c **** 	while((CY_GET_REG8(CYREG_PHUB_CH2_BASIC_STATUS) & 0x01u)){}
 684              		.loc 1 400 0
 685 0176 47F23803 		movw	r3, #:lower16:1073770552
 686 017a C4F20003 		movt	r3, #:upper16:1073770552
 687 017e 1B78     		ldrb	r3, [r3, #0]
 688 0180 DBB2     		uxtb	r3, r3
 689 0182 03F00103 		and	r3, r3, #1
 690 0186 DBB2     		uxtb	r3, r3
 691 0188 002B     		cmp	r3, #0
 692 018a F4D1     		bne	.L18
 693              	.L19:
 401:./Generated_Source/PSoC5/cyfitter_cfg.c **** 	while((CY_GET_REG8(CYREG_PHUB_CH5_BASIC_STATUS) & 0x01u)){}
 694              		.loc 1 401 0
 695 018c 47F26803 		movw	r3, #:lower16:1073770600
 696 0190 C4F20003 		movt	r3, #:upper16:1073770600
 697 0194 1B78     		ldrb	r3, [r3, #0]
 698 0196 DBB2     		uxtb	r3, r3
 699 0198 03F00103 		and	r3, r3, #1
 700 019c DBB2     		uxtb	r3, r3
 701 019e 002B     		cmp	r3, #0
 702 01a0 F4D1     		bne	.L19
 703              	.L20:
 402:./Generated_Source/PSoC5/cyfitter_cfg.c **** 	while((CY_GET_REG8(CYREG_PHUB_CH6_BASIC_STATUS) & 0x01u)){}
 704              		.loc 1 402 0
 705 01a2 47F27803 		movw	r3, #:lower16:1073770616
 706 01a6 C4F20003 		movt	r3, #:upper16:1073770616
 707 01aa 1B78     		ldrb	r3, [r3, #0]
 708 01ac DBB2     		uxtb	r3, r3
 709 01ae 03F00103 		and	r3, r3, #1
 710 01b2 DBB2     		uxtb	r3, r3
 711 01b4 002B     		cmp	r3, #0
 712 01b6 F4D1     		bne	.L20
 403:./Generated_Source/PSoC5/cyfitter_cfg.c **** 
 404:./Generated_Source/PSoC5/cyfitter_cfg.c **** 	CY_SET_REG8(CYREG_PHUB_CH0_BASIC_CFG, 0x00);
 713              		.loc 1 404 0
 714 01b8 47F21003 		movw	r3, #:lower16:1073770512
 715 01bc C4F20003 		movt	r3, #:upper16:1073770512
 716 01c0 4FF00002 		mov	r2, #0
 717 01c4 1A70     		strb	r2, [r3, #0]
 405:./Generated_Source/PSoC5/cyfitter_cfg.c **** 	CY_SET_REG8(CYREG_PHUB_CH1_BASIC_CFG, 0x00);
 718              		.loc 1 405 0
 719 01c6 47F22003 		movw	r3, #:lower16:1073770528
 720 01ca C4F20003 		movt	r3, #:upper16:1073770528
 721 01ce 4FF00002 		mov	r2, #0
 722 01d2 1A70     		strb	r2, [r3, #0]
 406:./Generated_Source/PSoC5/cyfitter_cfg.c **** 	CY_SET_REG8(CYREG_PHUB_CH2_BASIC_CFG, 0x00);
 723              		.loc 1 406 0
 724 01d4 47F23003 		movw	r3, #:lower16:1073770544
 725 01d8 C4F20003 		movt	r3, #:upper16:1073770544
 726 01dc 4FF00002 		mov	r2, #0
 727 01e0 1A70     		strb	r2, [r3, #0]
 407:./Generated_Source/PSoC5/cyfitter_cfg.c **** 	CY_SET_REG8(CYREG_PHUB_CH5_BASIC_CFG, 0x00);
 728              		.loc 1 407 0
 729 01e2 47F26003 		movw	r3, #:lower16:1073770592
ARM GAS  C:\Users\CHARLI~1\AppData\Local\Temp\ccYyN2mF.s 			page 21


 730 01e6 C4F20003 		movt	r3, #:upper16:1073770592
 731 01ea 4FF00002 		mov	r2, #0
 732 01ee 1A70     		strb	r2, [r3, #0]
 408:./Generated_Source/PSoC5/cyfitter_cfg.c **** 	CY_SET_REG8(CYREG_PHUB_CH6_BASIC_CFG, 0x00);
 733              		.loc 1 408 0
 734 01f0 47F27003 		movw	r3, #:lower16:1073770608
 735 01f4 C4F20003 		movt	r3, #:upper16:1073770608
 736 01f8 4FF00002 		mov	r2, #0
 737 01fc 1A70     		strb	r2, [r3, #0]
 409:./Generated_Source/PSoC5/cyfitter_cfg.c **** 
 410:./Generated_Source/PSoC5/cyfitter_cfg.c **** }
 738              		.loc 1 410 0
 739 01fe 07F10C07 		add	r7, r7, #12
 740 0202 BD46     		mov	sp, r7
 741 0204 80BC     		pop	{r7}
 742 0206 7047     		bx	lr
 743              		.cfi_endproc
 744              	.LFE3:
 745              		.size	cfg_dma_init, .-cfg_dma_init
 746              		.section	.text.ClockSetup,"ax",%progbits
 747              		.align	2
 748              		.thumb
 749              		.thumb_func
 750              		.type	ClockSetup, %function
 751              	ClockSetup:
 752              	.LFB4:
 411:./Generated_Source/PSoC5/cyfitter_cfg.c **** static void ClockSetup(void)
 412:./Generated_Source/PSoC5/cyfitter_cfg.c **** {
 753              		.loc 1 412 0
 754              		.cfi_startproc
 755              		@ args = 0, pretend = 0, frame = 16
 756              		@ frame_needed = 1, uses_anonymous_args = 0
 757 0000 80B5     		push	{r7, lr}
 758              	.LCFI12:
 759              		.cfi_def_cfa_offset 8
 760 0002 84B0     		sub	sp, sp, #16
 761              	.LCFI13:
 762              		.cfi_def_cfa_offset 24
 763 0004 00AF     		add	r7, sp, #0
 764              		.cfi_offset 14, -4
 765              		.cfi_offset 7, -8
 766              	.LCFI14:
 767              		.cfi_def_cfa_register 7
 413:./Generated_Source/PSoC5/cyfitter_cfg.c **** 	reg32  timeout;
 414:./Generated_Source/PSoC5/cyfitter_cfg.c **** 	reg32* timeout_p = &timeout;
 768              		.loc 1 414 0
 769 0006 07F10803 		add	r3, r7, #8
 770 000a FB60     		str	r3, [r7, #12]
 415:./Generated_Source/PSoC5/cyfitter_cfg.c **** 	reg8   pllLock;
 416:./Generated_Source/PSoC5/cyfitter_cfg.c **** 
 417:./Generated_Source/PSoC5/cyfitter_cfg.c **** 	CY_SET_XTND_REG24((void CYFAR *)(CYREG_CLKDIST_DCFG0_CFG0), 0x180005);
 771              		.loc 1 417 0
 772 000c 44F28000 		movw	r0, #:lower16:1073758336
 773 0010 C4F20000 		movt	r0, #:upper16:1073758336
 774 0014 40F20501 		movw	r1, #:lower16:1572869
 775 0018 C0F21801 		movt	r1, #:upper16:1572869
 776 001c FFF7FEFF 		bl	CySetReg24
ARM GAS  C:\Users\CHARLI~1\AppData\Local\Temp\ccYyN2mF.s 			page 22


 418:./Generated_Source/PSoC5/cyfitter_cfg.c **** 	CY_SET_XTND_REG24((void CYFAR *)(CYREG_CLKDIST_DCFG1_CFG0), 0x180033);
 777              		.loc 1 418 0
 778 0020 44F28400 		movw	r0, #:lower16:1073758340
 779 0024 C4F20000 		movt	r0, #:upper16:1073758340
 780 0028 40F23301 		movw	r1, #:lower16:1572915
 781 002c C0F21801 		movt	r1, #:upper16:1572915
 782 0030 FFF7FEFF 		bl	CySetReg24
 419:./Generated_Source/PSoC5/cyfitter_cfg.c **** 	CY_SET_XTND_REG8((void CYFAR *)(CYREG_SLOWCLK_ILO_CR0), 0x02);
 783              		.loc 1 419 0
 784 0034 44F20033 		movw	r3, #:lower16:1073758976
 785 0038 C4F20003 		movt	r3, #:upper16:1073758976
 786 003c 4FF00202 		mov	r2, #2
 787 0040 1A70     		strb	r2, [r3, #0]
 420:./Generated_Source/PSoC5/cyfitter_cfg.c **** 	CY_SET_XTND_REG8((void CYFAR *)(CYREG_CLKDIST_CR), 0x08);
 788              		.loc 1 420 0
 789 0042 44F20003 		movw	r3, #:lower16:1073758208
 790 0046 C4F20003 		movt	r3, #:upper16:1073758208
 791 004a 4FF00802 		mov	r2, #8
 792 004e 1A70     		strb	r2, [r3, #0]
 421:./Generated_Source/PSoC5/cyfitter_cfg.c **** 	CY_SET_XTND_REG8((void CYFAR *)(CYREG_FASTCLK_IMO_CR), 0x03);
 793              		.loc 1 421 0
 794 0050 44F20023 		movw	r3, #:lower16:1073758720
 795 0054 C4F20003 		movt	r3, #:upper16:1073758720
 796 0058 4FF00302 		mov	r2, #3
 797 005c 1A70     		strb	r2, [r3, #0]
 422:./Generated_Source/PSoC5/cyfitter_cfg.c **** 	CY_SET_XTND_REG8((void CYFAR *)(CYREG_IMO_TR1), (CY_GET_XTND_REG8(CYREG_FLSHID_CUST_TABLES_IMO_3MH
 798              		.loc 1 422 0
 799 005e 44F2A163 		movw	r3, #:lower16:1073759905
 800 0062 C4F20003 		movt	r3, #:upper16:1073759905
 801 0066 40F20812 		movw	r2, #:lower16:1224737032
 802 006a C4F60012 		movt	r2, #:upper16:1224737032
 803 006e 1278     		ldrb	r2, [r2, #0]
 804 0070 D2B2     		uxtb	r2, r2
 805 0072 1A70     		strb	r2, [r3, #0]
 423:./Generated_Source/PSoC5/cyfitter_cfg.c **** 	CY_SET_XTND_REG16((void CYFAR *)(CYREG_FASTCLK_PLL_P), 0x0008);
 806              		.loc 1 423 0
 807 0074 44F22223 		movw	r3, #:lower16:1073758754
 808 0078 C4F20003 		movt	r3, #:upper16:1073758754
 809 007c 4FF00802 		mov	r2, #8
 810 0080 1A80     		strh	r2, [r3, #0]	@ movhi
 424:./Generated_Source/PSoC5/cyfitter_cfg.c **** 	CY_SET_XTND_REG8((void CYFAR *)(CYREG_CLKDIST_CR), 0x08);
 811              		.loc 1 424 0
 812 0082 44F20003 		movw	r3, #:lower16:1073758208
 813 0086 C4F20003 		movt	r3, #:upper16:1073758208
 814 008a 4FF00802 		mov	r2, #8
 815 008e 1A70     		strb	r2, [r3, #0]
 425:./Generated_Source/PSoC5/cyfitter_cfg.c **** 	CY_SET_XTND_REG16((void CYFAR *)(CYREG_FASTCLK_PLL_CFG0), 0x1051);
 816              		.loc 1 425 0
 817 0090 44F22023 		movw	r3, #:lower16:1073758752
 818 0094 C4F20003 		movt	r3, #:upper16:1073758752
 819 0098 41F25102 		movw	r2, #4177
 820 009c 1A80     		strh	r2, [r3, #0]	@ movhi
 426:./Generated_Source/PSoC5/cyfitter_cfg.c **** 	pllLock = 0;
 821              		.loc 1 426 0
 822 009e 4FF00003 		mov	r3, #0
 823 00a2 FB71     		strb	r3, [r7, #7]
 427:./Generated_Source/PSoC5/cyfitter_cfg.c **** 	for (timeout = 1216; *timeout_p && (pllLock != 0x03u); timeout--) { pllLock = 0x03u & ((pllLock <<
ARM GAS  C:\Users\CHARLI~1\AppData\Local\Temp\ccYyN2mF.s 			page 23


 824              		.loc 1 427 0
 825 00a4 4FF49863 		mov	r3, #1216
 826 00a8 BB60     		str	r3, [r7, #8]
 827 00aa 16E0     		b	.L23
 828              	.L25:
 829 00ac FB79     		ldrb	r3, [r7, #7]
 830 00ae DBB2     		uxtb	r3, r3
 831 00b0 4FEA4303 		lsl	r3, r3, #1
 832 00b4 DAB2     		uxtb	r2, r3
 833 00b6 44F22523 		movw	r3, #:lower16:1073758757
 834 00ba C4F20003 		movt	r3, #:upper16:1073758757
 835 00be 1B78     		ldrb	r3, [r3, #0]
 836 00c0 DBB2     		uxtb	r3, r3
 837 00c2 03F00103 		and	r3, r3, #1
 838 00c6 42EA0303 		orr	r3, r2, r3
 839 00ca DBB2     		uxtb	r3, r3
 840 00cc 03F00303 		and	r3, r3, #3
 841 00d0 FB71     		strb	r3, [r7, #7]
 842 00d2 BB68     		ldr	r3, [r7, #8]
 843 00d4 03F1FF33 		add	r3, r3, #-1
 844 00d8 BB60     		str	r3, [r7, #8]
 845              	.L23:
 846 00da FB68     		ldr	r3, [r7, #12]
 847 00dc 1B68     		ldr	r3, [r3, #0]
 848 00de 002B     		cmp	r3, #0
 849 00e0 03D0     		beq	.L24
 850 00e2 FB79     		ldrb	r3, [r7, #7]
 851 00e4 DBB2     		uxtb	r3, r3
 852 00e6 032B     		cmp	r3, #3
 853 00e8 E0D1     		bne	.L25
 854              	.L24:
 428:./Generated_Source/PSoC5/cyfitter_cfg.c **** 	CY_SET_XTND_REG16((void CYFAR *)(CYREG_CLKDIST_MSTR0), 0x0103);
 855              		.loc 1 428 0
 856 00ea 44F20403 		movw	r3, #:lower16:1073758212
 857 00ee C4F20003 		movt	r3, #:upper16:1073758212
 858 00f2 40F20312 		movw	r2, #259
 859 00f6 1A80     		strh	r2, [r3, #0]	@ movhi
 429:./Generated_Source/PSoC5/cyfitter_cfg.c **** 	CY_SET_XTND_REG8((void CYFAR *)(CYREG_CLKDIST_MSTR0), 0x00);
 860              		.loc 1 429 0
 861 00f8 44F20403 		movw	r3, #:lower16:1073758212
 862 00fc C4F20003 		movt	r3, #:upper16:1073758212
 863 0100 4FF00002 		mov	r2, #0
 864 0104 1A70     		strb	r2, [r3, #0]
 430:./Generated_Source/PSoC5/cyfitter_cfg.c **** 	CY_SET_XTND_REG8((void CYFAR *)(CYREG_CLKDIST_MSTR0), 0x07);
 865              		.loc 1 430 0
 866 0106 44F20403 		movw	r3, #:lower16:1073758212
 867 010a C4F20003 		movt	r3, #:upper16:1073758212
 868 010e 4FF00702 		mov	r2, #7
 869 0112 1A70     		strb	r2, [r3, #0]
 431:./Generated_Source/PSoC5/cyfitter_cfg.c **** 	CY_SET_XTND_REG8((void CYFAR *)(CYREG_CLKDIST_BCFG0), 0x00);
 870              		.loc 1 431 0
 871 0114 44F20603 		movw	r3, #:lower16:1073758214
 872 0118 C4F20003 		movt	r3, #:upper16:1073758214
 873 011c 4FF00002 		mov	r2, #0
 874 0120 1A70     		strb	r2, [r3, #0]
 432:./Generated_Source/PSoC5/cyfitter_cfg.c **** 	CY_SET_XTND_REG8((void CYFAR *)(CYREG_CLKDIST_BCFG2), 0x48);
 875              		.loc 1 432 0
ARM GAS  C:\Users\CHARLI~1\AppData\Local\Temp\ccYyN2mF.s 			page 24


 876 0122 44F20803 		movw	r3, #:lower16:1073758216
 877 0126 C4F20003 		movt	r3, #:upper16:1073758216
 878 012a 4FF04802 		mov	r2, #72
 879 012e 1A70     		strb	r2, [r3, #0]
 433:./Generated_Source/PSoC5/cyfitter_cfg.c **** 	CY_SET_XTND_REG8((void CYFAR *)(CYREG_CLKDIST_MSTR0), 0x00);
 880              		.loc 1 433 0
 881 0130 44F20403 		movw	r3, #:lower16:1073758212
 882 0134 C4F20003 		movt	r3, #:upper16:1073758212
 883 0138 4FF00002 		mov	r2, #0
 884 013c 1A70     		strb	r2, [r3, #0]
 434:./Generated_Source/PSoC5/cyfitter_cfg.c **** 	CY_SET_XTND_REG8((void CYFAR *)(CYREG_CLKDIST_LD), 0x02);
 885              		.loc 1 434 0
 886 013e 44F20103 		movw	r3, #:lower16:1073758209
 887 0142 C4F20003 		movt	r3, #:upper16:1073758209
 888 0146 4FF00202 		mov	r2, #2
 889 014a 1A70     		strb	r2, [r3, #0]
 435:./Generated_Source/PSoC5/cyfitter_cfg.c **** 
 436:./Generated_Source/PSoC5/cyfitter_cfg.c **** 	CY_SET_XTND_REG8((void CYFAR *)(CYREG_PM_ACT_CFG2), ((CY_GET_XTND_REG8(CYREG_PM_ACT_CFG2) | 0x03))
 890              		.loc 1 436 0
 891 014c 44F2A233 		movw	r3, #:lower16:1073759138
 892 0150 C4F20003 		movt	r3, #:upper16:1073759138
 893 0154 44F2A232 		movw	r2, #:lower16:1073759138
 894 0158 C4F20002 		movt	r2, #:upper16:1073759138
 895 015c 1278     		ldrb	r2, [r2, #0]
 896 015e D2B2     		uxtb	r2, r2
 897 0160 42F00302 		orr	r2, r2, #3
 898 0164 D2B2     		uxtb	r2, r2
 899 0166 1A70     		strb	r2, [r3, #0]
 437:./Generated_Source/PSoC5/cyfitter_cfg.c **** }
 900              		.loc 1 437 0
 901 0168 07F11007 		add	r7, r7, #16
 902 016c BD46     		mov	sp, r7
 903 016e 80BD     		pop	{r7, pc}
 904              		.cfi_endproc
 905              	.LFE4:
 906              		.size	ClockSetup, .-ClockSetup
 907              		.section	.text.AnalogSetDefault,"ax",%progbits
 908              		.align	2
 909              		.global	AnalogSetDefault
 910              		.thumb
 911              		.thumb_func
 912              		.type	AnalogSetDefault, %function
 913              	AnalogSetDefault:
 914              	.LFB5:
 438:./Generated_Source/PSoC5/cyfitter_cfg.c **** 
 439:./Generated_Source/PSoC5/cyfitter_cfg.c **** /* Analog API Functions */
 440:./Generated_Source/PSoC5/cyfitter_cfg.c **** void AnalogSetDefault(void)
 441:./Generated_Source/PSoC5/cyfitter_cfg.c **** {
 915              		.loc 1 441 0
 916              		.cfi_startproc
 917              		@ args = 0, pretend = 0, frame = 0
 918              		@ frame_needed = 1, uses_anonymous_args = 0
 919              		@ link register save eliminated.
 920 0000 80B4     		push	{r7}
 921              	.LCFI15:
 922              		.cfi_def_cfa_offset 4
 923 0002 00AF     		add	r7, sp, #0
ARM GAS  C:\Users\CHARLI~1\AppData\Local\Temp\ccYyN2mF.s 			page 25


 924              		.cfi_offset 7, -4
 925              	.LCFI16:
 926              		.cfi_def_cfa_register 7
 442:./Generated_Source/PSoC5/cyfitter_cfg.c **** 	CY_SET_XTND_REG8(CYREG_PUMP_CR0, 0x44);
 927              		.loc 1 442 0
 928 0004 45F67603 		movw	r3, #:lower16:1073764470
 929 0008 C4F20003 		movt	r3, #:upper16:1073764470
 930 000c 4FF04402 		mov	r2, #68
 931 0010 1A70     		strb	r2, [r3, #0]
 443:./Generated_Source/PSoC5/cyfitter_cfg.c **** }
 932              		.loc 1 443 0
 933 0012 BD46     		mov	sp, r7
 934 0014 80BC     		pop	{r7}
 935 0016 7047     		bx	lr
 936              		.cfi_endproc
 937              	.LFE5:
 938              		.size	AnalogSetDefault, .-AnalogSetDefault
 939              		.section	.text.cyfitter_cfg,"ax",%progbits
 940              		.align	2
 941              		.global	cyfitter_cfg
 942              		.thumb
 943              		.thumb_func
 944              		.type	cyfitter_cfg, %function
 945              	cyfitter_cfg:
 946              	.LFB6:
 444:./Generated_Source/PSoC5/cyfitter_cfg.c **** 
 445:./Generated_Source/PSoC5/cyfitter_cfg.c **** #define CY_AMUX_UNUSED CYREG_BOOST_SR
 446:./Generated_Source/PSoC5/cyfitter_cfg.c **** 
 447:./Generated_Source/PSoC5/cyfitter_cfg.c **** /* This function is called by the start-up code for the selected device. */
 448:./Generated_Source/PSoC5/cyfitter_cfg.c **** void cyfitter_cfg(void)
 449:./Generated_Source/PSoC5/cyfitter_cfg.c **** {
 947              		.loc 1 449 0
 948              		.cfi_startproc
 949              		@ args = 0, pretend = 0, frame = 0
 950              		@ frame_needed = 1, uses_anonymous_args = 0
 951 0000 80B5     		push	{r7, lr}
 952              	.LCFI17:
 953              		.cfi_def_cfa_offset 8
 954 0002 00AF     		add	r7, sp, #0
 955              		.cfi_offset 14, -4
 956              		.cfi_offset 7, -8
 957              	.LCFI18:
 958              		.cfi_def_cfa_register 7
 450:./Generated_Source/PSoC5/cyfitter_cfg.c **** #ifdef CYGlobalIntDisable
 451:./Generated_Source/PSoC5/cyfitter_cfg.c **** 	CYGlobalIntDisable;
 959              		.loc 1 451 0
 960              	@ 451 "./Generated_Source/PSoC5/cyfitter_cfg.c" 1
 961 0004 72B6     		CPSID   i
 962              	@ 0 "" 2
 452:./Generated_Source/PSoC5/cyfitter_cfg.c **** #endif
 453:./Generated_Source/PSoC5/cyfitter_cfg.c **** 
 454:./Generated_Source/PSoC5/cyfitter_cfg.c **** 	CY_SET_XTND_REG8((void CYFAR *)(CYREG_CACHE_CC_CTL), ((CYDEV_INSTRUCT_CACHE_ENABLED) ? 0xC0 : 0xC1
 963              		.loc 1 454 0
 964              		.thumb
 965 0006 44F60003 		movw	r3, #:lower16:1073760256
 966 000a C4F20003 		movt	r3, #:upper16:1073760256
 967 000e 6FF03F02 		mvn	r2, #63
ARM GAS  C:\Users\CHARLI~1\AppData\Local\Temp\ccYyN2mF.s 			page 26


 968 0012 1A70     		strb	r2, [r3, #0]
 455:./Generated_Source/PSoC5/cyfitter_cfg.c **** 	CY_SET_XTND_REG8((void CYFAR *)(CYREG_PHUB_CH0_BASIC_CFG), 0x00);
 969              		.loc 1 455 0
 970 0014 47F21003 		movw	r3, #:lower16:1073770512
 971 0018 C4F20003 		movt	r3, #:upper16:1073770512
 972 001c 4FF00002 		mov	r2, #0
 973 0020 1A70     		strb	r2, [r3, #0]
 456:./Generated_Source/PSoC5/cyfitter_cfg.c **** 	CY_SET_XTND_REG8((void CYFAR *)(CYREG_PHUB_CH1_BASIC_CFG), 0x00);
 974              		.loc 1 456 0
 975 0022 47F22003 		movw	r3, #:lower16:1073770528
 976 0026 C4F20003 		movt	r3, #:upper16:1073770528
 977 002a 4FF00002 		mov	r2, #0
 978 002e 1A70     		strb	r2, [r3, #0]
 457:./Generated_Source/PSoC5/cyfitter_cfg.c **** 
 458:./Generated_Source/PSoC5/cyfitter_cfg.c **** 	CY_SET_XTND_REG8((void CYFAR *)(CYREG_ANAIF_CFG_MISC_CR0), 0x01);
 979              		.loc 1 458 0
 980 0030 45F67C03 		movw	r3, #:lower16:1073764476
 981 0034 C4F20003 		movt	r3, #:upper16:1073764476
 982 0038 4FF00102 		mov	r2, #1
 983 003c 1A70     		strb	r2, [r3, #0]
 459:./Generated_Source/PSoC5/cyfitter_cfg.c **** 
 460:./Generated_Source/PSoC5/cyfitter_cfg.c **** 	CY_SET_XTND_REG8(CYREG_MLOGIC_DBG_DBE, (CY_GET_XTND_REG8(CYREG_MLOGIC_DBG_DBE) | 0x01));
 984              		.loc 1 460 0
 985 003e 44F2E863 		movw	r3, #:lower16:1073759976
 986 0042 C4F20003 		movt	r3, #:upper16:1073759976
 987 0046 44F2E862 		movw	r2, #:lower16:1073759976
 988 004a C4F20002 		movt	r2, #:upper16:1073759976
 989 004e 1278     		ldrb	r2, [r2, #0]
 990 0050 D2B2     		uxtb	r2, r2
 991 0052 42F00102 		orr	r2, r2, #1
 992 0056 D2B2     		uxtb	r2, r2
 993 0058 1A70     		strb	r2, [r3, #0]
 461:./Generated_Source/PSoC5/cyfitter_cfg.c **** 	cfg_dma_init();
 994              		.loc 1 461 0
 995 005a FFF7FEFF 		bl	cfg_dma_init
 462:./Generated_Source/PSoC5/cyfitter_cfg.c **** 
 463:./Generated_Source/PSoC5/cyfitter_cfg.c **** 	CYMEMZERO8((void CYFAR *)(CYDEV_PRTDSI_PRT0_BASE), 7);
 996              		.loc 1 463 0
 997 005e 45F20020 		movw	r0, #:lower16:1073762816
 998 0062 C4F20000 		movt	r0, #:upper16:1073762816
 999 0066 4FF00701 		mov	r1, #7
 1000 006a FFF7FEFF 		bl	cymemzero8
 464:./Generated_Source/PSoC5/cyfitter_cfg.c **** 	CYCONFIGCPY8((void CYFAR *)(CYDEV_PRTDSI_PRT1_BASE), (void CYFAR *)(BS_IOPORT_1_VAL), 7);
 1001              		.loc 1 464 0
 1002 006e 45F20820 		movw	r0, #:lower16:1073762824
 1003 0072 C4F20000 		movt	r0, #:upper16:1073762824
 1004 0076 40F65021 		movw	r1, #:lower16:1207962192
 1005 007a C4F60001 		movt	r1, #:upper16:1207962192
 1006 007e 4FF00702 		mov	r2, #7
 1007 0082 FFF7FEFF 		bl	cymemcpy8
 465:./Generated_Source/PSoC5/cyfitter_cfg.c **** 	CYCONFIGCPY8((void CYFAR *)(CYDEV_PRTDSI_PRT2_BASE), (void CYFAR *)(BS_IOPORT_2_VAL), 7);
 1008              		.loc 1 465 0
 1009 0086 45F21020 		movw	r0, #:lower16:1073762832
 1010 008a C4F20000 		movt	r0, #:upper16:1073762832
 1011 008e 40F65821 		movw	r1, #:lower16:1207962200
 1012 0092 C4F60001 		movt	r1, #:upper16:1207962200
 1013 0096 4FF00702 		mov	r2, #7
ARM GAS  C:\Users\CHARLI~1\AppData\Local\Temp\ccYyN2mF.s 			page 27


 1014 009a FFF7FEFF 		bl	cymemcpy8
 466:./Generated_Source/PSoC5/cyfitter_cfg.c **** 	CYMEMZERO8((void CYFAR *)(CYDEV_PRTDSI_PRT3_BASE), 7);
 1015              		.loc 1 466 0
 1016 009e 45F21820 		movw	r0, #:lower16:1073762840
 1017 00a2 C4F20000 		movt	r0, #:upper16:1073762840
 1018 00a6 4FF00701 		mov	r1, #7
 1019 00aa FFF7FEFF 		bl	cymemzero8
 467:./Generated_Source/PSoC5/cyfitter_cfg.c **** 	CYMEMZERO8((void CYFAR *)(CYDEV_PRTDSI_PRT4_BASE), 7);
 1020              		.loc 1 467 0
 1021 00ae 45F22020 		movw	r0, #:lower16:1073762848
 1022 00b2 C4F20000 		movt	r0, #:upper16:1073762848
 1023 00b6 4FF00701 		mov	r1, #7
 1024 00ba FFF7FEFF 		bl	cymemzero8
 468:./Generated_Source/PSoC5/cyfitter_cfg.c **** 	CYMEMZERO8((void CYFAR *)(CYDEV_PRTDSI_PRT5_BASE), 7);
 1025              		.loc 1 468 0
 1026 00be 45F22820 		movw	r0, #:lower16:1073762856
 1027 00c2 C4F20000 		movt	r0, #:upper16:1073762856
 1028 00c6 4FF00701 		mov	r1, #7
 1029 00ca FFF7FEFF 		bl	cymemzero8
 469:./Generated_Source/PSoC5/cyfitter_cfg.c **** 	CYMEMZERO8((void CYFAR *)(CYDEV_PRTDSI_PRT6_BASE), 7);
 1030              		.loc 1 469 0
 1031 00ce 45F23020 		movw	r0, #:lower16:1073762864
 1032 00d2 C4F20000 		movt	r0, #:upper16:1073762864
 1033 00d6 4FF00701 		mov	r1, #7
 1034 00da FFF7FEFF 		bl	cymemzero8
 470:./Generated_Source/PSoC5/cyfitter_cfg.c **** 	CYMEMZERO8((void CYFAR *)(CYDEV_PRTDSI_PRT12_BASE), 6);
 1035              		.loc 1 470 0
 1036 00de 45F26020 		movw	r0, #:lower16:1073762912
 1037 00e2 C4F20000 		movt	r0, #:upper16:1073762912
 1038 00e6 4FF00601 		mov	r1, #6
 1039 00ea FFF7FEFF 		bl	cymemzero8
 471:./Generated_Source/PSoC5/cyfitter_cfg.c **** 	CYMEMZERO8((void CYFAR *)(CYDEV_PRTDSI_PRT15_BASE), 7);
 1040              		.loc 1 471 0
 1041 00ee 45F27820 		movw	r0, #:lower16:1073762936
 1042 00f2 C4F20000 		movt	r0, #:upper16:1073762936
 1043 00f6 4FF00701 		mov	r1, #7
 1044 00fa FFF7FEFF 		bl	cymemzero8
 472:./Generated_Source/PSoC5/cyfitter_cfg.c **** 	/* BYTES WRITTEN: 62 */
 473:./Generated_Source/PSoC5/cyfitter_cfg.c **** 
 474:./Generated_Source/PSoC5/cyfitter_cfg.c **** 	/* Enable digital routing */
 475:./Generated_Source/PSoC5/cyfitter_cfg.c **** 	CY_SET_XTND_REG8(CYREG_BCTL0_BANK_CTL, CY_GET_XTND_REG8(CYREG_BCTL0_BANK_CTL) | 0x02u);
 1045              		.loc 1 475 0
 1046 00fe 45F20303 		movw	r3, #:lower16:1073827843
 1047 0102 C4F20103 		movt	r3, #:upper16:1073827843
 1048 0106 45F20302 		movw	r2, #:lower16:1073827843
 1049 010a C4F20102 		movt	r2, #:upper16:1073827843
 1050 010e 1278     		ldrb	r2, [r2, #0]
 1051 0110 D2B2     		uxtb	r2, r2
 1052 0112 42F00202 		orr	r2, r2, #2
 1053 0116 D2B2     		uxtb	r2, r2
 1054 0118 1A70     		strb	r2, [r3, #0]
 476:./Generated_Source/PSoC5/cyfitter_cfg.c **** 	CY_SET_XTND_REG8(CYREG_BCTL1_BANK_CTL, CY_GET_XTND_REG8(CYREG_BCTL1_BANK_CTL) | 0x02u);
 1055              		.loc 1 476 0
 1056 011a 45F21303 		movw	r3, #:lower16:1073827859
 1057 011e C4F20103 		movt	r3, #:upper16:1073827859
 1058 0122 45F21302 		movw	r2, #:lower16:1073827859
 1059 0126 C4F20102 		movt	r2, #:upper16:1073827859
ARM GAS  C:\Users\CHARLI~1\AppData\Local\Temp\ccYyN2mF.s 			page 28


 1060 012a 1278     		ldrb	r2, [r2, #0]
 1061 012c D2B2     		uxtb	r2, r2
 1062 012e 42F00202 		orr	r2, r2, #2
 1063 0132 D2B2     		uxtb	r2, r2
 1064 0134 1A70     		strb	r2, [r3, #0]
 477:./Generated_Source/PSoC5/cyfitter_cfg.c **** 
 478:./Generated_Source/PSoC5/cyfitter_cfg.c **** 	/* Enable UDB array */
 479:./Generated_Source/PSoC5/cyfitter_cfg.c **** 	CY_SET_XTND_REG8(CYREG_PM_ACT_CFG0, CY_GET_XTND_REG8(CYREG_PM_ACT_CFG0) | 0x40u);
 1065              		.loc 1 479 0
 1066 0136 44F2A033 		movw	r3, #:lower16:1073759136
 1067 013a C4F20003 		movt	r3, #:upper16:1073759136
 1068 013e 44F2A032 		movw	r2, #:lower16:1073759136
 1069 0142 C4F20002 		movt	r2, #:upper16:1073759136
 1070 0146 1278     		ldrb	r2, [r2, #0]
 1071 0148 D2B2     		uxtb	r2, r2
 1072 014a 42F04002 		orr	r2, r2, #64
 1073 014e D2B2     		uxtb	r2, r2
 1074 0150 1A70     		strb	r2, [r3, #0]
 480:./Generated_Source/PSoC5/cyfitter_cfg.c **** 	CY_SET_XTND_REG8(CYREG_PM_AVAIL_CR2, CY_GET_XTND_REG8(CYREG_PM_AVAIL_CR2) | 0x10u);
 1075              		.loc 1 480 0
 1076 0152 44F2C233 		movw	r3, #:lower16:1073759170
 1077 0156 C4F20003 		movt	r3, #:upper16:1073759170
 1078 015a 44F2C232 		movw	r2, #:lower16:1073759170
 1079 015e C4F20002 		movt	r2, #:upper16:1073759170
 1080 0162 1278     		ldrb	r2, [r2, #0]
 1081 0164 D2B2     		uxtb	r2, r2
 1082 0166 42F01002 		orr	r2, r2, #16
 1083 016a D2B2     		uxtb	r2, r2
 1084 016c 1A70     		strb	r2, [r3, #0]
 481:./Generated_Source/PSoC5/cyfitter_cfg.c **** 
 482:./Generated_Source/PSoC5/cyfitter_cfg.c **** 	CYCONFIGCPY((void CYFAR *)(CYREG_PRT1_DM0), (void CYFAR *)(BS_IOPINS0_1_VAL), 8);
 1085              		.loc 1 482 0
 1086 016e 45F21210 		movw	r0, #:lower16:1073762578
 1087 0172 C4F20000 		movt	r0, #:upper16:1073762578
 1088 0176 40F64021 		movw	r1, #:lower16:1207962176
 1089 017a C4F60001 		movt	r1, #:upper16:1207962176
 1090 017e 4FF00802 		mov	r2, #8
 1091 0182 FFF7FEFF 		bl	memcpy
 483:./Generated_Source/PSoC5/cyfitter_cfg.c **** 	CYCONFIGCPY((void CYFAR *)(CYREG_PRT2_DM0), (void CYFAR *)(BS_IOPINS0_2_VAL), 8);
 1092              		.loc 1 483 0
 1093 0186 45F22210 		movw	r0, #:lower16:1073762594
 1094 018a C4F20000 		movt	r0, #:upper16:1073762594
 1095 018e 40F64821 		movw	r1, #:lower16:1207962184
 1096 0192 C4F60001 		movt	r1, #:upper16:1207962184
 1097 0196 4FF00802 		mov	r2, #8
 1098 019a FFF7FEFF 		bl	memcpy
 484:./Generated_Source/PSoC5/cyfitter_cfg.c **** 	/* BYTES WRITTEN: 16 */
 485:./Generated_Source/PSoC5/cyfitter_cfg.c **** 
 486:./Generated_Source/PSoC5/cyfitter_cfg.c **** 	CY_SET_XTND_REG8((void CYFAR *)(CYREG_CACHE_CC_CTL), ((CYDEV_INSTRUCT_CACHE_ENABLED) ? 0x00 : 0x01
 1099              		.loc 1 486 0
 1100 019e 44F60003 		movw	r3, #:lower16:1073760256
 1101 01a2 C4F20003 		movt	r3, #:upper16:1073760256
 1102 01a6 4FF00002 		mov	r2, #0
 1103 01aa 1A70     		strb	r2, [r3, #0]
 487:./Generated_Source/PSoC5/cyfitter_cfg.c **** 	ClockSetup();
 1104              		.loc 1 487 0
 1105 01ac FFF7FEFF 		bl	ClockSetup
ARM GAS  C:\Users\CHARLI~1\AppData\Local\Temp\ccYyN2mF.s 			page 29


 488:./Generated_Source/PSoC5/cyfitter_cfg.c **** 	CY_SET_XTND_REG8((void CYFAR *)(CYREG_CACHE_CC_CTL), ((CYDEV_INSTRUCT_CACHE_ENABLED) ? 0x80 : 0x81
 1106              		.loc 1 488 0
 1107 01b0 44F60003 		movw	r3, #:lower16:1073760256
 1108 01b4 C4F20003 		movt	r3, #:upper16:1073760256
 1109 01b8 6FF07F02 		mvn	r2, #127
 1110 01bc 1A70     		strb	r2, [r3, #0]
 489:./Generated_Source/PSoC5/cyfitter_cfg.c **** 
 490:./Generated_Source/PSoC5/cyfitter_cfg.c **** 	AnalogSetDefault();
 1111              		.loc 1 490 0
 1112 01be FFF7FEFF 		bl	AnalogSetDefault
 491:./Generated_Source/PSoC5/cyfitter_cfg.c **** 
 492:./Generated_Source/PSoC5/cyfitter_cfg.c **** 	/* Configure alternate active mode */
 493:./Generated_Source/PSoC5/cyfitter_cfg.c **** 	CYCONFIGCPY((void CYFAR *)CYDEV_PM_STBY_BASE, (void CYFAR *)CYDEV_PM_ACT_BASE, 12);
 1113              		.loc 1 493 0
 1114 01c2 44F2B030 		movw	r0, #:lower16:1073759152
 1115 01c6 C4F20000 		movt	r0, #:upper16:1073759152
 1116 01ca 44F2A031 		movw	r1, #:lower16:1073759136
 1117 01ce C4F20001 		movt	r1, #:upper16:1073759136
 1118 01d2 4FF00C02 		mov	r2, #12
 1119 01d6 FFF7FEFF 		bl	memcpy
 494:./Generated_Source/PSoC5/cyfitter_cfg.c **** 	CY_SET_XTND_REG8(CYREG_PM_STBY_CFG0, CY_GET_XTND_REG8(CYREG_PM_STBY_CFG0) & ~0x02u);	/* Disable CP
 1120              		.loc 1 494 0
 1121 01da 44F2B033 		movw	r3, #:lower16:1073759152
 1122 01de C4F20003 		movt	r3, #:upper16:1073759152
 1123 01e2 44F2B032 		movw	r2, #:lower16:1073759152
 1124 01e6 C4F20002 		movt	r2, #:upper16:1073759152
 1125 01ea 1278     		ldrb	r2, [r2, #0]
 1126 01ec D2B2     		uxtb	r2, r2
 1127 01ee 02F0FD02 		and	r2, r2, #253
 1128 01f2 1A70     		strb	r2, [r3, #0]
 495:./Generated_Source/PSoC5/cyfitter_cfg.c **** }
 1129              		.loc 1 495 0
 1130 01f4 80BD     		pop	{r7, pc}
 1131              		.cfi_endproc
 1132              	.LFE6:
 1133              		.size	cyfitter_cfg, .-cyfitter_cfg
 1134 01f6 00BF     		.text
 1135              	.Letext0: