ARM GAS  C:\Users\CHARLI~1\AppData\Local\Temp\ccYyN2mF.s 			page 1


   1              		.syntax unified
   2              		.cpu cortex-m3
   3              		.fpu softvfp
   4              		.eabi_attribute 20, 1
   5              		.eabi_attribute 21, 1
   6              		.eabi_attribute 23, 3
   7              		.eabi_attribute 24, 1
   8              		.eabi_attribute 25, 1
   9              		.eabi_attribute 26, 1
  10              		.eabi_attribute 30, 6
  11              		.eabi_attribute 18, 4
  12              		.thumb
  13              		.file	"cyfitter_cfg.c"
  14              		.section	.debug_abbrev,"",%progbits
  15              	.Ldebug_abbrev0:
  16              		.section	.debug_info,"",%progbits
  17              	.Ldebug_info0:
  18              		.section	.debug_line,"",%progbits
  19              	.Ldebug_line0:
  20 0000 38010000 		.text
  20      02005700 
  20      00000201 
  20      FB0E0D00 
  20      01010101 
  21              	.Ltext0:
  22              		.cfi_sections	.debug_frame
  23              		.section	.text.CyClockStartupError,"ax",%progbits
  24              		.align	2
  25              		.thumb
  26              		.thumb_func
  27              		.type	CyClockStartupError, %function
  28              	CyClockStartupError:
  29              	.LFB0:
  30              		.file 1 "./Generated_Source/PSoC5/cyfitter_cfg.c"
   1:./Generated_Source/PSoC5/cyfitter_cfg.c **** /*******************************************************************************
   2:./Generated_Source/PSoC5/cyfitter_cfg.c **** * FILENAME: cyfitter_cfg.c
   3:./Generated_Source/PSoC5/cyfitter_cfg.c **** * PSoC Creator 1.0 Service Pack 2
   4:./Generated_Source/PSoC5/cyfitter_cfg.c **** *
   5:./Generated_Source/PSoC5/cyfitter_cfg.c **** * Description:
   6:./Generated_Source/PSoC5/cyfitter_cfg.c **** * This file contains device initialization code. This file is automatically
   7:./Generated_Source/PSoC5/cyfitter_cfg.c **** * generated by PSoC Creator.
   8:./Generated_Source/PSoC5/cyfitter_cfg.c **** *
   9:./Generated_Source/PSoC5/cyfitter_cfg.c **** ********************************************************************************
  10:./Generated_Source/PSoC5/cyfitter_cfg.c **** * Copyright 2010, Cypress Semiconductor Corporation.  All rights reserved.
  11:./Generated_Source/PSoC5/cyfitter_cfg.c **** * You may use this file only in accordance with the license, terms, conditions, 
  12:./Generated_Source/PSoC5/cyfitter_cfg.c **** * disclaimers, and limitations in the end user license agreement accompanying 
  13:./Generated_Source/PSoC5/cyfitter_cfg.c **** * the software package with which this file was provided.
  14:./Generated_Source/PSoC5/cyfitter_cfg.c **** ********************************************************************************/
  15:./Generated_Source/PSoC5/cyfitter_cfg.c **** 
  16:./Generated_Source/PSoC5/cyfitter_cfg.c **** #include <string.h>
  17:./Generated_Source/PSoC5/cyfitter_cfg.c **** #include <cytypes.h>
  18:./Generated_Source/PSoC5/cyfitter_cfg.c **** #include <cydevice_trm.h>
  19:./Generated_Source/PSoC5/cyfitter_cfg.c **** #include <cyfitter.h>
  20:./Generated_Source/PSoC5/cyfitter_cfg.c **** #include <CyLib.h>
  21:./Generated_Source/PSoC5/cyfitter_cfg.c **** #include <CyDmac.h>
  22:./Generated_Source/PSoC5/cyfitter_cfg.c **** #include <cyfitter_cfg.h>
  23:./Generated_Source/PSoC5/cyfitter_cfg.c **** 
ARM GAS  C:\Users\CHARLI~1\AppData\Local\Temp\ccYyN2mF.s 			page 2


  24:./Generated_Source/PSoC5/cyfitter_cfg.c **** /* Clock startup error codes                                                   */
  25:./Generated_Source/PSoC5/cyfitter_cfg.c **** #define CYCLOCKSTART_NO_ERROR    0
  26:./Generated_Source/PSoC5/cyfitter_cfg.c **** #define CYCLOCKSTART_XTAL_ERROR  1
  27:./Generated_Source/PSoC5/cyfitter_cfg.c **** #define CYCLOCKSTART_32KHZ_ERROR 2
  28:./Generated_Source/PSoC5/cyfitter_cfg.c **** #define CYCLOCKSTART_PLL_ERROR   3
  29:./Generated_Source/PSoC5/cyfitter_cfg.c **** 
  30:./Generated_Source/PSoC5/cyfitter_cfg.c **** /*******************************************************************************
  31:./Generated_Source/PSoC5/cyfitter_cfg.c **** * Function Name: CyClockStartupError
  32:./Generated_Source/PSoC5/cyfitter_cfg.c **** ********************************************************************************
  33:./Generated_Source/PSoC5/cyfitter_cfg.c **** * Summary:
  34:./Generated_Source/PSoC5/cyfitter_cfg.c **** *  If an error is encountered during clock configuration (crystal startup error,
  35:./Generated_Source/PSoC5/cyfitter_cfg.c **** *  PLL lock error, etc) the system will end up here.  Unless reimplemented by 
  36:./Generated_Source/PSoC5/cyfitter_cfg.c **** *  the customer, an infinite loop will be encountered.
  37:./Generated_Source/PSoC5/cyfitter_cfg.c **** *
  38:./Generated_Source/PSoC5/cyfitter_cfg.c **** * Parameters:  
  39:./Generated_Source/PSoC5/cyfitter_cfg.c **** *   void.
  40:./Generated_Source/PSoC5/cyfitter_cfg.c **** *
  41:./Generated_Source/PSoC5/cyfitter_cfg.c **** *
  42:./Generated_Source/PSoC5/cyfitter_cfg.c **** * Return:
  43:./Generated_Source/PSoC5/cyfitter_cfg.c **** *   void.
  44:./Generated_Source/PSoC5/cyfitter_cfg.c **** *
  45:./Generated_Source/PSoC5/cyfitter_cfg.c **** *******************************************************************************/
  46:./Generated_Source/PSoC5/cyfitter_cfg.c **** #if defined(__GNUC__) || defined(__ARMCC_VERSION)
  47:./Generated_Source/PSoC5/cyfitter_cfg.c **** __attribute__ ((unused))
  48:./Generated_Source/PSoC5/cyfitter_cfg.c **** #endif
  49:./Generated_Source/PSoC5/cyfitter_cfg.c **** static void CyClockStartupError(uint8 errorCode)
  50:./Generated_Source/PSoC5/cyfitter_cfg.c **** {
  31              		.loc 1 50 0
  32              		.cfi_startproc
  33              		@ args = 0, pretend = 0, frame = 8
  34              		@ frame_needed = 1, uses_anonymous_args = 0
  35              		@ link register save eliminated.
  36 0000 80B4     		push	{r7}
  37              	.LCFI0:
  38              		.cfi_def_cfa_offset 4
  39 0002 83B0     		sub	sp, sp, #12
  40              	.LCFI1:
  41              		.cfi_def_cfa_offset 16
  42 0004 00AF     		add	r7, sp, #0
  43              		.cfi_offset 7, -4
  44              	.LCFI2:
  45              		.cfi_def_cfa_register 7
  46 0006 0346     		mov	r3, r0
  47 0008 FB71     		strb	r3, [r7, #7]
  48              	.L2:
  51:./Generated_Source/PSoC5/cyfitter_cfg.c ****     /* To remove the compiler warning if errorCode not used.                */
  52:./Generated_Source/PSoC5/cyfitter_cfg.c ****     errorCode = errorCode;
  53:./Generated_Source/PSoC5/cyfitter_cfg.c **** 
  54:./Generated_Source/PSoC5/cyfitter_cfg.c ****     /* `#START CyClockStartupError` */
  55:./Generated_Source/PSoC5/cyfitter_cfg.c **** 
  56:./Generated_Source/PSoC5/cyfitter_cfg.c ****     /* If we have a clock startup error (bad MHz crystal, PLL lock, etc)    */
  57:./Generated_Source/PSoC5/cyfitter_cfg.c ****     /* we will end up here to allow the customer to implement something to  */
  58:./Generated_Source/PSoC5/cyfitter_cfg.c ****     /* deal with the clock condition.                                       */
  59:./Generated_Source/PSoC5/cyfitter_cfg.c **** 
  60:./Generated_Source/PSoC5/cyfitter_cfg.c ****     /* `#END` */
  61:./Generated_Source/PSoC5/cyfitter_cfg.c **** 
  62:./Generated_Source/PSoC5/cyfitter_cfg.c ****     /* If nothing else, stop here since the clocks have not started         */
ARM GAS  C:\Users\CHARLI~1\AppData\Local\Temp\ccYyN2mF.s 			page 3


  63:./Generated_Source/PSoC5/cyfitter_cfg.c ****     /* correctly.                                                           */
  64:./Generated_Source/PSoC5/cyfitter_cfg.c ****     while(1) {}
  49              		.loc 1 64 0
  50 000a FEE7     		b	.L2
  51              		.cfi_endproc
  52              	.LFE0:
  53              		.size	CyClockStartupError, .-CyClockStartupError
  54              		.section	.text.cymemzero8,"ax",%progbits
  55              		.align	2
  56              		.thumb
  57              		.thumb_func
  58              		.type	cymemzero8, %function
  59              	cymemzero8:
  60              	.LFB1:
  65:./Generated_Source/PSoC5/cyfitter_cfg.c **** }
  66:./Generated_Source/PSoC5/cyfitter_cfg.c **** 
  67:./Generated_Source/PSoC5/cyfitter_cfg.c **** /* This file contains the data used to initialize the device. */
  68:./Generated_Source/PSoC5/cyfitter_cfg.c **** 
  69:./Generated_Source/PSoC5/cyfitter_cfg.c **** #undef CYCODE
  70:./Generated_Source/PSoC5/cyfitter_cfg.c **** #undef CYDATA
  71:./Generated_Source/PSoC5/cyfitter_cfg.c **** #undef CYXDATA
  72:./Generated_Source/PSoC5/cyfitter_cfg.c **** #undef CYFAR
  73:./Generated_Source/PSoC5/cyfitter_cfg.c **** #if defined(__C51__) || defined(__CX51__)
  74:./Generated_Source/PSoC5/cyfitter_cfg.c **** #define CYCODE code
  75:./Generated_Source/PSoC5/cyfitter_cfg.c **** #define CYDATA data
  76:./Generated_Source/PSoC5/cyfitter_cfg.c **** #define CYXDATA xdata
  77:./Generated_Source/PSoC5/cyfitter_cfg.c **** #define CYFAR far
  78:./Generated_Source/PSoC5/cyfitter_cfg.c **** extern void cymemzero(void CYFAR *addr, uint16 size);
  79:./Generated_Source/PSoC5/cyfitter_cfg.c **** extern void cyconfigcpy(uint16 size, const void CYFAR *src, void CYFAR *dest) small;
  80:./Generated_Source/PSoC5/cyfitter_cfg.c **** extern void cyconfigcpycode(uint16 size, const void CYCODE *src, void CYFAR *dest);
  81:./Generated_Source/PSoC5/cyfitter_cfg.c **** #define CYMEMZERO(a,c) cymemzero((a),(c))
  82:./Generated_Source/PSoC5/cyfitter_cfg.c **** #define CYCONFIGCPY(d,s,c) cyconfigcpy((c),(s),(d))
  83:./Generated_Source/PSoC5/cyfitter_cfg.c **** #define CYCONFIGCPYCODE(d,s,c) cyconfigcpycode((c),(s),(d))
  84:./Generated_Source/PSoC5/cyfitter_cfg.c **** #else
  85:./Generated_Source/PSoC5/cyfitter_cfg.c **** #define CYCODE
  86:./Generated_Source/PSoC5/cyfitter_cfg.c **** #define CYDATA
  87:./Generated_Source/PSoC5/cyfitter_cfg.c **** #define CYXDATA
  88:./Generated_Source/PSoC5/cyfitter_cfg.c **** #define CYFAR
  89:./Generated_Source/PSoC5/cyfitter_cfg.c **** #define CYMEMZERO(a,c) cymemset((a),0,(c))
  90:./Generated_Source/PSoC5/cyfitter_cfg.c **** #define CYCONFIGCPY(d,s,c) cymemcpy((d),(s),(c))
  91:./Generated_Source/PSoC5/cyfitter_cfg.c **** #define CYCONFIGCPYCODE(d,s,c) cymemcpy((d),(s),(c))
  92:./Generated_Source/PSoC5/cyfitter_cfg.c **** #endif
  93:./Generated_Source/PSoC5/cyfitter_cfg.c **** 
  94:./Generated_Source/PSoC5/cyfitter_cfg.c **** #if defined(__GNUC__) || defined(__ARMCC_VERSION)
  95:./Generated_Source/PSoC5/cyfitter_cfg.c **** #define CYPACKED __attribute__ ((packed))
  96:./Generated_Source/PSoC5/cyfitter_cfg.c **** #define CYALIGNED __attribute__ ((aligned))
  97:./Generated_Source/PSoC5/cyfitter_cfg.c **** #if CYDEV_CONFIGURATION_DMA
  98:./Generated_Source/PSoC5/cyfitter_cfg.c **** #define DMAINITSEC __attribute__ ((section (".dma_init")))
  99:./Generated_Source/PSoC5/cyfitter_cfg.c **** #else
 100:./Generated_Source/PSoC5/cyfitter_cfg.c **** #define DMAINITSEC
 101:./Generated_Source/PSoC5/cyfitter_cfg.c **** #endif
 102:./Generated_Source/PSoC5/cyfitter_cfg.c **** #if defined(__ARMCC_VERSION)
 103:./Generated_Source/PSoC5/cyfitter_cfg.c **** #define CY_CFG_MEMORY_BARRIER() __memory_changed()
 104:./Generated_Source/PSoC5/cyfitter_cfg.c **** #else
 105:./Generated_Source/PSoC5/cyfitter_cfg.c **** #define CY_CFG_MEMORY_BARRIER() __sync_synchronize()
 106:./Generated_Source/PSoC5/cyfitter_cfg.c **** #endif
 107:./Generated_Source/PSoC5/cyfitter_cfg.c **** #else
ARM GAS  C:\Users\CHARLI~1\AppData\Local\Temp\ccYyN2mF.s 			page 4


 108:./Generated_Source/PSoC5/cyfitter_cfg.c **** /* Keil C51 and others */
 109:./Generated_Source/PSoC5/cyfitter_cfg.c **** #define CYPACKED
 110:./Generated_Source/PSoC5/cyfitter_cfg.c **** #define CYALIGNED
 111:./Generated_Source/PSoC5/cyfitter_cfg.c **** #define DMAINITSEC
 112:./Generated_Source/PSoC5/cyfitter_cfg.c **** #define CY_CFG_MEMORY_BARRIER()
 113:./Generated_Source/PSoC5/cyfitter_cfg.c **** #endif
 114:./Generated_Source/PSoC5/cyfitter_cfg.c **** 
 115:./Generated_Source/PSoC5/cyfitter_cfg.c **** typedef struct {
 116:./Generated_Source/PSoC5/cyfitter_cfg.c **** 	void CYFAR *address;
 117:./Generated_Source/PSoC5/cyfitter_cfg.c **** 	uint16 size;
 118:./Generated_Source/PSoC5/cyfitter_cfg.c **** } CYPACKED cfg_memset_t;
 119:./Generated_Source/PSoC5/cyfitter_cfg.c **** 
 120:./Generated_Source/PSoC5/cyfitter_cfg.c **** typedef struct {
 121:./Generated_Source/PSoC5/cyfitter_cfg.c **** 	void CYFAR *dest;
 122:./Generated_Source/PSoC5/cyfitter_cfg.c **** 	const void CYFAR *src;
 123:./Generated_Source/PSoC5/cyfitter_cfg.c **** 	uint16 size;
 124:./Generated_Source/PSoC5/cyfitter_cfg.c **** } CYPACKED cfg_memcpy_t;
 125:./Generated_Source/PSoC5/cyfitter_cfg.c **** 
 126:./Generated_Source/PSoC5/cyfitter_cfg.c **** /* TD structure for little-endian systems
 127:./Generated_Source/PSoC5/cyfitter_cfg.c ****  * Does not require endian swap */
 128:./Generated_Source/PSoC5/cyfitter_cfg.c **** struct td_t {
 129:./Generated_Source/PSoC5/cyfitter_cfg.c **** 	uint16 size;
 130:./Generated_Source/PSoC5/cyfitter_cfg.c **** 	uint8 next_td_ptr;
 131:./Generated_Source/PSoC5/cyfitter_cfg.c **** 	uint8 flags;
 132:./Generated_Source/PSoC5/cyfitter_cfg.c **** 	uint16 src;
 133:./Generated_Source/PSoC5/cyfitter_cfg.c **** 	uint16 dest;
 134:./Generated_Source/PSoC5/cyfitter_cfg.c **** } CYPACKED;
 135:./Generated_Source/PSoC5/cyfitter_cfg.c **** 
 136:./Generated_Source/PSoC5/cyfitter_cfg.c **** 
 137:./Generated_Source/PSoC5/cyfitter_cfg.c **** #if defined(__C51__) || defined(__CX51__)
 138:./Generated_Source/PSoC5/cyfitter_cfg.c **** #define CYMEMZERO8(a,c) cymemzero((a),(c))
 139:./Generated_Source/PSoC5/cyfitter_cfg.c **** #define CYCONFIGCPY8(d,s,c) cyconfigcpy((c),(s),(d))
 140:./Generated_Source/PSoC5/cyfitter_cfg.c **** #define CYCONFIGCPYCODE8(d,s,c) cyconfigcpycode((c),(s),(d))
 141:./Generated_Source/PSoC5/cyfitter_cfg.c **** #else
 142:./Generated_Source/PSoC5/cyfitter_cfg.c **** #if defined(__GNUC__) || defined(__ARMCC_VERSION)
 143:./Generated_Source/PSoC5/cyfitter_cfg.c **** __attribute__ ((unused))
 144:./Generated_Source/PSoC5/cyfitter_cfg.c **** #endif
 145:./Generated_Source/PSoC5/cyfitter_cfg.c **** static void cymemzero8(void *addr, unsigned int count)
 146:./Generated_Source/PSoC5/cyfitter_cfg.c **** {
  61              		.loc 1 146 0
  62              		.cfi_startproc
  63              		@ args = 0, pretend = 0, frame = 16
  64              		@ frame_needed = 1, uses_anonymous_args = 0
  65              		@ link register save eliminated.
  66 0000 80B4     		push	{r7}
  67              	.LCFI3:
  68              		.cfi_def_cfa_offset 4
  69 0002 85B0     		sub	sp, sp, #20
  70              	.LCFI4:
  71              		.cfi_def_cfa_offset 24
  72 0004 00AF     		add	r7, sp, #0
  73              		.cfi_offset 7, -4
  74              	.LCFI5:
  75              		.cfi_def_cfa_register 7
  76 0006 7860     		str	r0, [r7, #4]
  77 0008 3960     		str	r1, [r7, #0]
 147:./Generated_Source/PSoC5/cyfitter_cfg.c **** 	volatile uint8 *addr8 = (uint8 *)addr;
ARM GAS  C:\Users\CHARLI~1\AppData\Local\Temp\ccYyN2mF.s 			page 5


  78              		.loc 1 147 0
  79 000a 7B68     		ldr	r3, [r7, #4]
  80 000c FB60     		str	r3, [r7, #12]
 148:./Generated_Source/PSoC5/cyfitter_cfg.c **** 	while (count--)
  81              		.loc 1 148 0
  82 000e 07E0     		b	.L5
  83              	.L6:
 149:./Generated_Source/PSoC5/cyfitter_cfg.c **** 	{
 150:./Generated_Source/PSoC5/cyfitter_cfg.c **** 		*addr8 = 0;
  84              		.loc 1 150 0
  85 0010 FB68     		ldr	r3, [r7, #12]
  86 0012 4FF00002 		mov	r2, #0
  87 0016 1A70     		strb	r2, [r3, #0]
 151:./Generated_Source/PSoC5/cyfitter_cfg.c **** 		addr8++;
  88              		.loc 1 151 0
  89 0018 FB68     		ldr	r3, [r7, #12]
  90 001a 03F10103 		add	r3, r3, #1
  91 001e FB60     		str	r3, [r7, #12]
  92              	.L5:
  93              		.loc 1 148 0
  94 0020 3B68     		ldr	r3, [r7, #0]
  95 0022 002B     		cmp	r3, #0
  96 0024 0CBF     		ite	eq
  97 0026 0023     		moveq	r3, #0
  98 0028 0123     		movne	r3, #1
  99 002a DBB2     		uxtb	r3, r3
 100 002c 3A68     		ldr	r2, [r7, #0]
 101 002e 02F1FF32 		add	r2, r2, #-1
 102 0032 3A60     		str	r2, [r7, #0]
 103 0034 002B     		cmp	r3, #0
 104 0036 EBD1     		bne	.L6
 152:./Generated_Source/PSoC5/cyfitter_cfg.c **** 	}
 153:./Generated_Source/PSoC5/cyfitter_cfg.c **** }
 105              		.loc 1 153 0
 106 0038 07F11407 		add	r7, r7, #20
 107 003c BD46     		mov	sp, r7
 108 003e 80BC     		pop	{r7}
 109 0040 7047     		bx	lr
 110              		.cfi_endproc
 111              	.LFE1:
 112              		.size	cymemzero8, .-cymemzero8
 113 0042 00BF     		.section	.text.cymemcpy8,"ax",%progbits
 114              		.align	2
 115              		.thumb
 116              		.thumb_func
 117              		.type	cymemcpy8, %function
 118              	cymemcpy8:
 119              	.LFB2:
 154:./Generated_Source/PSoC5/cyfitter_cfg.c **** 
 155:./Generated_Source/PSoC5/cyfitter_cfg.c **** #if defined(__GNUC__) || defined(__ARMCC_VERSION)
 156:./Generated_Source/PSoC5/cyfitter_cfg.c **** __attribute__ ((unused))
 157:./Generated_Source/PSoC5/cyfitter_cfg.c **** #endif
 158:./Generated_Source/PSoC5/cyfitter_cfg.c **** static void cymemcpy8(void *dest, const void *src, unsigned int count)
 159:./Generated_Source/PSoC5/cyfitter_cfg.c **** {
 120              		.loc 1 159 0
 121              		.cfi_startproc
 122              		@ args = 0, pretend = 0, frame = 24
ARM GAS  C:\Users\CHARLI~1\AppData\Local\Temp\ccYyN2mF.s 			page 6


 123              		@ frame_needed = 1, uses_anonymous_args = 0
 124              		@ link register save eliminated.
 125 0000 80B4     		push	{r7}
 126              	.LCFI6:
 127              		.cfi_def_cfa_offset 4
 128 0002 87B0     		sub	sp, sp, #28
 129              	.LCFI7:
 130              		.cfi_def_cfa_offset 32
 131 0004 00AF     		add	r7, sp, #0
 132              		.cfi_offset 7, -4
 133              	.LCFI8:
 134              		.cfi_def_cfa_register 7
 135 0006 F860     		str	r0, [r7, #12]
 136 0008 B960     		str	r1, [r7, #8]
 137 000a 7A60     		str	r2, [r7, #4]
 160:./Generated_Source/PSoC5/cyfitter_cfg.c **** 	volatile uint8 *dest8 = (uint8 *)dest;
 138              		.loc 1 160 0
 139 000c FB68     		ldr	r3, [r7, #12]
 140 000e 3B61     		str	r3, [r7, #16]
 161:./Generated_Source/PSoC5/cyfitter_cfg.c **** 	const uint8 *src8 = (const uint8 *)src;
 141              		.loc 1 161 0
 142 0010 BB68     		ldr	r3, [r7, #8]
 143 0012 7B61     		str	r3, [r7, #20]
 162:./Generated_Source/PSoC5/cyfitter_cfg.c **** 
 163:./Generated_Source/PSoC5/cyfitter_cfg.c **** 	while (count--)
 144              		.loc 1 163 0
 145 0014 0BE0     		b	.L9
 146              	.L10:
 164:./Generated_Source/PSoC5/cyfitter_cfg.c **** 	{
 165:./Generated_Source/PSoC5/cyfitter_cfg.c **** 		*dest8 = *src8;
 147              		.loc 1 165 0
 148 0016 7B69     		ldr	r3, [r7, #20]
 149 0018 1A78     		ldrb	r2, [r3, #0]	@ zero_extendqisi2
 150 001a 3B69     		ldr	r3, [r7, #16]
 151 001c 1A70     		strb	r2, [r3, #0]
 166:./Generated_Source/PSoC5/cyfitter_cfg.c **** 		dest8++;
 152              		.loc 1 166 0
 153 001e 3B69     		ldr	r3, [r7, #16]
 154 0020 03F10103 		add	r3, r3, #1
 155 0024 3B61     		str	r3, [r7, #16]
 167:./Generated_Source/PSoC5/cyfitter_cfg.c **** 		src8++;
 156              		.loc 1 167 0
 157 0026 7B69     		ldr	r3, [r7, #20]
 158 0028 03F10103 		add	r3, r3, #1
 159 002c 7B61     		str	r3, [r7, #20]
 160              	.L9:
 161              		.loc 1 163 0
 162 002e 7B68     		ldr	r3, [r7, #4]
 163 0030 002B     		cmp	r3, #0
 164 0032 0CBF     		ite	eq
 165 0034 0023     		moveq	r3, #0
 166 0036 0123     		movne	r3, #1
 167 0038 DBB2     		uxtb	r3, r3
 168 003a 7A68     		ldr	r2, [r7, #4]
 169 003c 02F1FF32 		add	r2, r2, #-1
 170 0040 7A60     		str	r2, [r7, #4]
 171 0042 002B     		cmp	r3, #0
ARM GAS  C:\Users\CHARLI~1\AppData\Local\Temp\ccYyN2mF.s 			page 7


 172 0044 E7D1     		bne	.L10
 168:./Generated_Source/PSoC5/cyfitter_cfg.c **** 	}
 169:./Generated_Source/PSoC5/cyfitter_cfg.c **** }
 173              		.loc 1 169 0
 174 0046 07F11C07 		add	r7, r7, #28
 175 004a BD46     		mov	sp, r7
 176 004c 80BC     		pop	{r7}
 177 004e 7047     		bx	lr
 178              		.cfi_endproc
 179              	.LFE2:
 180              		.size	cymemcpy8, .-cymemcpy8
 181              		.section	.dma_init,"a",%progbits
 182              		.align	2
 183              		.type	CH1_ADDR_DATA0, %object
 184              		.size	CH1_ADDR_DATA0, 8
 185              	CH1_ADDR_DATA0:
 186 0000 01       		.byte	1
 187 0001 00       		.byte	0
 188 0002 00       		.byte	0
 189 0003 00       		.byte	0
 190 0004 00       		.byte	0
 191 0005 20       		.byte	32
 192 0006 00       		.byte	0
 193 0007 40       		.byte	64
 194              		.align	2
 195              		.type	CH2_ADDR_DATA0, %object
 196              		.size	CH2_ADDR_DATA0, 8
 197              	CH2_ADDR_DATA0:
 198 0008 01       		.byte	1
 199 0009 00       		.byte	0
 200 000a 00       		.byte	0
 201 000b 00       		.byte	0
 202 000c 00       		.byte	0
 203 000d 20       		.byte	32
 204 000e 01       		.byte	1
 205 000f 40       		.byte	64
 206              		.align	2
 207              		.type	CH5_ADDR_DATA0, %object
 208              		.size	CH5_ADDR_DATA0, 8
 209              	CH5_ADDR_DATA0:
 210 0010 01       		.byte	1
 211 0011 00       		.byte	0
 212 0012 00       		.byte	0
 213 0013 00       		.byte	0
 214 0014 00       		.byte	0
 215 0015 48       		.byte	72
 216 0016 00       		.byte	0
 217 0017 40       		.byte	64
 218              		.align	2
 219              		.type	CH6_ADDR_DATA0, %object
 220              		.size	CH6_ADDR_DATA0, 8
 221              	CH6_ADDR_DATA0:
 222 0018 01       		.byte	1
 223 0019 00       		.byte	0
 224 001a 00       		.byte	0
 225 001b 00       		.byte	0
 226 001c 00       		.byte	0
ARM GAS  C:\Users\CHARLI~1\AppData\Local\Temp\ccYyN2mF.s 			page 8


 227 001d 48       		.byte	72
 228 001e 01       		.byte	1
 229 001f 40       		.byte	64
 230              		.align	2
 231              		.type	DMA_TD_START_CMD, %object
 232              		.size	DMA_TD_START_CMD, 5
 233              	DMA_TD_START_CMD:
 234 0020 01       		.byte	1
 235 0021 00       		.byte	0
 236 0022 00       		.byte	0
 237 0023 00       		.byte	0
 238 0024 01       		.byte	1
 239              		.bss
 240              		.align	3
 241              	DMA_ZERO_VAL:
 242 0000 00000000 		.space	4
 243 0004 00000000 		.section	.dma_init
 244 0025 000000   		.align	2
 245              		.type	CFG_TD_LIST0, %object
 246              		.size	CFG_TD_LIST0, 344
 247              	CFG_TD_LIST0:
 248 0028 0800     		.short	8
 249 002a 02       		.byte	2
 250 002b 23       		.byte	35
 251 002c 0000     		.short	0
 252 002e 0876     		.short	30216
 253 0030 0800     		.short	8
 254 0032 03       		.byte	3
 255 0033 23       		.byte	35
 256 0034 0000     		.short	0
 257 0036 1076     		.short	30224
 258 0038 0800     		.short	8
 259 003a 04       		.byte	4
 260 003b 23       		.byte	35
 261 003c 0000     		.short	0
 262 003e 2876     		.short	30248
 263 0040 0800     		.short	8
 264 0042 05       		.byte	5
 265 0043 23       		.byte	35
 266 0044 0000     		.short	0
 267 0046 3076     		.short	30256
 268 0048 0500     		.short	5
 269 004a 06       		.byte	6
 270 004b 23       		.byte	35
 271 004c 0000     		.short	0
 272 004e 2070     		.short	28704
 273 0050 0500     		.short	5
 274 0052 07       		.byte	7
 275 0053 23       		.byte	35
 276 0054 0000     		.short	0
 277 0056 3070     		.short	28720
 278 0058 0500     		.short	5
 279 005a 08       		.byte	8
 280 005b 23       		.byte	35
 281 005c 0000     		.short	0
 282 005e 6070     		.short	28768
 283 0060 0500     		.short	5
ARM GAS  C:\Users\CHARLI~1\AppData\Local\Temp\ccYyN2mF.s 			page 9


 284 0062 FF       		.byte	-1
 285 0063 23       		.byte	35
 286 0064 0000     		.short	0
 287 0066 7070     		.short	28784
 288 0068 1000     		.short	16
 289 006a 0A       		.byte	10
 290 006b 22       		.byte	34
 291 006c 0000     		.short	0
 292 006e 0051     		.short	20736
 293 0070 4000     		.short	64
 294 0072 0B       		.byte	11
 295 0073 22       		.byte	34
 296 0074 0000     		.short	0
 297 0076 3051     		.short	20784
 298 0078 1000     		.short	16
 299 007a 0C       		.byte	12
 300 007b 22       		.byte	34
 301 007c 0000     		.short	0
 302 007e C051     		.short	20928
 303 0080 1000     		.short	16
 304 0082 FF       		.byte	-1
 305 0083 22       		.byte	34
 306 0084 0000     		.short	0
 307 0086 F051     		.short	20976
 308 0088 0004     		.short	1024
 309 008a 0E       		.byte	14
 310 008b 22       		.byte	34
 311 008c 0000     		.short	0
 312 008e 0000     		.short	0
 313 0090 8000     		.short	128
 314 0092 0F       		.byte	15
 315 0093 22       		.byte	34
 316 0094 0000     		.short	0
 317 0096 0006     		.short	1536
 318 0098 0008     		.short	2048
 319 009a 10       		.byte	16
 320 009b 22       		.byte	34
 321 009c 0000     		.short	0
 322 009e 0008     		.short	2048
 323 00a0 8001     		.short	384
 324 00a2 11       		.byte	17
 325 00a3 22       		.byte	34
 326 00a4 0000     		.short	0
 327 00a6 0014     		.short	5120
 328 00a8 8001     		.short	384
 329 00aa 12       		.byte	18
 330 00ab 22       		.byte	34
 331 00ac 0000     		.short	0
 332 00ae 0018     		.short	6144
 333 00b0 8001     		.short	384
 334 00b2 13       		.byte	19
 335 00b3 22       		.byte	34
 336 00b4 0000     		.short	0
 337 00b6 001A     		.short	6656
 338 00b8 0008     		.short	2048
 339 00ba 14       		.byte	20
 340 00bb 22       		.byte	34
ARM GAS  C:\Users\CHARLI~1\AppData\Local\Temp\ccYyN2mF.s 			page 10


 341 00bc 0000     		.short	0
 342 00be 0040     		.short	16384
 343 00c0 0001     		.short	256
 344 00c2 FF       		.byte	-1
 345 00c3 22       		.byte	34
 346 00c4 0000     		.short	0
 347 00c6 004C     		.short	19456
 348 00c8 2000     		.short	32
 349 00ca FF       		.byte	-1
 350 00cb 23       		.byte	35
 351 00cc 0000     		.short	0
 352 00ce 7064     		.short	25712
 353 00d0 8000     		.short	128
 354 00d2 17       		.byte	23
 355 00d3 23       		.byte	35
 356 00d4 0000     		.short	0
 357 00d6 0004     		.short	1024
 358 00d8 8000     		.short	128
 359 00da 18       		.byte	24
 360 00db 23       		.byte	35
 361 00dc 0000     		.short	0
 362 00de 8004     		.short	1152
 363 00e0 8000     		.short	128
 364 00e2 19       		.byte	25
 365 00e3 23       		.byte	35
 366 00e4 0000     		.short	0
 367 00e6 8006     		.short	1664
 368 00e8 8000     		.short	128
 369 00ea 1A       		.byte	26
 370 00eb 23       		.byte	35
 371 00ec 0000     		.short	0
 372 00ee 0016     		.short	5632
 373 00f0 8000     		.short	128
 374 00f2 1B       		.byte	27
 375 00f3 23       		.byte	35
 376 00f4 0000     		.short	0
 377 00f6 8016     		.short	5760
 378 00f8 8000     		.short	128
 379 00fa 1C       		.byte	28
 380 00fb 23       		.byte	35
 381 00fc 0000     		.short	0
 382 00fe 004D     		.short	19712
 383 0100 8000     		.short	128
 384 0102 1D       		.byte	29
 385 0103 23       		.byte	35
 386 0104 0000     		.short	0
 387 0106 804D     		.short	19840
 388 0108 8000     		.short	128
 389 010a 1E       		.byte	30
 390 010b 23       		.byte	35
 391 010c 0000     		.short	0
 392 010e 801B     		.short	7040
 393 0110 8000     		.short	128
 394 0112 1F       		.byte	31
 395 0113 23       		.byte	35
 396 0114 0000     		.short	0
 397 0116 8015     		.short	5504
ARM GAS  C:\Users\CHARLI~1\AppData\Local\Temp\ccYyN2mF.s 			page 11


 398 0118 8000     		.short	128
 399 011a 20       		.byte	32
 400 011b 23       		.byte	35
 401 011c 0000     		.short	0
 402 011e 8019     		.short	6528
 403 0120 8000     		.short	128
 404 0122 21       		.byte	33
 405 0123 23       		.byte	35
 406 0124 0000     		.short	0
 407 0126 0017     		.short	5888
 408 0128 8000     		.short	128
 409 012a 22       		.byte	34
 410 012b 23       		.byte	35
 411 012c 0000     		.short	0
 412 012e 8017     		.short	6016
 413 0130 8000     		.short	128
 414 0132 23       		.byte	35
 415 0133 23       		.byte	35
 416 0134 0000     		.short	0
 417 0136 0007     		.short	1792
 418 0138 8000     		.short	128
 419 013a 24       		.byte	36
 420 013b 23       		.byte	35
 421 013c 0000     		.short	0
 422 013e 8007     		.short	1920
 423 0140 8000     		.short	128
 424 0142 25       		.byte	37
 425 0143 23       		.byte	35
 426 0144 0000     		.short	0
 427 0146 0005     		.short	1280
 428 0148 8000     		.short	128
 429 014a 26       		.byte	38
 430 014b 23       		.byte	35
 431 014c 0000     		.short	0
 432 014e 8005     		.short	1408
 433 0150 8000     		.short	128
 434 0152 27       		.byte	39
 435 0153 23       		.byte	35
 436 0154 0000     		.short	0
 437 0156 0049     		.short	18688
 438 0158 8000     		.short	128
 439 015a 28       		.byte	40
 440 015b 23       		.byte	35
 441 015c 0000     		.short	0
 442 015e 8049     		.short	18816
 443 0160 8000     		.short	128
 444 0162 29       		.byte	41
 445 0163 23       		.byte	35
 446 0164 0000     		.short	0
 447 0166 0048     		.short	18432
 448 0168 8000     		.short	128
 449 016a 2A       		.byte	42
 450 016b 23       		.byte	35
 451 016c 0000     		.short	0
 452 016e 8048     		.short	18560
 453 0170 1000     		.short	16
 454 0172 2B       		.byte	43
ARM GAS  C:\Users\CHARLI~1\AppData\Local\Temp\ccYyN2mF.s 			page 12


 455 0173 23       		.byte	35
 456 0174 0000     		.short	0
 457 0176 1050     		.short	20496
 458 0178 1000     		.short	16
 459 017a FF       		.byte	-1
 460 017b 23       		.byte	35
 461 017c 0000     		.short	0
 462 017e 0050     		.short	20480
 463              		.section	.rodata
 464              		.align	2
 465              		.type	CFG_TD_ADDR0, %object
 466              		.size	CFG_TD_ADDR0, 172
 467              	CFG_TD_ADDR0:
 468 0000 00000000 		.word	CH1_ADDR_DATA0
 469 0004 08000000 		.word	CH2_ADDR_DATA0
 470 0008 10000000 		.word	CH5_ADDR_DATA0
 471 000c 18000000 		.word	CH6_ADDR_DATA0
 472 0010 20000000 		.word	DMA_TD_START_CMD
 473 0014 20000000 		.word	DMA_TD_START_CMD
 474 0018 20000000 		.word	DMA_TD_START_CMD
 475 001c 20000000 		.word	DMA_TD_START_CMD
 476 0020 00000000 		.word	DMA_ZERO_VAL
 477 0024 00000000 		.word	DMA_ZERO_VAL
 478 0028 00000000 		.word	DMA_ZERO_VAL
 479 002c 00000000 		.word	DMA_ZERO_VAL
 480 0030 00000000 		.word	DMA_ZERO_VAL
 481 0034 00000000 		.word	DMA_ZERO_VAL
 482 0038 00000000 		.word	DMA_ZERO_VAL
 483 003c 00000000 		.word	DMA_ZERO_VAL
 484 0040 00000000 		.word	DMA_ZERO_VAL
 485 0044 00000000 		.word	DMA_ZERO_VAL
 486 0048 00000000 		.word	DMA_ZERO_VAL
 487 004c 00000000 		.word	DMA_ZERO_VAL
 488 0050 80020048 		.word	1207960192
 489 0054 00000048 		.word	1207959552
 490 0058 80000048 		.word	1207959680
 491 005c 00010048 		.word	1207959808
 492 0060 80010048 		.word	1207959936
 493 0064 00020048 		.word	1207960064
 494 0068 A0020048 		.word	1207960224
 495 006c 20030048 		.word	1207960352
 496 0070 A0030048 		.word	1207960480
 497 0074 20040048 		.word	1207960608
 498 0078 A0040048 		.word	1207960736
 499 007c 20050048 		.word	1207960864
 500 0080 A0050048 		.word	1207960992
 501 0084 20060048 		.word	1207961120
 502 0088 A0060048 		.word	1207961248
 503 008c 20070048 		.word	1207961376
 504 0090 A0070048 		.word	1207961504
 505 0094 20080048 		.word	1207961632
 506 0098 A0080048 		.word	1207961760
 507 009c 20090048 		.word	1207961888
 508 00a0 A0090048 		.word	1207962016
 509 00a4 200A0048 		.word	1207962144
 510 00a8 300A0048 		.word	1207962160
 511              		.section	.text.cfg_dma_init,"ax",%progbits
ARM GAS  C:\Users\CHARLI~1\AppData\Local\Temp\ccYyN2mF.s 			page 13


 512              		.align	2
 513              		.thumb
 514              		.thumb_func
 515              		.type	cfg_dma_init, %function
 516              	cfg_dma_init:
 517              	.LFB3:
 170:./Generated_Source/PSoC5/cyfitter_cfg.c **** 
 171:./Generated_Source/PSoC5/cyfitter_cfg.c **** #define CYMEMZERO8(a,c) cymemzero8((a),(c))
 172:./Generated_Source/PSoC5/cyfitter_cfg.c **** #define CYCONFIGCPY8(d,s,c) cymemcpy8((d),(s),(c))
 173:./Generated_Source/PSoC5/cyfitter_cfg.c **** #define CYCONFIGCPYCODE8(d,s,c) cymemcpy8((d),(s),(c))
 174:./Generated_Source/PSoC5/cyfitter_cfg.c **** #endif
 175:./Generated_Source/PSoC5/cyfitter_cfg.c **** 
 176:./Generated_Source/PSoC5/cyfitter_cfg.c **** /* UDB_1_3_0_CONFIG Address: CYDEV_UCFG_B0_P2_U0_BASE Size (bytes): 128 */
 177:./Generated_Source/PSoC5/cyfitter_cfg.c **** #define BS_UDB_1_3_0_CONFIG_VAL ((const uint8 CYFAR *)0x48000000)
 178:./Generated_Source/PSoC5/cyfitter_cfg.c **** 
 179:./Generated_Source/PSoC5/cyfitter_cfg.c **** /* UDB_1_3_1_CONFIG Address: CYDEV_UCFG_B0_P2_U1_BASE Size (bytes): 128 */
 180:./Generated_Source/PSoC5/cyfitter_cfg.c **** #define BS_UDB_1_3_1_CONFIG_VAL ((const uint8 CYFAR *)0x48000080)
 181:./Generated_Source/PSoC5/cyfitter_cfg.c **** 
 182:./Generated_Source/PSoC5/cyfitter_cfg.c **** /* UDB_1_2_0_CONFIG Address: CYDEV_UCFG_B0_P3_U1_BASE Size (bytes): 128 */
 183:./Generated_Source/PSoC5/cyfitter_cfg.c **** #define BS_UDB_1_2_0_CONFIG_VAL ((const uint8 CYFAR *)0x48000100)
 184:./Generated_Source/PSoC5/cyfitter_cfg.c **** 
 185:./Generated_Source/PSoC5/cyfitter_cfg.c **** /* UDB_1_1_1_CONFIG Address: CYDEV_UCFG_B1_P3_U0_BASE Size (bytes): 128 */
 186:./Generated_Source/PSoC5/cyfitter_cfg.c **** #define BS_UDB_1_1_1_CONFIG_VAL ((const uint8 CYFAR *)0x48000180)
 187:./Generated_Source/PSoC5/cyfitter_cfg.c **** 
 188:./Generated_Source/PSoC5/cyfitter_cfg.c **** /* UDB_1_1_0_CONFIG Address: CYDEV_UCFG_B1_P3_U1_BASE Size (bytes): 128 */
 189:./Generated_Source/PSoC5/cyfitter_cfg.c **** #define BS_UDB_1_1_0_CONFIG_VAL ((const uint8 CYFAR *)0x48000200)
 190:./Generated_Source/PSoC5/cyfitter_cfg.c **** 
 191:./Generated_Source/PSoC5/cyfitter_cfg.c **** /* UWRK_B0_WRK_STATCTL_BITS Address: CYDEV_UWRK_UWRK8_B0_BASE + 0x00000070 Size (bytes): 32 */
 192:./Generated_Source/PSoC5/cyfitter_cfg.c **** #define BS_UWRK_B0_WRK_STATCTL_BITS_VAL ((const uint8 CYFAR *)0x48000280)
 193:./Generated_Source/PSoC5/cyfitter_cfg.c **** 
 194:./Generated_Source/PSoC5/cyfitter_cfg.c **** /* DSISWITCH_0_0 Address: CYDEV_UCFG_DSI13_BASE Size (bytes): 128 */
 195:./Generated_Source/PSoC5/cyfitter_cfg.c **** #define BS_DSISWITCH_0_0_VAL ((const uint8 CYFAR *)0x480002A0)
 196:./Generated_Source/PSoC5/cyfitter_cfg.c **** 
 197:./Generated_Source/PSoC5/cyfitter_cfg.c **** /* DSI0_0_HV_ROUTING Address: CYDEV_UCFG_DSI13_BASE + 0x00000080 Size (bytes): 128 */
 198:./Generated_Source/PSoC5/cyfitter_cfg.c **** #define BS_DSI0_0_HV_ROUTING_VAL ((const uint8 CYFAR *)0x48000320)
 199:./Generated_Source/PSoC5/cyfitter_cfg.c **** 
 200:./Generated_Source/PSoC5/cyfitter_cfg.c **** /* UDB_1_0_HV_ROUTING Address: CYDEV_UCFG_B1_P5_ROUTE_BASE + 0x00000080 Size (bytes): 128 */
 201:./Generated_Source/PSoC5/cyfitter_cfg.c **** #define BS_UDB_1_0_HV_ROUTING_VAL ((const uint8 CYFAR *)0x480003A0)
 202:./Generated_Source/PSoC5/cyfitter_cfg.c **** 
 203:./Generated_Source/PSoC5/cyfitter_cfg.c **** /* UDB_2_0_HV_ROUTING Address: CYDEV_UCFG_B1_P2_ROUTE_BASE + 0x00000080 Size (bytes): 128 */
 204:./Generated_Source/PSoC5/cyfitter_cfg.c **** #define BS_UDB_2_0_HV_ROUTING_VAL ((const uint8 CYFAR *)0x48000420)
 205:./Generated_Source/PSoC5/cyfitter_cfg.c **** 
 206:./Generated_Source/PSoC5/cyfitter_cfg.c **** /* UDB_1_1_HV_ROUTING Address: CYDEV_UCFG_B1_P4_ROUTE_BASE + 0x00000080 Size (bytes): 128 */
 207:./Generated_Source/PSoC5/cyfitter_cfg.c **** #define BS_UDB_1_1_HV_ROUTING_VAL ((const uint8 CYFAR *)0x480004A0)
 208:./Generated_Source/PSoC5/cyfitter_cfg.c **** 
 209:./Generated_Source/PSoC5/cyfitter_cfg.c **** /* UDBSWITCH_1_1 Address: CYDEV_UCFG_B1_P3_ROUTE_BASE Size (bytes): 128 */
 210:./Generated_Source/PSoC5/cyfitter_cfg.c **** #define BS_UDBSWITCH_1_1_VAL ((const uint8 CYFAR *)0x48000520)
 211:./Generated_Source/PSoC5/cyfitter_cfg.c **** 
 212:./Generated_Source/PSoC5/cyfitter_cfg.c **** /* UDB_2_1_HV_ROUTING Address: CYDEV_UCFG_B1_P3_ROUTE_BASE + 0x00000080 Size (bytes): 128 */
 213:./Generated_Source/PSoC5/cyfitter_cfg.c **** #define BS_UDB_2_1_HV_ROUTING_VAL ((const uint8 CYFAR *)0x480005A0)
 214:./Generated_Source/PSoC5/cyfitter_cfg.c **** 
 215:./Generated_Source/PSoC5/cyfitter_cfg.c **** /* UDBSWITCH_1_2 Address: CYDEV_UCFG_B0_P3_ROUTE_BASE Size (bytes): 128 */
 216:./Generated_Source/PSoC5/cyfitter_cfg.c **** #define BS_UDBSWITCH_1_2_VAL ((const uint8 CYFAR *)0x48000620)
 217:./Generated_Source/PSoC5/cyfitter_cfg.c **** 
 218:./Generated_Source/PSoC5/cyfitter_cfg.c **** /* UDB_2_2_HV_ROUTING Address: CYDEV_UCFG_B0_P3_ROUTE_BASE + 0x00000080 Size (bytes): 128 */
 219:./Generated_Source/PSoC5/cyfitter_cfg.c **** #define BS_UDB_2_2_HV_ROUTING_VAL ((const uint8 CYFAR *)0x480006A0)
 220:./Generated_Source/PSoC5/cyfitter_cfg.c **** 
ARM GAS  C:\Users\CHARLI~1\AppData\Local\Temp\ccYyN2mF.s 			page 14


 221:./Generated_Source/PSoC5/cyfitter_cfg.c **** /* UDBSWITCH_1_3 Address: CYDEV_UCFG_B0_P2_ROUTE_BASE Size (bytes): 128 */
 222:./Generated_Source/PSoC5/cyfitter_cfg.c **** #define BS_UDBSWITCH_1_3_VAL ((const uint8 CYFAR *)0x48000720)
 223:./Generated_Source/PSoC5/cyfitter_cfg.c **** 
 224:./Generated_Source/PSoC5/cyfitter_cfg.c **** /* UDB_2_3_HV_ROUTING Address: CYDEV_UCFG_B0_P2_ROUTE_BASE + 0x00000080 Size (bytes): 128 */
 225:./Generated_Source/PSoC5/cyfitter_cfg.c **** #define BS_UDB_2_3_HV_ROUTING_VAL ((const uint8 CYFAR *)0x480007A0)
 226:./Generated_Source/PSoC5/cyfitter_cfg.c **** 
 227:./Generated_Source/PSoC5/cyfitter_cfg.c **** /* DSISWITCH_1_0 Address: CYDEV_UCFG_DSI9_BASE Size (bytes): 128 */
 228:./Generated_Source/PSoC5/cyfitter_cfg.c **** #define BS_DSISWITCH_1_0_VAL ((const uint8 CYFAR *)0x48000820)
 229:./Generated_Source/PSoC5/cyfitter_cfg.c **** 
 230:./Generated_Source/PSoC5/cyfitter_cfg.c **** /* DSI3_0_HV_ROUTING Address: CYDEV_UCFG_DSI9_BASE + 0x00000080 Size (bytes): 128 */
 231:./Generated_Source/PSoC5/cyfitter_cfg.c **** #define BS_DSI3_0_HV_ROUTING_VAL ((const uint8 CYFAR *)0x480008A0)
 232:./Generated_Source/PSoC5/cyfitter_cfg.c **** 
 233:./Generated_Source/PSoC5/cyfitter_cfg.c **** /* DSISWITCH_1_1 Address: CYDEV_UCFG_DSI8_BASE Size (bytes): 128 */
 234:./Generated_Source/PSoC5/cyfitter_cfg.c **** #define BS_DSISWITCH_1_1_VAL ((const uint8 CYFAR *)0x48000920)
 235:./Generated_Source/PSoC5/cyfitter_cfg.c **** 
 236:./Generated_Source/PSoC5/cyfitter_cfg.c **** /* DSI3_1_HV_ROUTING Address: CYDEV_UCFG_DSI8_BASE + 0x00000080 Size (bytes): 128 */
 237:./Generated_Source/PSoC5/cyfitter_cfg.c **** #define BS_DSI3_1_HV_ROUTING_VAL ((const uint8 CYFAR *)0x480009A0)
 238:./Generated_Source/PSoC5/cyfitter_cfg.c **** 
 239:./Generated_Source/PSoC5/cyfitter_cfg.c **** /* UCFG_BCTL1 Address: CYREG_BCTL1_MDCLK_EN Size (bytes): 16 */
 240:./Generated_Source/PSoC5/cyfitter_cfg.c **** #define BS_UCFG_BCTL1_VAL ((const uint8 CYFAR *)0x48000A20)
 241:./Generated_Source/PSoC5/cyfitter_cfg.c **** 
 242:./Generated_Source/PSoC5/cyfitter_cfg.c **** /* UCFG_BCTL0 Address: CYREG_BCTL0_MDCLK_EN Size (bytes): 16 */
 243:./Generated_Source/PSoC5/cyfitter_cfg.c **** #define BS_UCFG_BCTL0_VAL ((const uint8 CYFAR *)0x48000A30)
 244:./Generated_Source/PSoC5/cyfitter_cfg.c **** 
 245:./Generated_Source/PSoC5/cyfitter_cfg.c **** /* IOPINS0_1 Address: CYREG_PRT1_DM0 Size (bytes): 8 */
 246:./Generated_Source/PSoC5/cyfitter_cfg.c **** #define BS_IOPINS0_1_VAL ((const uint8 CYFAR *)0x48000A40)
 247:./Generated_Source/PSoC5/cyfitter_cfg.c **** 
 248:./Generated_Source/PSoC5/cyfitter_cfg.c **** /* IOPINS0_2 Address: CYREG_PRT2_DM0 Size (bytes): 8 */
 249:./Generated_Source/PSoC5/cyfitter_cfg.c **** #define BS_IOPINS0_2_VAL ((const uint8 CYFAR *)0x48000A48)
 250:./Generated_Source/PSoC5/cyfitter_cfg.c **** 
 251:./Generated_Source/PSoC5/cyfitter_cfg.c **** /* IOPORT_1 Address: CYDEV_PRTDSI_PRT1_BASE Size (bytes): 7 */
 252:./Generated_Source/PSoC5/cyfitter_cfg.c **** #define BS_IOPORT_1_VAL ((const uint8 CYFAR *)0x48000A50)
 253:./Generated_Source/PSoC5/cyfitter_cfg.c **** 
 254:./Generated_Source/PSoC5/cyfitter_cfg.c **** /* IOPORT_2 Address: CYDEV_PRTDSI_PRT2_BASE Size (bytes): 7 */
 255:./Generated_Source/PSoC5/cyfitter_cfg.c **** #define BS_IOPORT_2_VAL ((const uint8 CYFAR *)0x48000A58)
 256:./Generated_Source/PSoC5/cyfitter_cfg.c **** 
 257:./Generated_Source/PSoC5/cyfitter_cfg.c **** 
 258:./Generated_Source/PSoC5/cyfitter_cfg.c **** static const uint8 CYCODE CH1_ADDR_DATA0[] DMAINITSEC = { 0x01, 0x00, 0x00, 0x00, 0x00, 0x20, 0x00,
 259:./Generated_Source/PSoC5/cyfitter_cfg.c **** 
 260:./Generated_Source/PSoC5/cyfitter_cfg.c **** static const uint8 CYCODE CH2_ADDR_DATA0[] DMAINITSEC = { 0x01, 0x00, 0x00, 0x00, 0x00, 0x20, 0x01,
 261:./Generated_Source/PSoC5/cyfitter_cfg.c **** 
 262:./Generated_Source/PSoC5/cyfitter_cfg.c **** static const uint8 CYCODE CH5_ADDR_DATA0[] DMAINITSEC = { 0x01, 0x00, 0x00, 0x00, 0x00, 0x48, 0x00,
 263:./Generated_Source/PSoC5/cyfitter_cfg.c **** 
 264:./Generated_Source/PSoC5/cyfitter_cfg.c **** static const uint8 CYCODE CH6_ADDR_DATA0[] DMAINITSEC = { 0x01, 0x00, 0x00, 0x00, 0x00, 0x48, 0x01,
 265:./Generated_Source/PSoC5/cyfitter_cfg.c **** 
 266:./Generated_Source/PSoC5/cyfitter_cfg.c **** static const uint8 CYCODE DMA_TD_START_CMD[] DMAINITSEC = { 0x01, 0x00, 0x00, 0x00, 0x01 };
 267:./Generated_Source/PSoC5/cyfitter_cfg.c **** 
 268:./Generated_Source/PSoC5/cyfitter_cfg.c **** static uint32 CYXDATA DMA_ZERO_VAL CYALIGNED;
 269:./Generated_Source/PSoC5/cyfitter_cfg.c **** 
 270:./Generated_Source/PSoC5/cyfitter_cfg.c **** static const struct td_t CYCODE CFG_TD_LIST0[] DMAINITSEC = {
 271:./Generated_Source/PSoC5/cyfitter_cfg.c **** /* Size, Next, Flags, Source, Destination */
 272:./Generated_Source/PSoC5/cyfitter_cfg.c **** 	{ 8, 0x02, 0x23, (uint16)(0), (uint16)(CYREG_PHUB_CFGMEM1_CFG0) },	/* TD 1 */
 273:./Generated_Source/PSoC5/cyfitter_cfg.c **** 	{ 8, 0x03, 0x23, (uint16)(0), (uint16)(CYREG_PHUB_CFGMEM2_CFG0) },	/* TD 2 */
 274:./Generated_Source/PSoC5/cyfitter_cfg.c **** 	{ 8, 0x04, 0x23, (uint16)(0), (uint16)(CYREG_PHUB_CFGMEM5_CFG0) },	/* TD 3 */
 275:./Generated_Source/PSoC5/cyfitter_cfg.c **** 	{ 8, 0x05, 0x23, (uint16)(0), (uint16)(CYREG_PHUB_CFGMEM6_CFG0) },	/* TD 4 */
 276:./Generated_Source/PSoC5/cyfitter_cfg.c **** 	{ 5, 0x06, 0x23, (uint16)(0), (uint16)(CYREG_PHUB_CH1_BASIC_CFG) },	/* TD 5 */
 277:./Generated_Source/PSoC5/cyfitter_cfg.c **** 	{ 5, 0x07, 0x23, (uint16)(0), (uint16)(CYREG_PHUB_CH2_BASIC_CFG) },	/* TD 6 */
ARM GAS  C:\Users\CHARLI~1\AppData\Local\Temp\ccYyN2mF.s 			page 15


 278:./Generated_Source/PSoC5/cyfitter_cfg.c **** 	{ 5, 0x08, 0x23, (uint16)(0), (uint16)(CYREG_PHUB_CH5_BASIC_CFG) },	/* TD 7 */
 279:./Generated_Source/PSoC5/cyfitter_cfg.c **** 	{ 5, 0xFF, 0x23, (uint16)(0), (uint16)(CYREG_PHUB_CH6_BASIC_CFG) },	/* TD 8 */
 280:./Generated_Source/PSoC5/cyfitter_cfg.c **** 	{ 16, 0x0A, 0x22, (uint16)(0), (uint16)(CYREG_PRT0_DR) },	/* TD 9 */
 281:./Generated_Source/PSoC5/cyfitter_cfg.c **** 	{ 64, 0x0B, 0x22, (uint16)(0), (uint16)(CYREG_PRT3_DR) },	/* TD 10 */
 282:./Generated_Source/PSoC5/cyfitter_cfg.c **** 	{ 16, 0x0C, 0x22, (uint16)(0), (uint16)(CYREG_PRT12_DR) },	/* TD 11 */
 283:./Generated_Source/PSoC5/cyfitter_cfg.c **** 	{ 16, 0xFF, 0x22, (uint16)(0), (uint16)(CYREG_PRT15_DR) },	/* TD 12 */
 284:./Generated_Source/PSoC5/cyfitter_cfg.c **** 	{ 1024, 0x0E, 0x22, (uint16)(0), (uint16)(CYDEV_UCFG_B0_P0_U0_BASE) },	/* TD 13 */
 285:./Generated_Source/PSoC5/cyfitter_cfg.c **** 	{ 128, 0x0F, 0x22, (uint16)(0), (uint16)(CYDEV_UCFG_B0_P3_U0_BASE) },	/* TD 14 */
 286:./Generated_Source/PSoC5/cyfitter_cfg.c **** 	{ 2048, 0x10, 0x22, (uint16)(0), (uint16)(CYDEV_UCFG_B0_P4_U0_BASE) },	/* TD 15 */
 287:./Generated_Source/PSoC5/cyfitter_cfg.c **** 	{ 384, 0x11, 0x22, (uint16)(0), (uint16)(CYDEV_UCFG_B1_P2_U0_BASE) },	/* TD 16 */
 288:./Generated_Source/PSoC5/cyfitter_cfg.c **** 	{ 384, 0x12, 0x22, (uint16)(0), (uint16)(CYDEV_UCFG_B1_P4_U0_BASE) },	/* TD 17 */
 289:./Generated_Source/PSoC5/cyfitter_cfg.c **** 	{ 384, 0x13, 0x22, (uint16)(0), (uint16)(CYDEV_UCFG_B1_P5_U0_BASE) },	/* TD 18 */
 290:./Generated_Source/PSoC5/cyfitter_cfg.c **** 	{ 2048, 0x14, 0x22, (uint16)(0), (uint16)(CYDEV_UCFG_DSI0_BASE) },	/* TD 19 */
 291:./Generated_Source/PSoC5/cyfitter_cfg.c **** 	{ 256, 0xFF, 0x22, (uint16)(0), (uint16)(CYDEV_UCFG_DSI12_BASE) },	/* TD 20 */
 292:./Generated_Source/PSoC5/cyfitter_cfg.c **** 	{ 32, 0xFF, 0x23, (uint16)(0), (uint16)(CYDEV_UWRK_UWRK8_B0_BASE + 0x00000070) },	/* TD 21 */
 293:./Generated_Source/PSoC5/cyfitter_cfg.c **** 	{ 128, 0x17, 0x23, (uint16)(0), (uint16)(CYDEV_UCFG_B0_P2_U0_BASE) },	/* TD 22 */
 294:./Generated_Source/PSoC5/cyfitter_cfg.c **** 	{ 128, 0x18, 0x23, (uint16)(0), (uint16)(CYDEV_UCFG_B0_P2_U1_BASE) },	/* TD 23 */
 295:./Generated_Source/PSoC5/cyfitter_cfg.c **** 	{ 128, 0x19, 0x23, (uint16)(0), (uint16)(CYDEV_UCFG_B0_P3_U1_BASE) },	/* TD 24 */
 296:./Generated_Source/PSoC5/cyfitter_cfg.c **** 	{ 128, 0x1A, 0x23, (uint16)(0), (uint16)(CYDEV_UCFG_B1_P3_U0_BASE) },	/* TD 25 */
 297:./Generated_Source/PSoC5/cyfitter_cfg.c **** 	{ 128, 0x1B, 0x23, (uint16)(0), (uint16)(CYDEV_UCFG_B1_P3_U1_BASE) },	/* TD 26 */
 298:./Generated_Source/PSoC5/cyfitter_cfg.c **** 	{ 128, 0x1C, 0x23, (uint16)(0), (uint16)(CYDEV_UCFG_DSI13_BASE) },	/* TD 27 */
 299:./Generated_Source/PSoC5/cyfitter_cfg.c **** 	{ 128, 0x1D, 0x23, (uint16)(0), (uint16)(CYDEV_UCFG_DSI13_BASE + 0x00000080) },	/* TD 28 */
 300:./Generated_Source/PSoC5/cyfitter_cfg.c **** 	{ 128, 0x1E, 0x23, (uint16)(0), (uint16)(CYDEV_UCFG_B1_P5_ROUTE_BASE + 0x00000080) },	/* TD 29 */
 301:./Generated_Source/PSoC5/cyfitter_cfg.c **** 	{ 128, 0x1F, 0x23, (uint16)(0), (uint16)(CYDEV_UCFG_B1_P2_ROUTE_BASE + 0x00000080) },	/* TD 30 */
 302:./Generated_Source/PSoC5/cyfitter_cfg.c **** 	{ 128, 0x20, 0x23, (uint16)(0), (uint16)(CYDEV_UCFG_B1_P4_ROUTE_BASE + 0x00000080) },	/* TD 31 */
 303:./Generated_Source/PSoC5/cyfitter_cfg.c **** 	{ 128, 0x21, 0x23, (uint16)(0), (uint16)(CYDEV_UCFG_B1_P3_ROUTE_BASE) },	/* TD 32 */
 304:./Generated_Source/PSoC5/cyfitter_cfg.c **** 	{ 128, 0x22, 0x23, (uint16)(0), (uint16)(CYDEV_UCFG_B1_P3_ROUTE_BASE + 0x00000080) },	/* TD 33 */
 305:./Generated_Source/PSoC5/cyfitter_cfg.c **** 	{ 128, 0x23, 0x23, (uint16)(0), (uint16)(CYDEV_UCFG_B0_P3_ROUTE_BASE) },	/* TD 34 */
 306:./Generated_Source/PSoC5/cyfitter_cfg.c **** 	{ 128, 0x24, 0x23, (uint16)(0), (uint16)(CYDEV_UCFG_B0_P3_ROUTE_BASE + 0x00000080) },	/* TD 35 */
 307:./Generated_Source/PSoC5/cyfitter_cfg.c **** 	{ 128, 0x25, 0x23, (uint16)(0), (uint16)(CYDEV_UCFG_B0_P2_ROUTE_BASE) },	/* TD 36 */
 308:./Generated_Source/PSoC5/cyfitter_cfg.c **** 	{ 128, 0x26, 0x23, (uint16)(0), (uint16)(CYDEV_UCFG_B0_P2_ROUTE_BASE + 0x00000080) },	/* TD 37 */
 309:./Generated_Source/PSoC5/cyfitter_cfg.c **** 	{ 128, 0x27, 0x23, (uint16)(0), (uint16)(CYDEV_UCFG_DSI9_BASE) },	/* TD 38 */
 310:./Generated_Source/PSoC5/cyfitter_cfg.c **** 	{ 128, 0x28, 0x23, (uint16)(0), (uint16)(CYDEV_UCFG_DSI9_BASE + 0x00000080) },	/* TD 39 */
 311:./Generated_Source/PSoC5/cyfitter_cfg.c **** 	{ 128, 0x29, 0x23, (uint16)(0), (uint16)(CYDEV_UCFG_DSI8_BASE) },	/* TD 40 */
 312:./Generated_Source/PSoC5/cyfitter_cfg.c **** 	{ 128, 0x2A, 0x23, (uint16)(0), (uint16)(CYDEV_UCFG_DSI8_BASE + 0x00000080) },	/* TD 41 */
 313:./Generated_Source/PSoC5/cyfitter_cfg.c **** 	{ 16, 0x2B, 0x23, (uint16)(0), (uint16)(CYREG_BCTL1_MDCLK_EN) },	/* TD 42 */
 314:./Generated_Source/PSoC5/cyfitter_cfg.c **** 	{ 16, 0xFF, 0x23, (uint16)(0), (uint16)(CYREG_BCTL0_MDCLK_EN) },	/* TD 43 */
 315:./Generated_Source/PSoC5/cyfitter_cfg.c **** };
 316:./Generated_Source/PSoC5/cyfitter_cfg.c **** static const void * const CFG_TD_ADDR0[] = {
 317:./Generated_Source/PSoC5/cyfitter_cfg.c **** 	(const void *)(&CH1_ADDR_DATA0),	/* TD 1 */
 318:./Generated_Source/PSoC5/cyfitter_cfg.c **** 	(const void *)(&CH2_ADDR_DATA0),	/* TD 2 */
 319:./Generated_Source/PSoC5/cyfitter_cfg.c **** 	(const void *)(&CH5_ADDR_DATA0),	/* TD 3 */
 320:./Generated_Source/PSoC5/cyfitter_cfg.c **** 	(const void *)(&CH6_ADDR_DATA0),	/* TD 4 */
 321:./Generated_Source/PSoC5/cyfitter_cfg.c **** 	(const void *)(&DMA_TD_START_CMD),	/* TD 5 */
 322:./Generated_Source/PSoC5/cyfitter_cfg.c **** 	(const void *)(&DMA_TD_START_CMD),	/* TD 6 */
 323:./Generated_Source/PSoC5/cyfitter_cfg.c **** 	(const void *)(&DMA_TD_START_CMD),	/* TD 7 */
 324:./Generated_Source/PSoC5/cyfitter_cfg.c **** 	(const void *)(&DMA_TD_START_CMD),	/* TD 8 */
 325:./Generated_Source/PSoC5/cyfitter_cfg.c **** 	(const void *)(&DMA_ZERO_VAL),	/* TD 9 */
 326:./Generated_Source/PSoC5/cyfitter_cfg.c **** 	(const void *)(&DMA_ZERO_VAL),	/* TD 10 */
 327:./Generated_Source/PSoC5/cyfitter_cfg.c **** 	(const void *)(&DMA_ZERO_VAL),	/* TD 11 */
 328:./Generated_Source/PSoC5/cyfitter_cfg.c **** 	(const void *)(&DMA_ZERO_VAL),	/* TD 12 */
 329:./Generated_Source/PSoC5/cyfitter_cfg.c **** 	(const void *)(&DMA_ZERO_VAL),	/* TD 13 */
 330:./Generated_Source/PSoC5/cyfitter_cfg.c **** 	(const void *)(&DMA_ZERO_VAL),	/* TD 14 */
 331:./Generated_Source/PSoC5/cyfitter_cfg.c **** 	(const void *)(&DMA_ZERO_VAL),	/* TD 15 */
 332:./Generated_Source/PSoC5/cyfitter_cfg.c **** 	(const void *)(&DMA_ZERO_VAL),	/* TD 16 */
 333:./Generated_Source/PSoC5/cyfitter_cfg.c **** 	(const void *)(&DMA_ZERO_VAL),	/* TD 17 */
 334:./Generated_Source/PSoC5/cyfitter_cfg.c **** 	(const void *)(&DMA_ZERO_VAL),	/* TD 18 */
ARM GAS  C:\Users\CHARLI~1\AppData\Local\Temp\ccYyN2mF.s 			page 16


 335:./Generated_Source/PSoC5/cyfitter_cfg.c **** 	(const void *)(&DMA_ZERO_VAL),	/* TD 19 */
 336:./Generated_Source/PSoC5/cyfitter_cfg.c **** 	(const void *)(&DMA_ZERO_VAL),	/* TD 20 */
 337:./Generated_Source/PSoC5/cyfitter_cfg.c **** 	(const void *)(BS_UWRK_B0_WRK_STATCTL_BITS_VAL),	/* TD 21 */
 338:./Generated_Source/PSoC5/cyfitter_cfg.c **** 	(const void *)(BS_UDB_1_3_0_CONFIG_VAL),	/* TD 22 */
 339:./Generated_Source/PSoC5/cyfitter_cfg.c **** 	(const void *)(BS_UDB_1_3_1_CONFIG_VAL),	/* TD 23 */
 340:./Generated_Source/PSoC5/cyfitter_cfg.c **** 	(const void *)(BS_UDB_1_2_0_CONFIG_VAL),	/* TD 24 */
 341:./Generated_Source/PSoC5/cyfitter_cfg.c **** 	(const void *)(BS_UDB_1_1_1_CONFIG_VAL),	/* TD 25 */
 342:./Generated_Source/PSoC5/cyfitter_cfg.c **** 	(const void *)(BS_UDB_1_1_0_CONFIG_VAL),	/* TD 26 */
 343:./Generated_Source/PSoC5/cyfitter_cfg.c **** 	(const void *)(BS_DSISWITCH_0_0_VAL),	/* TD 27 */
 344:./Generated_Source/PSoC5/cyfitter_cfg.c **** 	(const void *)(BS_DSI0_0_HV_ROUTING_VAL),	/* TD 28 */
 345:./Generated_Source/PSoC5/cyfitter_cfg.c **** 	(const void *)(BS_UDB_1_0_HV_ROUTING_VAL),	/* TD 29 */
 346:./Generated_Source/PSoC5/cyfitter_cfg.c **** 	(const void *)(BS_UDB_2_0_HV_ROUTING_VAL),	/* TD 30 */
 347:./Generated_Source/PSoC5/cyfitter_cfg.c **** 	(const void *)(BS_UDB_1_1_HV_ROUTING_VAL),	/* TD 31 */
 348:./Generated_Source/PSoC5/cyfitter_cfg.c **** 	(const void *)(BS_UDBSWITCH_1_1_VAL),	/* TD 32 */
 349:./Generated_Source/PSoC5/cyfitter_cfg.c **** 	(const void *)(BS_UDB_2_1_HV_ROUTING_VAL),	/* TD 33 */
 350:./Generated_Source/PSoC5/cyfitter_cfg.c **** 	(const void *)(BS_UDBSWITCH_1_2_VAL),	/* TD 34 */
 351:./Generated_Source/PSoC5/cyfitter_cfg.c **** 	(const void *)(BS_UDB_2_2_HV_ROUTING_VAL),	/* TD 35 */
 352:./Generated_Source/PSoC5/cyfitter_cfg.c **** 	(const void *)(BS_UDBSWITCH_1_3_VAL),	/* TD 36 */
 353:./Generated_Source/PSoC5/cyfitter_cfg.c **** 	(const void *)(BS_UDB_2_3_HV_ROUTING_VAL),	/* TD 37 */
 354:./Generated_Source/PSoC5/cyfitter_cfg.c **** 	(const void *)(BS_DSISWITCH_1_0_VAL),	/* TD 38 */
 355:./Generated_Source/PSoC5/cyfitter_cfg.c **** 	(const void *)(BS_DSI3_0_HV_ROUTING_VAL),	/* TD 39 */
 356:./Generated_Source/PSoC5/cyfitter_cfg.c **** 	(const void *)(BS_DSISWITCH_1_1_VAL),	/* TD 40 */
 357:./Generated_Source/PSoC5/cyfitter_cfg.c **** 	(const void *)(BS_DSI3_1_HV_ROUTING_VAL),	/* TD 41 */
 358:./Generated_Source/PSoC5/cyfitter_cfg.c **** 	(const void *)(BS_UCFG_BCTL1_VAL),	/* TD 42 */
 359:./Generated_Source/PSoC5/cyfitter_cfg.c **** 	(const void *)(BS_UCFG_BCTL0_VAL),	/* TD 43 */
 360:./Generated_Source/PSoC5/cyfitter_cfg.c **** };
 361:./Generated_Source/PSoC5/cyfitter_cfg.c **** static void cfg_dma_init(void)
 362:./Generated_Source/PSoC5/cyfitter_cfg.c **** {
 518              		.loc 1 362 0
 519              		.cfi_startproc
 520              		@ args = 0, pretend = 0, frame = 8
 521              		@ frame_needed = 1, uses_anonymous_args = 0
 522              		@ link register save eliminated.
 523 0000 80B4     		push	{r7}
 524              	.LCFI9:
 525              		.cfi_def_cfa_offset 4
 526 0002 83B0     		sub	sp, sp, #12
 527              	.LCFI10:
 528              		.cfi_def_cfa_offset 16
 529 0004 00AF     		add	r7, sp, #0
 530              		.cfi_offset 7, -4
 531              	.LCFI11:
 532              		.cfi_def_cfa_register 7
 363:./Generated_Source/PSoC5/cyfitter_cfg.c **** 	int i;
 364:./Generated_Source/PSoC5/cyfitter_cfg.c **** 
 365:./Generated_Source/PSoC5/cyfitter_cfg.c **** 	DMA_ZERO_VAL = 0u;
 533              		.loc 1 365 0
 534 0006 40F20003 		movw	r3, #:lower16:DMA_ZERO_VAL
 535 000a C0F20003 		movt	r3, #:upper16:DMA_ZERO_VAL
 536 000e 4FF00002 		mov	r2, #0
 537 0012 1A60     		str	r2, [r3, #0]
 366:./Generated_Source/PSoC5/cyfitter_cfg.c **** 	DMAC_CFGMEM[0].CFG0[0] = 0x10;		/* set burstcount */
 538              		.loc 1 366 0
 539 0014 47F20063 		movw	r3, #:lower16:1073772032
 540 0018 C4F20003 		movt	r3, #:upper16:1073772032
 541 001c 4FF01002 		mov	r2, #16
 542 0020 1A70     		strb	r2, [r3, #0]
ARM GAS  C:\Users\CHARLI~1\AppData\Local\Temp\ccYyN2mF.s 			page 17


 367:./Generated_Source/PSoC5/cyfitter_cfg.c **** 	DMAC_CH[0].basic_cfg[0] = 0x01u;	/* enable channel0 */
 543              		.loc 1 367 0
 544 0022 47F21003 		movw	r3, #:lower16:1073770512
 545 0026 C4F20003 		movt	r3, #:upper16:1073770512
 546 002a 4FF00102 		mov	r2, #1
 547 002e 1A70     		strb	r2, [r3, #0]
 368:./Generated_Source/PSoC5/cyfitter_cfg.c **** 	DMAC_CH[0].basic_status[1] = 0;		/* set channel0's first td to 0 */
 548              		.loc 1 368 0
 549 0030 47F21003 		movw	r3, #:lower16:1073770512
 550 0034 C4F20003 		movt	r3, #:upper16:1073770512
 551 0038 4FF00002 		mov	r2, #0
 552 003c 5A72     		strb	r2, [r3, #9]
 369:./Generated_Source/PSoC5/cyfitter_cfg.c **** 	
 370:./Generated_Source/PSoC5/cyfitter_cfg.c **** 	DMAC_TDMEM[0].TD0[2] = 0x01;		/* set td0's next td to 1 */
 553              		.loc 1 370 0
 554 003e 47F60003 		movw	r3, #:lower16:1073772544
 555 0042 C4F20003 		movt	r3, #:upper16:1073772544
 556 0046 4FF00102 		mov	r2, #1
 557 004a 9A70     		strb	r2, [r3, #2]
 371:./Generated_Source/PSoC5/cyfitter_cfg.c **** 	DMAC_TDMEM[0].TD0[3] = 0x03;		/* set td0's flags */
 558              		.loc 1 371 0
 559 004c 47F60003 		movw	r3, #:lower16:1073772544
 560 0050 C4F20003 		movt	r3, #:upper16:1073772544
 561 0054 4FF00302 		mov	r2, #3
 562 0058 DA70     		strb	r2, [r3, #3]
 372:./Generated_Source/PSoC5/cyfitter_cfg.c **** 	CY_SET_REG16((reg16 *) &DMAC_TDMEM[0].TD0[0], 43*8);					/* set td0's size */
 563              		.loc 1 372 0
 564 005a 47F60003 		movw	r3, #:lower16:1073772544
 565 005e C4F20003 		movt	r3, #:upper16:1073772544
 566 0062 4FF4AC72 		mov	r2, #344
 567 0066 1A80     		strh	r2, [r3, #0]	@ movhi
 373:./Generated_Source/PSoC5/cyfitter_cfg.c **** 	CY_SET_REG16((reg16 *) &DMAC_TDMEM[0].TD1[0], (uint16)(uint32)CFG_TD_LIST0);	/* set td0's src addr
 568              		.loc 1 373 0
 569 0068 47F60403 		movw	r3, #:lower16:1073772548
 570 006c C4F20003 		movt	r3, #:upper16:1073772548
 571 0070 40F20002 		movw	r2, #:lower16:CFG_TD_LIST0
 572 0074 C0F20002 		movt	r2, #:upper16:CFG_TD_LIST0
 573 0078 92B2     		uxth	r2, r2
 574 007a 1A80     		strh	r2, [r3, #0]	@ movhi
 374:./Generated_Source/PSoC5/cyfitter_cfg.c **** 	CY_SET_REG16((reg16 *) &DMAC_TDMEM[0].TD1[2], CYDEV_PHUB_TDMEM1_BASE);	/* set td0's dst addr */
 575              		.loc 1 374 0
 576 007c 47F60603 		movw	r3, #:lower16:1073772550
 577 0080 C4F20003 		movt	r3, #:upper16:1073772550
 578 0084 47F60802 		movw	r2, #30728
 579 0088 1A80     		strh	r2, [r3, #0]	@ movhi
 375:./Generated_Source/PSoC5/cyfitter_cfg.c **** 	CY_SET_REG16((reg16 *) &DMAC_CFGMEM[0].CFG1[0], (uint16)(CYDEV_FLASH_BASE >> 16));				/* set ch0's
 580              		.loc 1 375 0
 581 008a 47F20463 		movw	r3, #:lower16:1073772036
 582 008e C4F20003 		movt	r3, #:upper16:1073772036
 583 0092 4FF00002 		mov	r2, #0
 584 0096 1A80     		strh	r2, [r3, #0]	@ movhi
 376:./Generated_Source/PSoC5/cyfitter_cfg.c **** 	CY_SET_REG16((reg16 *) &DMAC_CFGMEM[0].CFG1[2], (uint16)(CYDEV_PHUB_TDMEM1_BASE >> 16));				/* set
 585              		.loc 1 376 0
 586 0098 47F20663 		movw	r3, #:lower16:1073772038
 587 009c C4F20003 		movt	r3, #:upper16:1073772038
 588 00a0 4FF48042 		mov	r2, #16384
 589 00a4 1A80     		strh	r2, [r3, #0]	@ movhi
ARM GAS  C:\Users\CHARLI~1\AppData\Local\Temp\ccYyN2mF.s 			page 18


 377:./Generated_Source/PSoC5/cyfitter_cfg.c **** 	DMAC_CH[1].basic_status[1] = 0x09;
 590              		.loc 1 377 0
 591 00a6 47F22003 		movw	r3, #:lower16:1073770528
 592 00aa C4F20003 		movt	r3, #:upper16:1073770528
 593 00ae 4FF00902 		mov	r2, #9
 594 00b2 5A72     		strb	r2, [r3, #9]
 378:./Generated_Source/PSoC5/cyfitter_cfg.c **** 	DMAC_CH[2].basic_status[1] = 0x0D;
 595              		.loc 1 378 0
 596 00b4 47F23003 		movw	r3, #:lower16:1073770544
 597 00b8 C4F20003 		movt	r3, #:upper16:1073770544
 598 00bc 4FF00D02 		mov	r2, #13
 599 00c0 5A72     		strb	r2, [r3, #9]
 379:./Generated_Source/PSoC5/cyfitter_cfg.c **** 	DMAC_CH[5].basic_status[1] = 0x15;
 600              		.loc 1 379 0
 601 00c2 47F26003 		movw	r3, #:lower16:1073770592
 602 00c6 C4F20003 		movt	r3, #:upper16:1073770592
 603 00ca 4FF01502 		mov	r2, #21
 604 00ce 5A72     		strb	r2, [r3, #9]
 380:./Generated_Source/PSoC5/cyfitter_cfg.c **** 	DMAC_CH[6].basic_status[1] = 0x16;
 605              		.loc 1 380 0
 606 00d0 47F27003 		movw	r3, #:lower16:1073770608
 607 00d4 C4F20003 		movt	r3, #:upper16:1073770608
 608 00d8 4FF01602 		mov	r2, #22
 609 00dc 5A72     		strb	r2, [r3, #9]
 381:./Generated_Source/PSoC5/cyfitter_cfg.c **** 
 382:./Generated_Source/PSoC5/cyfitter_cfg.c **** 	CY_CFG_MEMORY_BARRIER();
 610              		.loc 1 382 0
 383:./Generated_Source/PSoC5/cyfitter_cfg.c **** 	DMAC_CH[0].action[0] = CPU_REQ;    /* initiate the DMA transfer */
 611              		.loc 1 383 0
 612 00de 47F21003 		movw	r3, #:lower16:1073770512
 613 00e2 C4F20003 		movt	r3, #:upper16:1073770512
 614 00e6 4FF00102 		mov	r2, #1
 615 00ea 1A71     		strb	r2, [r3, #4]
 384:./Generated_Source/PSoC5/cyfitter_cfg.c **** 	CY_CFG_MEMORY_BARRIER();
 616              		.loc 1 384 0
 617              	.L13:
 385:./Generated_Source/PSoC5/cyfitter_cfg.c **** 
 386:./Generated_Source/PSoC5/cyfitter_cfg.c **** 	while ((*(volatile uint16 *)(DMAC_TDMEM[0].TD0))) {}
 618              		.loc 1 386 0
 619 00ec 47F60003 		movw	r3, #:lower16:1073772544
 620 00f0 C4F20003 		movt	r3, #:upper16:1073772544
 621 00f4 1B88     		ldrh	r3, [r3, #0]	@ movhi
 622 00f6 9BB2     		uxth	r3, r3
 623 00f8 002B     		cmp	r3, #0
 624 00fa F7D1     		bne	.L13
 387:./Generated_Source/PSoC5/cyfitter_cfg.c **** 
 388:./Generated_Source/PSoC5/cyfitter_cfg.c **** 	for (i = 0; i < 43; i++)
 625              		.loc 1 388 0
 626 00fc 4FF00003 		mov	r3, #0
 627 0100 3B60     		str	r3, [r7, #0]
 628 0102 18E0     		b	.L14
 629              	.L15:
 630              	.LBB2:
 389:./Generated_Source/PSoC5/cyfitter_cfg.c **** 	{
 390:./Generated_Source/PSoC5/cyfitter_cfg.c **** 		volatile uint8 *srcAddrPtr = &DMAC_TDMEM[i+1].TD1[0];
 631              		.loc 1 390 0
 632 0104 3B68     		ldr	r3, [r7, #0]
ARM GAS  C:\Users\CHARLI~1\AppData\Local\Temp\ccYyN2mF.s 			page 19


 633 0106 4FEAC302 		lsl	r2, r3, #3
 634 010a 47F60803 		movw	r3, #:lower16:1073772552
 635 010e C4F20003 		movt	r3, #:upper16:1073772552
 636 0112 1344     		add	r3, r2, r3
 637 0114 03F10403 		add	r3, r3, #4
 638 0118 7B60     		str	r3, [r7, #4]
 391:./Generated_Source/PSoC5/cyfitter_cfg.c **** 		CY_SET_REG16(srcAddrPtr, (uint16)(uint32)CFG_TD_ADDR0[i]);
 639              		.loc 1 391 0
 640 011a 7A68     		ldr	r2, [r7, #4]
 641 011c 3968     		ldr	r1, [r7, #0]
 642 011e 40F20003 		movw	r3, #:lower16:CFG_TD_ADDR0
 643 0122 C0F20003 		movt	r3, #:upper16:CFG_TD_ADDR0
 644 0126 53F82130 		ldr	r3, [r3, r1, lsl #2]
 645 012a 9BB2     		uxth	r3, r3
 646 012c 1380     		strh	r3, [r2, #0]	@ movhi
 647              	.LBE2:
 648              		.loc 1 388 0
 649 012e 3B68     		ldr	r3, [r7, #0]
 650 0130 03F10103 		add	r3, r3, #1
 651 0134 3B60     		str	r3, [r7, #0]
 652              	.L14:
 653 0136 3B68     		ldr	r3, [r7, #0]
 654 0138 2A2B     		cmp	r3, #42
 655 013a E3DD     		ble	.L15
 392:./Generated_Source/PSoC5/cyfitter_cfg.c **** 	}
 393:./Generated_Source/PSoC5/cyfitter_cfg.c **** 
 394:./Generated_Source/PSoC5/cyfitter_cfg.c **** 	CY_CFG_MEMORY_BARRIER();
 656              		.loc 1 394 0
 395:./Generated_Source/PSoC5/cyfitter_cfg.c **** 	DMAC_CH[0].action[0] = CPU_REQ;    /* initiate the DMA transfer */
 657              		.loc 1 395 0
 658 013c 47F21003 		movw	r3, #:lower16:1073770512
 659 0140 C4F20003 		movt	r3, #:upper16:1073770512
 660 0144 4FF00102 		mov	r2, #1
 661 0148 1A71     		strb	r2, [r3, #4]
 396:./Generated_Source/PSoC5/cyfitter_cfg.c **** 	CY_CFG_MEMORY_BARRIER();
 662              		.loc 1 396 0
 663              	.L16:
 397:./Generated_Source/PSoC5/cyfitter_cfg.c **** 
 398:./Generated_Source/PSoC5/cyfitter_cfg.c **** 	while((CY_GET_REG8(CYREG_PHUB_CH0_BASIC_STATUS) & 0x01u)){}
 664              		.loc 1 398 0
 665 014a 47F21803 		movw	r3, #:lower16:1073770520
 666 014e C4F20003 		movt	r3, #:upper16:1073770520
 667 0152 1B78     		ldrb	r3, [r3, #0]
 668 0154 DBB2     		uxtb	r3, r3
 669 0156 03F00103 		and	r3, r3, #1
 670 015a DBB2     		uxtb	r3, r3
 671 015c 002B     		cmp	r3, #0
 672 015e F4D1     		bne	.L16
 673              	.L17:
 399:./Generated_Source/PSoC5/cyfitter_cfg.c **** 	while((CY_GET_REG8(CYREG_PHUB_CH1_BASIC_STATUS) & 0x01u)){}
 674              		.loc 1 399 0
 675 0160 47F22803 		movw	r3, #:lower16:1073770536
 676 0164 C4F20003 		movt	r3, #:upper16:1073770536
 677 0168 1B78     		ldrb	r3, [r3, #0]
 678 016a DBB2     		uxtb	r3, r3
 679 016c 03F00103 		and	r3, r3, #1
 680 0170 DBB2     		uxtb	r3, r3
ARM GAS  C:\Users\CHARLI~1\AppData\Local\Temp\ccYyN2mF.s 			page 20


 681 0172 002B     		cmp	r3, #0
 682 0174 F4D1     		bne	.L17
 683              	.L18:
 400:./Generated_Source/PSoC5/cyfitter_cfg.c **** 	while((CY_GET_REG8(CYREG_PHUB_CH2_BASIC_STATUS) & 0x01u)){}
 684              		.loc 1 400 0
 685 0176 47F23803 		movw	r3, #:lower16:1073770552
 686 017a C4F20003 		movt	r3, #:upper16:1073770552
 687 017e 1B78     		ldrb	r3, [r3, #0]
 688 0180 DBB2     		uxtb	r3, r3
 689 0182 03F00103 		and	r3, r3, #1
 690 0186 DBB2     		uxtb	r3, r3
 691 0188 002B     		cmp	r3, #0
 692 018a F4D1     		bne	.L18
 693              	.L19:
 401:./Generated_Source/PSoC5/cyfitter_cfg.c **** 	while((CY_GET_REG8(CYREG_PHUB_CH5_BASIC_STATUS) & 0x01u)){}
 694              		.loc 1 401 0
 695 018c 47F26803 		movw	r3, #:lower16:1073770600
 696 0190 C4F20003 		movt	r3, #:upper16:1073770600
 697 0194 1B78     		ldrb	r3, [r3, #0]
 698 0196 DBB2     		uxtb	r3, r3
 699 0198 03F00103 		and	r3, r3, #1
 700 019c DBB2     		uxtb	r3, r3
 701 019e 002B     		cmp	r3, #0
 702 01a0 F4D1     		bne	.L19
 703              	.L20:
 402:./Generated_Source/PSoC5/cyfitter_cfg.c **** 	while((CY_GET_REG8(CYREG_PHUB_CH6_BASIC_STATUS) & 0x01u)){}
 704              		.loc 1 402 0
 705 01a2 47F27803 		movw	r3, #:lower16:1073770616
 706 01a6 C4F20003 		movt	r3, #:upper16:1073770616
 707 01aa 1B78     		ldrb	r3, [r3, #0]
 708 01ac DBB2     		uxtb	r3, r3
 709 01ae 03F00103 		and	r3, r3, #1
 710 01b2 DBB2     		uxtb	r3, r3
 711 01b4 002B     		cmp	r3, #0
 712 01b6 F4D1     		bne	.L20
 403:./Generated_Source/PSoC5/cyfitter_cfg.c **** 
 404:./Generated_Source/PSoC5/cyfitter_cfg.c **** 	CY_SET_REG8(CYREG_PHUB_CH0_BASIC_CFG, 0x00);
 713              		.loc 1 404 0
 714 01b8 47F21003 		movw	r3, #:lower16:1073770512
 715 01bc C4F20003 		movt	r3, #:upper16:1073770512
 716 01c0 4FF00002 		mov	r2, #0
 717 01c4 1A70     		strb	r2, [r3, #0]
 405:./Generated_Source/PSoC5/cyfitter_cfg.c **** 	CY_SET_REG8(CYREG_PHUB_CH1_BASIC_CFG, 0x00);
 718              		.loc 1 405 0
 719 01c6 47F22003 		movw	r3, #:lower16:1073770528
 720 01ca C4F20003 		movt	r3, #:upper16:1073770528
 721 01ce 4FF00002 		mov	r2, #0
 722 01d2 1A70     		strb	r2, [r3, #0]
 406:./Generated_Source/PSoC5/cyfitter_cfg.c **** 	CY_SET_REG8(CYREG_PHUB_CH2_BASIC_CFG, 0x00);
 723              		.loc 1 406 0
 724 01d4 47F23003 		movw	r3, #:lower16:1073770544
 725 01d8 C4F20003 		movt	r3, #:upper16:1073770544
 726 01dc 4FF00002 		mov	r2, #0
 727 01e0 1A70     		strb	r2, [r3, #0]
 407:./Generated_Source/PSoC5/cyfitter_cfg.c **** 	CY_SET_REG8(CYREG_PHUB_CH5_BASIC_CFG, 0x00);
 728              		.loc 1 407 0
 729 01e2 47F26003 		movw	r3, #:lower16:1073770592
ARM GAS  C:\Users\CHARLI~1\AppData\Local\Temp\ccYyN2mF.s 			page 21


 730 01e6 C4F20003 		movt	r3, #:upper16:1073770592
 731 01ea 4FF00002 		mov	r2, #0
 732 01ee 1A70     		strb	r2, [r3, #0]
 408:./Generated_Source/PSoC5/cyfitter_cfg.c **** 	CY_SET_REG8(CYREG_PHUB_CH6_BASIC_CFG, 0x00);
 733              		.loc 1 408 0
 734 01f0 47F27003 		movw	r3, #:lower16:1073770608
 735 01f4 C4F20003 		movt	r3, #:upper16:1073770608
 736 01f8 4FF00002 		mov	r2, #0
 737 01fc 1A70     		strb	r2, [r3, #0]
 409:./Generated_Source/PSoC5/cyfitter_cfg.c **** 
 410:./Generated_Source/PSoC5/cyfitter_cfg.c **** }
 738              		.loc 1 410 0
 739 01fe 07F10C07 		add	r7, r7, #12
 740 0202 BD46     		mov	sp, r7
 741 0204 80BC     		pop	{r7}
 742 0206 7047     		bx	lr
 743              		.cfi_endproc
 744              	.LFE3:
 745              		.size	cfg_dma_init, .-cfg_dma_init
 746              		.section	.text.ClockSetup,"ax",%progbits
 747              		.align	2
 748              		.thumb
 749              		.thumb_func
 750              		.type	ClockSetup, %function
 751              	ClockSetup:
 752              	.LFB4:
 411:./Generated_Source/PSoC5/cyfitter_cfg.c **** static void ClockSetup(void)
 412:./Generated_Source/PSoC5/cyfitter_cfg.c **** {
 753              		.loc 1 412 0
 754              		.cfi_startproc
 755              		@ args = 0, pretend = 0, frame = 16
 756              		@ frame_needed = 1, uses_anonymous_args = 0
 757 0000 80B5     		push	{r7, lr}
 758              	.LCFI12:
 759              		.cfi_def_cfa_offset 8
 760 0002 84B0     		sub	sp, sp, #16
 761              	.LCFI13:
 762              		.cfi_def_cfa_offset 24
 763 0004 00AF     		add	r7, sp, #0
 764              		.cfi_offset 14, -4
 765              		.cfi_offset 7, -8
 766              	.LCFI14:
 767              		.cfi_def_cfa_register 7
 413:./Generated_Source/PSoC5/cyfitter_cfg.c **** 	reg32  timeout;
 414:./Generated_Source/PSoC5/cyfitter_cfg.c **** 	reg32* timeout_p = &timeout;
 768              		.loc 1 414 0
 769 0006 07F10803 		add	r3, r7, #8
 770 000a FB60     		str	r3, [r7, #12]
 415:./Generated_Source/PSoC5/cyfitter_cfg.c **** 	reg8   pllLock;
 416:./Generated_Source/PSoC5/cyfitter_cfg.c **** 
 417:./Generated_Source/PSoC5/cyfitter_cfg.c **** 	CY_SET_XTND_REG24((void CYFAR *)(CYREG_CLKDIST_DCFG0_CFG0), 0x180005);
 771              		.loc 1 417 0
 772 000c 44F28000 		movw	r0, #:lower16:1073758336
 773 0010 C4F20000 		movt	r0, #:upper16:1073758336
 774 0014 40F20501 		movw	r1, #:lower16:1572869
 775 0018 C0F21801 		movt	r1, #:upper16:1572869
 776 001c FFF7FEFF 		bl	CySetReg24
ARM GAS  C:\Users\CHARLI~1\AppData\Local\Temp\ccYyN2mF.s 			page 22


 418:./Generated_Source/PSoC5/cyfitter_cfg.c **** 	CY_SET_XTND_REG24((void CYFAR *)(CYREG_CLKDIST_DCFG1_CFG0), 0x180033);
 777              		.loc 1 418 0
 778 0020 44F28400 		movw	r0, #:lower16:1073758340
 779 0024 C4F20000 		movt	r0, #:upper16:1073758340
 780 0028 40F23301 		movw	r1, #:lower16:1572915
 781 002c C0F21801 		movt	r1, #:upper16:1572915
 782 0030 FFF7FEFF 		bl	CySetReg24
 419:./Generated_Source/PSoC5/cyfitter_cfg.c **** 	CY_SET_XTND_REG8((void CYFAR *)(CYREG_SLOWCLK_ILO_CR0), 0x02);
 783              		.loc 1 419 0
 784 0034 44F20033 		movw	r3, #:lower16:1073758976
 785 0038 C4F20003 		movt	r3, #:upper16:1073758976
 786 003c 4FF00202 		mov	r2, #2
 787 0040 1A70     		strb	r2, [r3, #0]
 420:./Generated_Source/PSoC5/cyfitter_cfg.c **** 	CY_SET_XTND_REG8((void CYFAR *)(CYREG_CLKDIST_CR), 0x08);
 788              		.loc 1 420 0
 789 0042 44F20003 		movw	r3, #:lower16:1073758208
 790 0046 C4F20003 		movt	r3, #:upper16:1073758208
 791 004a 4FF00802 		mov	r2, #8
 792 004e 1A70     		strb	r2, [r3, #0]
 421:./Generated_Source/PSoC5/cyfitter_cfg.c **** 	CY_SET_XTND_REG8((void CYFAR *)(CYREG_FASTCLK_IMO_CR), 0x03);
 793              		.loc 1 421 0
 794 0050 44F20023 		movw	r3, #:lower16:1073758720
 795 0054 C4F20003 		movt	r3, #:upper16:1073758720
 796 0058 4FF00302 		mov	r2, #3
 797 005c 1A70     		strb	r2, [r3, #0]
 422:./Generated_Source/PSoC5/cyfitter_cfg.c **** 	CY_SET_XTND_REG8((void CYFAR *)(CYREG_IMO_TR1), (CY_GET_XTND_REG8(CYREG_FLSHID_CUST_TABLES_IMO_3MH
 798              		.loc 1 422 0
 799 005e 44F2A163 		movw	r3, #:lower16:1073759905
 800 0062 C4F20003 		movt	r3, #:upper16:1073759905
 801 0066 40F20812 		movw	r2, #:lower16:1224737032
 802 006a C4F60012 		movt	r2, #:upper16:1224737032
 803 006e 1278     		ldrb	r2, [r2, #0]
 804 0070 D2B2     		uxtb	r2, r2
 805 0072 1A70     		strb	r2, [r3, #0]
 423:./Generated_Source/PSoC5/cyfitter_cfg.c **** 	CY_SET_XTND_REG16((void CYFAR *)(CYREG_FASTCLK_PLL_P), 0x0008);
 806              		.loc 1 423 0
 807 0074 44F22223 		movw	r3, #:lower16:1073758754
 808 0078 C4F20003 		movt	r3, #:upper16:1073758754
 809 007c 4FF00802 		mov	r2, #8
 810 0080 1A80     		strh	r2, [r3, #0]	@ movhi
 424:./Generated_Source/PSoC5/cyfitter_cfg.c **** 	CY_SET_XTND_REG8((void CYFAR *)(CYREG_CLKDIST_CR), 0x08);
 811              		.loc 1 424 0
 812 0082 44F20003 		movw	r3, #:lower16:1073758208
 813 0086 C4F20003 		movt	r3, #:upper16:1073758208
 814 008a 4FF00802 		mov	r2, #8
 815 008e 1A70     		strb	r2, [r3, #0]
 425:./Generated_Source/PSoC5/cyfitter_cfg.c **** 	CY_SET_XTND_REG16((void CYFAR *)(CYREG_FASTCLK_PLL_CFG0), 0x1051);
 816              		.loc 1 425 0
 817 0090 44F22023 		movw	r3, #:lower16:1073758752
 818 0094 C4F20003 		movt	r3, #:upper16:1073758752
 819 0098 41F25102 		movw	r2, #4177
 820 009c 1A80     		strh	r2, [r3, #0]	@ movhi
 426:./Generated_Source/PSoC5/cyfitter_cfg.c **** 	pllLock = 0;
 821              		.loc 1 426 0
 822 009e 4FF00003 		mov	r3, #0
 823 00a2 FB71     		strb	r3, [r7, #7]
 427:./Generated_Source/PSoC5/cyfitter_cfg.c **** 	for (timeout = 1216; *timeout_p && (pllLock != 0x03u); timeout--) { pllLock = 0x03u & ((pllLock <<
ARM GAS  C:\Users\CHARLI~1\AppData\Local\Temp\ccYyN2mF.s 			page 23


 824              		.loc 1 427 0
 825 00a4 4FF49863 		mov	r3, #1216
 826 00a8 BB60     		str	r3, [r7, #8]
 827 00aa 16E0     		b	.L23
 828              	.L25:
 829 00ac FB79     		ldrb	r3, [r7, #7]
 830 00ae DBB2     		uxtb	r3, r3
 831 00b0 4FEA4303 		lsl	r3, r3, #1
 832 00b4 DAB2     		uxtb	r2, r3
 833 00b6 44F22523 		movw	r3, #:lower16:1073758757
 834 00ba C4F20003 		movt	r3, #:upper16:1073758757
 835 00be 1B78     		ldrb	r3, [r3, #0]
 836 00c0 DBB2     		uxtb	r3, r3
 837 00c2 03F00103 		and	r3, r3, #1
 838 00c6 42EA0303 		orr	r3, r2, r3
 839 00ca DBB2     		uxtb	r3, r3
 840 00cc 03F00303 		and	r3, r3, #3
 841 00d0 FB71     		strb	r3, [r7, #7]
 842 00d2 BB68     		ldr	r3, [r7, #8]
 843 00d4 03F1FF33 		add	r3, r3, #-1
 844 00d8 BB60     		str	r3, [r7, #8]
 845              	.L23:
 846 00da FB68     		ldr	r3, [r7, #12]
 847 00dc 1B68     		ldr	r3, [r3, #0]
 848 00de 002B     		cmp	r3, #0
 849 00e0 03D0     		beq	.L24
 850 00e2 FB79     		ldrb	r3, [r7, #7]
 851 00e4 DBB2     		uxtb	r3, r3
 852 00e6 032B     		cmp	r3, #3
 853 00e8 E0D1     		bne	.L25
 854              	.L24:
 428:./Generated_Source/PSoC5/cyfitter_cfg.c **** 	CY_SET_XTND_REG16((void CYFAR *)(CYREG_CLKDIST_MSTR0), 0x0103);
 855              		.loc 1 428 0
 856 00ea 44F20403 		movw	r3, #:lower16:1073758212
 857 00ee C4F20003 		movt	r3, #:upper16:1073758212
 858 00f2 40F20312 		movw	r2, #259
 859 00f6 1A80     		strh	r2, [r3, #0]	@ movhi
 429:./Generated_Source/PSoC5/cyfitter_cfg.c **** 	CY_SET_XTND_REG8((void CYFAR *)(CYREG_CLKDIST_MSTR0), 0x00);
 860              		.loc 1 429 0
 861 00f8 44F20403 		movw	r3, #:lower16:1073758212
 862 00fc C4F20003 		movt	r3, #:upper16:1073758212
 863 0100 4FF00002 		mov	r2, #0
 864 0104 1A70     		strb	r2, [r3, #0]
 430:./Generated_Source/PSoC5/cyfitter_cfg.c **** 	CY_SET_XTND_REG8((void CYFAR *)(CYREG_CLKDIST_MSTR0), 0x07);
 865              		.loc 1 430 0
 866 0106 44F20403 		movw	r3, #:lower16:1073758212
 867 010a C4F20003 		movt	r3, #:upper16:1073758212
 868 010e 4FF00702 		mov	r2, #7
 869 0112 1A70     		strb	r2, [r3, #0]
 431:./Generated_Source/PSoC5/cyfitter_cfg.c **** 	CY_SET_XTND_REG8((void CYFAR *)(CYREG_CLKDIST_BCFG0), 0x00);
 870              		.loc 1 431 0
 871 0114 44F20603 		movw	r3, #:lower16:1073758214
 872 0118 C4F20003 		movt	r3, #:upper16:1073758214
 873 011c 4FF00002 		mov	r2, #0
 874 0120 1A70     		strb	r2, [r3, #0]
 432:./Generated_Source/PSoC5/cyfitter_cfg.c **** 	CY_SET_XTND_REG8((void CYFAR *)(CYREG_CLKDIST_BCFG2), 0x48);
 875              		.loc 1 432 0
ARM GAS  C:\Users\CHARLI~1\AppData\Local\Temp\ccYyN2mF.s 			page 24


 876 0122 44F20803 		movw	r3, #:lower16:1073758216
 877 0126 C4F20003 		movt	r3, #:upper16:1073758216
 878 012a 4FF04802 		mov	r2, #72
 879 012e 1A70     		strb	r2, [r3, #0]
 433:./Generated_Source/PSoC5/cyfitter_cfg.c **** 	CY_SET_XTND_REG8((void CYFAR *)(CYREG_CLKDIST_MSTR0), 0x00);
 880              		.loc 1 433 0
 881 0130 44F20403 		movw	r3, #:lower16:1073758212
 882 0134 C4F20003 		movt	r3, #:upper16:1073758212
 883 0138 4FF00002 		mov	r2, #0
 884 013c 1A70     		strb	r2, [r3, #0]
 434:./Generated_Source/PSoC5/cyfitter_cfg.c **** 	CY_SET_XTND_REG8((void CYFAR *)(CYREG_CLKDIST_LD), 0x02);
 885              		.loc 1 434 0
 886 013e 44F20103 		movw	r3, #:lower16:1073758209
 887 0142 C4F20003 		movt	r3, #:upper16:1073758209
 888 0146 4FF00202 		mov	r2, #2
 889 014a 1A70     		strb	r2, [r3, #0]
 435:./Generated_Source/PSoC5/cyfitter_cfg.c **** 
 436:./Generated_Source/PSoC5/cyfitter_cfg.c **** 	CY_SET_XTND_REG8((void CYFAR *)(CYREG_PM_ACT_CFG2), ((CY_GET_XTND_REG8(CYREG_PM_ACT_CFG2) | 0x03))
 890              		.loc 1 436 0
 891 014c 44F2A233 		movw	r3, #:lower16:1073759138
 892 0150 C4F20003 		movt	r3, #:upper16:1073759138
 893 0154 44F2A232 		movw	r2, #:lower16:1073759138
 894 0158 C4F20002 		movt	r2, #:upper16:1073759138
 895 015c 1278     		ldrb	r2, [r2, #0]
 896 015e D2B2     		uxtb	r2, r2
 897 0160 42F00302 		orr	r2, r2, #3
 898 0164 D2B2     		uxtb	r2, r2
 899 0166 1A70     		strb	r2, [r3, #0]
 437:./Generated_Source/PSoC5/cyfitter_cfg.c **** }
 900              		.loc 1 437 0
 901 0168 07F11007 		add	r7, r7, #16
 902 016c BD46     		mov	sp, r7
 903 016e 80BD     		pop	{r7, pc}
 904              		.cfi_endproc
 905              	.LFE4:
 906              		.size	ClockSetup, .-ClockSetup
 907              		.section	.text.AnalogSetDefault,"ax",%progbits
 908              		.align	2
 909              		.global	AnalogSetDefault
 910              		.thumb
 911              		.thumb_func
 912              		.type	AnalogSetDefault, %function
 913              	AnalogSetDefault:
 914              	.LFB5:
 438:./Generated_Source/PSoC5/cyfitter_cfg.c **** 
 439:./Generated_Source/PSoC5/cyfitter_cfg.c **** /* Analog API Functions */
 440:./Generated_Source/PSoC5/cyfitter_cfg.c **** void AnalogSetDefault(void)
 441:./Generated_Source/PSoC5/cyfitter_cfg.c **** {
 915              		.loc 1 441 0
 916              		.cfi_startproc
 917              		@ args = 0, pretend = 0, frame = 0
 918              		@ frame_needed = 1, uses_anonymous_args = 0
 919              		@ link register save eliminated.
 920 0000 80B4     		push	{r7}
 921              	.LCFI15:
 922              		.cfi_def_cfa_offset 4
 923 0002 00AF     		add	r7, sp, #0
ARM GAS  C:\Users\CHARLI~1\AppData\Local\Temp\ccYyN2mF.s 			page 25


 924              		.cfi_offset 7, -4
 925              	.LCFI16:
 926              		.cfi_def_cfa_register 7
 442:./Generated_Source/PSoC5/cyfitter_cfg.c **** 	CY_SET_XTND_REG8(CYREG_PUMP_CR0, 0x44);
 927              		.loc 1 442 0
 928 0004 45F67603 		movw	r3, #:lower16:1073764470
 929 0008 C4F20003 		movt	r3, #:upper16:1073764470
 930 000c 4FF04402 		mov	r2, #68
 931 0010 1A70     		strb	r2, [r3, #0]
 443:./Generated_Source/PSoC5/cyfitter_cfg.c **** }
 932              		.loc 1 443 0
 933 0012 BD46     		mov	sp, r7
 934 0014 80BC     		pop	{r7}
 935 0016 7047     		bx	lr
 936              		.cfi_endproc
 937              	.LFE5:
 938              		.size	AnalogSetDefault, .-AnalogSetDefault
 939              		.section	.text.cyfitter_cfg,"ax",%progbits
 940              		.align	2
 941              		.global	cyfitter_cfg
 942              		.thumb
 943              		.thumb_func
 944              		.type	cyfitter_cfg, %function
 945              	cyfitter_cfg:
 946              	.LFB6:
 444:./Generated_Source/PSoC5/cyfitter_cfg.c **** 
 445:./Generated_Source/PSoC5/cyfitter_cfg.c **** #define CY_AMUX_UNUSED CYREG_BOOST_SR
 446:./Generated_Source/PSoC5/cyfitter_cfg.c **** 
 447:./Generated_Source/PSoC5/cyfitter_cfg.c **** /* This function is called by the start-up code for the selected device. */
 448:./Generated_Source/PSoC5/cyfitter_cfg.c **** void cyfitter_cfg(void)
 449:./Generated_Source/PSoC5/cyfitter_cfg.c **** {
 947              		.loc 1 449 0
 948              		.cfi_startproc
 949              		@ args = 0, pretend = 0, frame = 0
 950              		@ frame_needed = 1, uses_anonymous_args = 0
 951 0000 80B5     		push	{r7, lr}
 952              	.LCFI17:
 953              		.cfi_def_cfa_offset 8
 954 0002 00AF     		add	r7, sp, #0
 955              		.cfi_offset 14, -4
 956              		.cfi_offset 7, -8
 957              	.LCFI18:
 958              		.cfi_def_cfa_register 7
 450:./Generated_Source/PSoC5/cyfitter_cfg.c **** #ifdef CYGlobalIntDisable
 451:./Generated_Source/PSoC5/cyfitter_cfg.c **** 	CYGlobalIntDisable;
 959              		.loc 1 451 0
 960              	@ 451 "./Generated_Source/PSoC5/cyfitter_cfg.c" 1
 961 0004 72B6     		CPSID   i
 962              	@ 0 "" 2
 452:./Generated_Source/PSoC5/cyfitter_cfg.c **** #endif
 453:./Generated_Source/PSoC5/cyfitter_cfg.c **** 
 454:./Generated_Source/PSoC5/cyfitter_cfg.c **** 	CY_SET_XTND_REG8((void CYFAR *)(CYREG_CACHE_CC_CTL), ((CYDEV_INSTRUCT_CACHE_ENABLED) ? 0xC0 : 0xC1
 963              		.loc 1 454 0
 964              		.thumb
 965 0006 44F60003 		movw	r3, #:lower16:1073760256
 966 000a C4F20003 		movt	r3, #:upper16:1073760256
 967 000e 6FF03F02 		mvn	r2, #63
ARM GAS  C:\Users\CHARLI~1\AppData\Local\Temp\ccYyN2mF.s 			page 26


 968 0012 1A70     		strb	r2, [r3, #0]
 455:./Generated_Source/PSoC5/cyfitter_cfg.c **** 	CY_SET_XTND_REG8((void CYFAR *)(CYREG_PHUB_CH0_BASIC_CFG), 0x00);
 969              		.loc 1 455 0
 970 0014 47F21003 		movw	r3, #:lower16:1073770512
 971 0018 C4F20003 		movt	r3, #:upper16:1073770512
 972 001c 4FF00002 		mov	r2, #0
 973 0020 1A70     		strb	r2, [r3, #0]
 456:./Generated_Source/PSoC5/cyfitter_cfg.c **** 	CY_SET_XTND_REG8((void CYFAR *)(CYREG_PHUB_CH1_BASIC_CFG), 0x00);
 974              		.loc 1 456 0
 975 0022 47F22003 		movw	r3, #:lower16:1073770528
 976 0026 C4F20003 		movt	r3, #:upper16:1073770528
 977 002a 4FF00002 		mov	r2, #0
 978 002e 1A70     		strb	r2, [r3, #0]
 457:./Generated_Source/PSoC5/cyfitter_cfg.c **** 
 458:./Generated_Source/PSoC5/cyfitter_cfg.c **** 	CY_SET_XTND_REG8((void CYFAR *)(CYREG_ANAIF_CFG_MISC_CR0), 0x01);
 979              		.loc 1 458 0
 980 0030 45F67C03 		movw	r3, #:lower16:1073764476
 981 0034 C4F20003 		movt	r3, #:upper16:1073764476
 982 0038 4FF00102 		mov	r2, #1
 983 003c 1A70     		strb	r2, [r3, #0]
 459:./Generated_Source/PSoC5/cyfitter_cfg.c **** 
 460:./Generated_Source/PSoC5/cyfitter_cfg.c **** 	CY_SET_XTND_REG8(CYREG_MLOGIC_DBG_DBE, (CY_GET_XTND_REG8(CYREG_MLOGIC_DBG_DBE) | 0x01));
 984              		.loc 1 460 0
 985 003e 44F2E863 		movw	r3, #:lower16:1073759976
 986 0042 C4F20003 		movt	r3, #:upper16:1073759976
 987 0046 44F2E862 		movw	r2, #:lower16:1073759976
 988 004a C4F20002 		movt	r2, #:upper16:1073759976
 989 004e 1278     		ldrb	r2, [r2, #0]
 990 0050 D2B2     		uxtb	r2, r2
 991 0052 42F00102 		orr	r2, r2, #1
 992 0056 D2B2     		uxtb	r2, r2
 993 0058 1A70     		strb	r2, [r3, #0]
 461:./Generated_Source/PSoC5/cyfitter_cfg.c **** 	cfg_dma_init();
 994              		.loc 1 461 0
 995 005a FFF7FEFF 		bl	cfg_dma_init
 462:./Generated_Source/PSoC5/cyfitter_cfg.c **** 
 463:./Generated_Source/PSoC5/cyfitter_cfg.c **** 	CYMEMZERO8((void CYFAR *)(CYDEV_PRTDSI_PRT0_BASE), 7);
 996              		.loc 1 463 0
 997 005e 45F20020 		movw	r0, #:lower16:1073762816
 998 0062 C4F20000 		movt	r0, #:upper16:1073762816
 999 0066 4FF00701 		mov	r1, #7
 1000 006a FFF7FEFF 		bl	cymemzero8
 464:./Generated_Source/PSoC5/cyfitter_cfg.c **** 	CYCONFIGCPY8((void CYFAR *)(CYDEV_PRTDSI_PRT1_BASE), (void CYFAR *)(BS_IOPORT_1_VAL), 7);
 1001              		.loc 1 464 0
 1002 006e 45F20820 		movw	r0, #:lower16:1073762824
 1003 0072 C4F20000 		movt	r0, #:upper16:1073762824
 1004 0076 40F65021 		movw	r1, #:lower16:1207962192
 1005 007a C4F60001 		movt	r1, #:upper16:1207962192
 1006 007e 4FF00702 		mov	r2, #7
 1007 0082 FFF7FEFF 		bl	cymemcpy8
 465:./Generated_Source/PSoC5/cyfitter_cfg.c **** 	CYCONFIGCPY8((void CYFAR *)(CYDEV_PRTDSI_PRT2_BASE), (void CYFAR *)(BS_IOPORT_2_VAL), 7);
 1008              		.loc 1 465 0
 1009 0086 45F21020 		movw	r0, #:lower16:1073762832
 1010 008a C4F20000 		movt	r0, #:upper16:1073762832
 1011 008e 40F65821 		movw	r1, #:lower16:1207962200
 1012 0092 C4F60001 		movt	r1, #:upper16:1207962200
 1013 0096 4FF00702 		mov	r2, #7
ARM GAS  C:\Users\CHARLI~1\AppData\Local\Temp\ccYyN2mF.s 			page 27


 1014 009a FFF7FEFF 		bl	cymemcpy8
 466:./Generated_Source/PSoC5/cyfitter_cfg.c **** 	CYMEMZERO8((void CYFAR *)(CYDEV_PRTDSI_PRT3_BASE), 7);
 1015              		.loc 1 466 0
 1016 009e 45F21820 		movw	r0, #:lower16:1073762840
 1017 00a2 C4F20000 		movt	r0, #:upper16:1073762840
 1018 00a6 4FF00701 		mov	r1, #7
 1019 00aa FFF7FEFF 		bl	cymemzero8
 467:./Generated_Source/PSoC5/cyfitter_cfg.c **** 	CYMEMZERO8((void CYFAR *)(CYDEV_PRTDSI_PRT4_BASE), 7);
 1020              		.loc 1 467 0
 1021 00ae 45F22020 		movw	r0, #:lower16:1073762848
 1022 00b2 C4F20000 		movt	r0, #:upper16:1073762848
 1023 00b6 4FF00701 		mov	r1, #7
 1024 00ba FFF7FEFF 		bl	cymemzero8
 468:./Generated_Source/PSoC5/cyfitter_cfg.c **** 	CYMEMZERO8((void CYFAR *)(CYDEV_PRTDSI_PRT5_BASE), 7);
 1025              		.loc 1 468 0
 1026 00be 45F22820 		movw	r0, #:lower16:1073762856
 1027 00c2 C4F20000 		movt	r0, #:upper16:1073762856
 1028 00c6 4FF00701 		mov	r1, #7
 1029 00ca FFF7FEFF 		bl	cymemzero8
 469:./Generated_Source/PSoC5/cyfitter_cfg.c **** 	CYMEMZERO8((void CYFAR *)(CYDEV_PRTDSI_PRT6_BASE), 7);
 1030              		.loc 1 469 0
 1031 00ce 45F23020 		movw	r0, #:lower16:1073762864
 1032 00d2 C4F20000 		movt	r0, #:upper16:1073762864
 1033 00d6 4FF00701 		mov	r1, #7
 1034 00da FFF7FEFF 		bl	cymemzero8
 470:./Generated_Source/PSoC5/cyfitter_cfg.c **** 	CYMEMZERO8((void CYFAR *)(CYDEV_PRTDSI_PRT12_BASE), 6);
 1035              		.loc 1 470 0
 1036 00de 45F26020 		movw	r0, #:lower16:1073762912
 1037 00e2 C4F20000 		movt	r0, #:upper16:1073762912
 1038 00e6 4FF00601 		mov	r1, #6
 1039 00ea FFF7FEFF 		bl	cymemzero8
 471:./Generated_Source/PSoC5/cyfitter_cfg.c **** 	CYMEMZERO8((void CYFAR *)(CYDEV_PRTDSI_PRT15_BASE), 7);
 1040              		.loc 1 471 0
 1041 00ee 45F27820 		movw	r0, #:lower16:1073762936
 1042 00f2 C4F20000 		movt	r0, #:upper16:1073762936
 1043 00f6 4FF00701 		mov	r1, #7
 1044 00fa FFF7FEFF 		bl	cymemzero8
 472:./Generated_Source/PSoC5/cyfitter_cfg.c **** 	/* BYTES WRITTEN: 62 */
 473:./Generated_Source/PSoC5/cyfitter_cfg.c **** 
 474:./Generated_Source/PSoC5/cyfitter_cfg.c **** 	/* Enable digital routing */
 475:./Generated_Source/PSoC5/cyfitter_cfg.c **** 	CY_SET_XTND_REG8(CYREG_BCTL0_BANK_CTL, CY_GET_XTND_REG8(CYREG_BCTL0_BANK_CTL) | 0x02u);
 1045              		.loc 1 475 0
 1046 00fe 45F20303 		movw	r3, #:lower16:1073827843
 1047 0102 C4F20103 		movt	r3, #:upper16:1073827843
 1048 0106 45F20302 		movw	r2, #:lower16:1073827843
 1049 010a C4F20102 		movt	r2, #:upper16:1073827843
 1050 010e 1278     		ldrb	r2, [r2, #0]
 1051 0110 D2B2     		uxtb	r2, r2
 1052 0112 42F00202 		orr	r2, r2, #2
 1053 0116 D2B2     		uxtb	r2, r2
 1054 0118 1A70     		strb	r2, [r3, #0]
 476:./Generated_Source/PSoC5/cyfitter_cfg.c **** 	CY_SET_XTND_REG8(CYREG_BCTL1_BANK_CTL, CY_GET_XTND_REG8(CYREG_BCTL1_BANK_CTL) | 0x02u);
 1055              		.loc 1 476 0
 1056 011a 45F21303 		movw	r3, #:lower16:1073827859
 1057 011e C4F20103 		movt	r3, #:upper16:1073827859
 1058 0122 45F21302 		movw	r2, #:lower16:1073827859
 1059 0126 C4F20102 		movt	r2, #:upper16:1073827859
ARM GAS  C:\Users\CHARLI~1\AppData\Local\Temp\ccYyN2mF.s 			page 28


 1060 012a 1278     		ldrb	r2, [r2, #0]
 1061 012c D2B2     		uxtb	r2, r2
 1062 012e 42F00202 		orr	r2, r2, #2
 1063 0132 D2B2     		uxtb	r2, r2
 1064 0134 1A70     		strb	r2, [r3, #0]
 477:./Generated_Source/PSoC5/cyfitter_cfg.c **** 
 478:./Generated_Source/PSoC5/cyfitter_cfg.c **** 	/* Enable UDB array */
 479:./Generated_Source/PSoC5/cyfitter_cfg.c **** 	CY_SET_XTND_REG8(CYREG_PM_ACT_CFG0, CY_GET_XTND_REG8(CYREG_PM_ACT_CFG0) | 0x40u);
 1065              		.loc 1 479 0
 1066 0136 44F2A033 		movw	r3, #:lower16:1073759136
 1067 013a C4F20003 		movt	r3, #:upper16:1073759136
 1068 013e 44F2A032 		movw	r2, #:lower16:1073759136
 1069 0142 C4F20002 		movt	r2, #:upper16:1073759136
 1070 0146 1278     		ldrb	r2, [r2, #0]
 1071 0148 D2B2     		uxtb	r2, r2
 1072 014a 42F04002 		orr	r2, r2, #64
 1073 014e D2B2     		uxtb	r2, r2
 1074 0150 1A70     		strb	r2, [r3, #0]
 480:./Generated_Source/PSoC5/cyfitter_cfg.c **** 	CY_SET_XTND_REG8(CYREG_PM_AVAIL_CR2, CY_GET_XTND_REG8(CYREG_PM_AVAIL_CR2) | 0x10u);
 1075              		.loc 1 480 0
 1076 0152 44F2C233 		movw	r3, #:lower16:1073759170
 1077 0156 C4F20003 		movt	r3, #:upper16:1073759170
 1078 015a 44F2C232 		movw	r2, #:lower16:1073759170
 1079 015e C4F20002 		movt	r2, #:upper16:1073759170
 1080 0162 1278     		ldrb	r2, [r2, #0]
 1081 0164 D2B2     		uxtb	r2, r2
 1082 0166 42F01002 		orr	r2, r2, #16
 1083 016a D2B2     		uxtb	r2, r2
 1084 016c 1A70     		strb	r2, [r3, #0]
 481:./Generated_Source/PSoC5/cyfitter_cfg.c **** 
 482:./Generated_Source/PSoC5/cyfitter_cfg.c **** 	CYCONFIGCPY((void CYFAR *)(CYREG_PRT1_DM0), (void CYFAR *)(BS_IOPINS0_1_VAL), 8);
 1085              		.loc 1 482 0
 1086 016e 45F21210 		movw	r0, #:lower16:1073762578
 1087 0172 C4F20000 		movt	r0, #:upper16:1073762578
 1088 0176 40F64021 		movw	r1, #:lower16:1207962176
 1089 017a C4F60001 		movt	r1, #:upper16:1207962176
 1090 017e 4FF00802 		mov	r2, #8
 1091 0182 FFF7FEFF 		bl	memcpy
 483:./Generated_Source/PSoC5/cyfitter_cfg.c **** 	CYCONFIGCPY((void CYFAR *)(CYREG_PRT2_DM0), (void CYFAR *)(BS_IOPINS0_2_VAL), 8);
 1092              		.loc 1 483 0
 1093 0186 45F22210 		movw	r0, #:lower16:1073762594
 1094 018a C4F20000 		movt	r0, #:upper16:1073762594
 1095 018e 40F64821 		movw	r1, #:lower16:1207962184
 1096 0192 C4F60001 		movt	r1, #:upper16:1207962184
 1097 0196 4FF00802 		mov	r2, #8
 1098 019a FFF7FEFF 		bl	memcpy
 484:./Generated_Source/PSoC5/cyfitter_cfg.c **** 	/* BYTES WRITTEN: 16 */
 485:./Generated_Source/PSoC5/cyfitter_cfg.c **** 
 486:./Generated_Source/PSoC5/cyfitter_cfg.c **** 	CY_SET_XTND_REG8((void CYFAR *)(CYREG_CACHE_CC_CTL), ((CYDEV_INSTRUCT_CACHE_ENABLED) ? 0x00 : 0x01
 1099              		.loc 1 486 0
 1100 019e 44F60003 		movw	r3, #:lower16:1073760256
 1101 01a2 C4F20003 		movt	r3, #:upper16:1073760256
 1102 01a6 4FF00002 		mov	r2, #0
 1103 01aa 1A70     		strb	r2, [r3, #0]
 487:./Generated_Source/PSoC5/cyfitter_cfg.c **** 	ClockSetup();
 1104              		.loc 1 487 0
 1105 01ac FFF7FEFF 		bl	ClockSetup
ARM GAS  C:\Users\CHARLI~1\AppData\Local\Temp\ccYyN2mF.s 			page 29


 488:./Generated_Source/PSoC5/cyfitter_cfg.c **** 	CY_SET_XTND_REG8((void CYFAR *)(CYREG_CACHE_CC_CTL), ((CYDEV_INSTRUCT_CACHE_ENABLED) ? 0x80 : 0x81
 1106              		.loc 1 488 0
 1107 01b0 44F60003 		movw	r3, #:lower16:1073760256
 1108 01b4 C4F20003 		movt	r3, #:upper16:1073760256
 1109 01b8 6FF07F02 		mvn	r2, #127
 1110 01bc 1A70     		strb	r2, [r3, #0]
 489:./Generated_Source/PSoC5/cyfitter_cfg.c **** 
 490:./Generated_Source/PSoC5/cyfitter_cfg.c **** 	AnalogSetDefault();
 1111              		.loc 1 490 0
 1112 01be FFF7FEFF 		bl	AnalogSetDefault
 491:./Generated_Source/PSoC5/cyfitter_cfg.c **** 
 492:./Generated_Source/PSoC5/cyfitter_cfg.c **** 	/* Configure alternate active mode */
 493:./Generated_Source/PSoC5/cyfitter_cfg.c **** 	CYCONFIGCPY((void CYFAR *)CYDEV_PM_STBY_BASE, (void CYFAR *)CYDEV_PM_ACT_BASE, 12);
 1113              		.loc 1 493 0
 1114 01c2 44F2B030 		movw	r0, #:lower16:1073759152
 1115 01c6 C4F20000 		movt	r0, #:upper16:1073759152
 1116 01ca 44F2A031 		movw	r1, #:lower16:1073759136
 1117 01ce C4F20001 		movt	r1, #:upper16:1073759136
 1118 01d2 4FF00C02 		mov	r2, #12
 1119 01d6 FFF7FEFF 		bl	memcpy
 494:./Generated_Source/PSoC5/cyfitter_cfg.c **** 	CY_SET_XTND_REG8(CYREG_PM_STBY_CFG0, CY_GET_XTND_REG8(CYREG_PM_STBY_CFG0) & ~0x02u);	/* Disable CP
 1120              		.loc 1 494 0
 1121 01da 44F2B033 		movw	r3, #:lower16:1073759152
 1122 01de C4F20003 		movt	r3, #:upper16:1073759152
 1123 01e2 44F2B032 		movw	r2, #:lower16:1073759152
 1124 01e6 C4F20002 		movt	r2, #:upper16:1073759152
 1125 01ea 1278     		ldrb	r2, [r2, #0]
 1126 01ec D2B2     		uxtb	r2, r2
 1127 01ee 02F0FD02 		and	r2, r2, #253
 1128 01f2 1A70     		strb	r2, [r3, #0]
 495:./Generated_Source/PSoC5/cyfitter_cfg.c **** }
 1129              		.loc 1 495 0
 1130 01f4 80BD     		pop	{r7, pc}
 1131              		.cfi_endproc
 1132              	.LFE6:
 1133              		.size	cyfitter_cfg, .-cyfitter_cfg
 1134 01f6 00BF     		.text
 1135              	.Letext0:
 1136              		.section	.debug_loc,"",%progbits
 1137              	.Ldebug_loc0:
 1138              	.LLST0:
 1139 0000 00000000 		.4byte	.LFB0
 1140 0004 02000000 		.4byte	.LCFI0
 1141 0008 0100     		.2byte	0x1
 1142 000a 5D       		.byte	0x5d
 1143 000b 02000000 		.4byte	.LCFI0
 1144 000f 04000000 		.4byte	.LCFI1
 1145 0013 0200     		.2byte	0x2
 1146 0015 7D       		.byte	0x7d
 1147 0016 04       		.sleb128 4
 1148 0017 04000000 		.4byte	.LCFI1
 1149 001b 06000000 		.4byte	.LCFI2
 1150 001f 0200     		.2byte	0x2
 1151 0021 7D       		.byte	0x7d
 1152 0022 10       		.sleb128 16
 1153 0023 06000000 		.4byte	.LCFI2
 1154 0027 0C000000 		.4byte	.LFE0
ARM GAS  C:\Users\CHARLI~1\AppData\Local\Temp\ccYyN2mF.s 			page 30


 1155 002b 0200     		.2byte	0x2
 1156 002d 77       		.byte	0x77
 1157 002e 10       		.sleb128 16
 1158 002f 00000000 		.4byte	0x0
 1159 0033 00000000 		.4byte	0x0
 1160              	.LLST1:
 1161 0037 00000000 		.4byte	.LFB1
 1162 003b 02000000 		.4byte	.LCFI3
 1163 003f 0100     		.2byte	0x1
 1164 0041 5D       		.byte	0x5d
 1165 0042 02000000 		.4byte	.LCFI3
 1166 0046 04000000 		.4byte	.LCFI4
 1167 004a 0200     		.2byte	0x2
 1168 004c 7D       		.byte	0x7d
 1169 004d 04       		.sleb128 4
 1170 004e 04000000 		.4byte	.LCFI4
 1171 0052 06000000 		.4byte	.LCFI5
 1172 0056 0200     		.2byte	0x2
 1173 0058 7D       		.byte	0x7d
 1174 0059 18       		.sleb128 24
 1175 005a 06000000 		.4byte	.LCFI5
 1176 005e 42000000 		.4byte	.LFE1
 1177 0062 0200     		.2byte	0x2
 1178 0064 77       		.byte	0x77
 1179 0065 18       		.sleb128 24
 1180 0066 00000000 		.4byte	0x0
 1181 006a 00000000 		.4byte	0x0
 1182              	.LLST2:
 1183 006e 00000000 		.4byte	.LFB2
 1184 0072 02000000 		.4byte	.LCFI6
 1185 0076 0100     		.2byte	0x1
 1186 0078 5D       		.byte	0x5d
 1187 0079 02000000 		.4byte	.LCFI6
 1188 007d 04000000 		.4byte	.LCFI7
 1189 0081 0200     		.2byte	0x2
 1190 0083 7D       		.byte	0x7d
 1191 0084 04       		.sleb128 4
 1192 0085 04000000 		.4byte	.LCFI7
 1193 0089 06000000 		.4byte	.LCFI8
 1194 008d 0200     		.2byte	0x2
 1195 008f 7D       		.byte	0x7d
 1196 0090 20       		.sleb128 32
 1197 0091 06000000 		.4byte	.LCFI8
 1198 0095 50000000 		.4byte	.LFE2
 1199 0099 0200     		.2byte	0x2
 1200 009b 77       		.byte	0x77
 1201 009c 20       		.sleb128 32
 1202 009d 00000000 		.4byte	0x0
 1203 00a1 00000000 		.4byte	0x0
 1204              	.LLST3:
 1205 00a5 00000000 		.4byte	.LFB3
 1206 00a9 02000000 		.4byte	.LCFI9
 1207 00ad 0100     		.2byte	0x1
 1208 00af 5D       		.byte	0x5d
 1209 00b0 02000000 		.4byte	.LCFI9
 1210 00b4 04000000 		.4byte	.LCFI10
 1211 00b8 0200     		.2byte	0x2
ARM GAS  C:\Users\CHARLI~1\AppData\Local\Temp\ccYyN2mF.s 			page 31


 1212 00ba 7D       		.byte	0x7d
 1213 00bb 04       		.sleb128 4
 1214 00bc 04000000 		.4byte	.LCFI10
 1215 00c0 06000000 		.4byte	.LCFI11
 1216 00c4 0200     		.2byte	0x2
 1217 00c6 7D       		.byte	0x7d
 1218 00c7 10       		.sleb128 16
 1219 00c8 06000000 		.4byte	.LCFI11
 1220 00cc 08020000 		.4byte	.LFE3
 1221 00d0 0200     		.2byte	0x2
 1222 00d2 77       		.byte	0x77
 1223 00d3 10       		.sleb128 16
 1224 00d4 00000000 		.4byte	0x0
 1225 00d8 00000000 		.4byte	0x0
 1226              	.LLST4:
 1227 00dc 00000000 		.4byte	.LFB4
 1228 00e0 02000000 		.4byte	.LCFI12
 1229 00e4 0100     		.2byte	0x1
 1230 00e6 5D       		.byte	0x5d
 1231 00e7 02000000 		.4byte	.LCFI12
 1232 00eb 04000000 		.4byte	.LCFI13
 1233 00ef 0200     		.2byte	0x2
 1234 00f1 7D       		.byte	0x7d
 1235 00f2 08       		.sleb128 8
 1236 00f3 04000000 		.4byte	.LCFI13
 1237 00f7 06000000 		.4byte	.LCFI14
 1238 00fb 0200     		.2byte	0x2
 1239 00fd 7D       		.byte	0x7d
 1240 00fe 18       		.sleb128 24
 1241 00ff 06000000 		.4byte	.LCFI14
 1242 0103 70010000 		.4byte	.LFE4
 1243 0107 0200     		.2byte	0x2
 1244 0109 77       		.byte	0x77
 1245 010a 18       		.sleb128 24
 1246 010b 00000000 		.4byte	0x0
 1247 010f 00000000 		.4byte	0x0
 1248              	.LLST5:
 1249 0113 00000000 		.4byte	.LFB5
 1250 0117 02000000 		.4byte	.LCFI15
 1251 011b 0100     		.2byte	0x1
 1252 011d 5D       		.byte	0x5d
 1253 011e 02000000 		.4byte	.LCFI15
 1254 0122 04000000 		.4byte	.LCFI16
 1255 0126 0200     		.2byte	0x2
 1256 0128 7D       		.byte	0x7d
 1257 0129 04       		.sleb128 4
 1258 012a 04000000 		.4byte	.LCFI16
 1259 012e 18000000 		.4byte	.LFE5
 1260 0132 0200     		.2byte	0x2
 1261 0134 77       		.byte	0x77
 1262 0135 04       		.sleb128 4
 1263 0136 00000000 		.4byte	0x0
 1264 013a 00000000 		.4byte	0x0
 1265              	.LLST6:
 1266 013e 00000000 		.4byte	.LFB6
 1267 0142 02000000 		.4byte	.LCFI17
 1268 0146 0100     		.2byte	0x1
ARM GAS  C:\Users\CHARLI~1\AppData\Local\Temp\ccYyN2mF.s 			page 32


 1269 0148 5D       		.byte	0x5d
 1270 0149 02000000 		.4byte	.LCFI17
 1271 014d 04000000 		.4byte	.LCFI18
 1272 0151 0200     		.2byte	0x2
 1273 0153 7D       		.byte	0x7d
 1274 0154 08       		.sleb128 8
 1275 0155 04000000 		.4byte	.LCFI18
 1276 0159 F6010000 		.4byte	.LFE6
 1277 015d 0200     		.2byte	0x2
 1278 015f 77       		.byte	0x77
 1279 0160 08       		.sleb128 8
 1280 0161 00000000 		.4byte	0x0
 1281 0165 00000000 		.4byte	0x0
 1282              		.file 2 "./Generated_Source/PSoC5/cytypes.h"
 1283              		.file 3 "./Generated_Source/PSoC5/CyDmac.h"
 1284              		.section	.debug_info
 1285 0000 57040000 		.4byte	0x457
 1286 0004 0200     		.2byte	0x2
 1287 0006 00000000 		.4byte	.Ldebug_abbrev0
 1288 000a 04       		.byte	0x4
 1289 000b 01       		.uleb128 0x1
 1290 000c B9010000 		.4byte	.LASF52
 1291 0010 01       		.byte	0x1
 1292 0011 76000000 		.4byte	.LASF53
 1293 0015 02020000 		.4byte	.LASF54
 1294 0019 00000000 		.4byte	0x0
 1295 001d 00000000 		.4byte	0x0
 1296 0021 00000000 		.4byte	.Ldebug_ranges0+0x0
 1297 0025 00000000 		.4byte	.Ldebug_line0
 1298 0029 02       		.uleb128 0x2
 1299 002a 01       		.byte	0x1
 1300 002b 06       		.byte	0x6
 1301 002c 53020000 		.4byte	.LASF0
 1302 0030 02       		.uleb128 0x2
 1303 0031 01       		.byte	0x1
 1304 0032 08       		.byte	0x8
 1305 0033 09010000 		.4byte	.LASF1
 1306 0037 02       		.uleb128 0x2
 1307 0038 02       		.byte	0x2
 1308 0039 05       		.byte	0x5
 1309 003a F2010000 		.4byte	.LASF2
 1310 003e 02       		.uleb128 0x2
 1311 003f 02       		.byte	0x2
 1312 0040 07       		.byte	0x7
 1313 0041 5F020000 		.4byte	.LASF3
 1314 0045 03       		.uleb128 0x3
 1315 0046 04       		.byte	0x4
 1316 0047 05       		.byte	0x5
 1317 0048 696E7400 		.ascii	"int\000"
 1318 004c 02       		.uleb128 0x2
 1319 004d 04       		.byte	0x4
 1320 004e 07       		.byte	0x7
 1321 004f 60010000 		.4byte	.LASF4
 1322 0053 02       		.uleb128 0x2
 1323 0054 08       		.byte	0x8
 1324 0055 05       		.byte	0x5
 1325 0056 00000000 		.4byte	.LASF5
ARM GAS  C:\Users\CHARLI~1\AppData\Local\Temp\ccYyN2mF.s 			page 33


 1326 005a 02       		.uleb128 0x2
 1327 005b 08       		.byte	0x8
 1328 005c 07       		.byte	0x7
 1329 005d 80010000 		.4byte	.LASF6
 1330 0061 02       		.uleb128 0x2
 1331 0062 04       		.byte	0x4
 1332 0063 05       		.byte	0x5
 1333 0064 45020000 		.4byte	.LASF7
 1334 0068 04       		.uleb128 0x4
 1335 0069 04       		.byte	0x4
 1336 006a 07       		.byte	0x7
 1337 006b 05       		.uleb128 0x5
 1338 006c 04       		.byte	0x4
 1339 006d 02       		.uleb128 0x2
 1340 006e 04       		.byte	0x4
 1341 006f 07       		.byte	0x7
 1342 0070 CA000000 		.4byte	.LASF8
 1343 0074 02       		.uleb128 0x2
 1344 0075 01       		.byte	0x1
 1345 0076 08       		.byte	0x8
 1346 0077 4E020000 		.4byte	.LASF9
 1347 007b 06       		.uleb128 0x6
 1348 007c FC010000 		.4byte	.LASF10
 1349 0080 02       		.byte	0x2
 1350 0081 2A       		.byte	0x2a
 1351 0082 30000000 		.4byte	0x30
 1352 0086 06       		.uleb128 0x6
 1353 0087 35010000 		.4byte	.LASF11
 1354 008b 02       		.byte	0x2
 1355 008c 2B       		.byte	0x2b
 1356 008d 3E000000 		.4byte	0x3e
 1357 0091 06       		.uleb128 0x6
 1358 0092 46010000 		.4byte	.LASF12
 1359 0096 02       		.byte	0x2
 1360 0097 2C       		.byte	0x2c
 1361 0098 6D000000 		.4byte	0x6d
 1362 009c 07       		.uleb128 0x7
 1363 009d 7B000000 		.4byte	0x7b
 1364 00a1 08       		.uleb128 0x8
 1365 00a2 3C020000 		.4byte	.LASF17
 1366 00a6 10       		.byte	0x10
 1367 00a7 03       		.byte	0x3
 1368 00a8 28       		.byte	0x28
 1369 00a9 E6000000 		.4byte	0xe6
 1370 00ad 09       		.uleb128 0x9
 1371 00ae 93020000 		.4byte	.LASF13
 1372 00b2 03       		.byte	0x3
 1373 00b3 29       		.byte	0x29
 1374 00b4 F6000000 		.4byte	0xf6
 1375 00b8 02       		.byte	0x2
 1376 00b9 23       		.byte	0x23
 1377 00ba 00       		.uleb128 0x0
 1378 00bb 09       		.uleb128 0x9
 1379 00bc 21010000 		.4byte	.LASF14
 1380 00c0 03       		.byte	0x3
 1381 00c1 2A       		.byte	0x2a
 1382 00c2 FB000000 		.4byte	0xfb
ARM GAS  C:\Users\CHARLI~1\AppData\Local\Temp\ccYyN2mF.s 			page 34


 1383 00c6 02       		.byte	0x2
 1384 00c7 23       		.byte	0x23
 1385 00c8 04       		.uleb128 0x4
 1386 00c9 09       		.uleb128 0x9
 1387 00ca B8000000 		.4byte	.LASF15
 1388 00ce 03       		.byte	0x3
 1389 00cf 2B       		.byte	0x2b
 1390 00d0 00010000 		.4byte	0x100
 1391 00d4 02       		.byte	0x2
 1392 00d5 23       		.byte	0x23
 1393 00d6 08       		.uleb128 0x8
 1394 00d7 09       		.uleb128 0x9
 1395 00d8 4D010000 		.4byte	.LASF16
 1396 00dc 03       		.byte	0x3
 1397 00dd 2C       		.byte	0x2c
 1398 00de 05010000 		.4byte	0x105
 1399 00e2 02       		.byte	0x2
 1400 00e3 23       		.byte	0x23
 1401 00e4 0C       		.uleb128 0xc
 1402 00e5 00       		.byte	0x0
 1403 00e6 0A       		.uleb128 0xa
 1404 00e7 7B000000 		.4byte	0x7b
 1405 00eb F6000000 		.4byte	0xf6
 1406 00ef 0B       		.uleb128 0xb
 1407 00f0 68000000 		.4byte	0x68
 1408 00f4 03       		.byte	0x3
 1409 00f5 00       		.byte	0x0
 1410 00f6 07       		.uleb128 0x7
 1411 00f7 E6000000 		.4byte	0xe6
 1412 00fb 07       		.uleb128 0x7
 1413 00fc E6000000 		.4byte	0xe6
 1414 0100 07       		.uleb128 0x7
 1415 0101 E6000000 		.4byte	0xe6
 1416 0105 07       		.uleb128 0x7
 1417 0106 E6000000 		.4byte	0xe6
 1418 010a 08       		.uleb128 0x8
 1419 010b 97010000 		.4byte	.LASF18
 1420 010f 08       		.byte	0x8
 1421 0110 03       		.byte	0x3
 1422 0111 31       		.byte	0x31
 1423 0112 33010000 		.4byte	0x133
 1424 0116 09       		.uleb128 0x9
 1425 0117 4E000000 		.4byte	.LASF19
 1426 011b 03       		.byte	0x3
 1427 011c 32       		.byte	0x32
 1428 011d 33010000 		.4byte	0x133
 1429 0121 02       		.byte	0x2
 1430 0122 23       		.byte	0x23
 1431 0123 00       		.uleb128 0x0
 1432 0124 09       		.uleb128 0x9
 1433 0125 ED010000 		.4byte	.LASF20
 1434 0129 03       		.byte	0x3
 1435 012a 33       		.byte	0x33
 1436 012b 38010000 		.4byte	0x138
 1437 012f 02       		.byte	0x2
 1438 0130 23       		.byte	0x23
 1439 0131 04       		.uleb128 0x4
ARM GAS  C:\Users\CHARLI~1\AppData\Local\Temp\ccYyN2mF.s 			page 35


 1440 0132 00       		.byte	0x0
 1441 0133 07       		.uleb128 0x7
 1442 0134 E6000000 		.4byte	0xe6
 1443 0138 07       		.uleb128 0x7
 1444 0139 E6000000 		.4byte	0xe6
 1445 013d 08       		.uleb128 0x8
 1446 013e 53000000 		.4byte	.LASF21
 1447 0142 08       		.byte	0x8
 1448 0143 03       		.byte	0x3
 1449 0144 38       		.byte	0x38
 1450 0145 66010000 		.4byte	0x166
 1451 0149 0C       		.uleb128 0xc
 1452 014a 54443000 		.ascii	"TD0\000"
 1453 014e 03       		.byte	0x3
 1454 014f 39       		.byte	0x39
 1455 0150 66010000 		.4byte	0x166
 1456 0154 02       		.byte	0x2
 1457 0155 23       		.byte	0x23
 1458 0156 00       		.uleb128 0x0
 1459 0157 0C       		.uleb128 0xc
 1460 0158 54443100 		.ascii	"TD1\000"
 1461 015c 03       		.byte	0x3
 1462 015d 3A       		.byte	0x3a
 1463 015e 6B010000 		.4byte	0x16b
 1464 0162 02       		.byte	0x2
 1465 0163 23       		.byte	0x23
 1466 0164 04       		.uleb128 0x4
 1467 0165 00       		.byte	0x0
 1468 0166 07       		.uleb128 0x7
 1469 0167 E6000000 		.4byte	0xe6
 1470 016b 07       		.uleb128 0x7
 1471 016c E6000000 		.4byte	0xe6
 1472 0170 0D       		.uleb128 0xd
 1473 0171 04       		.byte	0x4
 1474 0172 76010000 		.4byte	0x176
 1475 0176 0E       		.uleb128 0xe
 1476 0177 08       		.uleb128 0x8
 1477 0178 A9010000 		.4byte	.LASF22
 1478 017c 08       		.byte	0x8
 1479 017d 01       		.byte	0x1
 1480 017e 80       		.byte	0x80
 1481 017f CA010000 		.4byte	0x1ca
 1482 0183 09       		.uleb128 0x9
 1483 0184 C5000000 		.4byte	.LASF23
 1484 0188 01       		.byte	0x1
 1485 0189 81       		.byte	0x81
 1486 018a 86000000 		.4byte	0x86
 1487 018e 02       		.byte	0x2
 1488 018f 23       		.byte	0x23
 1489 0190 00       		.uleb128 0x0
 1490 0191 09       		.uleb128 0x9
 1491 0192 E1000000 		.4byte	.LASF24
 1492 0196 01       		.byte	0x1
 1493 0197 82       		.byte	0x82
 1494 0198 7B000000 		.4byte	0x7b
 1495 019c 02       		.byte	0x2
 1496 019d 23       		.byte	0x23
ARM GAS  C:\Users\CHARLI~1\AppData\Local\Temp\ccYyN2mF.s 			page 36


 1497 019e 02       		.uleb128 0x2
 1498 019f 09       		.uleb128 0x9
 1499 01a0 6D010000 		.4byte	.LASF25
 1500 01a4 01       		.byte	0x1
 1501 01a5 83       		.byte	0x83
 1502 01a6 7B000000 		.4byte	0x7b
 1503 01aa 02       		.byte	0x2
 1504 01ab 23       		.byte	0x23
 1505 01ac 03       		.uleb128 0x3
 1506 01ad 0C       		.uleb128 0xc
 1507 01ae 73726300 		.ascii	"src\000"
 1508 01b2 01       		.byte	0x1
 1509 01b3 84       		.byte	0x84
 1510 01b4 86000000 		.4byte	0x86
 1511 01b8 02       		.byte	0x2
 1512 01b9 23       		.byte	0x23
 1513 01ba 04       		.uleb128 0x4
 1514 01bb 09       		.uleb128 0x9
 1515 01bc A4010000 		.4byte	.LASF26
 1516 01c0 01       		.byte	0x1
 1517 01c1 85       		.byte	0x85
 1518 01c2 86000000 		.4byte	0x86
 1519 01c6 02       		.byte	0x2
 1520 01c7 23       		.byte	0x23
 1521 01c8 06       		.uleb128 0x6
 1522 01c9 00       		.byte	0x0
 1523 01ca 0F       		.uleb128 0xf
 1524 01cb A4000000 		.4byte	.LASF27
 1525 01cf 01       		.byte	0x1
 1526 01d0 31       		.byte	0x31
 1527 01d1 01       		.byte	0x1
 1528 01d2 00000000 		.4byte	.LFB0
 1529 01d6 0C000000 		.4byte	.LFE0
 1530 01da 00000000 		.4byte	.LLST0
 1531 01de F1010000 		.4byte	0x1f1
 1532 01e2 10       		.uleb128 0x10
 1533 01e3 3C010000 		.4byte	.LASF29
 1534 01e7 01       		.byte	0x1
 1535 01e8 31       		.byte	0x31
 1536 01e9 7B000000 		.4byte	0x7b
 1537 01ed 02       		.byte	0x2
 1538 01ee 91       		.byte	0x91
 1539 01ef 77       		.sleb128 -9
 1540 01f0 00       		.byte	0x0
 1541 01f1 0F       		.uleb128 0xf
 1542 01f2 25000000 		.4byte	.LASF28
 1543 01f6 01       		.byte	0x1
 1544 01f7 91       		.byte	0x91
 1545 01f8 01       		.byte	0x1
 1546 01f9 00000000 		.4byte	.LFB1
 1547 01fd 42000000 		.4byte	.LFE1
 1548 0201 37000000 		.4byte	.LLST1
 1549 0205 34020000 		.4byte	0x234
 1550 0209 10       		.uleb128 0x10
 1551 020a DC000000 		.4byte	.LASF30
 1552 020e 01       		.byte	0x1
 1553 020f 91       		.byte	0x91
ARM GAS  C:\Users\CHARLI~1\AppData\Local\Temp\ccYyN2mF.s 			page 37


 1554 0210 6B000000 		.4byte	0x6b
 1555 0214 02       		.byte	0x2
 1556 0215 91       		.byte	0x91
 1557 0216 6C       		.sleb128 -20
 1558 0217 10       		.uleb128 0x10
 1559 0218 3D000000 		.4byte	.LASF31
 1560 021c 01       		.byte	0x1
 1561 021d 91       		.byte	0x91
 1562 021e 4C000000 		.4byte	0x4c
 1563 0222 02       		.byte	0x2
 1564 0223 91       		.byte	0x91
 1565 0224 68       		.sleb128 -24
 1566 0225 11       		.uleb128 0x11
 1567 0226 0E000000 		.4byte	.LASF33
 1568 022a 01       		.byte	0x1
 1569 022b 93       		.byte	0x93
 1570 022c 34020000 		.4byte	0x234
 1571 0230 02       		.byte	0x2
 1572 0231 91       		.byte	0x91
 1573 0232 74       		.sleb128 -12
 1574 0233 00       		.byte	0x0
 1575 0234 0D       		.uleb128 0xd
 1576 0235 04       		.byte	0x4
 1577 0236 9C000000 		.4byte	0x9c
 1578 023a 0F       		.uleb128 0xf
 1579 023b 56010000 		.4byte	.LASF32
 1580 023f 01       		.byte	0x1
 1581 0240 9E       		.byte	0x9e
 1582 0241 01       		.byte	0x1
 1583 0242 00000000 		.4byte	.LFB2
 1584 0246 50000000 		.4byte	.LFE2
 1585 024a 6E000000 		.4byte	.LLST2
 1586 024e 99020000 		.4byte	0x299
 1587 0252 10       		.uleb128 0x10
 1588 0253 A4010000 		.4byte	.LASF26
 1589 0257 01       		.byte	0x1
 1590 0258 9E       		.byte	0x9e
 1591 0259 6B000000 		.4byte	0x6b
 1592 025d 02       		.byte	0x2
 1593 025e 91       		.byte	0x91
 1594 025f 6C       		.sleb128 -20
 1595 0260 12       		.uleb128 0x12
 1596 0261 73726300 		.ascii	"src\000"
 1597 0265 01       		.byte	0x1
 1598 0266 9E       		.byte	0x9e
 1599 0267 70010000 		.4byte	0x170
 1600 026b 02       		.byte	0x2
 1601 026c 91       		.byte	0x91
 1602 026d 68       		.sleb128 -24
 1603 026e 10       		.uleb128 0x10
 1604 026f 3D000000 		.4byte	.LASF31
 1605 0273 01       		.byte	0x1
 1606 0274 9E       		.byte	0x9e
 1607 0275 4C000000 		.4byte	0x4c
 1608 0279 02       		.byte	0x2
 1609 027a 91       		.byte	0x91
 1610 027b 64       		.sleb128 -28
ARM GAS  C:\Users\CHARLI~1\AppData\Local\Temp\ccYyN2mF.s 			page 38


 1611 027c 11       		.uleb128 0x11
 1612 027d 9E000000 		.4byte	.LASF34
 1613 0281 01       		.byte	0x1
 1614 0282 A0       		.byte	0xa0
 1615 0283 34020000 		.4byte	0x234
 1616 0287 02       		.byte	0x2
 1617 0288 91       		.byte	0x91
 1618 0289 70       		.sleb128 -16
 1619 028a 11       		.uleb128 0x11
 1620 028b 72020000 		.4byte	.LASF35
 1621 028f 01       		.byte	0x1
 1622 0290 A1       		.byte	0xa1
 1623 0291 99020000 		.4byte	0x299
 1624 0295 02       		.byte	0x2
 1625 0296 91       		.byte	0x91
 1626 0297 74       		.sleb128 -12
 1627 0298 00       		.byte	0x0
 1628 0299 0D       		.uleb128 0xd
 1629 029a 04       		.byte	0x4
 1630 029b 9F020000 		.4byte	0x29f
 1631 029f 13       		.uleb128 0x13
 1632 02a0 7B000000 		.4byte	0x7b
 1633 02a4 14       		.uleb128 0x14
 1634 02a5 ED000000 		.4byte	.LASF36
 1635 02a9 01       		.byte	0x1
 1636 02aa 6901     		.2byte	0x169
 1637 02ac 01       		.byte	0x1
 1638 02ad 00000000 		.4byte	.LFB3
 1639 02b1 08020000 		.4byte	.LFE3
 1640 02b5 A5000000 		.4byte	.LLST3
 1641 02b9 E4020000 		.4byte	0x2e4
 1642 02bd 15       		.uleb128 0x15
 1643 02be 6900     		.ascii	"i\000"
 1644 02c0 01       		.byte	0x1
 1645 02c1 6B01     		.2byte	0x16b
 1646 02c3 45000000 		.4byte	0x45
 1647 02c7 02       		.byte	0x2
 1648 02c8 91       		.byte	0x91
 1649 02c9 70       		.sleb128 -16
 1650 02ca 16       		.uleb128 0x16
 1651 02cb 04010000 		.4byte	.LBB2
 1652 02cf 2E010000 		.4byte	.LBE2
 1653 02d3 17       		.uleb128 0x17
 1654 02d4 AE010000 		.4byte	.LASF37
 1655 02d8 01       		.byte	0x1
 1656 02d9 8601     		.2byte	0x186
 1657 02db 34020000 		.4byte	0x234
 1658 02df 02       		.byte	0x2
 1659 02e0 91       		.byte	0x91
 1660 02e1 74       		.sleb128 -12
 1661 02e2 00       		.byte	0x0
 1662 02e3 00       		.byte	0x0
 1663 02e4 14       		.uleb128 0x14
 1664 02e5 43000000 		.4byte	.LASF38
 1665 02e9 01       		.byte	0x1
 1666 02ea 9B01     		.2byte	0x19b
 1667 02ec 01       		.byte	0x1
ARM GAS  C:\Users\CHARLI~1\AppData\Local\Temp\ccYyN2mF.s 			page 39


 1668 02ed 00000000 		.4byte	.LFB4
 1669 02f1 70010000 		.4byte	.LFE4
 1670 02f5 DC000000 		.4byte	.LLST4
 1671 02f9 2B030000 		.4byte	0x32b
 1672 02fd 17       		.uleb128 0x17
 1673 02fe D6010000 		.4byte	.LASF39
 1674 0302 01       		.byte	0x1
 1675 0303 9D01     		.2byte	0x19d
 1676 0305 2B030000 		.4byte	0x32b
 1677 0309 02       		.byte	0x2
 1678 030a 91       		.byte	0x91
 1679 030b 70       		.sleb128 -16
 1680 030c 17       		.uleb128 0x17
 1681 030d 17010000 		.4byte	.LASF40
 1682 0311 01       		.byte	0x1
 1683 0312 9E01     		.2byte	0x19e
 1684 0314 30030000 		.4byte	0x330
 1685 0318 02       		.byte	0x2
 1686 0319 91       		.byte	0x91
 1687 031a 74       		.sleb128 -12
 1688 031b 17       		.uleb128 0x17
 1689 031c 5F000000 		.4byte	.LASF41
 1690 0320 01       		.byte	0x1
 1691 0321 9F01     		.2byte	0x19f
 1692 0323 36030000 		.4byte	0x336
 1693 0327 02       		.byte	0x2
 1694 0328 91       		.byte	0x91
 1695 0329 6F       		.sleb128 -17
 1696 032a 00       		.byte	0x0
 1697 032b 07       		.uleb128 0x7
 1698 032c 6D000000 		.4byte	0x6d
 1699 0330 0D       		.uleb128 0xd
 1700 0331 04       		.byte	0x4
 1701 0332 2B030000 		.4byte	0x32b
 1702 0336 07       		.uleb128 0x7
 1703 0337 30000000 		.4byte	0x30
 1704 033b 18       		.uleb128 0x18
 1705 033c 01       		.byte	0x1
 1706 033d 14000000 		.4byte	.LASF42
 1707 0341 01       		.byte	0x1
 1708 0342 B801     		.2byte	0x1b8
 1709 0344 01       		.byte	0x1
 1710 0345 00000000 		.4byte	.LFB5
 1711 0349 18000000 		.4byte	.LFE5
 1712 034d 13010000 		.4byte	.LLST5
 1713 0351 18       		.uleb128 0x18
 1714 0352 01       		.byte	0x1
 1715 0353 73010000 		.4byte	.LASF43
 1716 0357 01       		.byte	0x1
 1717 0358 C001     		.2byte	0x1c0
 1718 035a 01       		.byte	0x1
 1719 035b 00000000 		.4byte	.LFB6
 1720 035f F6010000 		.4byte	.LFE6
 1721 0363 3E010000 		.4byte	.LLST6
 1722 0367 0A       		.uleb128 0xa
 1723 0368 7B000000 		.4byte	0x7b
 1724 036c 77030000 		.4byte	0x377
ARM GAS  C:\Users\CHARLI~1\AppData\Local\Temp\ccYyN2mF.s 			page 40


 1725 0370 0B       		.uleb128 0xb
 1726 0371 68000000 		.4byte	0x68
 1727 0375 07       		.byte	0x7
 1728 0376 00       		.byte	0x0
 1729 0377 17       		.uleb128 0x17
 1730 0378 84020000 		.4byte	.LASF44
 1731 037c 01       		.byte	0x1
 1732 037d 0201     		.2byte	0x102
 1733 037f 89030000 		.4byte	0x389
 1734 0383 05       		.byte	0x5
 1735 0384 03       		.byte	0x3
 1736 0385 00000000 		.4byte	CH1_ADDR_DATA0
 1737 0389 13       		.uleb128 0x13
 1738 038a 67030000 		.4byte	0x367
 1739 038e 17       		.uleb128 0x17
 1740 038f FA000000 		.4byte	.LASF45
 1741 0393 01       		.byte	0x1
 1742 0394 0401     		.2byte	0x104
 1743 0396 A0030000 		.4byte	0x3a0
 1744 039a 05       		.byte	0x5
 1745 039b 03       		.byte	0x3
 1746 039c 08000000 		.4byte	CH2_ADDR_DATA0
 1747 03a0 13       		.uleb128 0x13
 1748 03a1 67030000 		.4byte	0x367
 1749 03a5 17       		.uleb128 0x17
 1750 03a6 DE010000 		.4byte	.LASF46
 1751 03aa 01       		.byte	0x1
 1752 03ab 0601     		.2byte	0x106
 1753 03ad B7030000 		.4byte	0x3b7
 1754 03b1 05       		.byte	0x5
 1755 03b2 03       		.byte	0x3
 1756 03b3 10000000 		.4byte	CH5_ADDR_DATA0
 1757 03b7 13       		.uleb128 0x13
 1758 03b8 67030000 		.4byte	0x367
 1759 03bc 17       		.uleb128 0x17
 1760 03bd 67000000 		.4byte	.LASF47
 1761 03c1 01       		.byte	0x1
 1762 03c2 0801     		.2byte	0x108
 1763 03c4 CE030000 		.4byte	0x3ce
 1764 03c8 05       		.byte	0x5
 1765 03c9 03       		.byte	0x3
 1766 03ca 18000000 		.4byte	CH6_ADDR_DATA0
 1767 03ce 13       		.uleb128 0x13
 1768 03cf 67030000 		.4byte	0x367
 1769 03d3 0A       		.uleb128 0xa
 1770 03d4 7B000000 		.4byte	0x7b
 1771 03d8 E3030000 		.4byte	0x3e3
 1772 03dc 0B       		.uleb128 0xb
 1773 03dd 68000000 		.4byte	0x68
 1774 03e1 04       		.byte	0x4
 1775 03e2 00       		.byte	0x0
 1776 03e3 17       		.uleb128 0x17
 1777 03e4 C5010000 		.4byte	.LASF48
 1778 03e8 01       		.byte	0x1
 1779 03e9 0A01     		.2byte	0x10a
 1780 03eb F5030000 		.4byte	0x3f5
 1781 03ef 05       		.byte	0x5
ARM GAS  C:\Users\CHARLI~1\AppData\Local\Temp\ccYyN2mF.s 			page 41


 1782 03f0 03       		.byte	0x3
 1783 03f1 20000000 		.4byte	DMA_TD_START_CMD
 1784 03f5 13       		.uleb128 0x13
 1785 03f6 D3030000 		.4byte	0x3d3
 1786 03fa 17       		.uleb128 0x17
 1787 03fb 28010000 		.4byte	.LASF49
 1788 03ff 01       		.byte	0x1
 1789 0400 0C01     		.2byte	0x10c
 1790 0402 91000000 		.4byte	0x91
 1791 0406 05       		.byte	0x5
 1792 0407 03       		.byte	0x3
 1793 0408 00000000 		.4byte	DMA_ZERO_VAL
 1794 040c 0A       		.uleb128 0xa
 1795 040d 77010000 		.4byte	0x177
 1796 0411 1C040000 		.4byte	0x41c
 1797 0415 0B       		.uleb128 0xb
 1798 0416 68000000 		.4byte	0x68
 1799 041a 2A       		.byte	0x2a
 1800 041b 00       		.byte	0x0
 1801 041c 17       		.uleb128 0x17
 1802 041d 77020000 		.4byte	.LASF50
 1803 0421 01       		.byte	0x1
 1804 0422 0E01     		.2byte	0x10e
 1805 0424 2E040000 		.4byte	0x42e
 1806 0428 05       		.byte	0x5
 1807 0429 03       		.byte	0x3
 1808 042a 28000000 		.4byte	CFG_TD_LIST0
 1809 042e 13       		.uleb128 0x13
 1810 042f 0C040000 		.4byte	0x40c
 1811 0433 0A       		.uleb128 0xa
 1812 0434 70010000 		.4byte	0x170
 1813 0438 43040000 		.4byte	0x443
 1814 043c 0B       		.uleb128 0xb
 1815 043d 68000000 		.4byte	0x68
 1816 0441 2A       		.byte	0x2a
 1817 0442 00       		.byte	0x0
 1818 0443 17       		.uleb128 0x17
 1819 0444 30000000 		.4byte	.LASF51
 1820 0448 01       		.byte	0x1
 1821 0449 3C01     		.2byte	0x13c
 1822 044b 55040000 		.4byte	0x455
 1823 044f 05       		.byte	0x5
 1824 0450 03       		.byte	0x3
 1825 0451 00000000 		.4byte	CFG_TD_ADDR0
 1826 0455 13       		.uleb128 0x13
 1827 0456 33040000 		.4byte	0x433
 1828 045a 00       		.byte	0x0
 1829              		.section	.debug_abbrev
 1830 0000 01       		.uleb128 0x1
 1831 0001 11       		.uleb128 0x11
 1832 0002 01       		.byte	0x1
 1833 0003 25       		.uleb128 0x25
 1834 0004 0E       		.uleb128 0xe
 1835 0005 13       		.uleb128 0x13
 1836 0006 0B       		.uleb128 0xb
 1837 0007 03       		.uleb128 0x3
 1838 0008 0E       		.uleb128 0xe
ARM GAS  C:\Users\CHARLI~1\AppData\Local\Temp\ccYyN2mF.s 			page 42


 1839 0009 1B       		.uleb128 0x1b
 1840 000a 0E       		.uleb128 0xe
 1841 000b 11       		.uleb128 0x11
 1842 000c 01       		.uleb128 0x1
 1843 000d 52       		.uleb128 0x52
 1844 000e 01       		.uleb128 0x1
 1845 000f 55       		.uleb128 0x55
 1846 0010 06       		.uleb128 0x6
 1847 0011 10       		.uleb128 0x10
 1848 0012 06       		.uleb128 0x6
 1849 0013 00       		.byte	0x0
 1850 0014 00       		.byte	0x0
 1851 0015 02       		.uleb128 0x2
 1852 0016 24       		.uleb128 0x24
 1853 0017 00       		.byte	0x0
 1854 0018 0B       		.uleb128 0xb
 1855 0019 0B       		.uleb128 0xb
 1856 001a 3E       		.uleb128 0x3e
 1857 001b 0B       		.uleb128 0xb
 1858 001c 03       		.uleb128 0x3
 1859 001d 0E       		.uleb128 0xe
 1860 001e 00       		.byte	0x0
 1861 001f 00       		.byte	0x0
 1862 0020 03       		.uleb128 0x3
 1863 0021 24       		.uleb128 0x24
 1864 0022 00       		.byte	0x0
 1865 0023 0B       		.uleb128 0xb
 1866 0024 0B       		.uleb128 0xb
 1867 0025 3E       		.uleb128 0x3e
 1868 0026 0B       		.uleb128 0xb
 1869 0027 03       		.uleb128 0x3
 1870 0028 08       		.uleb128 0x8
 1871 0029 00       		.byte	0x0
 1872 002a 00       		.byte	0x0
 1873 002b 04       		.uleb128 0x4
 1874 002c 24       		.uleb128 0x24
 1875 002d 00       		.byte	0x0
 1876 002e 0B       		.uleb128 0xb
 1877 002f 0B       		.uleb128 0xb
 1878 0030 3E       		.uleb128 0x3e
 1879 0031 0B       		.uleb128 0xb
 1880 0032 00       		.byte	0x0
 1881 0033 00       		.byte	0x0
 1882 0034 05       		.uleb128 0x5
 1883 0035 0F       		.uleb128 0xf
 1884 0036 00       		.byte	0x0
 1885 0037 0B       		.uleb128 0xb
 1886 0038 0B       		.uleb128 0xb
 1887 0039 00       		.byte	0x0
 1888 003a 00       		.byte	0x0
 1889 003b 06       		.uleb128 0x6
 1890 003c 16       		.uleb128 0x16
 1891 003d 00       		.byte	0x0
 1892 003e 03       		.uleb128 0x3
 1893 003f 0E       		.uleb128 0xe
 1894 0040 3A       		.uleb128 0x3a
 1895 0041 0B       		.uleb128 0xb
ARM GAS  C:\Users\CHARLI~1\AppData\Local\Temp\ccYyN2mF.s 			page 43


 1896 0042 3B       		.uleb128 0x3b
 1897 0043 0B       		.uleb128 0xb
 1898 0044 49       		.uleb128 0x49
 1899 0045 13       		.uleb128 0x13
 1900 0046 00       		.byte	0x0
 1901 0047 00       		.byte	0x0
 1902 0048 07       		.uleb128 0x7
 1903 0049 35       		.uleb128 0x35
 1904 004a 00       		.byte	0x0
 1905 004b 49       		.uleb128 0x49
 1906 004c 13       		.uleb128 0x13
 1907 004d 00       		.byte	0x0
 1908 004e 00       		.byte	0x0
 1909 004f 08       		.uleb128 0x8
 1910 0050 13       		.uleb128 0x13
 1911 0051 01       		.byte	0x1
 1912 0052 03       		.uleb128 0x3
 1913 0053 0E       		.uleb128 0xe
 1914 0054 0B       		.uleb128 0xb
 1915 0055 0B       		.uleb128 0xb
 1916 0056 3A       		.uleb128 0x3a
 1917 0057 0B       		.uleb128 0xb
 1918 0058 3B       		.uleb128 0x3b
 1919 0059 0B       		.uleb128 0xb
 1920 005a 01       		.uleb128 0x1
 1921 005b 13       		.uleb128 0x13
 1922 005c 00       		.byte	0x0
 1923 005d 00       		.byte	0x0
 1924 005e 09       		.uleb128 0x9
 1925 005f 0D       		.uleb128 0xd
 1926 0060 00       		.byte	0x0
 1927 0061 03       		.uleb128 0x3
 1928 0062 0E       		.uleb128 0xe
 1929 0063 3A       		.uleb128 0x3a
 1930 0064 0B       		.uleb128 0xb
 1931 0065 3B       		.uleb128 0x3b
 1932 0066 0B       		.uleb128 0xb
 1933 0067 49       		.uleb128 0x49
 1934 0068 13       		.uleb128 0x13
 1935 0069 38       		.uleb128 0x38
 1936 006a 0A       		.uleb128 0xa
 1937 006b 00       		.byte	0x0
 1938 006c 00       		.byte	0x0
 1939 006d 0A       		.uleb128 0xa
 1940 006e 01       		.uleb128 0x1
 1941 006f 01       		.byte	0x1
 1942 0070 49       		.uleb128 0x49
 1943 0071 13       		.uleb128 0x13
 1944 0072 01       		.uleb128 0x1
 1945 0073 13       		.uleb128 0x13
 1946 0074 00       		.byte	0x0
 1947 0075 00       		.byte	0x0
 1948 0076 0B       		.uleb128 0xb
 1949 0077 21       		.uleb128 0x21
 1950 0078 00       		.byte	0x0
 1951 0079 49       		.uleb128 0x49
 1952 007a 13       		.uleb128 0x13
ARM GAS  C:\Users\CHARLI~1\AppData\Local\Temp\ccYyN2mF.s 			page 44


 1953 007b 2F       		.uleb128 0x2f
 1954 007c 0B       		.uleb128 0xb
 1955 007d 00       		.byte	0x0
 1956 007e 00       		.byte	0x0
 1957 007f 0C       		.uleb128 0xc
 1958 0080 0D       		.uleb128 0xd
 1959 0081 00       		.byte	0x0
 1960 0082 03       		.uleb128 0x3
 1961 0083 08       		.uleb128 0x8
 1962 0084 3A       		.uleb128 0x3a
 1963 0085 0B       		.uleb128 0xb
 1964 0086 3B       		.uleb128 0x3b
 1965 0087 0B       		.uleb128 0xb
 1966 0088 49       		.uleb128 0x49
 1967 0089 13       		.uleb128 0x13
 1968 008a 38       		.uleb128 0x38
 1969 008b 0A       		.uleb128 0xa
 1970 008c 00       		.byte	0x0
 1971 008d 00       		.byte	0x0
 1972 008e 0D       		.uleb128 0xd
 1973 008f 0F       		.uleb128 0xf
 1974 0090 00       		.byte	0x0
 1975 0091 0B       		.uleb128 0xb
 1976 0092 0B       		.uleb128 0xb
 1977 0093 49       		.uleb128 0x49
 1978 0094 13       		.uleb128 0x13
 1979 0095 00       		.byte	0x0
 1980 0096 00       		.byte	0x0
 1981 0097 0E       		.uleb128 0xe
 1982 0098 26       		.uleb128 0x26
 1983 0099 00       		.byte	0x0
 1984 009a 00       		.byte	0x0
 1985 009b 00       		.byte	0x0
 1986 009c 0F       		.uleb128 0xf
 1987 009d 2E       		.uleb128 0x2e
 1988 009e 01       		.byte	0x1
 1989 009f 03       		.uleb128 0x3
 1990 00a0 0E       		.uleb128 0xe
 1991 00a1 3A       		.uleb128 0x3a
 1992 00a2 0B       		.uleb128 0xb
 1993 00a3 3B       		.uleb128 0x3b
 1994 00a4 0B       		.uleb128 0xb
 1995 00a5 27       		.uleb128 0x27
 1996 00a6 0C       		.uleb128 0xc
 1997 00a7 11       		.uleb128 0x11
 1998 00a8 01       		.uleb128 0x1
 1999 00a9 12       		.uleb128 0x12
 2000 00aa 01       		.uleb128 0x1
 2001 00ab 40       		.uleb128 0x40
 2002 00ac 06       		.uleb128 0x6
 2003 00ad 01       		.uleb128 0x1
 2004 00ae 13       		.uleb128 0x13
 2005 00af 00       		.byte	0x0
 2006 00b0 00       		.byte	0x0
 2007 00b1 10       		.uleb128 0x10
 2008 00b2 05       		.uleb128 0x5
 2009 00b3 00       		.byte	0x0
ARM GAS  C:\Users\CHARLI~1\AppData\Local\Temp\ccYyN2mF.s 			page 45


 2010 00b4 03       		.uleb128 0x3
 2011 00b5 0E       		.uleb128 0xe
 2012 00b6 3A       		.uleb128 0x3a
 2013 00b7 0B       		.uleb128 0xb
 2014 00b8 3B       		.uleb128 0x3b
 2015 00b9 0B       		.uleb128 0xb
 2016 00ba 49       		.uleb128 0x49
 2017 00bb 13       		.uleb128 0x13
 2018 00bc 02       		.uleb128 0x2
 2019 00bd 0A       		.uleb128 0xa
 2020 00be 00       		.byte	0x0
 2021 00bf 00       		.byte	0x0
 2022 00c0 11       		.uleb128 0x11
 2023 00c1 34       		.uleb128 0x34
 2024 00c2 00       		.byte	0x0
 2025 00c3 03       		.uleb128 0x3
 2026 00c4 0E       		.uleb128 0xe
 2027 00c5 3A       		.uleb128 0x3a
 2028 00c6 0B       		.uleb128 0xb
 2029 00c7 3B       		.uleb128 0x3b
 2030 00c8 0B       		.uleb128 0xb
 2031 00c9 49       		.uleb128 0x49
 2032 00ca 13       		.uleb128 0x13
 2033 00cb 02       		.uleb128 0x2
 2034 00cc 0A       		.uleb128 0xa
 2035 00cd 00       		.byte	0x0
 2036 00ce 00       		.byte	0x0
 2037 00cf 12       		.uleb128 0x12
 2038 00d0 05       		.uleb128 0x5
 2039 00d1 00       		.byte	0x0
 2040 00d2 03       		.uleb128 0x3
 2041 00d3 08       		.uleb128 0x8
 2042 00d4 3A       		.uleb128 0x3a
 2043 00d5 0B       		.uleb128 0xb
 2044 00d6 3B       		.uleb128 0x3b
 2045 00d7 0B       		.uleb128 0xb
 2046 00d8 49       		.uleb128 0x49
 2047 00d9 13       		.uleb128 0x13
 2048 00da 02       		.uleb128 0x2
 2049 00db 0A       		.uleb128 0xa
 2050 00dc 00       		.byte	0x0
 2051 00dd 00       		.byte	0x0
 2052 00de 13       		.uleb128 0x13
 2053 00df 26       		.uleb128 0x26
 2054 00e0 00       		.byte	0x0
 2055 00e1 49       		.uleb128 0x49
 2056 00e2 13       		.uleb128 0x13
 2057 00e3 00       		.byte	0x0
 2058 00e4 00       		.byte	0x0
 2059 00e5 14       		.uleb128 0x14
 2060 00e6 2E       		.uleb128 0x2e
 2061 00e7 01       		.byte	0x1
 2062 00e8 03       		.uleb128 0x3
 2063 00e9 0E       		.uleb128 0xe
 2064 00ea 3A       		.uleb128 0x3a
 2065 00eb 0B       		.uleb128 0xb
 2066 00ec 3B       		.uleb128 0x3b
ARM GAS  C:\Users\CHARLI~1\AppData\Local\Temp\ccYyN2mF.s 			page 46


 2067 00ed 05       		.uleb128 0x5
 2068 00ee 27       		.uleb128 0x27
 2069 00ef 0C       		.uleb128 0xc
 2070 00f0 11       		.uleb128 0x11
 2071 00f1 01       		.uleb128 0x1
 2072 00f2 12       		.uleb128 0x12
 2073 00f3 01       		.uleb128 0x1
 2074 00f4 40       		.uleb128 0x40
 2075 00f5 06       		.uleb128 0x6
 2076 00f6 01       		.uleb128 0x1
 2077 00f7 13       		.uleb128 0x13
 2078 00f8 00       		.byte	0x0
 2079 00f9 00       		.byte	0x0
 2080 00fa 15       		.uleb128 0x15
 2081 00fb 34       		.uleb128 0x34
 2082 00fc 00       		.byte	0x0
 2083 00fd 03       		.uleb128 0x3
 2084 00fe 08       		.uleb128 0x8
 2085 00ff 3A       		.uleb128 0x3a
 2086 0100 0B       		.uleb128 0xb
 2087 0101 3B       		.uleb128 0x3b
 2088 0102 05       		.uleb128 0x5
 2089 0103 49       		.uleb128 0x49
 2090 0104 13       		.uleb128 0x13
 2091 0105 02       		.uleb128 0x2
 2092 0106 0A       		.uleb128 0xa
 2093 0107 00       		.byte	0x0
 2094 0108 00       		.byte	0x0
 2095 0109 16       		.uleb128 0x16
 2096 010a 0B       		.uleb128 0xb
 2097 010b 01       		.byte	0x1
 2098 010c 11       		.uleb128 0x11
 2099 010d 01       		.uleb128 0x1
 2100 010e 12       		.uleb128 0x12
 2101 010f 01       		.uleb128 0x1
 2102 0110 00       		.byte	0x0
 2103 0111 00       		.byte	0x0
 2104 0112 17       		.uleb128 0x17
 2105 0113 34       		.uleb128 0x34
 2106 0114 00       		.byte	0x0
 2107 0115 03       		.uleb128 0x3
 2108 0116 0E       		.uleb128 0xe
 2109 0117 3A       		.uleb128 0x3a
 2110 0118 0B       		.uleb128 0xb
 2111 0119 3B       		.uleb128 0x3b
 2112 011a 05       		.uleb128 0x5
 2113 011b 49       		.uleb128 0x49
 2114 011c 13       		.uleb128 0x13
 2115 011d 02       		.uleb128 0x2
 2116 011e 0A       		.uleb128 0xa
 2117 011f 00       		.byte	0x0
 2118 0120 00       		.byte	0x0
 2119 0121 18       		.uleb128 0x18
 2120 0122 2E       		.uleb128 0x2e
 2121 0123 00       		.byte	0x0
 2122 0124 3F       		.uleb128 0x3f
 2123 0125 0C       		.uleb128 0xc
ARM GAS  C:\Users\CHARLI~1\AppData\Local\Temp\ccYyN2mF.s 			page 47


 2124 0126 03       		.uleb128 0x3
 2125 0127 0E       		.uleb128 0xe
 2126 0128 3A       		.uleb128 0x3a
 2127 0129 0B       		.uleb128 0xb
 2128 012a 3B       		.uleb128 0x3b
 2129 012b 05       		.uleb128 0x5
 2130 012c 27       		.uleb128 0x27
 2131 012d 0C       		.uleb128 0xc
 2132 012e 11       		.uleb128 0x11
 2133 012f 01       		.uleb128 0x1
 2134 0130 12       		.uleb128 0x12
 2135 0131 01       		.uleb128 0x1
 2136 0132 40       		.uleb128 0x40
 2137 0133 06       		.uleb128 0x6
 2138 0134 00       		.byte	0x0
 2139 0135 00       		.byte	0x0
 2140 0136 00       		.byte	0x0
 2141              		.section	.debug_pubnames,"",%progbits
 2142 0000 34000000 		.4byte	0x34
 2143 0004 0200     		.2byte	0x2
 2144 0006 00000000 		.4byte	.Ldebug_info0
 2145 000a 5B040000 		.4byte	0x45b
 2146 000e 3B030000 		.4byte	0x33b
 2147 0012 416E616C 		.ascii	"AnalogSetDefault\000"
 2147      6F675365 
 2147      74446566 
 2147      61756C74 
 2147      00
 2148 0023 51030000 		.4byte	0x351
 2149 0027 63796669 		.ascii	"cyfitter_cfg\000"
 2149      74746572 
 2149      5F636667 
 2149      00
 2150 0034 00000000 		.4byte	0x0
 2151              		.section	.debug_aranges,"",%progbits
 2152 0000 4C000000 		.4byte	0x4c
 2153 0004 0200     		.2byte	0x2
 2154 0006 00000000 		.4byte	.Ldebug_info0
 2155 000a 04       		.byte	0x4
 2156 000b 00       		.byte	0x0
 2157 000c 0000     		.2byte	0x0
 2158 000e 0000     		.2byte	0x0
 2159 0010 00000000 		.4byte	.LFB0
 2160 0014 0C000000 		.4byte	.LFE0-.LFB0
 2161 0018 00000000 		.4byte	.LFB1
 2162 001c 42000000 		.4byte	.LFE1-.LFB1
 2163 0020 00000000 		.4byte	.LFB2
 2164 0024 50000000 		.4byte	.LFE2-.LFB2
 2165 0028 00000000 		.4byte	.LFB3
 2166 002c 08020000 		.4byte	.LFE3-.LFB3
 2167 0030 00000000 		.4byte	.LFB4
 2168 0034 70010000 		.4byte	.LFE4-.LFB4
 2169 0038 00000000 		.4byte	.LFB5
 2170 003c 18000000 		.4byte	.LFE5-.LFB5
 2171 0040 00000000 		.4byte	.LFB6
 2172 0044 F6010000 		.4byte	.LFE6-.LFB6
 2173 0048 00000000 		.4byte	0x0
ARM GAS  C:\Users\CHARLI~1\AppData\Local\Temp\ccYyN2mF.s 			page 48


 2174 004c 00000000 		.4byte	0x0
 2175              		.section	.debug_ranges,"",%progbits
 2176              	.Ldebug_ranges0:
 2177 0000 00000000 		.4byte	.Ltext0
 2178 0004 00000000 		.4byte	.Letext0
 2179 0008 00000000 		.4byte	.LFB0
 2180 000c 0C000000 		.4byte	.LFE0
 2181 0010 00000000 		.4byte	.LFB1
 2182 0014 42000000 		.4byte	.LFE1
 2183 0018 00000000 		.4byte	.LFB2
 2184 001c 50000000 		.4byte	.LFE2
 2185 0020 00000000 		.4byte	.LFB3
 2186 0024 08020000 		.4byte	.LFE3
 2187 0028 00000000 		.4byte	.LFB4
 2188 002c 70010000 		.4byte	.LFE4
 2189 0030 00000000 		.4byte	.LFB5
 2190 0034 18000000 		.4byte	.LFE5
 2191 0038 00000000 		.4byte	.LFB6
 2192 003c F6010000 		.4byte	.LFE6
 2193 0040 00000000 		.4byte	0x0
 2194 0044 00000000 		.4byte	0x0
 2195              		.section	.debug_str,"MS",%progbits,1
 2196              	.LASF5:
 2197 0000 6C6F6E67 		.ascii	"long long int\000"
 2197      206C6F6E 
 2197      6720696E 
 2197      7400
 2198              	.LASF33:
 2199 000e 61646472 		.ascii	"addr8\000"
 2199      3800
 2200              	.LASF42:
 2201 0014 416E616C 		.ascii	"AnalogSetDefault\000"
 2201      6F675365 
 2201      74446566 
 2201      61756C74 
 2201      00
 2202              	.LASF28:
 2203 0025 63796D65 		.ascii	"cymemzero8\000"
 2203      6D7A6572 
 2203      6F3800
 2204              	.LASF51:
 2205 0030 4346475F 		.ascii	"CFG_TD_ADDR0\000"
 2205      54445F41 
 2205      44445230 
 2205      00
 2206              	.LASF31:
 2207 003d 636F756E 		.ascii	"count\000"
 2207      7400
 2208              	.LASF38:
 2209 0043 436C6F63 		.ascii	"ClockSetup\000"
 2209      6B536574 
 2209      757000
 2210              	.LASF19:
 2211 004e 43464730 		.ascii	"CFG0\000"
 2211      00
 2212              	.LASF21:
 2213 0053 5F646D61 		.ascii	"_dmac_tdmem\000"
ARM GAS  C:\Users\CHARLI~1\AppData\Local\Temp\ccYyN2mF.s 			page 49


 2213      635F7464 
 2213      6D656D00 
 2214              	.LASF41:
 2215 005f 706C6C4C 		.ascii	"pllLock\000"
 2215      6F636B00 
 2216              	.LASF47:
 2217 0067 4348365F 		.ascii	"CH6_ADDR_DATA0\000"
 2217      41444452 
 2217      5F444154 
 2217      413000
 2218              	.LASF53:
 2219 0076 2E2F4765 		.ascii	"./Generated_Source/PSoC5/cyfitter_cfg.c\000"
 2219      6E657261 
 2219      7465645F 
 2219      536F7572 
 2219      63652F50 
 2220              	.LASF34:
 2221 009e 64657374 		.ascii	"dest8\000"
 2221      3800
 2222              	.LASF27:
 2223 00a4 4379436C 		.ascii	"CyClockStartupError\000"
 2223      6F636B53 
 2223      74617274 
 2223      75704572 
 2223      726F7200 
 2224              	.LASF15:
 2225 00b8 62617369 		.ascii	"basic_status\000"
 2225      635F7374 
 2225      61747573 
 2225      00
 2226              	.LASF23:
 2227 00c5 73697A65 		.ascii	"size\000"
 2227      00
 2228              	.LASF8:
 2229 00ca 6C6F6E67 		.ascii	"long unsigned int\000"
 2229      20756E73 
 2229      69676E65 
 2229      6420696E 
 2229      7400
 2230              	.LASF30:
 2231 00dc 61646472 		.ascii	"addr\000"
 2231      00
 2232              	.LASF24:
 2233 00e1 6E657874 		.ascii	"next_td_ptr\000"
 2233      5F74645F 
 2233      70747200 
 2234              	.LASF36:
 2235 00ed 6366675F 		.ascii	"cfg_dma_init\000"
 2235      646D615F 
 2235      696E6974 
 2235      00
 2236              	.LASF45:
 2237 00fa 4348325F 		.ascii	"CH2_ADDR_DATA0\000"
 2237      41444452 
 2237      5F444154 
 2237      413000
 2238              	.LASF1:
ARM GAS  C:\Users\CHARLI~1\AppData\Local\Temp\ccYyN2mF.s 			page 50


 2239 0109 756E7369 		.ascii	"unsigned char\000"
 2239      676E6564 
 2239      20636861 
 2239      7200
 2240              	.LASF40:
 2241 0117 74696D65 		.ascii	"timeout_p\000"
 2241      6F75745F 
 2241      7000
 2242              	.LASF14:
 2243 0121 61637469 		.ascii	"action\000"
 2243      6F6E00
 2244              	.LASF49:
 2245 0128 444D415F 		.ascii	"DMA_ZERO_VAL\000"
 2245      5A45524F 
 2245      5F56414C 
 2245      00
 2246              	.LASF11:
 2247 0135 75696E74 		.ascii	"uint16\000"
 2247      313600
 2248              	.LASF29:
 2249 013c 6572726F 		.ascii	"errorCode\000"
 2249      72436F64 
 2249      6500
 2250              	.LASF12:
 2251 0146 75696E74 		.ascii	"uint32\000"
 2251      333200
 2252              	.LASF16:
 2253 014d 72657365 		.ascii	"reserved\000"
 2253      72766564 
 2253      00
 2254              	.LASF32:
 2255 0156 63796D65 		.ascii	"cymemcpy8\000"
 2255      6D637079 
 2255      3800
 2256              	.LASF4:
 2257 0160 756E7369 		.ascii	"unsigned int\000"
 2257      676E6564 
 2257      20696E74 
 2257      00
 2258              	.LASF25:
 2259 016d 666C6167 		.ascii	"flags\000"
 2259      7300
 2260              	.LASF43:
 2261 0173 63796669 		.ascii	"cyfitter_cfg\000"
 2261      74746572 
 2261      5F636667 
 2261      00
 2262              	.LASF6:
 2263 0180 6C6F6E67 		.ascii	"long long unsigned int\000"
 2263      206C6F6E 
 2263      6720756E 
 2263      7369676E 
 2263      65642069 
 2264              	.LASF18:
 2265 0197 5F646D61 		.ascii	"_dmac_cfgmem\000"
 2265      635F6366 
 2265      676D656D 
ARM GAS  C:\Users\CHARLI~1\AppData\Local\Temp\ccYyN2mF.s 			page 51


 2265      00
 2266              	.LASF26:
 2267 01a4 64657374 		.ascii	"dest\000"
 2267      00
 2268              	.LASF22:
 2269 01a9 74645F74 		.ascii	"td_t\000"
 2269      00
 2270              	.LASF37:
 2271 01ae 73726341 		.ascii	"srcAddrPtr\000"
 2271      64647250 
 2271      747200
 2272              	.LASF52:
 2273 01b9 474E5520 		.ascii	"GNU C 4.4.1\000"
 2273      4320342E 
 2273      342E3100 
 2274              	.LASF48:
 2275 01c5 444D415F 		.ascii	"DMA_TD_START_CMD\000"
 2275      54445F53 
 2275      54415254 
 2275      5F434D44 
 2275      00
 2276              	.LASF39:
 2277 01d6 74696D65 		.ascii	"timeout\000"
 2277      6F757400 
 2278              	.LASF46:
 2279 01de 4348355F 		.ascii	"CH5_ADDR_DATA0\000"
 2279      41444452 
 2279      5F444154 
 2279      413000
 2280              	.LASF20:
 2281 01ed 43464731 		.ascii	"CFG1\000"
 2281      00
 2282              	.LASF2:
 2283 01f2 73686F72 		.ascii	"short int\000"
 2283      7420696E 
 2283      7400
 2284              	.LASF10:
 2285 01fc 75696E74 		.ascii	"uint8\000"
 2285      3800
 2286              	.LASF54:
 2287 0202 453A5C43 		.ascii	"E:\\ControllerKinect\\capController\\Receiver\\Rece"
 2287      6F6E7472 
 2287      6F6C6C65 
 2287      724B696E 
 2287      6563745C 
 2288 0231 69766572 		.ascii	"iver.cydsn\000"
 2288      2E637964 
 2288      736E00
 2289              	.LASF17:
 2290 023c 5F646D61 		.ascii	"_dmac_ch\000"
 2290      635F6368 
 2290      00
 2291              	.LASF7:
 2292 0245 6C6F6E67 		.ascii	"long int\000"
 2292      20696E74 
 2292      00
 2293              	.LASF9:
ARM GAS  C:\Users\CHARLI~1\AppData\Local\Temp\ccYyN2mF.s 			page 52


 2294 024e 63686172 		.ascii	"char\000"
 2294      00
 2295              	.LASF0:
 2296 0253 7369676E 		.ascii	"signed char\000"
 2296      65642063 
 2296      68617200 
 2297              	.LASF3:
 2298 025f 73686F72 		.ascii	"short unsigned int\000"
 2298      7420756E 
 2298      7369676E 
 2298      65642069 
 2298      6E7400
 2299              	.LASF35:
 2300 0272 73726338 		.ascii	"src8\000"
 2300      00
 2301              	.LASF50:
 2302 0277 4346475F 		.ascii	"CFG_TD_LIST0\000"
 2302      54445F4C 
 2302      49535430 
 2302      00
 2303              	.LASF44:
 2304 0284 4348315F 		.ascii	"CH1_ADDR_DATA0\000"
 2304      41444452 
 2304      5F444154 
 2304      413000
 2305              	.LASF13:
 2306 0293 62617369 		.ascii	"basic_cfg\000"
 2306      635F6366 
 2306      6700
 2307              		.ident	"GCC: (Sourcery G++ Lite 2010q1-188) 4.4.1"
