ARM GAS  C:\Users\CHARLI~1\AppData\Local\Temp\cc78mmP1.s 			page 1


   1              		.syntax unified
   2              		.cpu cortex-m3
   3              		.fpu softvfp
   4              		.eabi_attribute 20, 1
   5              		.eabi_attribute 21, 1
   6              		.eabi_attribute 23, 3
   7              		.eabi_attribute 24, 1
   8              		.eabi_attribute 25, 1
   9              		.eabi_attribute 26, 1
  10              		.eabi_attribute 30, 6
  11              		.eabi_attribute 18, 4
  12              		.thumb
  13              		.file	"CyLib.c"
  20 0000 60050000 		.text
  20      02004400 
  20      00000201 
  20      FB0E0D00 
  20      01010101 
  21              	.Ltext0:
  22              		.cfi_sections	.debug_frame
  23              		.comm	CyResetStatus,1,1
  24              		.section	.text.CyPLL_OUT_Start,"ax",%progbits
  25              		.align	2
  26              		.global	CyPLL_OUT_Start
  27              		.thumb
  28              		.thumb_func
  29              		.type	CyPLL_OUT_Start, %function
  30              	CyPLL_OUT_Start:
  31              	.LFB0:
  32              		.file 1 "./Generated_Source/PSoC5/CyLib.c"
   1:./Generated_Source/PSoC5/CyLib.c **** /*******************************************************************************
   2:./Generated_Source/PSoC5/CyLib.c **** * File Name: CyLib.c
   3:./Generated_Source/PSoC5/CyLib.c **** * Version 2.21
   4:./Generated_Source/PSoC5/CyLib.c **** *
   5:./Generated_Source/PSoC5/CyLib.c **** *  Description:
   6:./Generated_Source/PSoC5/CyLib.c **** *
   7:./Generated_Source/PSoC5/CyLib.c **** *  Note:
   8:./Generated_Source/PSoC5/CyLib.c **** *   Documentation of the API's in this file is located in the
   9:./Generated_Source/PSoC5/CyLib.c **** *   System Reference Guide provided with PSoC Creator.
  10:./Generated_Source/PSoC5/CyLib.c **** *
  11:./Generated_Source/PSoC5/CyLib.c **** *******************************************************************************
  12:./Generated_Source/PSoC5/CyLib.c **** * Copyright 2008-2011, Cypress Semiconductor Corporation.  All rights reserved.
  13:./Generated_Source/PSoC5/CyLib.c **** * You may use this file only in accordance with the license, terms, conditions,
  14:./Generated_Source/PSoC5/CyLib.c **** * disclaimers, and limitations in the end user license agreement accompanying
  15:./Generated_Source/PSoC5/CyLib.c **** * the software package with which this file was provided.
  16:./Generated_Source/PSoC5/CyLib.c **** ********************************************************************************/
  17:./Generated_Source/PSoC5/CyLib.c **** 
  18:./Generated_Source/PSoC5/CyLib.c **** #include <CyLib.h>
  19:./Generated_Source/PSoC5/CyLib.c **** 
  20:./Generated_Source/PSoC5/CyLib.c **** 
  21:./Generated_Source/PSoC5/CyLib.c **** #if (CYDEV_CHIP_MEMBER_USED == CYDEV_CHIP_MEMBER_3A)
ARM GAS  C:\Users\CHARLI~1\AppData\Local\Temp\cc78mmP1.s 			page 2


  22:./Generated_Source/PSoC5/CyLib.c ****     /* Variables must be placed beyond the first 256 bytes to ensure they do
  23:./Generated_Source/PSoC5/CyLib.c ****      * not get clobbered by SROM boot code during the software reset.  They
  24:./Generated_Source/PSoC5/CyLib.c ****      * are placed at the very end of SRAM to reduce the backward compatablity
  25:./Generated_Source/PSoC5/CyLib.c ****      * impacts of reserving specific addresses.
  26:./Generated_Source/PSoC5/CyLib.c ****      */
  27:./Generated_Source/PSoC5/CyLib.c ****     uint8 CYXDATA CyResetStatus _at_ (CYDEV_SRAM_SIZE - 1);
  28:./Generated_Source/PSoC5/CyLib.c ****     uint8 CYXDATA _CyResetInduced _at_ (CYDEV_SRAM_SIZE - 2); /* This should not be used outside of
  29:./Generated_Source/PSoC5/CyLib.c **** #else
  30:./Generated_Source/PSoC5/CyLib.c ****     uint8 CYXDATA CyResetStatus;
  31:./Generated_Source/PSoC5/CyLib.c **** #endif
  32:./Generated_Source/PSoC5/CyLib.c **** 
  33:./Generated_Source/PSoC5/CyLib.c **** /* CYLIB CLOCK funcs begin*/
  34:./Generated_Source/PSoC5/CyLib.c **** 
  35:./Generated_Source/PSoC5/CyLib.c **** /*******************************************************************************
  36:./Generated_Source/PSoC5/CyLib.c **** * Function Name: CyPLL_OUT_Start
  37:./Generated_Source/PSoC5/CyLib.c **** ********************************************************************************
  38:./Generated_Source/PSoC5/CyLib.c **** *
  39:./Generated_Source/PSoC5/CyLib.c **** * Summary:
  40:./Generated_Source/PSoC5/CyLib.c **** *   Enables the PLL.  Optionally waits for it to become stable.
  41:./Generated_Source/PSoC5/CyLib.c **** *   Waits at least 250us or until it is detected that the PLL is stable.
  42:./Generated_Source/PSoC5/CyLib.c **** *
  43:./Generated_Source/PSoC5/CyLib.c **** * Parameters:
  44:./Generated_Source/PSoC5/CyLib.c **** *   wait:
  45:./Generated_Source/PSoC5/CyLib.c **** *    0: Return immediately after configuration
  46:./Generated_Source/PSoC5/CyLib.c **** *    1: Wait for PLL lock or timeout.
  47:./Generated_Source/PSoC5/CyLib.c **** *
  48:./Generated_Source/PSoC5/CyLib.c **** * Return:
  49:./Generated_Source/PSoC5/CyLib.c **** *   Status
  50:./Generated_Source/PSoC5/CyLib.c **** *     CYRET_SUCCESS - Completed successfully
  51:./Generated_Source/PSoC5/CyLib.c **** *    CYRET_TIMEOUT - Timeout occurred without detecting a stable clock.  
  52:./Generated_Source/PSoC5/CyLib.c **** *     If the input source of the clock is jittery, then the lock indication 
  53:./Generated_Source/PSoC5/CyLib.c **** *     may not occur.  However, after the timeout has expired the generated PLL 
  54:./Generated_Source/PSoC5/CyLib.c **** *     clock can still be used..
  55:./Generated_Source/PSoC5/CyLib.c **** *
  56:./Generated_Source/PSoC5/CyLib.c **** *******************************************************************************/
  57:./Generated_Source/PSoC5/CyLib.c **** cystatus CyPLL_OUT_Start(uint8 wait) 
  58:./Generated_Source/PSoC5/CyLib.c **** {
  33              		.loc 1 58 0
  34              		.cfi_startproc
  35              		@ args = 0, pretend = 0, frame = 16
  36              		@ frame_needed = 1, uses_anonymous_args = 0
  37 0000 80B5     		push	{r7, lr}
  38              	.LCFI0:
  39              		.cfi_def_cfa_offset 8
  40 0002 84B0     		sub	sp, sp, #16
  41              	.LCFI1:
  42              		.cfi_def_cfa_offset 24
  43 0004 00AF     		add	r7, sp, #0
  44              		.cfi_offset 14, -4
  45              		.cfi_offset 7, -8
  46              	.LCFI2:
  47              		.cfi_def_cfa_register 7
  48 0006 0346     		mov	r3, r0
  49 0008 FB71     		strb	r3, [r7, #7]
  59:./Generated_Source/PSoC5/CyLib.c ****     cystatus status = CYRET_SUCCESS;
  50              		.loc 1 59 0
  51 000a 4FF00003 		mov	r3, #0
ARM GAS  C:\Users\CHARLI~1\AppData\Local\Temp\cc78mmP1.s 			page 3


  52 000e BB60     		str	r3, [r7, #8]
  60:./Generated_Source/PSoC5/CyLib.c ****     uint8 pm_tw_cfg2_state;
  61:./Generated_Source/PSoC5/CyLib.c ****     uint8 pm_tw_cfg0_state;
  62:./Generated_Source/PSoC5/CyLib.c ****     uint8 ilo_clock_state;
  63:./Generated_Source/PSoC5/CyLib.c ****     
  64:./Generated_Source/PSoC5/CyLib.c ****     FASTCLK_PLL_CFG0 |= PLL_CONTROL_ENABLE;
  53              		.loc 1 64 0
  54 0010 44F22023 		movw	r3, #:lower16:1073758752
  55 0014 C4F20003 		movt	r3, #:upper16:1073758752
  56 0018 44F22022 		movw	r2, #:lower16:1073758752
  57 001c C4F20002 		movt	r2, #:upper16:1073758752
  58 0020 1278     		ldrb	r2, [r2, #0]
  59 0022 D2B2     		uxtb	r2, r2
  60 0024 42F00102 		orr	r2, r2, #1
  61 0028 D2B2     		uxtb	r2, r2
  62 002a 1A70     		strb	r2, [r3, #0]
  65:./Generated_Source/PSoC5/CyLib.c ****     
  66:./Generated_Source/PSoC5/CyLib.c ****     /*Non-zero wait value*/
  67:./Generated_Source/PSoC5/CyLib.c ****     if (wait != 0) 
  63              		.loc 1 67 0
  64 002c FB79     		ldrb	r3, [r7, #7]	@ zero_extendqisi2
  65 002e 002B     		cmp	r3, #0
  66 0030 6BD0     		beq	.L2
  68:./Generated_Source/PSoC5/CyLib.c ****     {
  69:./Generated_Source/PSoC5/CyLib.c ****         /*Need to turn on the 100KHz ILO if it happens to not already be running.*/
  70:./Generated_Source/PSoC5/CyLib.c ****         ilo_clock_state = SLOWCLK_ILO_CR0;
  67              		.loc 1 70 0
  68 0032 44F20033 		movw	r3, #:lower16:1073758976
  69 0036 C4F20003 		movt	r3, #:upper16:1073758976
  70 003a 1B78     		ldrb	r3, [r3, #0]
  71 003c FB73     		strb	r3, [r7, #15]
  71:./Generated_Source/PSoC5/CyLib.c ****         if(!(ilo_clock_state & ILO_CONTROL_100KHZ_ON))
  72              		.loc 1 71 0
  73 003e FB7B     		ldrb	r3, [r7, #15]	@ zero_extendqisi2
  74 0040 03F00403 		and	r3, r3, #4
  75 0044 002B     		cmp	r3, #0
  76 0046 01D1     		bne	.L3
  72:./Generated_Source/PSoC5/CyLib.c ****         {
  73:./Generated_Source/PSoC5/CyLib.c ****             CyILO_Start100K();
  77              		.loc 1 73 0
  78 0048 FFF7FEFF 		bl	CyILO_Start100K
  79              	.L3:
  74:./Generated_Source/PSoC5/CyLib.c ****         }
  75:./Generated_Source/PSoC5/CyLib.c ****         
  76:./Generated_Source/PSoC5/CyLib.c ****         /*Use ILO 100Khz*/
  77:./Generated_Source/PSoC5/CyLib.c ****         pm_tw_cfg2_state = PM_TW_CFG2;
  80              		.loc 1 77 0
  81 004c 44F28233 		movw	r3, #:lower16:1073759106
  82 0050 C4F20003 		movt	r3, #:upper16:1073759106
  83 0054 1B78     		ldrb	r3, [r3, #0]
  84 0056 7B73     		strb	r3, [r7, #13]
  78:./Generated_Source/PSoC5/CyLib.c ****         pm_tw_cfg0_state = PM_TW_CFG0;
  85              		.loc 1 78 0
  86 0058 44F28033 		movw	r3, #:lower16:1073759104
  87 005c C4F20003 		movt	r3, #:upper16:1073759104
  88 0060 1B78     		ldrb	r3, [r3, #0]
  89 0062 BB73     		strb	r3, [r7, #14]
ARM GAS  C:\Users\CHARLI~1\AppData\Local\Temp\cc78mmP1.s 			page 4


  79:./Generated_Source/PSoC5/CyLib.c ****         
  80:./Generated_Source/PSoC5/CyLib.c ****         /* FTW_EN (bit 0) must be clear to change the period*/
  81:./Generated_Source/PSoC5/CyLib.c ****         PM_TW_CFG2 &= FTW_CLEAR_FTW_BITS;
  90              		.loc 1 81 0
  91 0064 44F28233 		movw	r3, #:lower16:1073759106
  92 0068 C4F20003 		movt	r3, #:upper16:1073759106
  93 006c 44F28232 		movw	r2, #:lower16:1073759106
  94 0070 C4F20002 		movt	r2, #:upper16:1073759106
  95 0074 1278     		ldrb	r2, [r2, #0]
  96 0076 D2B2     		uxtb	r2, r2
  97 0078 02F0FC02 		and	r2, r2, #252
  98 007c 1A70     		strb	r2, [r3, #0]
  82:./Generated_Source/PSoC5/CyLib.c ****         
  83:./Generated_Source/PSoC5/CyLib.c ****         /* Set the FTW interval of 25 100KHz ILO clocks
  84:./Generated_Source/PSoC5/CyLib.c ****         Should result in status getting set at a (100/25)KHz rate*/
  85:./Generated_Source/PSoC5/CyLib.c ****         PM_TW_CFG0 =  25-1;
  99              		.loc 1 85 0
 100 007e 44F28033 		movw	r3, #:lower16:1073759104
 101 0082 C4F20003 		movt	r3, #:upper16:1073759104
 102 0086 4FF01802 		mov	r2, #24
 103 008a 1A70     		strb	r2, [r3, #0]
  86:./Generated_Source/PSoC5/CyLib.c ****         /* Enable FTW, but not the interrupt*/
  87:./Generated_Source/PSoC5/CyLib.c ****         PM_TW_CFG2 = FTW_ENABLE;        
 104              		.loc 1 87 0
 105 008c 44F28233 		movw	r3, #:lower16:1073759106
 106 0090 C4F20003 		movt	r3, #:upper16:1073759106
 107 0094 4FF00102 		mov	r2, #1
 108 0098 1A70     		strb	r2, [r3, #0]
  88:./Generated_Source/PSoC5/CyLib.c ****         
  89:./Generated_Source/PSoC5/CyLib.c ****         status = CYRET_TIMEOUT;
 109              		.loc 1 89 0
 110 009a 4FF01003 		mov	r3, #16
 111 009e BB60     		str	r3, [r7, #8]
  90:./Generated_Source/PSoC5/CyLib.c ****         /*check the CyPmReadStatus() return value, 0th bit is ftw*/
  91:./Generated_Source/PSoC5/CyLib.c ****         while (CyPmReadStatus(1) == 0)
 112              		.loc 1 91 0
 113 00a0 19E0     		b	.L4
 114              	.L6:
  92:./Generated_Source/PSoC5/CyLib.c ****         {
  93:./Generated_Source/PSoC5/CyLib.c ****             /* Wait for the interrupt status*/
  94:./Generated_Source/PSoC5/CyLib.c ****             if(FASTCLK_PLL_SR & PLL_STATUS_LOCK)
 115              		.loc 1 94 0
 116 00a2 44F22523 		movw	r3, #:lower16:1073758757
 117 00a6 C4F20003 		movt	r3, #:upper16:1073758757
 118 00aa 1B78     		ldrb	r3, [r3, #0]
 119 00ac DBB2     		uxtb	r3, r3
 120 00ae 03F00103 		and	r3, r3, #1
 121 00b2 DBB2     		uxtb	r3, r3
 122 00b4 002B     		cmp	r3, #0
 123 00b6 0ED0     		beq	.L4
  95:./Generated_Source/PSoC5/CyLib.c ****             {
  96:./Generated_Source/PSoC5/CyLib.c ****                 if(FASTCLK_PLL_SR & PLL_STATUS_LOCK)
 124              		.loc 1 96 0
 125 00b8 44F22523 		movw	r3, #:lower16:1073758757
 126 00bc C4F20003 		movt	r3, #:upper16:1073758757
 127 00c0 1B78     		ldrb	r3, [r3, #0]
 128 00c2 DBB2     		uxtb	r3, r3
ARM GAS  C:\Users\CHARLI~1\AppData\Local\Temp\cc78mmP1.s 			page 5


 129 00c4 03F00103 		and	r3, r3, #1
 130 00c8 DBB2     		uxtb	r3, r3
 131 00ca 002B     		cmp	r3, #0
 132 00cc 03D0     		beq	.L4
  97:./Generated_Source/PSoC5/CyLib.c ****                 {
  98:./Generated_Source/PSoC5/CyLib.c ****                     /*A stable clock.                    */
  99:./Generated_Source/PSoC5/CyLib.c ****                     status = CYRET_SUCCESS;
 133              		.loc 1 99 0
 134 00ce 4FF00003 		mov	r3, #0
 135 00d2 BB60     		str	r3, [r7, #8]
 100:./Generated_Source/PSoC5/CyLib.c ****                     break;
 136              		.loc 1 100 0
 137 00d4 06E0     		b	.L5
 138              	.L4:
 139              		.loc 1 91 0
 140 00d6 4FF00100 		mov	r0, #1
 141 00da FFF7FEFF 		bl	CyPmReadStatus
 142 00de 0346     		mov	r3, r0
 143 00e0 002B     		cmp	r3, #0
 144 00e2 DED0     		beq	.L6
 145              	.L5:
 101:./Generated_Source/PSoC5/CyLib.c ****                 }
 102:./Generated_Source/PSoC5/CyLib.c ****             }
 103:./Generated_Source/PSoC5/CyLib.c ****         }
 104:./Generated_Source/PSoC5/CyLib.c ****         /*reset the clock */
 105:./Generated_Source/PSoC5/CyLib.c ****         if(!(ilo_clock_state & ILO_CONTROL_100KHZ_ON))
 146              		.loc 1 105 0
 147 00e4 FB7B     		ldrb	r3, [r7, #15]	@ zero_extendqisi2
 148 00e6 03F00403 		and	r3, r3, #4
 149 00ea 002B     		cmp	r3, #0
 150 00ec 01D1     		bne	.L7
 106:./Generated_Source/PSoC5/CyLib.c ****         {
 107:./Generated_Source/PSoC5/CyLib.c ****             CyILO_Stop100K();
 151              		.loc 1 107 0
 152 00ee FFF7FEFF 		bl	CyILO_Stop100K
 153              	.L7:
 108:./Generated_Source/PSoC5/CyLib.c ****         }
 109:./Generated_Source/PSoC5/CyLib.c **** 
 110:./Generated_Source/PSoC5/CyLib.c ****         /*restore the FTW*/
 111:./Generated_Source/PSoC5/CyLib.c ****         PM_TW_CFG0 = pm_tw_cfg0_state;
 154              		.loc 1 111 0
 155 00f2 44F28033 		movw	r3, #:lower16:1073759104
 156 00f6 C4F20003 		movt	r3, #:upper16:1073759104
 157 00fa BA7B     		ldrb	r2, [r7, #14]
 158 00fc 1A70     		strb	r2, [r3, #0]
 112:./Generated_Source/PSoC5/CyLib.c ****         PM_TW_CFG2 = pm_tw_cfg2_state;
 159              		.loc 1 112 0
 160 00fe 44F28233 		movw	r3, #:lower16:1073759106
 161 0102 C4F20003 		movt	r3, #:upper16:1073759106
 162 0106 7A7B     		ldrb	r2, [r7, #13]
 163 0108 1A70     		strb	r2, [r3, #0]
 164              	.L2:
 113:./Generated_Source/PSoC5/CyLib.c ****     }
 114:./Generated_Source/PSoC5/CyLib.c ****     return status;
 165              		.loc 1 114 0
 166 010a BB68     		ldr	r3, [r7, #8]
 115:./Generated_Source/PSoC5/CyLib.c **** }
ARM GAS  C:\Users\CHARLI~1\AppData\Local\Temp\cc78mmP1.s 			page 6


 167              		.loc 1 115 0
 168 010c 1846     		mov	r0, r3
 169 010e 07F11007 		add	r7, r7, #16
 170 0112 BD46     		mov	sp, r7
 171 0114 80BD     		pop	{r7, pc}
 172              		.cfi_endproc
 173              	.LFE0:
 174              		.size	CyPLL_OUT_Start, .-CyPLL_OUT_Start
 175 0116 00BF     		.section	.text.CyPLL_OUT_Stop,"ax",%progbits
 176              		.align	2
 177              		.global	CyPLL_OUT_Stop
 178              		.thumb
 179              		.thumb_func
 180              		.type	CyPLL_OUT_Stop, %function
 181              	CyPLL_OUT_Stop:
 182              	.LFB1:
 116:./Generated_Source/PSoC5/CyLib.c **** 
 117:./Generated_Source/PSoC5/CyLib.c **** 
 118:./Generated_Source/PSoC5/CyLib.c **** /*******************************************************************************
 119:./Generated_Source/PSoC5/CyLib.c **** * Function Name: CyPLL_OUT_Stop
 120:./Generated_Source/PSoC5/CyLib.c **** ********************************************************************************
 121:./Generated_Source/PSoC5/CyLib.c **** * Summary:
 122:./Generated_Source/PSoC5/CyLib.c **** *   Disables the PLL.
 123:./Generated_Source/PSoC5/CyLib.c **** *
 124:./Generated_Source/PSoC5/CyLib.c **** *
 125:./Generated_Source/PSoC5/CyLib.c **** * Parameters:
 126:./Generated_Source/PSoC5/CyLib.c **** *   void.
 127:./Generated_Source/PSoC5/CyLib.c **** *
 128:./Generated_Source/PSoC5/CyLib.c **** *
 129:./Generated_Source/PSoC5/CyLib.c **** * Return:
 130:./Generated_Source/PSoC5/CyLib.c **** *   void.
 131:./Generated_Source/PSoC5/CyLib.c **** *
 132:./Generated_Source/PSoC5/CyLib.c **** *******************************************************************************/
 133:./Generated_Source/PSoC5/CyLib.c **** void CyPLL_OUT_Stop(void) 
 134:./Generated_Source/PSoC5/CyLib.c **** {
 183              		.loc 1 134 0
 184              		.cfi_startproc
 185              		@ args = 0, pretend = 0, frame = 0
 186              		@ frame_needed = 1, uses_anonymous_args = 0
 187              		@ link register save eliminated.
 188 0000 80B4     		push	{r7}
 189              	.LCFI3:
 190              		.cfi_def_cfa_offset 4
 191 0002 00AF     		add	r7, sp, #0
 192              		.cfi_offset 7, -4
 193              	.LCFI4:
 194              		.cfi_def_cfa_register 7
 135:./Generated_Source/PSoC5/CyLib.c ****     /* Disable the PLL. */
 136:./Generated_Source/PSoC5/CyLib.c ****     FASTCLK_PLL_CFG0 &= ~PLL_CONTROL_ENABLE;
 195              		.loc 1 136 0
 196 0004 44F22023 		movw	r3, #:lower16:1073758752
 197 0008 C4F20003 		movt	r3, #:upper16:1073758752
 198 000c 44F22022 		movw	r2, #:lower16:1073758752
 199 0010 C4F20002 		movt	r2, #:upper16:1073758752
 200 0014 1278     		ldrb	r2, [r2, #0]
 201 0016 D2B2     		uxtb	r2, r2
 202 0018 02F0FE02 		and	r2, r2, #254
ARM GAS  C:\Users\CHARLI~1\AppData\Local\Temp\cc78mmP1.s 			page 7


 203 001c 1A70     		strb	r2, [r3, #0]
 137:./Generated_Source/PSoC5/CyLib.c **** }
 204              		.loc 1 137 0
 205 001e BD46     		mov	sp, r7
 206 0020 80BC     		pop	{r7}
 207 0022 7047     		bx	lr
 208              		.cfi_endproc
 209              	.LFE1:
 210              		.size	CyPLL_OUT_Stop, .-CyPLL_OUT_Stop
 211              		.section	.text.CyPLL_OUT_SetPQ,"ax",%progbits
 212              		.align	2
 213              		.global	CyPLL_OUT_SetPQ
 214              		.thumb
 215              		.thumb_func
 216              		.type	CyPLL_OUT_SetPQ, %function
 217              	CyPLL_OUT_SetPQ:
 218              	.LFB2:
 138:./Generated_Source/PSoC5/CyLib.c **** 
 139:./Generated_Source/PSoC5/CyLib.c **** 
 140:./Generated_Source/PSoC5/CyLib.c **** /*******************************************************************************
 141:./Generated_Source/PSoC5/CyLib.c **** * Function Name: CyPLL_OUT_SetPQ
 142:./Generated_Source/PSoC5/CyLib.c **** ********************************************************************************
 143:./Generated_Source/PSoC5/CyLib.c **** * Summary:
 144:./Generated_Source/PSoC5/CyLib.c **** *   Sets the P and Q dividers and the charge pump current.  
 145:./Generated_Source/PSoC5/CyLib.c **** *   The Frequency Out will be P/Q * Frequency In.  
 146:./Generated_Source/PSoC5/CyLib.c **** *   The PLL must be disabled before calling this function.
 147:./Generated_Source/PSoC5/CyLib.c **** *
 148:./Generated_Source/PSoC5/CyLib.c **** *
 149:./Generated_Source/PSoC5/CyLib.c **** * Parameters:
 150:./Generated_Source/PSoC5/CyLib.c **** *   P: Valid range [4 - 255]
 151:./Generated_Source/PSoC5/CyLib.c **** *   Q: Valid range [1 - 16].  Input Frequency / Q must be in the range of 1MHz to 3MHz.
 152:./Generated_Source/PSoC5/CyLib.c **** *   current: Valid range [1 - 7].  Charge pump current in uA.  
 153:./Generated_Source/PSoC5/CyLib.c **** *            Recommendation of 2uA for output frequencies of 67MHz or less and 
 154:./Generated_Source/PSoC5/CyLib.c **** *            3uA for higher output frequencies.
 155:./Generated_Source/PSoC5/CyLib.c **** *
 156:./Generated_Source/PSoC5/CyLib.c **** *
 157:./Generated_Source/PSoC5/CyLib.c **** * Return:
 158:./Generated_Source/PSoC5/CyLib.c **** *   void.
 159:./Generated_Source/PSoC5/CyLib.c **** *
 160:./Generated_Source/PSoC5/CyLib.c **** *******************************************************************************/
 161:./Generated_Source/PSoC5/CyLib.c **** void CyPLL_OUT_SetPQ(uint8 P, uint8 Q, uint8 current) 
 162:./Generated_Source/PSoC5/CyLib.c **** {
 219              		.loc 1 162 0
 220              		.cfi_startproc
 221              		@ args = 0, pretend = 0, frame = 8
 222              		@ frame_needed = 1, uses_anonymous_args = 0
 223 0000 80B5     		push	{r7, lr}
 224              	.LCFI5:
 225              		.cfi_def_cfa_offset 8
 226 0002 82B0     		sub	sp, sp, #8
 227              	.LCFI6:
 228              		.cfi_def_cfa_offset 16
 229 0004 00AF     		add	r7, sp, #0
 230              		.cfi_offset 14, -4
 231              		.cfi_offset 7, -8
 232              	.LCFI7:
 233              		.cfi_def_cfa_register 7
ARM GAS  C:\Users\CHARLI~1\AppData\Local\Temp\cc78mmP1.s 			page 8


 234 0006 1346     		mov	r3, r2
 235 0008 0246     		mov	r2, r0
 236 000a FA71     		strb	r2, [r7, #7]
 237 000c 0A46     		mov	r2, r1
 238 000e BA71     		strb	r2, [r7, #6]
 239 0010 7B71     		strb	r3, [r7, #5]
 163:./Generated_Source/PSoC5/CyLib.c ****     CYASSERT(!(FASTCLK_PLL_CFG0 & PLL_STATUS_ENABLED));
 240              		.loc 1 163 0
 241 0012 44F22023 		movw	r3, #:lower16:1073758752
 242 0016 C4F20003 		movt	r3, #:upper16:1073758752
 243 001a 1B78     		ldrb	r3, [r3, #0]
 244 001c DBB2     		uxtb	r3, r3
 245 001e 03F00103 		and	r3, r3, #1
 246 0022 002B     		cmp	r3, #0
 247 0024 0ED0     		beq	.L12
 248 0026 44F22023 		movw	r3, #:lower16:1073758752
 249 002a C4F20003 		movt	r3, #:upper16:1073758752
 250 002e 1B78     		ldrb	r3, [r3, #0]
 251 0030 DBB2     		uxtb	r3, r3
 252 0032 03F00103 		and	r3, r3, #1
 253 0036 002B     		cmp	r3, #0
 254 0038 14BF     		ite	ne
 255 003a 0023     		movne	r3, #0
 256 003c 0123     		moveq	r3, #1
 257 003e 1846     		mov	r0, r3
 258 0040 FFF7FEFF 		bl	CyHalt
 259              	.L12:
 164:./Generated_Source/PSoC5/CyLib.c ****     
 165:./Generated_Source/PSoC5/CyLib.c ****     /*Set the CYREG_FASTCLK_PLL_P register
 166:./Generated_Source/PSoC5/CyLib.c ****     Settings less than 4 do not give valid outputs. Valid range is 4 - 255*/
 167:./Generated_Source/PSoC5/CyLib.c ****     if (P >= MIN_FASTCLK_PLL_P_VALUE)
 260              		.loc 1 167 0
 261 0044 FB79     		ldrb	r3, [r7, #7]	@ zero_extendqisi2
 262 0046 032B     		cmp	r3, #3
 263 0048 05D9     		bls	.L13
 168:./Generated_Source/PSoC5/CyLib.c ****     {
 169:./Generated_Source/PSoC5/CyLib.c ****         FASTCLK_PLL_P = P;
 264              		.loc 1 169 0
 265 004a 44F22223 		movw	r3, #:lower16:1073758754
 266 004e C4F20003 		movt	r3, #:upper16:1073758754
 267 0052 FA79     		ldrb	r2, [r7, #7]
 268 0054 1A70     		strb	r2, [r3, #0]
 269              	.L13:
 170:./Generated_Source/PSoC5/CyLib.c ****     }
 171:./Generated_Source/PSoC5/CyLib.c ****     /*Set the CYREG_FASTCLK_PLL_Q register*/
 172:./Generated_Source/PSoC5/CyLib.c ****     if (Q <= MAX_FASTCLK_PLL_Q_VALUE && Q >= MIN_FASTCLK_PLL_Q_VALUE)
 270              		.loc 1 172 0
 271 0056 BB79     		ldrb	r3, [r7, #6]	@ zero_extendqisi2
 272 0058 102B     		cmp	r3, #16
 273 005a 0BD8     		bhi	.L14
 274 005c BB79     		ldrb	r3, [r7, #6]	@ zero_extendqisi2
 275 005e 002B     		cmp	r3, #0
 276 0060 08D0     		beq	.L14
 173:./Generated_Source/PSoC5/CyLib.c ****     {
 174:./Generated_Source/PSoC5/CyLib.c ****         FASTCLK_PLL_Q = Q-1;
 277              		.loc 1 174 0
 278 0062 44F22323 		movw	r3, #:lower16:1073758755
ARM GAS  C:\Users\CHARLI~1\AppData\Local\Temp\cc78mmP1.s 			page 9


 279 0066 C4F20003 		movt	r3, #:upper16:1073758755
 280 006a BA79     		ldrb	r2, [r7, #6]
 281 006c 02F1FF32 		add	r2, r2, #-1
 282 0070 D2B2     		uxtb	r2, r2
 283 0072 1A70     		strb	r2, [r3, #0]
 284              	.L14:
 175:./Generated_Source/PSoC5/CyLib.c ****     }
 176:./Generated_Source/PSoC5/CyLib.c ****     if(current >= MIN_FASTCLK_PLL_CUR_VALUE && current <= MAX_FASTCLK_PLL_CUR_VALUE)
 285              		.loc 1 176 0
 286 0074 7B79     		ldrb	r3, [r7, #5]	@ zero_extendqisi2
 287 0076 002B     		cmp	r3, #0
 288 0078 11D0     		beq	.L16
 289 007a 7B79     		ldrb	r3, [r7, #5]	@ zero_extendqisi2
 290 007c 072B     		cmp	r3, #7
 291 007e 0ED8     		bhi	.L16
 177:./Generated_Source/PSoC5/CyLib.c ****     {
 178:./Generated_Source/PSoC5/CyLib.c ****         /*
 179:./Generated_Source/PSoC5/CyLib.c ****         Bits     Name         Description
 180:./Generated_Source/PSoC5/CyLib.c ****         6:4     icpsel[2:0] Charge Pump current select; BROS tables contain 
 181:./Generated_Source/PSoC5/CyLib.c ****                             important stability information for given frequencies,
 182:./Generated_Source/PSoC5/CyLib.c ****                             P values, and other parameters
 183:./Generated_Source/PSoC5/CyLib.c ****         1:0     vco_gain[1:0] VCO loop gain
 184:./Generated_Source/PSoC5/CyLib.c ****         */
 185:./Generated_Source/PSoC5/CyLib.c ****         FASTCLK_PLL_CFG1 = ((current - 1) << PLL_CURRENT_POSITION) | PLL_VCO_GAIN_2;
 292              		.loc 1 185 0
 293 0080 44F22123 		movw	r3, #:lower16:1073758753
 294 0084 C4F20003 		movt	r3, #:upper16:1073758753
 295 0088 7A79     		ldrb	r2, [r7, #5]	@ zero_extendqisi2
 296 008a 02F1FF32 		add	r2, r2, #-1
 297 008e 4FEA0212 		lsl	r2, r2, #4
 298 0092 D2B2     		uxtb	r2, r2
 299 0094 42F00202 		orr	r2, r2, #2
 300 0098 D2B2     		uxtb	r2, r2
 301 009a D2B2     		uxtb	r2, r2
 302 009c 1A70     		strb	r2, [r3, #0]
 303              	.L16:
 186:./Generated_Source/PSoC5/CyLib.c ****     }
 187:./Generated_Source/PSoC5/CyLib.c **** }
 304              		.loc 1 187 0
 305 009e 07F10807 		add	r7, r7, #8
 306 00a2 BD46     		mov	sp, r7
 307 00a4 80BD     		pop	{r7, pc}
 308              		.cfi_endproc
 309              	.LFE2:
 310              		.size	CyPLL_OUT_SetPQ, .-CyPLL_OUT_SetPQ
 311 00a6 00BF     		.section	.text.CyPLL_OUT_SetSource,"ax",%progbits
 312              		.align	2
 313              		.global	CyPLL_OUT_SetSource
 314              		.thumb
 315              		.thumb_func
 316              		.type	CyPLL_OUT_SetSource, %function
 317              	CyPLL_OUT_SetSource:
 318              	.LFB3:
 188:./Generated_Source/PSoC5/CyLib.c **** 
 189:./Generated_Source/PSoC5/CyLib.c **** 
 190:./Generated_Source/PSoC5/CyLib.c **** /*******************************************************************************
 191:./Generated_Source/PSoC5/CyLib.c **** * Function Name: CyPLL_OUT_SetSource
ARM GAS  C:\Users\CHARLI~1\AppData\Local\Temp\cc78mmP1.s 			page 10


 192:./Generated_Source/PSoC5/CyLib.c **** ********************************************************************************
 193:./Generated_Source/PSoC5/CyLib.c **** * Summary:
 194:./Generated_Source/PSoC5/CyLib.c **** *   Sets the input clock source to the PLL.  The PLL must be disabled before 
 195:./Generated_Source/PSoC5/CyLib.c **** *   calling this function.
 196:./Generated_Source/PSoC5/CyLib.c **** *
 197:./Generated_Source/PSoC5/CyLib.c **** * Parameters:
 198:./Generated_Source/PSoC5/CyLib.c **** *   source: One of the three available PLL clock sources
 199:./Generated_Source/PSoC5/CyLib.c **** *            0 :        IMO
 200:./Generated_Source/PSoC5/CyLib.c **** *            1 :        MHz Crystal
 201:./Generated_Source/PSoC5/CyLib.c **** *            2 :        DSI
 202:./Generated_Source/PSoC5/CyLib.c **** *
 203:./Generated_Source/PSoC5/CyLib.c **** *
 204:./Generated_Source/PSoC5/CyLib.c **** * Return:
 205:./Generated_Source/PSoC5/CyLib.c **** *   void.
 206:./Generated_Source/PSoC5/CyLib.c **** *
 207:./Generated_Source/PSoC5/CyLib.c **** *******************************************************************************/
 208:./Generated_Source/PSoC5/CyLib.c **** void CyPLL_OUT_SetSource(uint8 source) 
 209:./Generated_Source/PSoC5/CyLib.c **** {
 319              		.loc 1 209 0
 320              		.cfi_startproc
 321              		@ args = 0, pretend = 0, frame = 8
 322              		@ frame_needed = 1, uses_anonymous_args = 0
 323 0000 80B5     		push	{r7, lr}
 324              	.LCFI8:
 325              		.cfi_def_cfa_offset 8
 326 0002 82B0     		sub	sp, sp, #8
 327              	.LCFI9:
 328              		.cfi_def_cfa_offset 16
 329 0004 00AF     		add	r7, sp, #0
 330              		.cfi_offset 14, -4
 331              		.cfi_offset 7, -8
 332              	.LCFI10:
 333              		.cfi_def_cfa_register 7
 334 0006 0346     		mov	r3, r0
 335 0008 FB71     		strb	r3, [r7, #7]
 210:./Generated_Source/PSoC5/CyLib.c ****     CYASSERT(!(FASTCLK_PLL_CFG0 & PLL_STATUS_ENABLED));
 336              		.loc 1 210 0
 337 000a 44F22023 		movw	r3, #:lower16:1073758752
 338 000e C4F20003 		movt	r3, #:upper16:1073758752
 339 0012 1B78     		ldrb	r3, [r3, #0]
 340 0014 DBB2     		uxtb	r3, r3
 341 0016 03F00103 		and	r3, r3, #1
 342 001a 002B     		cmp	r3, #0
 343 001c 0ED0     		beq	.L18
 344 001e 44F22023 		movw	r3, #:lower16:1073758752
 345 0022 C4F20003 		movt	r3, #:upper16:1073758752
 346 0026 1B78     		ldrb	r3, [r3, #0]
 347 0028 DBB2     		uxtb	r3, r3
 348 002a 03F00103 		and	r3, r3, #1
 349 002e 002B     		cmp	r3, #0
 350 0030 14BF     		ite	ne
 351 0032 0023     		movne	r3, #0
 352 0034 0123     		moveq	r3, #1
 353 0036 1846     		mov	r0, r3
 354 0038 FFF7FEFF 		bl	CyHalt
 355              	.L18:
 211:./Generated_Source/PSoC5/CyLib.c ****     
ARM GAS  C:\Users\CHARLI~1\AppData\Local\Temp\cc78mmP1.s 			page 11


 212:./Generated_Source/PSoC5/CyLib.c ****     /*Set the 1:0 bits of CLKDIST_CR */
 213:./Generated_Source/PSoC5/CyLib.c ****     /*  Value    Name    Description
 214:./Generated_Source/PSoC5/CyLib.c ****         2'h0     IMO     IMO is selected
 215:./Generated_Source/PSoC5/CyLib.c ****         2'h1     XTAL    33MHz XTAL is selected
 216:./Generated_Source/PSoC5/CyLib.c ****         2'h2     DSI     Digital System Interconnect is selected*/
 217:./Generated_Source/PSoC5/CyLib.c ****     switch(source)
 356              		.loc 1 217 0
 357 003c FB79     		ldrb	r3, [r7, #7]	@ zero_extendqisi2
 358 003e 03F10003 		add	r3, r3, #0
 359 0042 022B     		cmp	r3, #2
 360 0044 10D8     		bhi	.L21
 218:./Generated_Source/PSoC5/CyLib.c ****     {
 219:./Generated_Source/PSoC5/CyLib.c ****         case CY_PLL_SOURCE_IMO:
 220:./Generated_Source/PSoC5/CyLib.c ****         case CY_PLL_SOURCE_XTAL:
 221:./Generated_Source/PSoC5/CyLib.c ****         case CY_PLL_SOURCE_DSI:
 222:./Generated_Source/PSoC5/CyLib.c ****             CLKDIST_CR = ((CLKDIST_CR & CLOCK_CONTROL_DIST_MASK) | source);
 361              		.loc 1 222 0
 362 0046 44F20003 		movw	r3, #:lower16:1073758208
 363 004a C4F20003 		movt	r3, #:upper16:1073758208
 364 004e 44F20002 		movw	r2, #:lower16:1073758208
 365 0052 C4F20002 		movt	r2, #:upper16:1073758208
 366 0056 1278     		ldrb	r2, [r2, #0]
 367 0058 D2B2     		uxtb	r2, r2
 368 005a 02F0FC02 		and	r2, r2, #252
 369 005e F979     		ldrb	r1, [r7, #7]
 370 0060 42EA0102 		orr	r2, r2, r1
 371 0064 D2B2     		uxtb	r2, r2
 372 0066 1A70     		strb	r2, [r3, #0]
 373              	.L21:
 223:./Generated_Source/PSoC5/CyLib.c ****         break;
 224:./Generated_Source/PSoC5/CyLib.c ****     }
 225:./Generated_Source/PSoC5/CyLib.c **** }
 374              		.loc 1 225 0
 375 0068 07F10807 		add	r7, r7, #8
 376 006c BD46     		mov	sp, r7
 377 006e 80BD     		pop	{r7, pc}
 378              		.cfi_endproc
 379              	.LFE3:
 380              		.size	CyPLL_OUT_SetSource, .-CyPLL_OUT_SetSource
 381              		.section	.text.CyIMO_Start,"ax",%progbits
 382              		.align	2
 383              		.global	CyIMO_Start
 384              		.thumb
 385              		.thumb_func
 386              		.type	CyIMO_Start, %function
 387              	CyIMO_Start:
 388              	.LFB4:
 226:./Generated_Source/PSoC5/CyLib.c **** 
 227:./Generated_Source/PSoC5/CyLib.c **** 
 228:./Generated_Source/PSoC5/CyLib.c **** /*******************************************************************************
 229:./Generated_Source/PSoC5/CyLib.c **** * Function Name: CyIMO_Start
 230:./Generated_Source/PSoC5/CyLib.c **** ********************************************************************************
 231:./Generated_Source/PSoC5/CyLib.c **** * Summary:
 232:./Generated_Source/PSoC5/CyLib.c **** *   Enables the IMO.  Optionally waits at least 6us for it to settle.
 233:./Generated_Source/PSoC5/CyLib.c **** *
 234:./Generated_Source/PSoC5/CyLib.c **** *
 235:./Generated_Source/PSoC5/CyLib.c **** * Parameters:
ARM GAS  C:\Users\CHARLI~1\AppData\Local\Temp\cc78mmP1.s 			page 12


 236:./Generated_Source/PSoC5/CyLib.c **** *   wait:
 237:./Generated_Source/PSoC5/CyLib.c **** *   0: Return immediately after configuration
 238:./Generated_Source/PSoC5/CyLib.c **** *   1: Wait for at least 6us for the IMO to settle.
 239:./Generated_Source/PSoC5/CyLib.c **** *
 240:./Generated_Source/PSoC5/CyLib.c **** *
 241:./Generated_Source/PSoC5/CyLib.c **** * Return:
 242:./Generated_Source/PSoC5/CyLib.c **** *   void.
 243:./Generated_Source/PSoC5/CyLib.c **** *
 244:./Generated_Source/PSoC5/CyLib.c **** * Side Effects and Restrictions:
 245:./Generated_Source/PSoC5/CyLib.c **** *   If wait is enabled: Uses the Fast Timewheel to time the wait.
 246:./Generated_Source/PSoC5/CyLib.c **** *   Any other use of the Fast Timewheel will be stopped during the period of -
 247:./Generated_Source/PSoC5/CyLib.c **** *   this function and then restored.
 248:./Generated_Source/PSoC5/CyLib.c **** *   Uses the 100KHz ILO.  If not enabled, this function will enable the 100KHz -
 249:./Generated_Source/PSoC5/CyLib.c **** *   ILO for the period of this function.
 250:./Generated_Source/PSoC5/CyLib.c **** *
 251:./Generated_Source/PSoC5/CyLib.c **** *******************************************************************************/
 252:./Generated_Source/PSoC5/CyLib.c **** void CyIMO_Start(uint8 wait) 
 253:./Generated_Source/PSoC5/CyLib.c **** {
 389              		.loc 1 253 0
 390              		.cfi_startproc
 391              		@ args = 0, pretend = 0, frame = 16
 392              		@ frame_needed = 1, uses_anonymous_args = 0
 393 0000 80B5     		push	{r7, lr}
 394              	.LCFI11:
 395              		.cfi_def_cfa_offset 8
 396 0002 84B0     		sub	sp, sp, #16
 397              	.LCFI12:
 398              		.cfi_def_cfa_offset 24
 399 0004 00AF     		add	r7, sp, #0
 400              		.cfi_offset 14, -4
 401              		.cfi_offset 7, -8
 402              	.LCFI13:
 403              		.cfi_def_cfa_register 7
 404 0006 0346     		mov	r3, r0
 405 0008 FB71     		strb	r3, [r7, #7]
 254:./Generated_Source/PSoC5/CyLib.c ****     uint8 pm_tw_cfg2_state;
 255:./Generated_Source/PSoC5/CyLib.c ****     uint8 pm_tw_cfg0_state;
 256:./Generated_Source/PSoC5/CyLib.c ****     uint8 ilo_clock_state;
 257:./Generated_Source/PSoC5/CyLib.c **** 
 258:./Generated_Source/PSoC5/CyLib.c ****     /* Set the bit to enable the clock. */
 259:./Generated_Source/PSoC5/CyLib.c ****     PM_ACT_CFG0 |= IMO_PM_ENABLE;
 406              		.loc 1 259 0
 407 000a 44F2A033 		movw	r3, #:lower16:1073759136
 408 000e C4F20003 		movt	r3, #:upper16:1073759136
 409 0012 44F2A032 		movw	r2, #:lower16:1073759136
 410 0016 C4F20002 		movt	r2, #:upper16:1073759136
 411 001a 1278     		ldrb	r2, [r2, #0]
 412 001c D2B2     		uxtb	r2, r2
 413 001e 42F01002 		orr	r2, r2, #16
 414 0022 D2B2     		uxtb	r2, r2
 415 0024 1A70     		strb	r2, [r3, #0]
 260:./Generated_Source/PSoC5/CyLib.c **** 
 261:./Generated_Source/PSoC5/CyLib.c ****     /*Wait for 6 us*/
 262:./Generated_Source/PSoC5/CyLib.c ****     if(wait)
 416              		.loc 1 262 0
 417 0026 FB79     		ldrb	r3, [r7, #7]	@ zero_extendqisi2
 418 0028 002B     		cmp	r3, #0
ARM GAS  C:\Users\CHARLI~1\AppData\Local\Temp\cc78mmP1.s 			page 13


 419 002a 4DD0     		beq	.L27
 263:./Generated_Source/PSoC5/CyLib.c ****     {
 264:./Generated_Source/PSoC5/CyLib.c ****         /*Need to turn on the 100KHz ILO if it happens to not already be running.*/
 265:./Generated_Source/PSoC5/CyLib.c ****         ilo_clock_state = SLOWCLK_ILO_CR0;
 420              		.loc 1 265 0
 421 002c 44F20033 		movw	r3, #:lower16:1073758976
 422 0030 C4F20003 		movt	r3, #:upper16:1073758976
 423 0034 1B78     		ldrb	r3, [r3, #0]
 424 0036 FB73     		strb	r3, [r7, #15]
 266:./Generated_Source/PSoC5/CyLib.c ****         if(!(ilo_clock_state & ILO_CONTROL_100KHZ_ON))
 425              		.loc 1 266 0
 426 0038 FB7B     		ldrb	r3, [r7, #15]	@ zero_extendqisi2
 427 003a 03F00403 		and	r3, r3, #4
 428 003e 002B     		cmp	r3, #0
 429 0040 01D1     		bne	.L24
 267:./Generated_Source/PSoC5/CyLib.c ****         {
 268:./Generated_Source/PSoC5/CyLib.c ****             CyILO_Start100K();
 430              		.loc 1 268 0
 431 0042 FFF7FEFF 		bl	CyILO_Start100K
 432              	.L24:
 269:./Generated_Source/PSoC5/CyLib.c ****         }
 270:./Generated_Source/PSoC5/CyLib.c ****         
 271:./Generated_Source/PSoC5/CyLib.c ****         /*Use ILO 100Khz*/
 272:./Generated_Source/PSoC5/CyLib.c ****         pm_tw_cfg2_state = PM_TW_CFG2;
 433              		.loc 1 272 0
 434 0046 44F28233 		movw	r3, #:lower16:1073759106
 435 004a C4F20003 		movt	r3, #:upper16:1073759106
 436 004e 1B78     		ldrb	r3, [r3, #0]
 437 0050 7B73     		strb	r3, [r7, #13]
 273:./Generated_Source/PSoC5/CyLib.c ****         pm_tw_cfg0_state = PM_TW_CFG0;
 438              		.loc 1 273 0
 439 0052 44F28033 		movw	r3, #:lower16:1073759104
 440 0056 C4F20003 		movt	r3, #:upper16:1073759104
 441 005a 1B78     		ldrb	r3, [r3, #0]
 442 005c BB73     		strb	r3, [r7, #14]
 274:./Generated_Source/PSoC5/CyLib.c ****         
 275:./Generated_Source/PSoC5/CyLib.c ****         /* FTW_EN (bit 0) must be clear to change the period*/
 276:./Generated_Source/PSoC5/CyLib.c ****         PM_TW_CFG2 &= FTW_CLEAR_FTW_BITS;
 443              		.loc 1 276 0
 444 005e 44F28233 		movw	r3, #:lower16:1073759106
 445 0062 C4F20003 		movt	r3, #:upper16:1073759106
 446 0066 44F28232 		movw	r2, #:lower16:1073759106
 447 006a C4F20002 		movt	r2, #:upper16:1073759106
 448 006e 1278     		ldrb	r2, [r2, #0]
 449 0070 D2B2     		uxtb	r2, r2
 450 0072 02F0FC02 		and	r2, r2, #252
 451 0076 1A70     		strb	r2, [r3, #0]
 277:./Generated_Source/PSoC5/CyLib.c ****         
 278:./Generated_Source/PSoC5/CyLib.c ****         /* Set the FTW interval of 1 100KHz ILO clocks
 279:./Generated_Source/PSoC5/CyLib.c ****         Should result in status getting set at a (100/1)KHz rate*/
 280:./Generated_Source/PSoC5/CyLib.c ****         PM_TW_CFG0 = 1-1;
 452              		.loc 1 280 0
 453 0078 44F28033 		movw	r3, #:lower16:1073759104
 454 007c C4F20003 		movt	r3, #:upper16:1073759104
 455 0080 4FF00002 		mov	r2, #0
 456 0084 1A70     		strb	r2, [r3, #0]
 281:./Generated_Source/PSoC5/CyLib.c ****         /* Enable FTW, but not the interrupt*/
ARM GAS  C:\Users\CHARLI~1\AppData\Local\Temp\cc78mmP1.s 			page 14


 282:./Generated_Source/PSoC5/CyLib.c ****         PM_TW_CFG2 = FTW_ENABLE;        
 457              		.loc 1 282 0
 458 0086 44F28233 		movw	r3, #:lower16:1073759106
 459 008a C4F20003 		movt	r3, #:upper16:1073759106
 460 008e 4FF00102 		mov	r2, #1
 461 0092 1A70     		strb	r2, [r3, #0]
 462              	.L25:
 283:./Generated_Source/PSoC5/CyLib.c ****         
 284:./Generated_Source/PSoC5/CyLib.c ****         /*Read FTW value*/
 285:./Generated_Source/PSoC5/CyLib.c ****         while (CyPmReadStatus(1) == 0)
 463              		.loc 1 285 0
 464 0094 4FF00100 		mov	r0, #1
 465 0098 FFF7FEFF 		bl	CyPmReadStatus
 466 009c 0346     		mov	r3, r0
 467 009e 002B     		cmp	r3, #0
 468 00a0 F8D0     		beq	.L25
 286:./Generated_Source/PSoC5/CyLib.c ****         {
 287:./Generated_Source/PSoC5/CyLib.c ****             /* Wait for the interrupt status*/
 288:./Generated_Source/PSoC5/CyLib.c ****         }
 289:./Generated_Source/PSoC5/CyLib.c **** 
 290:./Generated_Source/PSoC5/CyLib.c ****         /*reset the clock */
 291:./Generated_Source/PSoC5/CyLib.c ****         if(!(ilo_clock_state & ILO_CONTROL_100KHZ_ON))
 469              		.loc 1 291 0
 470 00a2 FB7B     		ldrb	r3, [r7, #15]	@ zero_extendqisi2
 471 00a4 03F00403 		and	r3, r3, #4
 472 00a8 002B     		cmp	r3, #0
 473 00aa 01D1     		bne	.L26
 292:./Generated_Source/PSoC5/CyLib.c ****         {
 293:./Generated_Source/PSoC5/CyLib.c ****             CyILO_Stop100K();
 474              		.loc 1 293 0
 475 00ac FFF7FEFF 		bl	CyILO_Stop100K
 476              	.L26:
 294:./Generated_Source/PSoC5/CyLib.c ****         }
 295:./Generated_Source/PSoC5/CyLib.c ****         /*restore the FTW*/
 296:./Generated_Source/PSoC5/CyLib.c ****         PM_TW_CFG0 = pm_tw_cfg0_state;
 477              		.loc 1 296 0
 478 00b0 44F28033 		movw	r3, #:lower16:1073759104
 479 00b4 C4F20003 		movt	r3, #:upper16:1073759104
 480 00b8 BA7B     		ldrb	r2, [r7, #14]
 481 00ba 1A70     		strb	r2, [r3, #0]
 297:./Generated_Source/PSoC5/CyLib.c ****         PM_TW_CFG2 = pm_tw_cfg2_state;
 482              		.loc 1 297 0
 483 00bc 44F28233 		movw	r3, #:lower16:1073759106
 484 00c0 C4F20003 		movt	r3, #:upper16:1073759106
 485 00c4 7A7B     		ldrb	r2, [r7, #13]
 486 00c6 1A70     		strb	r2, [r3, #0]
 487              	.L27:
 298:./Generated_Source/PSoC5/CyLib.c ****     }
 299:./Generated_Source/PSoC5/CyLib.c **** }
 488              		.loc 1 299 0
 489 00c8 07F11007 		add	r7, r7, #16
 490 00cc BD46     		mov	sp, r7
 491 00ce 80BD     		pop	{r7, pc}
 492              		.cfi_endproc
 493              	.LFE4:
 494              		.size	CyIMO_Start, .-CyIMO_Start
 495              		.section	.text.CyIMO_Stop,"ax",%progbits
ARM GAS  C:\Users\CHARLI~1\AppData\Local\Temp\cc78mmP1.s 			page 15


 496              		.align	2
 497              		.global	CyIMO_Stop
 498              		.thumb
 499              		.thumb_func
 500              		.type	CyIMO_Stop, %function
 501              	CyIMO_Stop:
 502              	.LFB5:
 300:./Generated_Source/PSoC5/CyLib.c **** 
 301:./Generated_Source/PSoC5/CyLib.c **** 
 302:./Generated_Source/PSoC5/CyLib.c **** /*******************************************************************************
 303:./Generated_Source/PSoC5/CyLib.c **** * Function Name: CyIMO_Stop
 304:./Generated_Source/PSoC5/CyLib.c **** ********************************************************************************
 305:./Generated_Source/PSoC5/CyLib.c **** * Summary:
 306:./Generated_Source/PSoC5/CyLib.c **** *   Disables the IMO.
 307:./Generated_Source/PSoC5/CyLib.c **** *
 308:./Generated_Source/PSoC5/CyLib.c **** * Parameters:
 309:./Generated_Source/PSoC5/CyLib.c **** *   void.
 310:./Generated_Source/PSoC5/CyLib.c **** *
 311:./Generated_Source/PSoC5/CyLib.c **** *
 312:./Generated_Source/PSoC5/CyLib.c **** * Return:
 313:./Generated_Source/PSoC5/CyLib.c **** *   void.
 314:./Generated_Source/PSoC5/CyLib.c **** *
 315:./Generated_Source/PSoC5/CyLib.c **** *******************************************************************************/
 316:./Generated_Source/PSoC5/CyLib.c **** void CyIMO_Stop(void) 
 317:./Generated_Source/PSoC5/CyLib.c **** {
 503              		.loc 1 317 0
 504              		.cfi_startproc
 505              		@ args = 0, pretend = 0, frame = 0
 506              		@ frame_needed = 1, uses_anonymous_args = 0
 507              		@ link register save eliminated.
 508 0000 80B4     		push	{r7}
 509              	.LCFI14:
 510              		.cfi_def_cfa_offset 4
 511 0002 00AF     		add	r7, sp, #0
 512              		.cfi_offset 7, -4
 513              	.LCFI15:
 514              		.cfi_def_cfa_register 7
 318:./Generated_Source/PSoC5/CyLib.c ****     /* Clear the bit to disable the clock. */
 319:./Generated_Source/PSoC5/CyLib.c ****     PM_ACT_CFG0 &= ~IMO_PM_ENABLE;
 515              		.loc 1 319 0
 516 0004 44F2A033 		movw	r3, #:lower16:1073759136
 517 0008 C4F20003 		movt	r3, #:upper16:1073759136
 518 000c 44F2A032 		movw	r2, #:lower16:1073759136
 519 0010 C4F20002 		movt	r2, #:upper16:1073759136
 520 0014 1278     		ldrb	r2, [r2, #0]
 521 0016 D2B2     		uxtb	r2, r2
 522 0018 02F0EF02 		and	r2, r2, #239
 523 001c 1A70     		strb	r2, [r3, #0]
 320:./Generated_Source/PSoC5/CyLib.c **** }
 524              		.loc 1 320 0
 525 001e BD46     		mov	sp, r7
 526 0020 80BC     		pop	{r7}
 527 0022 7047     		bx	lr
 528              		.cfi_endproc
 529              	.LFE5:
 530              		.size	CyIMO_Stop, .-CyIMO_Stop
 531              		.section	.text.CyIMO_SetTrimValue,"ax",%progbits
ARM GAS  C:\Users\CHARLI~1\AppData\Local\Temp\cc78mmP1.s 			page 16


 532              		.align	2
 533              		.global	CyIMO_SetTrimValue
 534              		.thumb
 535              		.thumb_func
 536              		.type	CyIMO_SetTrimValue, %function
 537              	CyIMO_SetTrimValue:
 538              	.LFB6:
 321:./Generated_Source/PSoC5/CyLib.c **** 
 322:./Generated_Source/PSoC5/CyLib.c **** 
 323:./Generated_Source/PSoC5/CyLib.c **** /*******************************************************************************
 324:./Generated_Source/PSoC5/CyLib.c **** * Function Name: CyIMO_SetTrimValue
 325:./Generated_Source/PSoC5/CyLib.c **** ********************************************************************************
 326:./Generated_Source/PSoC5/CyLib.c **** * Summary:
 327:./Generated_Source/PSoC5/CyLib.c **** *   Sets the IMO factory trim values.
 328:./Generated_Source/PSoC5/CyLib.c **** *
 329:./Generated_Source/PSoC5/CyLib.c **** * Parameters:
 330:./Generated_Source/PSoC5/CyLib.c **** *   freq.
 331:./Generated_Source/PSoC5/CyLib.c **** *
 332:./Generated_Source/PSoC5/CyLib.c **** *
 333:./Generated_Source/PSoC5/CyLib.c **** * Return:
 334:./Generated_Source/PSoC5/CyLib.c **** *   void.
 335:./Generated_Source/PSoC5/CyLib.c **** *
 336:./Generated_Source/PSoC5/CyLib.c **** *******************************************************************************/
 337:./Generated_Source/PSoC5/CyLib.c **** void CyIMO_SetTrimValue(uint8 freq) 
 338:./Generated_Source/PSoC5/CyLib.c **** {
 539              		.loc 1 338 0
 540              		.cfi_startproc
 541              		@ args = 0, pretend = 0, frame = 8
 542              		@ frame_needed = 1, uses_anonymous_args = 0
 543 0000 80B5     		push	{r7, lr}
 544              	.LCFI16:
 545              		.cfi_def_cfa_offset 8
 546 0002 82B0     		sub	sp, sp, #8
 547              	.LCFI17:
 548              		.cfi_def_cfa_offset 16
 549 0004 00AF     		add	r7, sp, #0
 550              		.cfi_offset 14, -4
 551              		.cfi_offset 7, -8
 552              	.LCFI18:
 553              		.cfi_def_cfa_register 7
 554 0006 0346     		mov	r3, r0
 555 0008 FB71     		strb	r3, [r7, #7]
 339:./Generated_Source/PSoC5/CyLib.c ****     /*Unlock USB write*/
 340:./Generated_Source/PSoC5/CyLib.c ****     CY_USB_CR1 &= ~CLOCK_USB_ENABLE;
 556              		.loc 1 340 0
 557 000a 46F20903 		movw	r3, #:lower16:1073766409
 558 000e C4F20003 		movt	r3, #:upper16:1073766409
 559 0012 46F20902 		movw	r2, #:lower16:1073766409
 560 0016 C4F20002 		movt	r2, #:upper16:1073766409
 561 001a 1278     		ldrb	r2, [r2, #0]
 562 001c D2B2     		uxtb	r2, r2
 563 001e 02F0FD02 		and	r2, r2, #253
 564 0022 1A70     		strb	r2, [r3, #0]
 341:./Generated_Source/PSoC5/CyLib.c ****     
 342:./Generated_Source/PSoC5/CyLib.c ****     switch(freq)
 565              		.loc 1 342 0
 566 0024 FB79     		ldrb	r3, [r7, #7]	@ zero_extendqisi2
ARM GAS  C:\Users\CHARLI~1\AppData\Local\Temp\cc78mmP1.s 			page 17


 567 0026 082B     		cmp	r3, #8
 568 0028 00F28480 		bhi	.L31
 569 002c 01A2     		adr	r2, .L40
 570 002e 52F823F0 		ldr	pc, [r2, r3, lsl #2]
 571 0032 00BF     		.align	2
 572              	.L40:
 573 0034 59000000 		.word	.L32+1
 574 0038 71000000 		.word	.L33+1
 575 003c 89000000 		.word	.L34+1
 576 0040 A1000000 		.word	.L35+1
 577 0044 B9000000 		.word	.L36+1
 578 0048 D1000000 		.word	.L37+1
 579 004c E9000000 		.word	.L38+1
 580 0050 35010000 		.word	.L31+1
 581 0054 01010000 		.word	.L39+1
 582              	.L32:
 343:./Generated_Source/PSoC5/CyLib.c ****     {
 344:./Generated_Source/PSoC5/CyLib.c ****         case CY_IMO_FREQ_3MHZ:
 345:./Generated_Source/PSoC5/CyLib.c ****         IMO_TR1 = CY_GET_XTND_REG8(FLSHID_CUST_TABLES_IMO_3MHZ_PTR);
 583              		.loc 1 345 0
 584 0058 44F2A163 		movw	r3, #:lower16:1073759905
 585 005c C4F20003 		movt	r3, #:upper16:1073759905
 586 0060 40F20812 		movw	r2, #:lower16:1224737032
 587 0064 C4F60012 		movt	r2, #:upper16:1224737032
 588 0068 1278     		ldrb	r2, [r2, #0]
 589 006a D2B2     		uxtb	r2, r2
 590 006c 1A70     		strb	r2, [r3, #0]
 346:./Generated_Source/PSoC5/CyLib.c ****         break;
 591              		.loc 1 346 0
 592 006e 65E0     		b	.L42
 593              	.L33:
 347:./Generated_Source/PSoC5/CyLib.c **** 
 348:./Generated_Source/PSoC5/CyLib.c ****         case CY_IMO_FREQ_6MHZ:
 349:./Generated_Source/PSoC5/CyLib.c ****         IMO_TR1 = CY_GET_XTND_REG8(FLSHID_CUST_TABLES_IMO_6MHZ_PTR);
 594              		.loc 1 349 0
 595 0070 44F2A163 		movw	r3, #:lower16:1073759905
 596 0074 C4F20003 		movt	r3, #:upper16:1073759905
 597 0078 40F20912 		movw	r2, #:lower16:1224737033
 598 007c C4F60012 		movt	r2, #:upper16:1224737033
 599 0080 1278     		ldrb	r2, [r2, #0]
 600 0082 D2B2     		uxtb	r2, r2
 601 0084 1A70     		strb	r2, [r3, #0]
 350:./Generated_Source/PSoC5/CyLib.c ****         break;
 602              		.loc 1 350 0
 603 0086 59E0     		b	.L42
 604              	.L34:
 351:./Generated_Source/PSoC5/CyLib.c **** 
 352:./Generated_Source/PSoC5/CyLib.c ****         case CY_IMO_FREQ_12MHZ:
 353:./Generated_Source/PSoC5/CyLib.c ****         IMO_TR1 = CY_GET_XTND_REG8(FLSHID_CUST_TABLES_IMO_12MHZ_PTR);
 605              		.loc 1 353 0
 606 0088 44F2A163 		movw	r3, #:lower16:1073759905
 607 008c C4F20003 		movt	r3, #:upper16:1073759905
 608 0090 40F20A12 		movw	r2, #:lower16:1224737034
 609 0094 C4F60012 		movt	r2, #:upper16:1224737034
 610 0098 1278     		ldrb	r2, [r2, #0]
 611 009a D2B2     		uxtb	r2, r2
 612 009c 1A70     		strb	r2, [r3, #0]
ARM GAS  C:\Users\CHARLI~1\AppData\Local\Temp\cc78mmP1.s 			page 18


 354:./Generated_Source/PSoC5/CyLib.c ****         break;
 613              		.loc 1 354 0
 614 009e 4DE0     		b	.L42
 615              	.L35:
 355:./Generated_Source/PSoC5/CyLib.c **** 
 356:./Generated_Source/PSoC5/CyLib.c ****         case CY_IMO_FREQ_24MHZ:
 357:./Generated_Source/PSoC5/CyLib.c ****         IMO_TR1 = CY_GET_XTND_REG8(FLSHID_CUST_TABLES_IMO_24MHZ_PTR);
 616              		.loc 1 357 0
 617 00a0 44F2A163 		movw	r3, #:lower16:1073759905
 618 00a4 C4F20003 		movt	r3, #:upper16:1073759905
 619 00a8 40F20B12 		movw	r2, #:lower16:1224737035
 620 00ac C4F60012 		movt	r2, #:upper16:1224737035
 621 00b0 1278     		ldrb	r2, [r2, #0]
 622 00b2 D2B2     		uxtb	r2, r2
 623 00b4 1A70     		strb	r2, [r3, #0]
 358:./Generated_Source/PSoC5/CyLib.c ****         break;
 624              		.loc 1 358 0
 625 00b6 41E0     		b	.L42
 626              	.L36:
 359:./Generated_Source/PSoC5/CyLib.c **** 
 360:./Generated_Source/PSoC5/CyLib.c ****         case CY_IMO_FREQ_48MHZ:
 361:./Generated_Source/PSoC5/CyLib.c ****         IMO_TR1 = CY_GET_XTND_REG8(FLSHID_MFG_CFG_IMO_TR1_PTR);
 627              		.loc 1 361 0
 628 00b8 44F2A163 		movw	r3, #:lower16:1073759905
 629 00bc C4F20003 		movt	r3, #:upper16:1073759905
 630 00c0 40F28312 		movw	r2, #:lower16:1224737155
 631 00c4 C4F60012 		movt	r2, #:upper16:1224737155
 632 00c8 1278     		ldrb	r2, [r2, #0]
 633 00ca D2B2     		uxtb	r2, r2
 634 00cc 1A70     		strb	r2, [r3, #0]
 362:./Generated_Source/PSoC5/CyLib.c ****         break;
 635              		.loc 1 362 0
 636 00ce 35E0     		b	.L42
 637              	.L37:
 363:./Generated_Source/PSoC5/CyLib.c **** 
 364:./Generated_Source/PSoC5/CyLib.c ****         case CY_IMO_FREQ_62MHZ:
 365:./Generated_Source/PSoC5/CyLib.c ****         IMO_TR1 = CY_GET_XTND_REG8(FLSHID_CUST_TABLES_IMO_67MHZ_PTR);
 638              		.loc 1 365 0
 639 00d0 44F2A163 		movw	r3, #:lower16:1073759905
 640 00d4 C4F20003 		movt	r3, #:upper16:1073759905
 641 00d8 40F20C12 		movw	r2, #:lower16:1224737036
 642 00dc C4F60012 		movt	r2, #:upper16:1224737036
 643 00e0 1278     		ldrb	r2, [r2, #0]
 644 00e2 D2B2     		uxtb	r2, r2
 645 00e4 1A70     		strb	r2, [r3, #0]
 366:./Generated_Source/PSoC5/CyLib.c ****         break;
 646              		.loc 1 366 0
 647 00e6 29E0     		b	.L42
 648              	.L38:
 367:./Generated_Source/PSoC5/CyLib.c **** 
 368:./Generated_Source/PSoC5/CyLib.c ****         case CY_IMO_FREQ_74MHZ:
 369:./Generated_Source/PSoC5/CyLib.c ****         IMO_TR1 = CY_GET_XTND_REG8(FLSHID_CUST_TABLES_IMO_80MHZ_PTR);
 649              		.loc 1 369 0
 650 00e8 44F2A163 		movw	r3, #:lower16:1073759905
 651 00ec C4F20003 		movt	r3, #:upper16:1073759905
 652 00f0 40F20D12 		movw	r2, #:lower16:1224737037
 653 00f4 C4F60012 		movt	r2, #:upper16:1224737037
ARM GAS  C:\Users\CHARLI~1\AppData\Local\Temp\cc78mmP1.s 			page 19


 654 00f8 1278     		ldrb	r2, [r2, #0]
 655 00fa D2B2     		uxtb	r2, r2
 656 00fc 1A70     		strb	r2, [r3, #0]
 370:./Generated_Source/PSoC5/CyLib.c ****         break;
 657              		.loc 1 370 0
 658 00fe 1DE0     		b	.L42
 659              	.L39:
 371:./Generated_Source/PSoC5/CyLib.c ****         
 372:./Generated_Source/PSoC5/CyLib.c ****         case CY_IMO_FREQ_USB:
 373:./Generated_Source/PSoC5/CyLib.c ****         IMO_TR1 = CY_GET_XTND_REG8(FLSHID_CUST_TABLES_IMO_USB_PTR);
 660              		.loc 1 373 0
 661 0100 44F2A163 		movw	r3, #:lower16:1073759905
 662 0104 C4F20003 		movt	r3, #:upper16:1073759905
 663 0108 40F20F12 		movw	r2, #:lower16:1224737039
 664 010c C4F60012 		movt	r2, #:upper16:1224737039
 665 0110 1278     		ldrb	r2, [r2, #0]
 666 0112 D2B2     		uxtb	r2, r2
 667 0114 1A70     		strb	r2, [r3, #0]
 374:./Generated_Source/PSoC5/CyLib.c ****         /*Lock the USB Oscillator*/
 375:./Generated_Source/PSoC5/CyLib.c ****         CY_USB_CR1 |= CLOCK_USB_ENABLE;
 668              		.loc 1 375 0
 669 0116 46F20903 		movw	r3, #:lower16:1073766409
 670 011a C4F20003 		movt	r3, #:upper16:1073766409
 671 011e 46F20902 		movw	r2, #:lower16:1073766409
 672 0122 C4F20002 		movt	r2, #:upper16:1073766409
 673 0126 1278     		ldrb	r2, [r2, #0]
 674 0128 D2B2     		uxtb	r2, r2
 675 012a 42F00202 		orr	r2, r2, #2
 676 012e D2B2     		uxtb	r2, r2
 677 0130 1A70     		strb	r2, [r3, #0]
 376:./Generated_Source/PSoC5/CyLib.c ****         break;
 678              		.loc 1 376 0
 679 0132 03E0     		b	.L42
 680              	.L31:
 377:./Generated_Source/PSoC5/CyLib.c ****         
 378:./Generated_Source/PSoC5/CyLib.c ****         default:
 379:./Generated_Source/PSoC5/CyLib.c ****         CYASSERT(0);
 681              		.loc 1 379 0
 682 0134 4FF00000 		mov	r0, #0
 683 0138 FFF7FEFF 		bl	CyHalt
 684              	.L42:
 380:./Generated_Source/PSoC5/CyLib.c ****         break;
 381:./Generated_Source/PSoC5/CyLib.c ****     }
 382:./Generated_Source/PSoC5/CyLib.c ****     
 383:./Generated_Source/PSoC5/CyLib.c **** }
 685              		.loc 1 383 0
 686 013c 07F10807 		add	r7, r7, #8
 687 0140 BD46     		mov	sp, r7
 688 0142 80BD     		pop	{r7, pc}
 689              		.cfi_endproc
 690              	.LFE6:
 691              		.size	CyIMO_SetTrimValue, .-CyIMO_SetTrimValue
 692              		.section	.text.CyIMO_SetFreq,"ax",%progbits
 693              		.align	2
 694              		.global	CyIMO_SetFreq
 695              		.thumb
 696              		.thumb_func
ARM GAS  C:\Users\CHARLI~1\AppData\Local\Temp\cc78mmP1.s 			page 20


 697              		.type	CyIMO_SetFreq, %function
 698              	CyIMO_SetFreq:
 699              	.LFB7:
 384:./Generated_Source/PSoC5/CyLib.c **** 
 385:./Generated_Source/PSoC5/CyLib.c **** 
 386:./Generated_Source/PSoC5/CyLib.c **** /*******************************************************************************
 387:./Generated_Source/PSoC5/CyLib.c **** * Function Name: CyIMO_SetFreq
 388:./Generated_Source/PSoC5/CyLib.c **** ********************************************************************************
 389:./Generated_Source/PSoC5/CyLib.c **** * Summary:
 390:./Generated_Source/PSoC5/CyLib.c **** *   Alows the caller to set the IMO fequency (3, 6, 12, 24, 48, 62 MHZ).
 391:./Generated_Source/PSoC5/CyLib.c **** *   Sets the frequency of the IMO.  
 392:./Generated_Source/PSoC5/CyLib.c **** *   Changes may be made while the IMO is running.  
 393:./Generated_Source/PSoC5/CyLib.c **** *   When the USB setting is chosen the USB clock locking circuit is enabled.  
 394:./Generated_Source/PSoC5/CyLib.c **** *   Otherwise this circuit is disabled.
 395:./Generated_Source/PSoC5/CyLib.c **** *   If the IMO is currently driving the Master clock, then the Flash wait states
 396:./Generated_Source/PSoC5/CyLib.c **** *   must be set appropriately before making this change -
 397:./Generated_Source/PSoC5/CyLib.c **** *   by using CyFlash_SetWaitCycles().
 398:./Generated_Source/PSoC5/CyLib.c **** *
 399:./Generated_Source/PSoC5/CyLib.c **** *
 400:./Generated_Source/PSoC5/CyLib.c **** * Parameters:
 401:./Generated_Source/PSoC5/CyLib.c **** *   frequency,    CY_IMO_FREQ_3MHZ  to set 3 MHz,
 402:./Generated_Source/PSoC5/CyLib.c **** *                 CY_IMO_FREQ_6MHZ  to set 6 MHz,
 403:./Generated_Source/PSoC5/CyLib.c **** *                 CY_IMO_FREQ_12MHZ to set 12MHz,
 404:./Generated_Source/PSoC5/CyLib.c **** *                 CY_IMO_FREQ_24MHZ to set 24MHz,
 405:./Generated_Source/PSoC5/CyLib.c **** *                 CY_IMO_FREQ_48MHZ to set 48MHz,
 406:./Generated_Source/PSoC5/CyLib.c **** *                 CY_IMO_FREQ_62MHZ to set 62.6MHz.
 407:./Generated_Source/PSoC5/CyLib.c **** *                 CY_IMO_FREQ_74MHZ    to set 74.7 MHz (PSoC 5)
 408:./Generated_Source/PSoC5/CyLib.c **** *                 CY_IMO_FREQ_USB    to set 24 MHz (Trimmed for USB operation)
 409:./Generated_Source/PSoC5/CyLib.c **** *
 410:./Generated_Source/PSoC5/CyLib.c **** *
 411:./Generated_Source/PSoC5/CyLib.c **** * Return:
 412:./Generated_Source/PSoC5/CyLib.c **** *   void.
 413:./Generated_Source/PSoC5/CyLib.c **** *
 414:./Generated_Source/PSoC5/CyLib.c **** *******************************************************************************/
 415:./Generated_Source/PSoC5/CyLib.c **** void CyIMO_SetFreq(uint8 freq) 
 416:./Generated_Source/PSoC5/CyLib.c **** {
 700              		.loc 1 416 0
 701              		.cfi_startproc
 702              		@ args = 0, pretend = 0, frame = 16
 703              		@ frame_needed = 1, uses_anonymous_args = 0
 704 0000 80B5     		push	{r7, lr}
 705              	.LCFI19:
 706              		.cfi_def_cfa_offset 8
 707 0002 84B0     		sub	sp, sp, #16
 708              	.LCFI20:
 709              		.cfi_def_cfa_offset 24
 710 0004 00AF     		add	r7, sp, #0
 711              		.cfi_offset 14, -4
 712              		.cfi_offset 7, -8
 713              	.LCFI21:
 714              		.cfi_def_cfa_register 7
 715 0006 0346     		mov	r3, r0
 716 0008 FB71     		strb	r3, [r7, #7]
 417:./Generated_Source/PSoC5/CyLib.c ****     uint8 current_freq;
 418:./Generated_Source/PSoC5/CyLib.c ****     uint8 next_freq;
 419:./Generated_Source/PSoC5/CyLib.c ****     
 420:./Generated_Source/PSoC5/CyLib.c ****     /*
ARM GAS  C:\Users\CHARLI~1\AppData\Local\Temp\cc78mmP1.s 			page 21


 421:./Generated_Source/PSoC5/CyLib.c ****     When changing the IMO frequency the Trim values must also be set accordingly.  
 422:./Generated_Source/PSoC5/CyLib.c ****     This requires reading the current frequency.  
 423:./Generated_Source/PSoC5/CyLib.c ****     If the new frequency is faster, then set the new trim and then change the
 424:./Generated_Source/PSoC5/CyLib.c ****     frequency, otherwise change the frequency and then set the new trim values.
 425:./Generated_Source/PSoC5/CyLib.c ****     */
 426:./Generated_Source/PSoC5/CyLib.c **** 
 427:./Generated_Source/PSoC5/CyLib.c ****     /*
 428:./Generated_Source/PSoC5/CyLib.c ****     Value Name         Description
 429:./Generated_Source/PSoC5/CyLib.c ****     3'h0 F_RANGE_0 12 MHz (normal)
 430:./Generated_Source/PSoC5/CyLib.c ****     3'h1 F_RANGE_1 6 MHz (normal); 12 MHz (fast start)
 431:./Generated_Source/PSoC5/CyLib.c ****     3'h2 F_RANGE_2 24 MHz
 432:./Generated_Source/PSoC5/CyLib.c ****     3'h3 F_RANGE_3 3 MHz (normal); 12 MHz (fast start)
 433:./Generated_Source/PSoC5/CyLib.c ****     3'h4 F_RANGE_4 48 MHz
 434:./Generated_Source/PSoC5/CyLib.c ****     3'h5 F_RANGE_5 67 MHz
 435:./Generated_Source/PSoC5/CyLib.c ****     3'h6 F_RANGE_6 80 MHz (normal); 48 MHz (fast start)
 436:./Generated_Source/PSoC5/CyLib.c ****     3'h7 F_RANGE_7 96 MHz (normal); 48 MHz (fast start)
 437:./Generated_Source/PSoC5/CyLib.c ****     */
 438:./Generated_Source/PSoC5/CyLib.c ****     current_freq = FASTCLK_IMO_CR & ~CLOCK_IMO_RANGE_CLEAR;
 717              		.loc 1 438 0
 718 000a 44F20023 		movw	r3, #:lower16:1073758720
 719 000e C4F20003 		movt	r3, #:upper16:1073758720
 720 0012 1B78     		ldrb	r3, [r3, #0]
 721 0014 DBB2     		uxtb	r3, r3
 722 0016 03F00703 		and	r3, r3, #7
 723 001a BB73     		strb	r3, [r7, #14]
 439:./Generated_Source/PSoC5/CyLib.c ****     /*Check if the requested frequency is USB.*/
 440:./Generated_Source/PSoC5/CyLib.c ****     next_freq = (freq == CY_IMO_FREQ_USB) ? CY_IMO_FREQ_24MHZ : freq;
 724              		.loc 1 440 0
 725 001c FB79     		ldrb	r3, [r7, #7]	@ zero_extendqisi2
 726 001e 082B     		cmp	r3, #8
 727 0020 01D0     		beq	.L44
 728 0022 FB79     		ldrb	r3, [r7, #7]	@ zero_extendqisi2
 729 0024 01E0     		b	.L45
 730              	.L44:
 731 0026 4FF00303 		mov	r3, #3
 732              	.L45:
 733 002a FB73     		strb	r3, [r7, #15]
 441:./Generated_Source/PSoC5/CyLib.c ****     switch (current_freq)
 734              		.loc 1 441 0
 735 002c BB7B     		ldrb	r3, [r7, #14]	@ zero_extendqisi2
 736 002e 062B     		cmp	r3, #6
 737 0030 2BD8     		bhi	.L46
 738 0032 01A2     		adr	r2, .L54
 739 0034 52F823F0 		ldr	pc, [r2, r3, lsl #2]
 740              		.align	2
 741              	.L54:
 742 0038 55000000 		.word	.L47+1
 743 003c 5D000000 		.word	.L48+1
 744 0040 65000000 		.word	.L49+1
 745 0044 6D000000 		.word	.L50+1
 746 0048 75000000 		.word	.L51+1
 747 004c 7D000000 		.word	.L52+1
 748 0050 85000000 		.word	.L53+1
 749              	.L47:
 442:./Generated_Source/PSoC5/CyLib.c ****     {
 443:./Generated_Source/PSoC5/CyLib.c ****         case 0:
 444:./Generated_Source/PSoC5/CyLib.c ****         current_freq = CY_IMO_FREQ_12MHZ;
ARM GAS  C:\Users\CHARLI~1\AppData\Local\Temp\cc78mmP1.s 			page 22


 750              		.loc 1 444 0
 751 0054 4FF00203 		mov	r3, #2
 752 0058 BB73     		strb	r3, [r7, #14]
 445:./Generated_Source/PSoC5/CyLib.c ****         break;
 753              		.loc 1 445 0
 754 005a 16E0     		b	.L46
 755              	.L48:
 446:./Generated_Source/PSoC5/CyLib.c ****         
 447:./Generated_Source/PSoC5/CyLib.c ****         case 1:
 448:./Generated_Source/PSoC5/CyLib.c ****         current_freq = CY_IMO_FREQ_6MHZ;
 756              		.loc 1 448 0
 757 005c 4FF00103 		mov	r3, #1
 758 0060 BB73     		strb	r3, [r7, #14]
 449:./Generated_Source/PSoC5/CyLib.c ****         break;
 759              		.loc 1 449 0
 760 0062 12E0     		b	.L46
 761              	.L49:
 450:./Generated_Source/PSoC5/CyLib.c **** 
 451:./Generated_Source/PSoC5/CyLib.c ****         case 2:
 452:./Generated_Source/PSoC5/CyLib.c ****         current_freq = CY_IMO_FREQ_24MHZ;
 762              		.loc 1 452 0
 763 0064 4FF00303 		mov	r3, #3
 764 0068 BB73     		strb	r3, [r7, #14]
 453:./Generated_Source/PSoC5/CyLib.c ****         break;
 765              		.loc 1 453 0
 766 006a 0EE0     		b	.L46
 767              	.L50:
 454:./Generated_Source/PSoC5/CyLib.c **** 
 455:./Generated_Source/PSoC5/CyLib.c ****         case 3:
 456:./Generated_Source/PSoC5/CyLib.c ****         current_freq = CY_IMO_FREQ_3MHZ;
 768              		.loc 1 456 0
 769 006c 4FF00003 		mov	r3, #0
 770 0070 BB73     		strb	r3, [r7, #14]
 457:./Generated_Source/PSoC5/CyLib.c ****         break;
 771              		.loc 1 457 0
 772 0072 0AE0     		b	.L46
 773              	.L51:
 458:./Generated_Source/PSoC5/CyLib.c **** 
 459:./Generated_Source/PSoC5/CyLib.c ****         case 4:
 460:./Generated_Source/PSoC5/CyLib.c ****         current_freq = CY_IMO_FREQ_48MHZ;
 774              		.loc 1 460 0
 775 0074 4FF00403 		mov	r3, #4
 776 0078 BB73     		strb	r3, [r7, #14]
 461:./Generated_Source/PSoC5/CyLib.c ****         break;
 777              		.loc 1 461 0
 778 007a 06E0     		b	.L46
 779              	.L52:
 462:./Generated_Source/PSoC5/CyLib.c **** 
 463:./Generated_Source/PSoC5/CyLib.c ****         case 5:
 464:./Generated_Source/PSoC5/CyLib.c ****         current_freq = CY_IMO_FREQ_62MHZ;
 780              		.loc 1 464 0
 781 007c 4FF00503 		mov	r3, #5
 782 0080 BB73     		strb	r3, [r7, #14]
 465:./Generated_Source/PSoC5/CyLib.c ****         break;
 783              		.loc 1 465 0
 784 0082 02E0     		b	.L46
 785              	.L53:
ARM GAS  C:\Users\CHARLI~1\AppData\Local\Temp\cc78mmP1.s 			page 23


 466:./Generated_Source/PSoC5/CyLib.c **** 
 467:./Generated_Source/PSoC5/CyLib.c ****         case 6:
 468:./Generated_Source/PSoC5/CyLib.c ****         current_freq = CY_IMO_FREQ_74MHZ;
 786              		.loc 1 468 0
 787 0084 4FF00603 		mov	r3, #6
 788 0088 BB73     		strb	r3, [r7, #14]
 789              	.L46:
 469:./Generated_Source/PSoC5/CyLib.c ****         break;
 470:./Generated_Source/PSoC5/CyLib.c ****     }
 471:./Generated_Source/PSoC5/CyLib.c ****     
 472:./Generated_Source/PSoC5/CyLib.c ****     if (next_freq >= current_freq)
 790              		.loc 1 472 0
 791 008a FA7B     		ldrb	r2, [r7, #15]	@ zero_extendqisi2
 792 008c BB7B     		ldrb	r3, [r7, #14]	@ zero_extendqisi2
 793 008e 9A42     		cmp	r2, r3
 794 0090 03D3     		bcc	.L55
 473:./Generated_Source/PSoC5/CyLib.c ****     {
 474:./Generated_Source/PSoC5/CyLib.c ****         /*Set the new trim first*/
 475:./Generated_Source/PSoC5/CyLib.c ****         CyIMO_SetTrimValue(freq);
 795              		.loc 1 475 0
 796 0092 FB79     		ldrb	r3, [r7, #7]	@ zero_extendqisi2
 797 0094 1846     		mov	r0, r3
 798 0096 FFF7FEFF 		bl	CyIMO_SetTrimValue
 799              	.L55:
 476:./Generated_Source/PSoC5/CyLib.c ****     }
 477:./Generated_Source/PSoC5/CyLib.c ****     
 478:./Generated_Source/PSoC5/CyLib.c ****     
 479:./Generated_Source/PSoC5/CyLib.c ****     switch(freq)
 800              		.loc 1 479 0
 801 009a FB79     		ldrb	r3, [r7, #7]	@ zero_extendqisi2
 802 009c 082B     		cmp	r3, #8
 803 009e 00F2A880 		bhi	.L56
 804 00a2 01A2     		adr	r2, .L65
 805 00a4 52F823F0 		ldr	pc, [r2, r3, lsl #2]
 806              		.align	2
 807              	.L65:
 808 00a8 CD000000 		.word	.L57+1
 809 00ac F3000000 		.word	.L58+1
 810 00b0 19010000 		.word	.L59+1
 811 00b4 35010000 		.word	.L60+1
 812 00b8 5B010000 		.word	.L61+1
 813 00bc 81010000 		.word	.L62+1
 814 00c0 A7010000 		.word	.L63+1
 815 00c4 F3010000 		.word	.L56+1
 816 00c8 CD010000 		.word	.L64+1
 817              	.L57:
 480:./Generated_Source/PSoC5/CyLib.c ****     {
 481:./Generated_Source/PSoC5/CyLib.c ****         case CY_IMO_FREQ_3MHZ:
 482:./Generated_Source/PSoC5/CyLib.c ****         FASTCLK_IMO_CR = (FASTCLK_IMO_CR & CLOCK_IMO_RANGE_CLEAR) | CLOCK_IMO_3MHZ_VALUE;
 818              		.loc 1 482 0
 819 00cc 44F20023 		movw	r3, #:lower16:1073758720
 820 00d0 C4F20003 		movt	r3, #:upper16:1073758720
 821 00d4 44F20022 		movw	r2, #:lower16:1073758720
 822 00d8 C4F20002 		movt	r2, #:upper16:1073758720
 823 00dc 1278     		ldrb	r2, [r2, #0]
 824 00de D2B2     		uxtb	r2, r2
 825 00e0 D2B2     		uxtb	r2, r2
ARM GAS  C:\Users\CHARLI~1\AppData\Local\Temp\cc78mmP1.s 			page 24


 826 00e2 02F0F802 		and	r2, r2, #248
 827 00e6 42F00302 		orr	r2, r2, #3
 828 00ea D2B2     		uxtb	r2, r2
 829 00ec D2B2     		uxtb	r2, r2
 830 00ee 1A70     		strb	r2, [r3, #0]
 483:./Generated_Source/PSoC5/CyLib.c ****         break;
 831              		.loc 1 483 0
 832 00f0 83E0     		b	.L66
 833              	.L58:
 484:./Generated_Source/PSoC5/CyLib.c **** 
 485:./Generated_Source/PSoC5/CyLib.c ****         case CY_IMO_FREQ_6MHZ:
 486:./Generated_Source/PSoC5/CyLib.c ****         FASTCLK_IMO_CR = (FASTCLK_IMO_CR & CLOCK_IMO_RANGE_CLEAR) | CLOCK_IMO_6MHZ_VALUE;
 834              		.loc 1 486 0
 835 00f2 44F20023 		movw	r3, #:lower16:1073758720
 836 00f6 C4F20003 		movt	r3, #:upper16:1073758720
 837 00fa 44F20022 		movw	r2, #:lower16:1073758720
 838 00fe C4F20002 		movt	r2, #:upper16:1073758720
 839 0102 1278     		ldrb	r2, [r2, #0]
 840 0104 D2B2     		uxtb	r2, r2
 841 0106 D2B2     		uxtb	r2, r2
 842 0108 02F0F802 		and	r2, r2, #248
 843 010c 42F00102 		orr	r2, r2, #1
 844 0110 D2B2     		uxtb	r2, r2
 845 0112 D2B2     		uxtb	r2, r2
 846 0114 1A70     		strb	r2, [r3, #0]
 487:./Generated_Source/PSoC5/CyLib.c ****         break;
 847              		.loc 1 487 0
 848 0116 70E0     		b	.L66
 849              	.L59:
 488:./Generated_Source/PSoC5/CyLib.c **** 
 489:./Generated_Source/PSoC5/CyLib.c ****         case CY_IMO_FREQ_12MHZ:
 490:./Generated_Source/PSoC5/CyLib.c ****         FASTCLK_IMO_CR = (FASTCLK_IMO_CR & CLOCK_IMO_RANGE_CLEAR) | CLOCK_IMO_12MHZ_VALUE;
 850              		.loc 1 490 0
 851 0118 44F20023 		movw	r3, #:lower16:1073758720
 852 011c C4F20003 		movt	r3, #:upper16:1073758720
 853 0120 44F20022 		movw	r2, #:lower16:1073758720
 854 0124 C4F20002 		movt	r2, #:upper16:1073758720
 855 0128 1278     		ldrb	r2, [r2, #0]
 856 012a D2B2     		uxtb	r2, r2
 857 012c 02F0F802 		and	r2, r2, #248
 858 0130 1A70     		strb	r2, [r3, #0]
 491:./Generated_Source/PSoC5/CyLib.c ****         break;
 859              		.loc 1 491 0
 860 0132 62E0     		b	.L66
 861              	.L60:
 492:./Generated_Source/PSoC5/CyLib.c **** 
 493:./Generated_Source/PSoC5/CyLib.c ****         case CY_IMO_FREQ_24MHZ:
 494:./Generated_Source/PSoC5/CyLib.c ****         FASTCLK_IMO_CR = (FASTCLK_IMO_CR & CLOCK_IMO_RANGE_CLEAR) | CLOCK_IMO_24MHZ_VALUE;
 862              		.loc 1 494 0
 863 0134 44F20023 		movw	r3, #:lower16:1073758720
 864 0138 C4F20003 		movt	r3, #:upper16:1073758720
 865 013c 44F20022 		movw	r2, #:lower16:1073758720
 866 0140 C4F20002 		movt	r2, #:upper16:1073758720
 867 0144 1278     		ldrb	r2, [r2, #0]
 868 0146 D2B2     		uxtb	r2, r2
 869 0148 D2B2     		uxtb	r2, r2
 870 014a 02F0F802 		and	r2, r2, #248
ARM GAS  C:\Users\CHARLI~1\AppData\Local\Temp\cc78mmP1.s 			page 25


 871 014e 42F00202 		orr	r2, r2, #2
 872 0152 D2B2     		uxtb	r2, r2
 873 0154 D2B2     		uxtb	r2, r2
 874 0156 1A70     		strb	r2, [r3, #0]
 495:./Generated_Source/PSoC5/CyLib.c ****         break;
 875              		.loc 1 495 0
 876 0158 4FE0     		b	.L66
 877              	.L61:
 496:./Generated_Source/PSoC5/CyLib.c **** 
 497:./Generated_Source/PSoC5/CyLib.c ****         case CY_IMO_FREQ_48MHZ:
 498:./Generated_Source/PSoC5/CyLib.c ****         FASTCLK_IMO_CR = (FASTCLK_IMO_CR & CLOCK_IMO_RANGE_CLEAR) | CLOCK_IMO_48MHZ_VALUE;
 878              		.loc 1 498 0
 879 015a 44F20023 		movw	r3, #:lower16:1073758720
 880 015e C4F20003 		movt	r3, #:upper16:1073758720
 881 0162 44F20022 		movw	r2, #:lower16:1073758720
 882 0166 C4F20002 		movt	r2, #:upper16:1073758720
 883 016a 1278     		ldrb	r2, [r2, #0]
 884 016c D2B2     		uxtb	r2, r2
 885 016e D2B2     		uxtb	r2, r2
 886 0170 02F0F802 		and	r2, r2, #248
 887 0174 42F00402 		orr	r2, r2, #4
 888 0178 D2B2     		uxtb	r2, r2
 889 017a D2B2     		uxtb	r2, r2
 890 017c 1A70     		strb	r2, [r3, #0]
 499:./Generated_Source/PSoC5/CyLib.c ****         break;
 891              		.loc 1 499 0
 892 017e 3CE0     		b	.L66
 893              	.L62:
 500:./Generated_Source/PSoC5/CyLib.c **** 
 501:./Generated_Source/PSoC5/CyLib.c ****         case CY_IMO_FREQ_62MHZ:
 502:./Generated_Source/PSoC5/CyLib.c ****         FASTCLK_IMO_CR = (FASTCLK_IMO_CR & CLOCK_IMO_RANGE_CLEAR) | CLOCK_IMO_62MHZ_VALUE;
 894              		.loc 1 502 0
 895 0180 44F20023 		movw	r3, #:lower16:1073758720
 896 0184 C4F20003 		movt	r3, #:upper16:1073758720
 897 0188 44F20022 		movw	r2, #:lower16:1073758720
 898 018c C4F20002 		movt	r2, #:upper16:1073758720
 899 0190 1278     		ldrb	r2, [r2, #0]
 900 0192 D2B2     		uxtb	r2, r2
 901 0194 D2B2     		uxtb	r2, r2
 902 0196 02F0F802 		and	r2, r2, #248
 903 019a 42F00502 		orr	r2, r2, #5
 904 019e D2B2     		uxtb	r2, r2
 905 01a0 D2B2     		uxtb	r2, r2
 906 01a2 1A70     		strb	r2, [r3, #0]
 503:./Generated_Source/PSoC5/CyLib.c ****         break;
 907              		.loc 1 503 0
 908 01a4 29E0     		b	.L66
 909              	.L63:
 504:./Generated_Source/PSoC5/CyLib.c **** 
 505:./Generated_Source/PSoC5/CyLib.c ****         case CY_IMO_FREQ_74MHZ:
 506:./Generated_Source/PSoC5/CyLib.c ****         FASTCLK_IMO_CR = (FASTCLK_IMO_CR & CLOCK_IMO_RANGE_CLEAR) | CLOCK_IMO_74MHZ_VALUE;
 910              		.loc 1 506 0
 911 01a6 44F20023 		movw	r3, #:lower16:1073758720
 912 01aa C4F20003 		movt	r3, #:upper16:1073758720
 913 01ae 44F20022 		movw	r2, #:lower16:1073758720
 914 01b2 C4F20002 		movt	r2, #:upper16:1073758720
 915 01b6 1278     		ldrb	r2, [r2, #0]
ARM GAS  C:\Users\CHARLI~1\AppData\Local\Temp\cc78mmP1.s 			page 26


 916 01b8 D2B2     		uxtb	r2, r2
 917 01ba D2B2     		uxtb	r2, r2
 918 01bc 02F0F802 		and	r2, r2, #248
 919 01c0 42F00602 		orr	r2, r2, #6
 920 01c4 D2B2     		uxtb	r2, r2
 921 01c6 D2B2     		uxtb	r2, r2
 922 01c8 1A70     		strb	r2, [r3, #0]
 507:./Generated_Source/PSoC5/CyLib.c ****         break;
 923              		.loc 1 507 0
 924 01ca 16E0     		b	.L66
 925              	.L64:
 508:./Generated_Source/PSoC5/CyLib.c ****         
 509:./Generated_Source/PSoC5/CyLib.c ****         case CY_IMO_FREQ_USB:
 510:./Generated_Source/PSoC5/CyLib.c ****         FASTCLK_IMO_CR = (FASTCLK_IMO_CR & CLOCK_IMO_RANGE_CLEAR) | CLOCK_IMO_24MHZ_VALUE;
 926              		.loc 1 510 0
 927 01cc 44F20023 		movw	r3, #:lower16:1073758720
 928 01d0 C4F20003 		movt	r3, #:upper16:1073758720
 929 01d4 44F20022 		movw	r2, #:lower16:1073758720
 930 01d8 C4F20002 		movt	r2, #:upper16:1073758720
 931 01dc 1278     		ldrb	r2, [r2, #0]
 932 01de D2B2     		uxtb	r2, r2
 933 01e0 D2B2     		uxtb	r2, r2
 934 01e2 02F0F802 		and	r2, r2, #248
 935 01e6 42F00202 		orr	r2, r2, #2
 936 01ea D2B2     		uxtb	r2, r2
 937 01ec D2B2     		uxtb	r2, r2
 938 01ee 1A70     		strb	r2, [r3, #0]
 511:./Generated_Source/PSoC5/CyLib.c ****         break;
 939              		.loc 1 511 0
 940 01f0 03E0     		b	.L66
 941              	.L56:
 512:./Generated_Source/PSoC5/CyLib.c ****         
 513:./Generated_Source/PSoC5/CyLib.c ****         default:
 514:./Generated_Source/PSoC5/CyLib.c ****         /*Not a correct fequency value.*/
 515:./Generated_Source/PSoC5/CyLib.c ****         CYASSERT(0);
 942              		.loc 1 515 0
 943 01f2 4FF00000 		mov	r0, #0
 944 01f6 FFF7FEFF 		bl	CyHalt
 945              	.L66:
 516:./Generated_Source/PSoC5/CyLib.c ****         break;
 517:./Generated_Source/PSoC5/CyLib.c ****     }
 518:./Generated_Source/PSoC5/CyLib.c ****     
 519:./Generated_Source/PSoC5/CyLib.c ****     if (next_freq < current_freq)
 946              		.loc 1 519 0
 947 01fa FA7B     		ldrb	r2, [r7, #15]	@ zero_extendqisi2
 948 01fc BB7B     		ldrb	r3, [r7, #14]	@ zero_extendqisi2
 949 01fe 9A42     		cmp	r2, r3
 950 0200 03D2     		bcs	.L68
 520:./Generated_Source/PSoC5/CyLib.c ****     {
 521:./Generated_Source/PSoC5/CyLib.c ****         /*Set the new trim after setting the frequency*/
 522:./Generated_Source/PSoC5/CyLib.c ****         CyIMO_SetTrimValue(freq);
 951              		.loc 1 522 0
 952 0202 FB79     		ldrb	r3, [r7, #7]	@ zero_extendqisi2
 953 0204 1846     		mov	r0, r3
 954 0206 FFF7FEFF 		bl	CyIMO_SetTrimValue
 955              	.L68:
 523:./Generated_Source/PSoC5/CyLib.c ****     }
ARM GAS  C:\Users\CHARLI~1\AppData\Local\Temp\cc78mmP1.s 			page 27


 524:./Generated_Source/PSoC5/CyLib.c **** }
 956              		.loc 1 524 0
 957 020a 07F11007 		add	r7, r7, #16
 958 020e BD46     		mov	sp, r7
 959 0210 80BD     		pop	{r7, pc}
 960              		.cfi_endproc
 961              	.LFE7:
 962              		.size	CyIMO_SetFreq, .-CyIMO_SetFreq
 963 0212 00BF     		.section	.text.CyIMO_SetSource,"ax",%progbits
 964              		.align	2
 965              		.global	CyIMO_SetSource
 966              		.thumb
 967              		.thumb_func
 968              		.type	CyIMO_SetSource, %function
 969              	CyIMO_SetSource:
 970              	.LFB8:
 525:./Generated_Source/PSoC5/CyLib.c **** 
 526:./Generated_Source/PSoC5/CyLib.c **** 
 527:./Generated_Source/PSoC5/CyLib.c **** /*******************************************************************************
 528:./Generated_Source/PSoC5/CyLib.c **** * Function Name: CyIMO_SetSource
 529:./Generated_Source/PSoC5/CyLib.c **** ********************************************************************************
 530:./Generated_Source/PSoC5/CyLib.c **** * Summary:
 531:./Generated_Source/PSoC5/CyLib.c **** *   Sets the source of the clock output from the IMO block.  
 532:./Generated_Source/PSoC5/CyLib.c **** *   The output from the IMO is by default the IMO itself.  
 533:./Generated_Source/PSoC5/CyLib.c **** *   Optionally the MHz Crystal or a DSI input can be the source of the 
 534:./Generated_Source/PSoC5/CyLib.c **** *   IMO output instead.  
 535:./Generated_Source/PSoC5/CyLib.c **** *   If the IMO is currently driving the Master clock, 
 536:./Generated_Source/PSoC5/CyLib.c **** *   then the Flash wait states must be set appropriately before making this 
 537:./Generated_Source/PSoC5/CyLib.c **** *   change by using CyFlash_SetWaitCycles().
 538:./Generated_Source/PSoC5/CyLib.c **** *
 539:./Generated_Source/PSoC5/CyLib.c **** *
 540:./Generated_Source/PSoC5/CyLib.c **** * Parameters:
 541:./Generated_Source/PSoC5/CyLib.c **** *   source, CY_IMO_SOURCE_DSI to set the DSI as source.
 542:./Generated_Source/PSoC5/CyLib.c **** *           CY_IMO_SOURCE_XTAL to set the MHz as source.
 543:./Generated_Source/PSoC5/CyLib.c **** *           CY_IMO_SOURCE_IMO to set the IMO itself.
 544:./Generated_Source/PSoC5/CyLib.c **** *
 545:./Generated_Source/PSoC5/CyLib.c **** *
 546:./Generated_Source/PSoC5/CyLib.c **** * Return:
 547:./Generated_Source/PSoC5/CyLib.c **** *   void.
 548:./Generated_Source/PSoC5/CyLib.c **** *
 549:./Generated_Source/PSoC5/CyLib.c **** *******************************************************************************/
 550:./Generated_Source/PSoC5/CyLib.c **** void CyIMO_SetSource(uint8 source) 
 551:./Generated_Source/PSoC5/CyLib.c **** {
 971              		.loc 1 551 0
 972              		.cfi_startproc
 973              		@ args = 0, pretend = 0, frame = 8
 974              		@ frame_needed = 1, uses_anonymous_args = 0
 975 0000 80B5     		push	{r7, lr}
 976              	.LCFI22:
 977              		.cfi_def_cfa_offset 8
 978 0002 82B0     		sub	sp, sp, #8
 979              	.LCFI23:
 980              		.cfi_def_cfa_offset 16
 981 0004 00AF     		add	r7, sp, #0
 982              		.cfi_offset 14, -4
 983              		.cfi_offset 7, -8
 984              	.LCFI24:
ARM GAS  C:\Users\CHARLI~1\AppData\Local\Temp\cc78mmP1.s 			page 28


 985              		.cfi_def_cfa_register 7
 986 0006 0346     		mov	r3, r0
 987 0008 FB71     		strb	r3, [r7, #7]
 552:./Generated_Source/PSoC5/CyLib.c ****     /*Set the xclken bit of FASTCLK_IMO_CR regigster*/
 553:./Generated_Source/PSoC5/CyLib.c ****     /*
 554:./Generated_Source/PSoC5/CyLib.c ****         IMO2X_SRC     bit in CLKDIST_CR
 555:./Generated_Source/PSoC5/CyLib.c ****         
 556:./Generated_Source/PSoC5/CyLib.c ****         Bit field encoding: IMO2X_INPUT_SEL_ENUM
 557:./Generated_Source/PSoC5/CyLib.c ****         Value Name Description
 558:./Generated_Source/PSoC5/CyLib.c ****         1'b0  DSI  Digital System Interconnect is used as a source to IMO doubler
 559:./Generated_Source/PSoC5/CyLib.c ****         1'b1  XTAL External clock source is used as a source to IMO doubler
 560:./Generated_Source/PSoC5/CyLib.c ****         
 561:./Generated_Source/PSoC5/CyLib.c ****         xclken         bit in FASTCLK_IMO_CR
 562:./Generated_Source/PSoC5/CyLib.c ****         
 563:./Generated_Source/PSoC5/CyLib.c ****         Value      Name      Description
 564:./Generated_Source/PSoC5/CyLib.c ****         1'b0     XCLKEN_0     IMO doubler runs from the IMOCLK
 565:./Generated_Source/PSoC5/CyLib.c ****         1'b1     XCLKEN_1     IMO doubler runs from the selected 'external' clock. 
 566:./Generated_Source/PSoC5/CyLib.c ****                             This is a signal on a global - source is TBD.
 567:./Generated_Source/PSoC5/CyLib.c ****     */
 568:./Generated_Source/PSoC5/CyLib.c ****     
 569:./Generated_Source/PSoC5/CyLib.c ****     switch(source)
 988              		.loc 1 569 0
 989 000a FB79     		ldrb	r3, [r7, #7]	@ zero_extendqisi2
 990 000c 012B     		cmp	r3, #1
 991 000e 20D0     		beq	.L72
 992 0010 022B     		cmp	r3, #2
 993 0012 02D0     		beq	.L73
 994 0014 002B     		cmp	r3, #0
 995 0016 39D0     		beq	.L71
 996 0018 46E0     		b	.L76
 997              	.L73:
 570:./Generated_Source/PSoC5/CyLib.c ****     {
 571:./Generated_Source/PSoC5/CyLib.c ****         case CY_IMO_SOURCE_DSI:
 572:./Generated_Source/PSoC5/CyLib.c ****             CLKDIST_CR &= ~CLOCK_IMO2X_XTAL;
 998              		.loc 1 572 0
 999 001a 44F20003 		movw	r3, #:lower16:1073758208
 1000 001e C4F20003 		movt	r3, #:upper16:1073758208
 1001 0022 44F20002 		movw	r2, #:lower16:1073758208
 1002 0026 C4F20002 		movt	r2, #:upper16:1073758208
 1003 002a 1278     		ldrb	r2, [r2, #0]
 1004 002c D2B2     		uxtb	r2, r2
 1005 002e 02F0BF02 		and	r2, r2, #191
 1006 0032 1A70     		strb	r2, [r3, #0]
 573:./Generated_Source/PSoC5/CyLib.c ****             FASTCLK_IMO_CR |= CLOCK_IMO_IMO;
 1007              		.loc 1 573 0
 1008 0034 44F20023 		movw	r3, #:lower16:1073758720
 1009 0038 C4F20003 		movt	r3, #:upper16:1073758720
 1010 003c 44F20022 		movw	r2, #:lower16:1073758720
 1011 0040 C4F20002 		movt	r2, #:upper16:1073758720
 1012 0044 1278     		ldrb	r2, [r2, #0]
 1013 0046 D2B2     		uxtb	r2, r2
 1014 0048 42F02002 		orr	r2, r2, #32
 1015 004c D2B2     		uxtb	r2, r2
 1016 004e 1A70     		strb	r2, [r3, #0]
 574:./Generated_Source/PSoC5/CyLib.c ****             break;
 1017              		.loc 1 574 0
 1018 0050 2EE0     		b	.L75
ARM GAS  C:\Users\CHARLI~1\AppData\Local\Temp\cc78mmP1.s 			page 29


 1019              	.L72:
 575:./Generated_Source/PSoC5/CyLib.c ****         
 576:./Generated_Source/PSoC5/CyLib.c ****         case CY_IMO_SOURCE_XTAL:        
 577:./Generated_Source/PSoC5/CyLib.c ****             CLKDIST_CR |= CLOCK_IMO2X_XTAL;
 1020              		.loc 1 577 0
 1021 0052 44F20003 		movw	r3, #:lower16:1073758208
 1022 0056 C4F20003 		movt	r3, #:upper16:1073758208
 1023 005a 44F20002 		movw	r2, #:lower16:1073758208
 1024 005e C4F20002 		movt	r2, #:upper16:1073758208
 1025 0062 1278     		ldrb	r2, [r2, #0]
 1026 0064 D2B2     		uxtb	r2, r2
 1027 0066 42F04002 		orr	r2, r2, #64
 1028 006a D2B2     		uxtb	r2, r2
 1029 006c 1A70     		strb	r2, [r3, #0]
 578:./Generated_Source/PSoC5/CyLib.c ****             FASTCLK_IMO_CR |= CLOCK_IMO_IMO;
 1030              		.loc 1 578 0
 1031 006e 44F20023 		movw	r3, #:lower16:1073758720
 1032 0072 C4F20003 		movt	r3, #:upper16:1073758720
 1033 0076 44F20022 		movw	r2, #:lower16:1073758720
 1034 007a C4F20002 		movt	r2, #:upper16:1073758720
 1035 007e 1278     		ldrb	r2, [r2, #0]
 1036 0080 D2B2     		uxtb	r2, r2
 1037 0082 42F02002 		orr	r2, r2, #32
 1038 0086 D2B2     		uxtb	r2, r2
 1039 0088 1A70     		strb	r2, [r3, #0]
 579:./Generated_Source/PSoC5/CyLib.c ****             break;
 1040              		.loc 1 579 0
 1041 008a 11E0     		b	.L75
 1042              	.L71:
 580:./Generated_Source/PSoC5/CyLib.c ****         
 581:./Generated_Source/PSoC5/CyLib.c ****         case CY_IMO_SOURCE_IMO:
 582:./Generated_Source/PSoC5/CyLib.c ****             FASTCLK_IMO_CR &= ~CLOCK_IMO_IMO;
 1043              		.loc 1 582 0
 1044 008c 44F20023 		movw	r3, #:lower16:1073758720
 1045 0090 C4F20003 		movt	r3, #:upper16:1073758720
 1046 0094 44F20022 		movw	r2, #:lower16:1073758720
 1047 0098 C4F20002 		movt	r2, #:upper16:1073758720
 1048 009c 1278     		ldrb	r2, [r2, #0]
 1049 009e D2B2     		uxtb	r2, r2
 1050 00a0 02F0DF02 		and	r2, r2, #223
 1051 00a4 1A70     		strb	r2, [r3, #0]
 583:./Generated_Source/PSoC5/CyLib.c ****             break;
 1052              		.loc 1 583 0
 1053 00a6 03E0     		b	.L75
 1054              	.L76:
 584:./Generated_Source/PSoC5/CyLib.c ****         
 585:./Generated_Source/PSoC5/CyLib.c ****         default:
 586:./Generated_Source/PSoC5/CyLib.c ****             /*Not a correct source value.*/
 587:./Generated_Source/PSoC5/CyLib.c ****             CYASSERT(0);
 1055              		.loc 1 587 0
 1056 00a8 4FF00000 		mov	r0, #0
 1057 00ac FFF7FEFF 		bl	CyHalt
 1058              	.L75:
 588:./Generated_Source/PSoC5/CyLib.c ****             break;        
 589:./Generated_Source/PSoC5/CyLib.c ****     }
 590:./Generated_Source/PSoC5/CyLib.c **** }
 1059              		.loc 1 590 0
ARM GAS  C:\Users\CHARLI~1\AppData\Local\Temp\cc78mmP1.s 			page 30


 1060 00b0 07F10807 		add	r7, r7, #8
 1061 00b4 BD46     		mov	sp, r7
 1062 00b6 80BD     		pop	{r7, pc}
 1063              		.cfi_endproc
 1064              	.LFE8:
 1065              		.size	CyIMO_SetSource, .-CyIMO_SetSource
 1066              		.section	.text.CyIMO_EnableDoubler,"ax",%progbits
 1067              		.align	2
 1068              		.global	CyIMO_EnableDoubler
 1069              		.thumb
 1070              		.thumb_func
 1071              		.type	CyIMO_EnableDoubler, %function
 1072              	CyIMO_EnableDoubler:
 1073              	.LFB9:
 591:./Generated_Source/PSoC5/CyLib.c **** 
 592:./Generated_Source/PSoC5/CyLib.c **** 
 593:./Generated_Source/PSoC5/CyLib.c **** /*******************************************************************************
 594:./Generated_Source/PSoC5/CyLib.c **** * Function Name: CyIMO_EnableDoubler
 595:./Generated_Source/PSoC5/CyLib.c **** ********************************************************************************
 596:./Generated_Source/PSoC5/CyLib.c **** * Summary:
 597:./Generated_Source/PSoC5/CyLib.c **** *   Enables the IMO doubler.  The 2x frequency clock is used to convert 
 598:./Generated_Source/PSoC5/CyLib.c **** *   a 24MHz input to a 48MHz output for use by the USB block.
 599:./Generated_Source/PSoC5/CyLib.c **** *
 600:./Generated_Source/PSoC5/CyLib.c **** *
 601:./Generated_Source/PSoC5/CyLib.c **** * Parameters:
 602:./Generated_Source/PSoC5/CyLib.c **** *   void.
 603:./Generated_Source/PSoC5/CyLib.c **** *
 604:./Generated_Source/PSoC5/CyLib.c **** *
 605:./Generated_Source/PSoC5/CyLib.c **** * Return:
 606:./Generated_Source/PSoC5/CyLib.c **** *   void.
 607:./Generated_Source/PSoC5/CyLib.c **** *
 608:./Generated_Source/PSoC5/CyLib.c **** *******************************************************************************/
 609:./Generated_Source/PSoC5/CyLib.c **** void CyIMO_EnableDoubler(void) 
 610:./Generated_Source/PSoC5/CyLib.c **** {
 1074              		.loc 1 610 0
 1075              		.cfi_startproc
 1076              		@ args = 0, pretend = 0, frame = 0
 1077              		@ frame_needed = 1, uses_anonymous_args = 0
 1078              		@ link register save eliminated.
 1079 0000 80B4     		push	{r7}
 1080              	.LCFI25:
 1081              		.cfi_def_cfa_offset 4
 1082 0002 00AF     		add	r7, sp, #0
 1083              		.cfi_offset 7, -4
 1084              	.LCFI26:
 1085              		.cfi_def_cfa_register 7
 611:./Generated_Source/PSoC5/CyLib.c ****     /*Set the FASTCLK_IMO_CR_PTR regigster's 4th bit*/
 612:./Generated_Source/PSoC5/CyLib.c ****     FASTCLK_IMO_CR |= IMO_DOUBLER_ENABLE;
 1086              		.loc 1 612 0
 1087 0004 44F20023 		movw	r3, #:lower16:1073758720
 1088 0008 C4F20003 		movt	r3, #:upper16:1073758720
 1089 000c 44F20022 		movw	r2, #:lower16:1073758720
 1090 0010 C4F20002 		movt	r2, #:upper16:1073758720
 1091 0014 1278     		ldrb	r2, [r2, #0]
 1092 0016 D2B2     		uxtb	r2, r2
 1093 0018 42F01002 		orr	r2, r2, #16
 1094 001c D2B2     		uxtb	r2, r2
ARM GAS  C:\Users\CHARLI~1\AppData\Local\Temp\cc78mmP1.s 			page 31


 1095 001e 1A70     		strb	r2, [r3, #0]
 613:./Generated_Source/PSoC5/CyLib.c **** }
 1096              		.loc 1 613 0
 1097 0020 BD46     		mov	sp, r7
 1098 0022 80BC     		pop	{r7}
 1099 0024 7047     		bx	lr
 1100              		.cfi_endproc
 1101              	.LFE9:
 1102              		.size	CyIMO_EnableDoubler, .-CyIMO_EnableDoubler
 1103 0026 00BF     		.section	.text.CyIMO_DisableDoubler,"ax",%progbits
 1104              		.align	2
 1105              		.global	CyIMO_DisableDoubler
 1106              		.thumb
 1107              		.thumb_func
 1108              		.type	CyIMO_DisableDoubler, %function
 1109              	CyIMO_DisableDoubler:
 1110              	.LFB10:
 614:./Generated_Source/PSoC5/CyLib.c **** 
 615:./Generated_Source/PSoC5/CyLib.c **** 
 616:./Generated_Source/PSoC5/CyLib.c **** /*******************************************************************************
 617:./Generated_Source/PSoC5/CyLib.c **** * Function Name: CyIMO_DisableDoubler
 618:./Generated_Source/PSoC5/CyLib.c **** ********************************************************************************
 619:./Generated_Source/PSoC5/CyLib.c **** * Summary:
 620:./Generated_Source/PSoC5/CyLib.c **** *   Disables the IMO doubler.
 621:./Generated_Source/PSoC5/CyLib.c **** *
 622:./Generated_Source/PSoC5/CyLib.c **** *
 623:./Generated_Source/PSoC5/CyLib.c **** * Parameters:
 624:./Generated_Source/PSoC5/CyLib.c **** *   void.
 625:./Generated_Source/PSoC5/CyLib.c **** *
 626:./Generated_Source/PSoC5/CyLib.c **** *
 627:./Generated_Source/PSoC5/CyLib.c **** * Return:
 628:./Generated_Source/PSoC5/CyLib.c **** *   void.
 629:./Generated_Source/PSoC5/CyLib.c **** *
 630:./Generated_Source/PSoC5/CyLib.c **** *******************************************************************************/
 631:./Generated_Source/PSoC5/CyLib.c **** void CyIMO_DisableDoubler(void) 
 632:./Generated_Source/PSoC5/CyLib.c **** {
 1111              		.loc 1 632 0
 1112              		.cfi_startproc
 1113              		@ args = 0, pretend = 0, frame = 0
 1114              		@ frame_needed = 1, uses_anonymous_args = 0
 1115              		@ link register save eliminated.
 1116 0000 80B4     		push	{r7}
 1117              	.LCFI27:
 1118              		.cfi_def_cfa_offset 4
 1119 0002 00AF     		add	r7, sp, #0
 1120              		.cfi_offset 7, -4
 1121              	.LCFI28:
 1122              		.cfi_def_cfa_register 7
 633:./Generated_Source/PSoC5/CyLib.c ****     /*Set the FASTCLK_IMO_CR_PTR regigster's 4th bit*/
 634:./Generated_Source/PSoC5/CyLib.c ****     FASTCLK_IMO_CR &= ~IMO_DOUBLER_ENABLE;
 1123              		.loc 1 634 0
 1124 0004 44F20023 		movw	r3, #:lower16:1073758720
 1125 0008 C4F20003 		movt	r3, #:upper16:1073758720
 1126 000c 44F20022 		movw	r2, #:lower16:1073758720
 1127 0010 C4F20002 		movt	r2, #:upper16:1073758720
 1128 0014 1278     		ldrb	r2, [r2, #0]
 1129 0016 D2B2     		uxtb	r2, r2
ARM GAS  C:\Users\CHARLI~1\AppData\Local\Temp\cc78mmP1.s 			page 32


 1130 0018 02F0EF02 		and	r2, r2, #239
 1131 001c 1A70     		strb	r2, [r3, #0]
 635:./Generated_Source/PSoC5/CyLib.c **** }
 1132              		.loc 1 635 0
 1133 001e BD46     		mov	sp, r7
 1134 0020 80BC     		pop	{r7}
 1135 0022 7047     		bx	lr
 1136              		.cfi_endproc
 1137              	.LFE10:
 1138              		.size	CyIMO_DisableDoubler, .-CyIMO_DisableDoubler
 1139              		.section	.text.CyMasterClk_SetSource,"ax",%progbits
 1140              		.align	2
 1141              		.global	CyMasterClk_SetSource
 1142              		.thumb
 1143              		.thumb_func
 1144              		.type	CyMasterClk_SetSource, %function
 1145              	CyMasterClk_SetSource:
 1146              	.LFB11:
 636:./Generated_Source/PSoC5/CyLib.c **** 
 637:./Generated_Source/PSoC5/CyLib.c **** 
 638:./Generated_Source/PSoC5/CyLib.c **** /*******************************************************************************
 639:./Generated_Source/PSoC5/CyLib.c **** * Function Name: CyMasterClk_SetSource
 640:./Generated_Source/PSoC5/CyLib.c **** ********************************************************************************
 641:./Generated_Source/PSoC5/CyLib.c **** * Summary:
 642:./Generated_Source/PSoC5/CyLib.c **** *   Sets the source of the master clock.  
 643:./Generated_Source/PSoC5/CyLib.c **** *   The current source and the new source must both be running and stable 
 644:./Generated_Source/PSoC5/CyLib.c **** *   before calling this function.  
 645:./Generated_Source/PSoC5/CyLib.c **** *   The Flash wait states must be set appropriately before making this change 
 646:./Generated_Source/PSoC5/CyLib.c **** *   by using CyFlash_SetWaitCycles().
 647:./Generated_Source/PSoC5/CyLib.c **** *
 648:./Generated_Source/PSoC5/CyLib.c **** *
 649:./Generated_Source/PSoC5/CyLib.c **** * Parameters:
 650:./Generated_Source/PSoC5/CyLib.c **** *   source: One of the four available Master clock sources.
 651:./Generated_Source/PSoC5/CyLib.c **** *     CY_MASTER_SOURCE_IMO
 652:./Generated_Source/PSoC5/CyLib.c **** *     CY_MASTER_SOURCE_PLL
 653:./Generated_Source/PSoC5/CyLib.c **** *     CY_MASTER_SOURCE_XTAL
 654:./Generated_Source/PSoC5/CyLib.c **** *     CY_MASTER_SOURCE_DSI
 655:./Generated_Source/PSoC5/CyLib.c **** *
 656:./Generated_Source/PSoC5/CyLib.c **** *
 657:./Generated_Source/PSoC5/CyLib.c **** * Return:
 658:./Generated_Source/PSoC5/CyLib.c **** *   void.
 659:./Generated_Source/PSoC5/CyLib.c **** *
 660:./Generated_Source/PSoC5/CyLib.c **** *******************************************************************************/
 661:./Generated_Source/PSoC5/CyLib.c **** void CyMasterClk_SetSource(uint8 source) 
 662:./Generated_Source/PSoC5/CyLib.c **** {
 1147              		.loc 1 662 0
 1148              		.cfi_startproc
 1149              		@ args = 0, pretend = 0, frame = 16
 1150              		@ frame_needed = 1, uses_anonymous_args = 0
 1151              		@ link register save eliminated.
 1152 0000 80B4     		push	{r7}
 1153              	.LCFI29:
 1154              		.cfi_def_cfa_offset 4
 1155 0002 85B0     		sub	sp, sp, #20
 1156              	.LCFI30:
 1157              		.cfi_def_cfa_offset 24
 1158 0004 00AF     		add	r7, sp, #0
ARM GAS  C:\Users\CHARLI~1\AppData\Local\Temp\cc78mmP1.s 			page 33


 1159              		.cfi_offset 7, -4
 1160              	.LCFI31:
 1161              		.cfi_def_cfa_register 7
 1162 0006 0346     		mov	r3, r0
 1163 0008 FB71     		strb	r3, [r7, #7]
 663:./Generated_Source/PSoC5/CyLib.c ****     /*
 664:./Generated_Source/PSoC5/CyLib.c ****     Silicon before ES3 where a glitch could be created when switching the 
 665:./Generated_Source/PSoC5/CyLib.c ****     master clock source.  
 666:./Generated_Source/PSoC5/CyLib.c ****     Here is what should be implemented:
 667:./Generated_Source/PSoC5/CyLib.c ****     if (master_clk divider == 0)
 668:./Generated_Source/PSoC5/CyLib.c ****         set master_clk divider = 3
 669:./Generated_Source/PSoC5/CyLib.c ****         change master_clk source
 670:./Generated_Source/PSoC5/CyLib.c ****         set master_clk divider back to 0
 671:./Generated_Source/PSoC5/CyLib.c ****     else
 672:./Generated_Source/PSoC5/CyLib.c ****         change master_clk source
 673:./Generated_Source/PSoC5/CyLib.c **** 
 674:./Generated_Source/PSoC5/CyLib.c ****     1) Write a non-zero period to the master mux clock divider (MSTR0). 
 675:./Generated_Source/PSoC5/CyLib.c ****     Recommended value is 3. This results in    a divide of the master clock by 4.
 676:./Generated_Source/PSoC5/CyLib.c ****     2) Write the new select to the mux select register (MSTR1).
 677:./Generated_Source/PSoC5/CyLib.c ****     3) Restore the zero period (if desired) to the master mux clock divider (MSTR0).        
 678:./Generated_Source/PSoC5/CyLib.c ****     */
 679:./Generated_Source/PSoC5/CyLib.c ****     uint8 master_reg_1;
 680:./Generated_Source/PSoC5/CyLib.c **** 
 681:./Generated_Source/PSoC5/CyLib.c **** #if CYLIB_PSOC3_ES2
 682:./Generated_Source/PSoC5/CyLib.c ****     uint8 master_reg_0;
 683:./Generated_Source/PSoC5/CyLib.c **** 
 684:./Generated_Source/PSoC5/CyLib.c ****     /* Read the current setting */
 685:./Generated_Source/PSoC5/CyLib.c ****     master_reg_0 = CLKDIST_MSTR0;
 686:./Generated_Source/PSoC5/CyLib.c ****     if (master_reg_0 == 0x00u)
 687:./Generated_Source/PSoC5/CyLib.c ****     {
 688:./Generated_Source/PSoC5/CyLib.c ****         CLKDIST_MSTR0 = 3;
 689:./Generated_Source/PSoC5/CyLib.c ****     }
 690:./Generated_Source/PSoC5/CyLib.c **** #endif
 691:./Generated_Source/PSoC5/CyLib.c **** 
 692:./Generated_Source/PSoC5/CyLib.c ****     /* Read the current setting */
 693:./Generated_Source/PSoC5/CyLib.c ****     master_reg_1 = CLKDIST_MSTR1;
 1164              		.loc 1 693 0
 1165 000a 44F20503 		movw	r3, #:lower16:1073758213
 1166 000e C4F20003 		movt	r3, #:upper16:1073758213
 1167 0012 1B78     		ldrb	r3, [r3, #0]
 1168 0014 FB73     		strb	r3, [r7, #15]
 694:./Generated_Source/PSoC5/CyLib.c **** 
 695:./Generated_Source/PSoC5/CyLib.c ****     CLKDIST_MSTR1 = (master_reg_1 & MASTER_CLK_SRC_CLEAR) | (source & ~MASTER_CLK_SRC_CLEAR);
 1169              		.loc 1 695 0
 1170 0016 44F20503 		movw	r3, #:lower16:1073758213
 1171 001a C4F20003 		movt	r3, #:upper16:1073758213
 1172 001e FA7B     		ldrb	r2, [r7, #15]	@ zero_extendqisi2
 1173 0020 D1B2     		uxtb	r1, r2
 1174 0022 01F0FC01 		and	r1, r1, #252
 1175 0026 FA79     		ldrb	r2, [r7, #7]	@ zero_extendqisi2
 1176 0028 D2B2     		uxtb	r2, r2
 1177 002a 02F00302 		and	r2, r2, #3
 1178 002e 41EA0202 		orr	r2, r1, r2
 1179 0032 D2B2     		uxtb	r2, r2
 1180 0034 D2B2     		uxtb	r2, r2
 1181 0036 1A70     		strb	r2, [r3, #0]
 696:./Generated_Source/PSoC5/CyLib.c ****     
ARM GAS  C:\Users\CHARLI~1\AppData\Local\Temp\cc78mmP1.s 			page 34


 697:./Generated_Source/PSoC5/CyLib.c **** #if CYLIB_PSOC3_ES2
 698:./Generated_Source/PSoC5/CyLib.c ****     /*Restore the registry value.*/
 699:./Generated_Source/PSoC5/CyLib.c ****     if (master_reg_0 == 0x00u)
 700:./Generated_Source/PSoC5/CyLib.c ****     {
 701:./Generated_Source/PSoC5/CyLib.c ****         CLKDIST_MSTR0 = 0;
 702:./Generated_Source/PSoC5/CyLib.c ****     }
 703:./Generated_Source/PSoC5/CyLib.c **** #endif
 704:./Generated_Source/PSoC5/CyLib.c **** }
 1182              		.loc 1 704 0
 1183 0038 07F11407 		add	r7, r7, #20
 1184 003c BD46     		mov	sp, r7
 1185 003e 80BC     		pop	{r7}
 1186 0040 7047     		bx	lr
 1187              		.cfi_endproc
 1188              	.LFE11:
 1189              		.size	CyMasterClk_SetSource, .-CyMasterClk_SetSource
 1190 0042 00BF     		.section	.text.CyMasterClk_SetDivider,"ax",%progbits
 1191              		.align	2
 1192              		.global	CyMasterClk_SetDivider
 1193              		.thumb
 1194              		.thumb_func
 1195              		.type	CyMasterClk_SetDivider, %function
 1196              	CyMasterClk_SetDivider:
 1197              	.LFB12:
 705:./Generated_Source/PSoC5/CyLib.c **** 
 706:./Generated_Source/PSoC5/CyLib.c **** 
 707:./Generated_Source/PSoC5/CyLib.c **** /*******************************************************************************
 708:./Generated_Source/PSoC5/CyLib.c **** * Function Name: CyMasterClk_SetDivider
 709:./Generated_Source/PSoC5/CyLib.c **** ********************************************************************************
 710:./Generated_Source/PSoC5/CyLib.c **** * Summary:
 711:./Generated_Source/PSoC5/CyLib.c **** *   Sets the divider value used to generate Master Clock.  
 712:./Generated_Source/PSoC5/CyLib.c **** *   The Flash wait states must be set appropriately before making this change 
 713:./Generated_Source/PSoC5/CyLib.c **** *   by using CyFlash_SetWaitCycles().
 714:./Generated_Source/PSoC5/CyLib.c **** *
 715:./Generated_Source/PSoC5/CyLib.c **** *
 716:./Generated_Source/PSoC5/CyLib.c **** * Parameters:
 717:./Generated_Source/PSoC5/CyLib.c **** *   divider: Valid range [0-255].  
 718:./Generated_Source/PSoC5/CyLib.c **** *   The clock will be divided by this value + 1.  
 719:./Generated_Source/PSoC5/CyLib.c **** *   For example to divide by 2 this parameter should be set to 1.
 720:./Generated_Source/PSoC5/CyLib.c **** *
 721:./Generated_Source/PSoC5/CyLib.c **** *
 722:./Generated_Source/PSoC5/CyLib.c **** * Return:
 723:./Generated_Source/PSoC5/CyLib.c **** *   void.
 724:./Generated_Source/PSoC5/CyLib.c **** *
 725:./Generated_Source/PSoC5/CyLib.c **** *******************************************************************************/
 726:./Generated_Source/PSoC5/CyLib.c **** void CyMasterClk_SetDivider(uint8 divider) 
 727:./Generated_Source/PSoC5/CyLib.c **** {
 1198              		.loc 1 727 0
 1199              		.cfi_startproc
 1200              		@ args = 0, pretend = 0, frame = 8
 1201              		@ frame_needed = 1, uses_anonymous_args = 0
 1202              		@ link register save eliminated.
 1203 0000 80B4     		push	{r7}
 1204              	.LCFI32:
 1205              		.cfi_def_cfa_offset 4
 1206 0002 83B0     		sub	sp, sp, #12
 1207              	.LCFI33:
ARM GAS  C:\Users\CHARLI~1\AppData\Local\Temp\cc78mmP1.s 			page 35


 1208              		.cfi_def_cfa_offset 16
 1209 0004 00AF     		add	r7, sp, #0
 1210              		.cfi_offset 7, -4
 1211              	.LCFI34:
 1212              		.cfi_def_cfa_register 7
 1213 0006 0346     		mov	r3, r0
 1214 0008 FB71     		strb	r3, [r7, #7]
 728:./Generated_Source/PSoC5/CyLib.c ****     CLKDIST_MSTR0 = divider;
 1215              		.loc 1 728 0
 1216 000a 44F20403 		movw	r3, #:lower16:1073758212
 1217 000e C4F20003 		movt	r3, #:upper16:1073758212
 1218 0012 FA79     		ldrb	r2, [r7, #7]
 1219 0014 1A70     		strb	r2, [r3, #0]
 729:./Generated_Source/PSoC5/CyLib.c **** }
 1220              		.loc 1 729 0
 1221 0016 07F10C07 		add	r7, r7, #12
 1222 001a BD46     		mov	sp, r7
 1223 001c 80BC     		pop	{r7}
 1224 001e 7047     		bx	lr
 1225              		.cfi_endproc
 1226              	.LFE12:
 1227              		.size	CyMasterClk_SetDivider, .-CyMasterClk_SetDivider
 1228              		.section	.text.CyBusClk_Internal_SetDivider,"ax",%progbits
 1229              		.align	2
 1230              		.global	CyBusClk_Internal_SetDivider
 1231              		.thumb
 1232              		.thumb_func
 1233              		.type	CyBusClk_Internal_SetDivider, %function
 1234              	CyBusClk_Internal_SetDivider:
 1235              	.LFB13:
 730:./Generated_Source/PSoC5/CyLib.c **** 
 731:./Generated_Source/PSoC5/CyLib.c **** 
 732:./Generated_Source/PSoC5/CyLib.c **** /*******************************************************************************
 733:./Generated_Source/PSoC5/CyLib.c **** * Function Name: CyBusClk_Internal_SetDivider
 734:./Generated_Source/PSoC5/CyLib.c **** ********************************************************************************
 735:./Generated_Source/PSoC5/CyLib.c **** * Summary:
 736:./Generated_Source/PSoC5/CyLib.c **** *   Sets the divider value used to generate Bus Clock.  
 737:./Generated_Source/PSoC5/CyLib.c **** *   The Flash wait states must be set appropriately before making this change 
 738:./Generated_Source/PSoC5/CyLib.c **** *   by using CyFlash_SetWaitCycles().
 739:./Generated_Source/PSoC5/CyLib.c **** *
 740:./Generated_Source/PSoC5/CyLib.c **** *
 741:./Generated_Source/PSoC5/CyLib.c **** * Parameters:
 742:./Generated_Source/PSoC5/CyLib.c **** *   divider: Valid range [0-65535].
 743:./Generated_Source/PSoC5/CyLib.c **** *   The clock will be divided by this value + 1.
 744:./Generated_Source/PSoC5/CyLib.c **** *   For example to divide by 2 this parameter should be set to 1.
 745:./Generated_Source/PSoC5/CyLib.c **** *
 746:./Generated_Source/PSoC5/CyLib.c **** *
 747:./Generated_Source/PSoC5/CyLib.c **** * Return:
 748:./Generated_Source/PSoC5/CyLib.c **** *   void.
 749:./Generated_Source/PSoC5/CyLib.c **** *
 750:./Generated_Source/PSoC5/CyLib.c **** *******************************************************************************/
 751:./Generated_Source/PSoC5/CyLib.c **** void CyBusClk_Internal_SetDivider(uint16 divider)
 752:./Generated_Source/PSoC5/CyLib.c **** {
 1236              		.loc 1 752 0
 1237              		.cfi_startproc
 1238              		@ args = 0, pretend = 0, frame = 8
 1239              		@ frame_needed = 1, uses_anonymous_args = 0
ARM GAS  C:\Users\CHARLI~1\AppData\Local\Temp\cc78mmP1.s 			page 36


 1240              		@ link register save eliminated.
 1241 0000 80B4     		push	{r7}
 1242              	.LCFI35:
 1243              		.cfi_def_cfa_offset 4
 1244 0002 83B0     		sub	sp, sp, #12
 1245              	.LCFI36:
 1246              		.cfi_def_cfa_offset 16
 1247 0004 00AF     		add	r7, sp, #0
 1248              		.cfi_offset 7, -4
 1249              	.LCFI37:
 1250              		.cfi_def_cfa_register 7
 1251 0006 0346     		mov	r3, r0
 1252 0008 FB80     		strh	r3, [r7, #6]	@ movhi
 753:./Generated_Source/PSoC5/CyLib.c ****     /*Clear all the masks (CLKDIST_AMASK, CLKDIST_DMASK)*/
 754:./Generated_Source/PSoC5/CyLib.c ****     CLKDIST_AMASK &= BUS_AMASK_CLEAR;
 1253              		.loc 1 754 0
 1254 000a 44F21403 		movw	r3, #:lower16:1073758228
 1255 000e C4F20003 		movt	r3, #:upper16:1073758228
 1256 0012 44F21402 		movw	r2, #:lower16:1073758228
 1257 0016 C4F20002 		movt	r2, #:upper16:1073758228
 1258 001a 1278     		ldrb	r2, [r2, #0]
 1259 001c D2B2     		uxtb	r2, r2
 1260 001e 02F0F002 		and	r2, r2, #240
 1261 0022 1A70     		strb	r2, [r3, #0]
 755:./Generated_Source/PSoC5/CyLib.c ****     CLKDIST_DMASK = BUS_DMASK_CLEAR;
 1262              		.loc 1 755 0
 1263 0024 44F21003 		movw	r3, #:lower16:1073758224
 1264 0028 C4F20003 		movt	r3, #:upper16:1073758224
 1265 002c 4FF00002 		mov	r2, #0
 1266 0030 1A70     		strb	r2, [r3, #0]
 756:./Generated_Source/PSoC5/CyLib.c ****     
 757:./Generated_Source/PSoC5/CyLib.c ****     /*set the MASK for bus clock, CLKDIST_BCFG2
 758:./Generated_Source/PSoC5/CyLib.c ****     Bits      Name      Description
 759:./Generated_Source/PSoC5/CyLib.c ****     7         MASK     Mask bit to enable shadow loads
 760:./Generated_Source/PSoC5/CyLib.c ****     1'b1      ENABLE      Enable shadow loads*/
 761:./Generated_Source/PSoC5/CyLib.c ****     CLKDIST_BCFG2 |= CLKDIST_WRK0_MASK_SET;
 1267              		.loc 1 761 0
 1268 0032 44F20803 		movw	r3, #:lower16:1073758216
 1269 0036 C4F20003 		movt	r3, #:upper16:1073758216
 1270 003a 44F20802 		movw	r2, #:lower16:1073758216
 1271 003e C4F20002 		movt	r2, #:upper16:1073758216
 1272 0042 1278     		ldrb	r2, [r2, #0]
 1273 0044 D2B2     		uxtb	r2, r2
 1274 0046 6FEA4262 		mvn	r2, r2, lsl #25
 1275 004a 6FEA5262 		mvn	r2, r2, lsr #25
 1276 004e D2B2     		uxtb	r2, r2
 1277 0050 1A70     		strb	r2, [r3, #0]
 762:./Generated_Source/PSoC5/CyLib.c ****     
 763:./Generated_Source/PSoC5/CyLib.c ****     /*We change both bytes before we enable/start the clock.*/
 764:./Generated_Source/PSoC5/CyLib.c ****     CY_SET_REG16(CLKDIST_WRK0_PTR, divider);
 1278              		.loc 1 764 0
 1279 0052 44F20203 		movw	r3, #:lower16:1073758210
 1280 0056 C4F20003 		movt	r3, #:upper16:1073758210
 1281 005a FA88     		ldrh	r2, [r7, #6]	@ movhi
 1282 005c 1A80     		strh	r2, [r3, #0]	@ movhi
 765:./Generated_Source/PSoC5/CyLib.c ****     
 766:./Generated_Source/PSoC5/CyLib.c ****     /*load the value , set the CLKDIST_LD LOAD bit*/
ARM GAS  C:\Users\CHARLI~1\AppData\Local\Temp\cc78mmP1.s 			page 37


 767:./Generated_Source/PSoC5/CyLib.c ****     CLKDIST_LD |= CLKDIST_LD_LOAD_SET;    
 1283              		.loc 1 767 0
 1284 005e 44F20103 		movw	r3, #:lower16:1073758209
 1285 0062 C4F20003 		movt	r3, #:upper16:1073758209
 1286 0066 44F20102 		movw	r2, #:lower16:1073758209
 1287 006a C4F20002 		movt	r2, #:upper16:1073758209
 1288 006e 1278     		ldrb	r2, [r2, #0]
 1289 0070 D2B2     		uxtb	r2, r2
 1290 0072 42F00102 		orr	r2, r2, #1
 1291 0076 D2B2     		uxtb	r2, r2
 1292 0078 1A70     		strb	r2, [r3, #0]
 768:./Generated_Source/PSoC5/CyLib.c **** }
 1293              		.loc 1 768 0
 1294 007a 07F10C07 		add	r7, r7, #12
 1295 007e BD46     		mov	sp, r7
 1296 0080 80BC     		pop	{r7}
 1297 0082 7047     		bx	lr
 1298              		.cfi_endproc
 1299              	.LFE13:
 1300              		.size	CyBusClk_Internal_SetDivider, .-CyBusClk_Internal_SetDivider
 1301              		.section	.text.CyBusClk_SetDivider,"ax",%progbits
 1302              		.align	2
 1303              		.global	CyBusClk_SetDivider
 1304              		.thumb
 1305              		.thumb_func
 1306              		.type	CyBusClk_SetDivider, %function
 1307              	CyBusClk_SetDivider:
 1308              	.LFB14:
 769:./Generated_Source/PSoC5/CyLib.c **** 
 770:./Generated_Source/PSoC5/CyLib.c **** 
 771:./Generated_Source/PSoC5/CyLib.c **** /*******************************************************************************
 772:./Generated_Source/PSoC5/CyLib.c **** * Function Name: CyBusClk_SetDivider
 773:./Generated_Source/PSoC5/CyLib.c **** ********************************************************************************
 774:./Generated_Source/PSoC5/CyLib.c **** * Summary:
 775:./Generated_Source/PSoC5/CyLib.c **** *   Sets the divider value used to generate Bus Clock.  
 776:./Generated_Source/PSoC5/CyLib.c **** *   The Flash wait states must be set appropriately before making this change 
 777:./Generated_Source/PSoC5/CyLib.c **** *   by using CyFlash_SetWaitCycles().
 778:./Generated_Source/PSoC5/CyLib.c **** *
 779:./Generated_Source/PSoC5/CyLib.c **** *
 780:./Generated_Source/PSoC5/CyLib.c **** * Parameters:
 781:./Generated_Source/PSoC5/CyLib.c **** *   divider: Valid range [0-65535].  
 782:./Generated_Source/PSoC5/CyLib.c **** *   The clock will be divided by this value + 1.  
 783:./Generated_Source/PSoC5/CyLib.c **** *   For example to divide by 2 this parameter should be set to 1..
 784:./Generated_Source/PSoC5/CyLib.c **** *
 785:./Generated_Source/PSoC5/CyLib.c **** *
 786:./Generated_Source/PSoC5/CyLib.c **** * Return:
 787:./Generated_Source/PSoC5/CyLib.c **** *   void.
 788:./Generated_Source/PSoC5/CyLib.c **** *
 789:./Generated_Source/PSoC5/CyLib.c **** *******************************************************************************/
 790:./Generated_Source/PSoC5/CyLib.c **** void CyBusClk_SetDivider(uint16 divider) 
 791:./Generated_Source/PSoC5/CyLib.c **** {
 1309              		.loc 1 791 0
 1310              		.cfi_startproc
 1311              		@ args = 0, pretend = 0, frame = 16
 1312              		@ frame_needed = 1, uses_anonymous_args = 0
 1313 0000 80B5     		push	{r7, lr}
 1314              	.LCFI38:
ARM GAS  C:\Users\CHARLI~1\AppData\Local\Temp\cc78mmP1.s 			page 38


 1315              		.cfi_def_cfa_offset 8
 1316 0002 84B0     		sub	sp, sp, #16
 1317              	.LCFI39:
 1318              		.cfi_def_cfa_offset 24
 1319 0004 00AF     		add	r7, sp, #0
 1320              		.cfi_offset 14, -4
 1321              		.cfi_offset 7, -8
 1322              	.LCFI40:
 1323              		.cfi_def_cfa_register 7
 1324 0006 0346     		mov	r3, r0
 1325 0008 FB80     		strh	r3, [r7, #6]	@ movhi
 792:./Generated_Source/PSoC5/CyLib.c ****     uint16 current_busclk_divider;
 793:./Generated_Source/PSoC5/CyLib.c ****     uint8 current_masterclk_divider;
 794:./Generated_Source/PSoC5/CyLib.c **** 
 795:./Generated_Source/PSoC5/CyLib.c ****     /*Bus clock divider value.*/
 796:./Generated_Source/PSoC5/CyLib.c ****     current_busclk_divider = CY_GET_REG16(CLKDIST_BCFG0_PTR);
 1326              		.loc 1 796 0
 1327 000a 44F20603 		movw	r3, #:lower16:1073758214
 1328 000e C4F20003 		movt	r3, #:upper16:1073758214
 1329 0012 1B88     		ldrh	r3, [r3, #0]	@ movhi
 1330 0014 BB81     		strh	r3, [r7, #12]	@ movhi
 797:./Generated_Source/PSoC5/CyLib.c ****     
 798:./Generated_Source/PSoC5/CyLib.c ****     /*Work around to set the bus clock divider value.*/
 799:./Generated_Source/PSoC5/CyLib.c ****     if (divider == 0 || current_busclk_divider == 0)
 1331              		.loc 1 799 0
 1332 0016 FB88     		ldrh	r3, [r7, #6]
 1333 0018 002B     		cmp	r3, #0
 1334 001a 02D0     		beq	.L88
 1335 001c BB89     		ldrh	r3, [r7, #12]
 1336 001e 002B     		cmp	r3, #0
 1337 0020 38D1     		bne	.L89
 1338              	.L88:
 800:./Generated_Source/PSoC5/CyLib.c ****     {
 801:./Generated_Source/PSoC5/CyLib.c ****         /*save away the master clock divider value*/
 802:./Generated_Source/PSoC5/CyLib.c ****         current_masterclk_divider = CY_GET_REG8(CLKDIST_MSTR0_PTR);
 1339              		.loc 1 802 0
 1340 0022 44F20403 		movw	r3, #:lower16:1073758212
 1341 0026 C4F20003 		movt	r3, #:upper16:1073758212
 1342 002a 1B78     		ldrb	r3, [r3, #0]
 1343 002c FB73     		strb	r3, [r7, #15]
 803:./Generated_Source/PSoC5/CyLib.c ****         if (current_masterclk_divider < MASTERCLK_DIVIDER_VALUE)
 1344              		.loc 1 803 0
 1345 002e FB7B     		ldrb	r3, [r7, #15]	@ zero_extendqisi2
 1346 0030 062B     		cmp	r3, #6
 1347 0032 03D8     		bhi	.L90
 804:./Generated_Source/PSoC5/CyLib.c ****         {    
 805:./Generated_Source/PSoC5/CyLib.c ****             /*set master clock divider to 7 */
 806:./Generated_Source/PSoC5/CyLib.c ****             CyMasterClk_SetDivider(MASTERCLK_DIVIDER_VALUE);
 1348              		.loc 1 806 0
 1349 0034 4FF00700 		mov	r0, #7
 1350 0038 FFF7FEFF 		bl	CyMasterClk_SetDivider
 1351              	.L90:
 807:./Generated_Source/PSoC5/CyLib.c ****         }
 808:./Generated_Source/PSoC5/CyLib.c ****         if (divider == 0)
 1352              		.loc 1 808 0
 1353 003c FB88     		ldrh	r3, [r7, #6]
 1354 003e 002B     		cmp	r3, #0
ARM GAS  C:\Users\CHARLI~1\AppData\Local\Temp\cc78mmP1.s 			page 39


 1355 0040 12D1     		bne	.L91
 809:./Generated_Source/PSoC5/CyLib.c ****         {
 810:./Generated_Source/PSoC5/CyLib.c ****             /*
 811:./Generated_Source/PSoC5/CyLib.c ****             set the SSS bit 
 812:./Generated_Source/PSoC5/CyLib.c ****             set the divider register desired value*/
 813:./Generated_Source/PSoC5/CyLib.c ****             CLKDIST_BCFG2 |= CLKDIST_BCFG2_SSS_SET;
 1356              		.loc 1 813 0
 1357 0042 44F20803 		movw	r3, #:lower16:1073758216
 1358 0046 C4F20003 		movt	r3, #:upper16:1073758216
 1359 004a 44F20802 		movw	r2, #:lower16:1073758216
 1360 004e C4F20002 		movt	r2, #:upper16:1073758216
 1361 0052 1278     		ldrb	r2, [r2, #0]
 1362 0054 D2B2     		uxtb	r2, r2
 1363 0056 42F04002 		orr	r2, r2, #64
 1364 005a D2B2     		uxtb	r2, r2
 1365 005c 1A70     		strb	r2, [r3, #0]
 814:./Generated_Source/PSoC5/CyLib.c ****             CyBusClk_Internal_SetDivider(divider);
 1366              		.loc 1 814 0
 1367 005e FB88     		ldrh	r3, [r7, #6]
 1368 0060 1846     		mov	r0, r3
 1369 0062 FFF7FEFF 		bl	CyBusClk_Internal_SetDivider
 1370 0066 10E0     		b	.L92
 1371              	.L91:
 815:./Generated_Source/PSoC5/CyLib.c ****         }
 816:./Generated_Source/PSoC5/CyLib.c ****         else 
 817:./Generated_Source/PSoC5/CyLib.c ****         {
 818:./Generated_Source/PSoC5/CyLib.c ****             /*
 819:./Generated_Source/PSoC5/CyLib.c ****             set the divider register to divider argument value
 820:./Generated_Source/PSoC5/CyLib.c ****             clear the SSS bit            */
 821:./Generated_Source/PSoC5/CyLib.c ****             CyBusClk_Internal_SetDivider(divider);
 1372              		.loc 1 821 0
 1373 0068 FB88     		ldrh	r3, [r7, #6]
 1374 006a 1846     		mov	r0, r3
 1375 006c FFF7FEFF 		bl	CyBusClk_Internal_SetDivider
 822:./Generated_Source/PSoC5/CyLib.c ****             CLKDIST_BCFG2 &= ~CLKDIST_BCFG2_SSS_SET;
 1376              		.loc 1 822 0
 1377 0070 44F20803 		movw	r3, #:lower16:1073758216
 1378 0074 C4F20003 		movt	r3, #:upper16:1073758216
 1379 0078 44F20802 		movw	r2, #:lower16:1073758216
 1380 007c C4F20002 		movt	r2, #:upper16:1073758216
 1381 0080 1278     		ldrb	r2, [r2, #0]
 1382 0082 D2B2     		uxtb	r2, r2
 1383 0084 02F0BF02 		and	r2, r2, #191
 1384 0088 1A70     		strb	r2, [r3, #0]
 1385              	.L92:
 823:./Generated_Source/PSoC5/CyLib.c ****         }
 824:./Generated_Source/PSoC5/CyLib.c ****         /*Restore the master clock */
 825:./Generated_Source/PSoC5/CyLib.c ****         CyMasterClk_SetDivider(current_masterclk_divider);
 1386              		.loc 1 825 0
 1387 008a FB7B     		ldrb	r3, [r7, #15]	@ zero_extendqisi2
 1388 008c 1846     		mov	r0, r3
 1389 008e FFF7FEFF 		bl	CyMasterClk_SetDivider
 1390              		.loc 1 799 0
 1391 0092 03E0     		b	.L94
 1392              	.L89:
 826:./Generated_Source/PSoC5/CyLib.c ****     }
 827:./Generated_Source/PSoC5/CyLib.c ****     else
ARM GAS  C:\Users\CHARLI~1\AppData\Local\Temp\cc78mmP1.s 			page 40


 828:./Generated_Source/PSoC5/CyLib.c ****     {
 829:./Generated_Source/PSoC5/CyLib.c ****         CyBusClk_Internal_SetDivider(divider);
 1393              		.loc 1 829 0
 1394 0094 FB88     		ldrh	r3, [r7, #6]
 1395 0096 1846     		mov	r0, r3
 1396 0098 FFF7FEFF 		bl	CyBusClk_Internal_SetDivider
 1397              	.L94:
 830:./Generated_Source/PSoC5/CyLib.c ****     }
 831:./Generated_Source/PSoC5/CyLib.c **** }
 1398              		.loc 1 831 0
 1399 009c 07F11007 		add	r7, r7, #16
 1400 00a0 BD46     		mov	sp, r7
 1401 00a2 80BD     		pop	{r7, pc}
 1402              		.cfi_endproc
 1403              	.LFE14:
 1404              		.size	CyBusClk_SetDivider, .-CyBusClk_SetDivider
 1405              		.section	.text.CyCpuClk_SetDivider,"ax",%progbits
 1406              		.align	2
 1407              		.global	CyCpuClk_SetDivider
 1408              		.thumb
 1409              		.thumb_func
 1410              		.type	CyCpuClk_SetDivider, %function
 1411              	CyCpuClk_SetDivider:
 1412              	.LFB15:
 832:./Generated_Source/PSoC5/CyLib.c **** 
 833:./Generated_Source/PSoC5/CyLib.c **** 
 834:./Generated_Source/PSoC5/CyLib.c **** /*******************************************************************************
 835:./Generated_Source/PSoC5/CyLib.c **** * Function Name: CyCpuClk_SetDivider
 836:./Generated_Source/PSoC5/CyLib.c **** ********************************************************************************
 837:./Generated_Source/PSoC5/CyLib.c **** * Summary:
 838:./Generated_Source/PSoC5/CyLib.c **** *   Sets the divider value used to generate the CPU Clock.  Only applicable for PSoC 3.
 839:./Generated_Source/PSoC5/CyLib.c **** *
 840:./Generated_Source/PSoC5/CyLib.c **** *
 841:./Generated_Source/PSoC5/CyLib.c **** * Parameters:
 842:./Generated_Source/PSoC5/CyLib.c **** *   divider: Valid range [0-15].  
 843:./Generated_Source/PSoC5/CyLib.c **** *   The clock will be divided by this value + 1.  
 844:./Generated_Source/PSoC5/CyLib.c **** *   For example to divide by 2 this parameter should be set to 1.
 845:./Generated_Source/PSoC5/CyLib.c **** *
 846:./Generated_Source/PSoC5/CyLib.c **** *
 847:./Generated_Source/PSoC5/CyLib.c **** * Return:
 848:./Generated_Source/PSoC5/CyLib.c **** *   void.
 849:./Generated_Source/PSoC5/CyLib.c **** *
 850:./Generated_Source/PSoC5/CyLib.c **** *******************************************************************************/
 851:./Generated_Source/PSoC5/CyLib.c **** void CyCpuClk_SetDivider(uint8 divider) 
 852:./Generated_Source/PSoC5/CyLib.c **** {
 1413              		.loc 1 852 0
 1414              		.cfi_startproc
 1415              		@ args = 0, pretend = 0, frame = 8
 1416              		@ frame_needed = 1, uses_anonymous_args = 0
 1417              		@ link register save eliminated.
 1418 0000 80B4     		push	{r7}
 1419              	.LCFI41:
 1420              		.cfi_def_cfa_offset 4
 1421 0002 83B0     		sub	sp, sp, #12
 1422              	.LCFI42:
 1423              		.cfi_def_cfa_offset 16
 1424 0004 00AF     		add	r7, sp, #0
ARM GAS  C:\Users\CHARLI~1\AppData\Local\Temp\cc78mmP1.s 			page 41


 1425              		.cfi_offset 7, -4
 1426              	.LCFI43:
 1427              		.cfi_def_cfa_register 7
 1428 0006 0346     		mov	r3, r0
 1429 0008 FB71     		strb	r3, [r7, #7]
 853:./Generated_Source/PSoC5/CyLib.c **** #if CYLIB_PSOC3_ES3
 854:./Generated_Source/PSoC5/CyLib.c ****     CLKDIST_MSTR1 = (CLKDIST_MSTR1 & CLKDIST_MSTR1_DIV_CLEAR) | (divider << CLKDIST_DIV_POSITION);
 855:./Generated_Source/PSoC5/CyLib.c **** #elif CYLIB_PSOC3_ES2
 856:./Generated_Source/PSoC5/CyLib.c ****     CPUCLK_DIV = (CPUCLK_DIV & ~CPUCLK_DIV) | (divider & SFR_USER_CPUCLK_DIV_MASK);
 857:./Generated_Source/PSoC5/CyLib.c **** #endif /*end (CYLIB_PSOC3_ES3)*/
 858:./Generated_Source/PSoC5/CyLib.c **** }
 1430              		.loc 1 858 0
 1431 000a 07F10C07 		add	r7, r7, #12
 1432 000e BD46     		mov	sp, r7
 1433 0010 80BC     		pop	{r7}
 1434 0012 7047     		bx	lr
 1435              		.cfi_endproc
 1436              	.LFE15:
 1437              		.size	CyCpuClk_SetDivider, .-CyCpuClk_SetDivider
 1438              		.section	.text.CyUsbClk_SetSource,"ax",%progbits
 1439              		.align	2
 1440              		.global	CyUsbClk_SetSource
 1441              		.thumb
 1442              		.thumb_func
 1443              		.type	CyUsbClk_SetSource, %function
 1444              	CyUsbClk_SetSource:
 1445              	.LFB16:
 859:./Generated_Source/PSoC5/CyLib.c **** 
 860:./Generated_Source/PSoC5/CyLib.c **** 
 861:./Generated_Source/PSoC5/CyLib.c **** /*******************************************************************************
 862:./Generated_Source/PSoC5/CyLib.c **** * Function Name: CyUsbClk_SetSource
 863:./Generated_Source/PSoC5/CyLib.c **** ********************************************************************************
 864:./Generated_Source/PSoC5/CyLib.c **** * Summary:
 865:./Generated_Source/PSoC5/CyLib.c **** *   Sets the source of the USB clock.
 866:./Generated_Source/PSoC5/CyLib.c **** *
 867:./Generated_Source/PSoC5/CyLib.c **** *
 868:./Generated_Source/PSoC5/CyLib.c **** * Parameters:
 869:./Generated_Source/PSoC5/CyLib.c **** *   source: One of the four available USB clock sources
 870:./Generated_Source/PSoC5/CyLib.c **** *             USB_CLK_IMO2X     - imo2x  is selected
 871:./Generated_Source/PSoC5/CyLib.c **** *             USB_CLK_IMO       - imo is selected
 872:./Generated_Source/PSoC5/CyLib.c **** *             USB_CLK_PLL       - pll is selected
 873:./Generated_Source/PSoC5/CyLib.c **** *             USB_CLK_DSI       - dsi is selected
 874:./Generated_Source/PSoC5/CyLib.c **** *
 875:./Generated_Source/PSoC5/CyLib.c **** *
 876:./Generated_Source/PSoC5/CyLib.c **** * Return:
 877:./Generated_Source/PSoC5/CyLib.c **** *   void.
 878:./Generated_Source/PSoC5/CyLib.c **** *
 879:./Generated_Source/PSoC5/CyLib.c **** *******************************************************************************/
 880:./Generated_Source/PSoC5/CyLib.c **** void CyUsbClk_SetSource(uint8 source) 
 881:./Generated_Source/PSoC5/CyLib.c **** {
 1446              		.loc 1 881 0
 1447              		.cfi_startproc
 1448              		@ args = 0, pretend = 0, frame = 8
 1449              		@ frame_needed = 1, uses_anonymous_args = 0
 1450              		@ link register save eliminated.
 1451 0000 80B4     		push	{r7}
 1452              	.LCFI44:
ARM GAS  C:\Users\CHARLI~1\AppData\Local\Temp\cc78mmP1.s 			page 42


 1453              		.cfi_def_cfa_offset 4
 1454 0002 83B0     		sub	sp, sp, #12
 1455              	.LCFI45:
 1456              		.cfi_def_cfa_offset 16
 1457 0004 00AF     		add	r7, sp, #0
 1458              		.cfi_offset 7, -4
 1459              	.LCFI46:
 1460              		.cfi_def_cfa_register 7
 1461 0006 0346     		mov	r3, r0
 1462 0008 FB71     		strb	r3, [r7, #7]
 882:./Generated_Source/PSoC5/CyLib.c ****     /* SRC_SEL[1:0] of CLKDIST.UCFG*/
 883:./Generated_Source/PSoC5/CyLib.c ****     CLKDIST_UCFG = (CLKDIST_UCFG & ~USB_CLKDIST_CONFIG_MASK) | (USB_CLKDIST_CONFIG_MASK & source);
 1463              		.loc 1 883 0
 1464 000a 44F20903 		movw	r3, #:lower16:1073758217
 1465 000e C4F20003 		movt	r3, #:upper16:1073758217
 1466 0012 44F20902 		movw	r2, #:lower16:1073758217
 1467 0016 C4F20002 		movt	r2, #:upper16:1073758217
 1468 001a 1278     		ldrb	r2, [r2, #0]
 1469 001c D2B2     		uxtb	r2, r2
 1470 001e D1B2     		uxtb	r1, r2
 1471 0020 01F0FC01 		and	r1, r1, #252
 1472 0024 FA79     		ldrb	r2, [r7, #7]	@ zero_extendqisi2
 1473 0026 D2B2     		uxtb	r2, r2
 1474 0028 02F00302 		and	r2, r2, #3
 1475 002c 41EA0202 		orr	r2, r1, r2
 1476 0030 D2B2     		uxtb	r2, r2
 1477 0032 D2B2     		uxtb	r2, r2
 1478 0034 1A70     		strb	r2, [r3, #0]
 884:./Generated_Source/PSoC5/CyLib.c **** }
 1479              		.loc 1 884 0
 1480 0036 07F10C07 		add	r7, r7, #12
 1481 003a BD46     		mov	sp, r7
 1482 003c 80BC     		pop	{r7}
 1483 003e 7047     		bx	lr
 1484              		.cfi_endproc
 1485              	.LFE16:
 1486              		.size	CyUsbClk_SetSource, .-CyUsbClk_SetSource
 1487              		.section	.text.CyILO_Start1K,"ax",%progbits
 1488              		.align	2
 1489              		.global	CyILO_Start1K
 1490              		.thumb
 1491              		.thumb_func
 1492              		.type	CyILO_Start1K, %function
 1493              	CyILO_Start1K:
 1494              	.LFB17:
 885:./Generated_Source/PSoC5/CyLib.c **** 
 886:./Generated_Source/PSoC5/CyLib.c **** 
 887:./Generated_Source/PSoC5/CyLib.c **** /*******************************************************************************
 888:./Generated_Source/PSoC5/CyLib.c **** * Function Name: CyILO_1KHZ_Start
 889:./Generated_Source/PSoC5/CyLib.c **** ********************************************************************************
 890:./Generated_Source/PSoC5/CyLib.c **** * Summary:
 891:./Generated_Source/PSoC5/CyLib.c **** *   Enables the ILO 1 KHz oscillator.
 892:./Generated_Source/PSoC5/CyLib.c **** *
 893:./Generated_Source/PSoC5/CyLib.c **** *
 894:./Generated_Source/PSoC5/CyLib.c **** * Parameters:
 895:./Generated_Source/PSoC5/CyLib.c **** *   void.
 896:./Generated_Source/PSoC5/CyLib.c **** *
ARM GAS  C:\Users\CHARLI~1\AppData\Local\Temp\cc78mmP1.s 			page 43


 897:./Generated_Source/PSoC5/CyLib.c **** *
 898:./Generated_Source/PSoC5/CyLib.c **** * Return:
 899:./Generated_Source/PSoC5/CyLib.c **** *   void.
 900:./Generated_Source/PSoC5/CyLib.c **** *
 901:./Generated_Source/PSoC5/CyLib.c **** *******************************************************************************/
 902:./Generated_Source/PSoC5/CyLib.c **** void CyILO_Start1K(void) 
 903:./Generated_Source/PSoC5/CyLib.c **** {
 1495              		.loc 1 903 0
 1496              		.cfi_startproc
 1497              		@ args = 0, pretend = 0, frame = 0
 1498              		@ frame_needed = 1, uses_anonymous_args = 0
 1499              		@ link register save eliminated.
 1500 0000 80B4     		push	{r7}
 1501              	.LCFI47:
 1502              		.cfi_def_cfa_offset 4
 1503 0002 00AF     		add	r7, sp, #0
 1504              		.cfi_offset 7, -4
 1505              	.LCFI48:
 1506              		.cfi_def_cfa_register 7
 904:./Generated_Source/PSoC5/CyLib.c ****     /*Set the bit 1 of ILO RS */
 905:./Generated_Source/PSoC5/CyLib.c ****     SLOWCLK_ILO_CR0 |= ILO_CONTROL_1KHZ_ON;
 1507              		.loc 1 905 0
 1508 0004 44F20033 		movw	r3, #:lower16:1073758976
 1509 0008 C4F20003 		movt	r3, #:upper16:1073758976
 1510 000c 44F20032 		movw	r2, #:lower16:1073758976
 1511 0010 C4F20002 		movt	r2, #:upper16:1073758976
 1512 0014 1278     		ldrb	r2, [r2, #0]
 1513 0016 D2B2     		uxtb	r2, r2
 1514 0018 42F00202 		orr	r2, r2, #2
 1515 001c D2B2     		uxtb	r2, r2
 1516 001e 1A70     		strb	r2, [r3, #0]
 906:./Generated_Source/PSoC5/CyLib.c **** }
 1517              		.loc 1 906 0
 1518 0020 BD46     		mov	sp, r7
 1519 0022 80BC     		pop	{r7}
 1520 0024 7047     		bx	lr
 1521              		.cfi_endproc
 1522              	.LFE17:
 1523              		.size	CyILO_Start1K, .-CyILO_Start1K
 1524 0026 00BF     		.section	.text.CyILO_Stop1K,"ax",%progbits
 1525              		.align	2
 1526              		.global	CyILO_Stop1K
 1527              		.thumb
 1528              		.thumb_func
 1529              		.type	CyILO_Stop1K, %function
 1530              	CyILO_Stop1K:
 1531              	.LFB18:
 907:./Generated_Source/PSoC5/CyLib.c **** 
 908:./Generated_Source/PSoC5/CyLib.c **** 
 909:./Generated_Source/PSoC5/CyLib.c **** /*******************************************************************************
 910:./Generated_Source/PSoC5/CyLib.c **** * Function Name: CyILO_Stop1K
 911:./Generated_Source/PSoC5/CyLib.c **** ********************************************************************************
 912:./Generated_Source/PSoC5/CyLib.c **** * Summary:
 913:./Generated_Source/PSoC5/CyLib.c **** *   Disables the ILO 1 KHz oscillator.
 914:./Generated_Source/PSoC5/CyLib.c **** *
 915:./Generated_Source/PSoC5/CyLib.c **** *
 916:./Generated_Source/PSoC5/CyLib.c **** * Parameters:
ARM GAS  C:\Users\CHARLI~1\AppData\Local\Temp\cc78mmP1.s 			page 44


 917:./Generated_Source/PSoC5/CyLib.c **** *   void.
 918:./Generated_Source/PSoC5/CyLib.c **** *
 919:./Generated_Source/PSoC5/CyLib.c **** *
 920:./Generated_Source/PSoC5/CyLib.c **** * Return:
 921:./Generated_Source/PSoC5/CyLib.c **** *   void.
 922:./Generated_Source/PSoC5/CyLib.c **** *
 923:./Generated_Source/PSoC5/CyLib.c **** *******************************************************************************/
 924:./Generated_Source/PSoC5/CyLib.c **** void CyILO_Stop1K(void) 
 925:./Generated_Source/PSoC5/CyLib.c **** {
 1532              		.loc 1 925 0
 1533              		.cfi_startproc
 1534              		@ args = 0, pretend = 0, frame = 0
 1535              		@ frame_needed = 1, uses_anonymous_args = 0
 1536              		@ link register save eliminated.
 1537 0000 80B4     		push	{r7}
 1538              	.LCFI49:
 1539              		.cfi_def_cfa_offset 4
 1540 0002 00AF     		add	r7, sp, #0
 1541              		.cfi_offset 7, -4
 1542              	.LCFI50:
 1543              		.cfi_def_cfa_register 7
 926:./Generated_Source/PSoC5/CyLib.c ****     /*Clear the bit 1 of ILO RS */
 927:./Generated_Source/PSoC5/CyLib.c ****     SLOWCLK_ILO_CR0 &= ~ILO_CONTROL_1KHZ_ON;
 1544              		.loc 1 927 0
 1545 0004 44F20033 		movw	r3, #:lower16:1073758976
 1546 0008 C4F20003 		movt	r3, #:upper16:1073758976
 1547 000c 44F20032 		movw	r2, #:lower16:1073758976
 1548 0010 C4F20002 		movt	r2, #:upper16:1073758976
 1549 0014 1278     		ldrb	r2, [r2, #0]
 1550 0016 D2B2     		uxtb	r2, r2
 1551 0018 02F0FD02 		and	r2, r2, #253
 1552 001c 1A70     		strb	r2, [r3, #0]
 928:./Generated_Source/PSoC5/CyLib.c **** }
 1553              		.loc 1 928 0
 1554 001e BD46     		mov	sp, r7
 1555 0020 80BC     		pop	{r7}
 1556 0022 7047     		bx	lr
 1557              		.cfi_endproc
 1558              	.LFE18:
 1559              		.size	CyILO_Stop1K, .-CyILO_Stop1K
 1560              		.section	.text.CyILO_Start100K,"ax",%progbits
 1561              		.align	2
 1562              		.global	CyILO_Start100K
 1563              		.thumb
 1564              		.thumb_func
 1565              		.type	CyILO_Start100K, %function
 1566              	CyILO_Start100K:
 1567              	.LFB19:
 929:./Generated_Source/PSoC5/CyLib.c **** 
 930:./Generated_Source/PSoC5/CyLib.c **** 
 931:./Generated_Source/PSoC5/CyLib.c **** /*******************************************************************************
 932:./Generated_Source/PSoC5/CyLib.c **** * Function Name: CyILO_Start100K
 933:./Generated_Source/PSoC5/CyLib.c **** ********************************************************************************
 934:./Generated_Source/PSoC5/CyLib.c **** * Summary:
 935:./Generated_Source/PSoC5/CyLib.c **** *   Enables the ILO 100 KHz oscillator.
 936:./Generated_Source/PSoC5/CyLib.c **** *
 937:./Generated_Source/PSoC5/CyLib.c **** *
ARM GAS  C:\Users\CHARLI~1\AppData\Local\Temp\cc78mmP1.s 			page 45


 938:./Generated_Source/PSoC5/CyLib.c **** * Parameters:
 939:./Generated_Source/PSoC5/CyLib.c **** *   void.
 940:./Generated_Source/PSoC5/CyLib.c **** *
 941:./Generated_Source/PSoC5/CyLib.c **** *
 942:./Generated_Source/PSoC5/CyLib.c **** * Return:
 943:./Generated_Source/PSoC5/CyLib.c **** *   void.
 944:./Generated_Source/PSoC5/CyLib.c **** *
 945:./Generated_Source/PSoC5/CyLib.c **** *******************************************************************************/
 946:./Generated_Source/PSoC5/CyLib.c **** void CyILO_Start100K(void) 
 947:./Generated_Source/PSoC5/CyLib.c **** {
 1568              		.loc 1 947 0
 1569              		.cfi_startproc
 1570              		@ args = 0, pretend = 0, frame = 0
 1571              		@ frame_needed = 1, uses_anonymous_args = 0
 1572              		@ link register save eliminated.
 1573 0000 80B4     		push	{r7}
 1574              	.LCFI51:
 1575              		.cfi_def_cfa_offset 4
 1576 0002 00AF     		add	r7, sp, #0
 1577              		.cfi_offset 7, -4
 1578              	.LCFI52:
 1579              		.cfi_def_cfa_register 7
 948:./Generated_Source/PSoC5/CyLib.c ****     /*Set the bit 2 of ILO RS */
 949:./Generated_Source/PSoC5/CyLib.c ****     SLOWCLK_ILO_CR0 |= ILO_CONTROL_100KHZ_ON;
 1580              		.loc 1 949 0
 1581 0004 44F20033 		movw	r3, #:lower16:1073758976
 1582 0008 C4F20003 		movt	r3, #:upper16:1073758976
 1583 000c 44F20032 		movw	r2, #:lower16:1073758976
 1584 0010 C4F20002 		movt	r2, #:upper16:1073758976
 1585 0014 1278     		ldrb	r2, [r2, #0]
 1586 0016 D2B2     		uxtb	r2, r2
 1587 0018 42F00402 		orr	r2, r2, #4
 1588 001c D2B2     		uxtb	r2, r2
 1589 001e 1A70     		strb	r2, [r3, #0]
 950:./Generated_Source/PSoC5/CyLib.c **** }
 1590              		.loc 1 950 0
 1591 0020 BD46     		mov	sp, r7
 1592 0022 80BC     		pop	{r7}
 1593 0024 7047     		bx	lr
 1594              		.cfi_endproc
 1595              	.LFE19:
 1596              		.size	CyILO_Start100K, .-CyILO_Start100K
 1597 0026 00BF     		.section	.text.CyILO_Stop100K,"ax",%progbits
 1598              		.align	2
 1599              		.global	CyILO_Stop100K
 1600              		.thumb
 1601              		.thumb_func
 1602              		.type	CyILO_Stop100K, %function
 1603              	CyILO_Stop100K:
 1604              	.LFB20:
 951:./Generated_Source/PSoC5/CyLib.c **** 
 952:./Generated_Source/PSoC5/CyLib.c **** 
 953:./Generated_Source/PSoC5/CyLib.c **** /*******************************************************************************
 954:./Generated_Source/PSoC5/CyLib.c **** * Function Name: CyILO_Stop100K
 955:./Generated_Source/PSoC5/CyLib.c **** ********************************************************************************
 956:./Generated_Source/PSoC5/CyLib.c **** * Summary:
 957:./Generated_Source/PSoC5/CyLib.c **** *   Disables the ILO 100 KHz oscillator.
ARM GAS  C:\Users\CHARLI~1\AppData\Local\Temp\cc78mmP1.s 			page 46


 958:./Generated_Source/PSoC5/CyLib.c **** *
 959:./Generated_Source/PSoC5/CyLib.c **** *
 960:./Generated_Source/PSoC5/CyLib.c **** * Parameters:
 961:./Generated_Source/PSoC5/CyLib.c **** *   void.
 962:./Generated_Source/PSoC5/CyLib.c **** *
 963:./Generated_Source/PSoC5/CyLib.c **** *
 964:./Generated_Source/PSoC5/CyLib.c **** * Return:
 965:./Generated_Source/PSoC5/CyLib.c **** *   void.
 966:./Generated_Source/PSoC5/CyLib.c **** *
 967:./Generated_Source/PSoC5/CyLib.c **** *******************************************************************************/
 968:./Generated_Source/PSoC5/CyLib.c **** void CyILO_Stop100K(void) 
 969:./Generated_Source/PSoC5/CyLib.c **** {
 1605              		.loc 1 969 0
 1606              		.cfi_startproc
 1607              		@ args = 0, pretend = 0, frame = 0
 1608              		@ frame_needed = 1, uses_anonymous_args = 0
 1609              		@ link register save eliminated.
 1610 0000 80B4     		push	{r7}
 1611              	.LCFI53:
 1612              		.cfi_def_cfa_offset 4
 1613 0002 00AF     		add	r7, sp, #0
 1614              		.cfi_offset 7, -4
 1615              	.LCFI54:
 1616              		.cfi_def_cfa_register 7
 970:./Generated_Source/PSoC5/CyLib.c ****     /*Clear the bit 2 of ILO RS */
 971:./Generated_Source/PSoC5/CyLib.c ****     SLOWCLK_ILO_CR0 &= ~ILO_CONTROL_100KHZ_ON;
 1617              		.loc 1 971 0
 1618 0004 44F20033 		movw	r3, #:lower16:1073758976
 1619 0008 C4F20003 		movt	r3, #:upper16:1073758976
 1620 000c 44F20032 		movw	r2, #:lower16:1073758976
 1621 0010 C4F20002 		movt	r2, #:upper16:1073758976
 1622 0014 1278     		ldrb	r2, [r2, #0]
 1623 0016 D2B2     		uxtb	r2, r2
 1624 0018 02F0FB02 		and	r2, r2, #251
 1625 001c 1A70     		strb	r2, [r3, #0]
 972:./Generated_Source/PSoC5/CyLib.c **** }
 1626              		.loc 1 972 0
 1627 001e BD46     		mov	sp, r7
 1628 0020 80BC     		pop	{r7}
 1629 0022 7047     		bx	lr
 1630              		.cfi_endproc
 1631              	.LFE20:
 1632              		.size	CyILO_Stop100K, .-CyILO_Stop100K
 1633              		.section	.text.CyILO_Enable33K,"ax",%progbits
 1634              		.align	2
 1635              		.global	CyILO_Enable33K
 1636              		.thumb
 1637              		.thumb_func
 1638              		.type	CyILO_Enable33K, %function
 1639              	CyILO_Enable33K:
 1640              	.LFB21:
 973:./Generated_Source/PSoC5/CyLib.c **** 
 974:./Generated_Source/PSoC5/CyLib.c **** 
 975:./Generated_Source/PSoC5/CyLib.c **** /*******************************************************************************
 976:./Generated_Source/PSoC5/CyLib.c **** * Function Name: CyILO_Enable33K
 977:./Generated_Source/PSoC5/CyLib.c **** ********************************************************************************
 978:./Generated_Source/PSoC5/CyLib.c **** * Summary:
ARM GAS  C:\Users\CHARLI~1\AppData\Local\Temp\cc78mmP1.s 			page 47


 979:./Generated_Source/PSoC5/CyLib.c **** *   Enables the ILO 33 KHz divider.  
 980:./Generated_Source/PSoC5/CyLib.c **** *   Note that the 33 KHz clock is generated from the 100 KHz oscillator, 
 981:./Generated_Source/PSoC5/CyLib.c **** *   so it must also be running in order to generate the 33 KHz output.
 982:./Generated_Source/PSoC5/CyLib.c **** *
 983:./Generated_Source/PSoC5/CyLib.c **** *
 984:./Generated_Source/PSoC5/CyLib.c **** * Parameters:
 985:./Generated_Source/PSoC5/CyLib.c **** *   void.
 986:./Generated_Source/PSoC5/CyLib.c **** *
 987:./Generated_Source/PSoC5/CyLib.c **** *
 988:./Generated_Source/PSoC5/CyLib.c **** * Return:
 989:./Generated_Source/PSoC5/CyLib.c **** *   void.
 990:./Generated_Source/PSoC5/CyLib.c **** *
 991:./Generated_Source/PSoC5/CyLib.c **** *******************************************************************************/
 992:./Generated_Source/PSoC5/CyLib.c **** void CyILO_Enable33K(void) 
 993:./Generated_Source/PSoC5/CyLib.c **** {
 1641              		.loc 1 993 0
 1642              		.cfi_startproc
 1643              		@ args = 0, pretend = 0, frame = 0
 1644              		@ frame_needed = 1, uses_anonymous_args = 0
 1645              		@ link register save eliminated.
 1646 0000 80B4     		push	{r7}
 1647              	.LCFI55:
 1648              		.cfi_def_cfa_offset 4
 1649 0002 00AF     		add	r7, sp, #0
 1650              		.cfi_offset 7, -4
 1651              	.LCFI56:
 1652              		.cfi_def_cfa_register 7
 994:./Generated_Source/PSoC5/CyLib.c ****     /*Set the bit 5 of ILO RS */
 995:./Generated_Source/PSoC5/CyLib.c ****     SLOWCLK_ILO_CR0 |= ILO_CONTROL_33KHZ_ON;
 1653              		.loc 1 995 0
 1654 0004 44F20033 		movw	r3, #:lower16:1073758976
 1655 0008 C4F20003 		movt	r3, #:upper16:1073758976
 1656 000c 44F20032 		movw	r2, #:lower16:1073758976
 1657 0010 C4F20002 		movt	r2, #:upper16:1073758976
 1658 0014 1278     		ldrb	r2, [r2, #0]
 1659 0016 D2B2     		uxtb	r2, r2
 1660 0018 42F02002 		orr	r2, r2, #32
 1661 001c D2B2     		uxtb	r2, r2
 1662 001e 1A70     		strb	r2, [r3, #0]
 996:./Generated_Source/PSoC5/CyLib.c **** }
 1663              		.loc 1 996 0
 1664 0020 BD46     		mov	sp, r7
 1665 0022 80BC     		pop	{r7}
 1666 0024 7047     		bx	lr
 1667              		.cfi_endproc
 1668              	.LFE21:
 1669              		.size	CyILO_Enable33K, .-CyILO_Enable33K
 1670 0026 00BF     		.section	.text.CyILO_Disable33K,"ax",%progbits
 1671              		.align	2
 1672              		.global	CyILO_Disable33K
 1673              		.thumb
 1674              		.thumb_func
 1675              		.type	CyILO_Disable33K, %function
 1676              	CyILO_Disable33K:
 1677              	.LFB22:
 997:./Generated_Source/PSoC5/CyLib.c **** 
 998:./Generated_Source/PSoC5/CyLib.c **** 
ARM GAS  C:\Users\CHARLI~1\AppData\Local\Temp\cc78mmP1.s 			page 48


 999:./Generated_Source/PSoC5/CyLib.c **** /*******************************************************************************
1000:./Generated_Source/PSoC5/CyLib.c **** * Function Name: CyILO_Disable33K
1001:./Generated_Source/PSoC5/CyLib.c **** ********************************************************************************
1002:./Generated_Source/PSoC5/CyLib.c **** * Summary:
1003:./Generated_Source/PSoC5/CyLib.c **** *   Disables the ILO 33 KHz divider.  
1004:./Generated_Source/PSoC5/CyLib.c **** *   Note that the 33 KHz clock is generated from the 100 KHz oscillator, 
1005:./Generated_Source/PSoC5/CyLib.c **** *   but this API does not disable the 100 KHz clock.
1006:./Generated_Source/PSoC5/CyLib.c **** *
1007:./Generated_Source/PSoC5/CyLib.c **** *
1008:./Generated_Source/PSoC5/CyLib.c **** * Parameters:
1009:./Generated_Source/PSoC5/CyLib.c **** *   void.
1010:./Generated_Source/PSoC5/CyLib.c **** *
1011:./Generated_Source/PSoC5/CyLib.c **** *
1012:./Generated_Source/PSoC5/CyLib.c **** * Return:
1013:./Generated_Source/PSoC5/CyLib.c **** *   void.
1014:./Generated_Source/PSoC5/CyLib.c **** *
1015:./Generated_Source/PSoC5/CyLib.c **** *******************************************************************************/
1016:./Generated_Source/PSoC5/CyLib.c **** void CyILO_Disable33K(void) 
1017:./Generated_Source/PSoC5/CyLib.c **** {
 1678              		.loc 1 1017 0
 1679              		.cfi_startproc
 1680              		@ args = 0, pretend = 0, frame = 0
 1681              		@ frame_needed = 1, uses_anonymous_args = 0
 1682              		@ link register save eliminated.
 1683 0000 80B4     		push	{r7}
 1684              	.LCFI57:
 1685              		.cfi_def_cfa_offset 4
 1686 0002 00AF     		add	r7, sp, #0
 1687              		.cfi_offset 7, -4
 1688              	.LCFI58:
 1689              		.cfi_def_cfa_register 7
1018:./Generated_Source/PSoC5/CyLib.c ****     /*Clear the bit 5 of ILO RS */
1019:./Generated_Source/PSoC5/CyLib.c ****     SLOWCLK_ILO_CR0 &= ~ILO_CONTROL_33KHZ_ON;
 1690              		.loc 1 1019 0
 1691 0004 44F20033 		movw	r3, #:lower16:1073758976
 1692 0008 C4F20003 		movt	r3, #:upper16:1073758976
 1693 000c 44F20032 		movw	r2, #:lower16:1073758976
 1694 0010 C4F20002 		movt	r2, #:upper16:1073758976
 1695 0014 1278     		ldrb	r2, [r2, #0]
 1696 0016 D2B2     		uxtb	r2, r2
 1697 0018 02F0DF02 		and	r2, r2, #223
 1698 001c 1A70     		strb	r2, [r3, #0]
1020:./Generated_Source/PSoC5/CyLib.c **** }
 1699              		.loc 1 1020 0
 1700 001e BD46     		mov	sp, r7
 1701 0020 80BC     		pop	{r7}
 1702 0022 7047     		bx	lr
 1703              		.cfi_endproc
 1704              	.LFE22:
 1705              		.size	CyILO_Disable33K, .-CyILO_Disable33K
 1706              		.section	.text.CyILO_SetSource,"ax",%progbits
 1707              		.align	2
 1708              		.global	CyILO_SetSource
 1709              		.thumb
 1710              		.thumb_func
 1711              		.type	CyILO_SetSource, %function
 1712              	CyILO_SetSource:
ARM GAS  C:\Users\CHARLI~1\AppData\Local\Temp\cc78mmP1.s 			page 49


 1713              	.LFB23:
1021:./Generated_Source/PSoC5/CyLib.c **** 
1022:./Generated_Source/PSoC5/CyLib.c **** 
1023:./Generated_Source/PSoC5/CyLib.c **** /*******************************************************************************
1024:./Generated_Source/PSoC5/CyLib.c **** * Function Name: CyILO_SetSource
1025:./Generated_Source/PSoC5/CyLib.c **** ********************************************************************************
1026:./Generated_Source/PSoC5/CyLib.c **** * Summary:
1027:./Generated_Source/PSoC5/CyLib.c **** *   Sets the source of the clock output from the ILO block.
1028:./Generated_Source/PSoC5/CyLib.c **** *
1029:./Generated_Source/PSoC5/CyLib.c **** *
1030:./Generated_Source/PSoC5/CyLib.c **** * Parameters:
1031:./Generated_Source/PSoC5/CyLib.c **** *   source: One of the three available ILO output sources
1032:./Generated_Source/PSoC5/CyLib.c **** *       Value        Define                Source
1033:./Generated_Source/PSoC5/CyLib.c **** *       0            CY_ILO_SOURCE_100K    ILO 100 KHz
1034:./Generated_Source/PSoC5/CyLib.c **** *       1            CY_ILO_SOURCE_33K    ILO 33 KHz
1035:./Generated_Source/PSoC5/CyLib.c **** *       2            CY_ILO_SOURCE_1K    ILO 1 KHz
1036:./Generated_Source/PSoC5/CyLib.c **** *
1037:./Generated_Source/PSoC5/CyLib.c **** *
1038:./Generated_Source/PSoC5/CyLib.c **** * Return:
1039:./Generated_Source/PSoC5/CyLib.c **** *   void.
1040:./Generated_Source/PSoC5/CyLib.c **** *
1041:./Generated_Source/PSoC5/CyLib.c **** *******************************************************************************/
1042:./Generated_Source/PSoC5/CyLib.c **** void CyILO_SetSource(uint8 source) 
1043:./Generated_Source/PSoC5/CyLib.c **** {
 1714              		.loc 1 1043 0
 1715              		.cfi_startproc
 1716              		@ args = 0, pretend = 0, frame = 8
 1717              		@ frame_needed = 1, uses_anonymous_args = 0
 1718              		@ link register save eliminated.
 1719 0000 80B4     		push	{r7}
 1720              	.LCFI59:
 1721              		.cfi_def_cfa_offset 4
 1722 0002 83B0     		sub	sp, sp, #12
 1723              	.LCFI60:
 1724              		.cfi_def_cfa_offset 16
 1725 0004 00AF     		add	r7, sp, #0
 1726              		.cfi_offset 7, -4
 1727              	.LCFI61:
 1728              		.cfi_def_cfa_register 7
 1729 0006 0346     		mov	r3, r0
 1730 0008 FB71     		strb	r3, [r7, #7]
1044:./Generated_Source/PSoC5/CyLib.c ****     /*Bits 3:2       ILO_OUT[1:0] of CLKDIST_CR */
1045:./Generated_Source/PSoC5/CyLib.c ****     CLKDIST_CR = (CLKDIST_CR & CY_ILO_SOURCE_BITS_CLEAR) | ((source << 2) & ~CY_ILO_SOURCE_BITS_CLE
 1731              		.loc 1 1045 0
 1732 000a 44F20003 		movw	r3, #:lower16:1073758208
 1733 000e C4F20003 		movt	r3, #:upper16:1073758208
 1734 0012 44F20002 		movw	r2, #:lower16:1073758208
 1735 0016 C4F20002 		movt	r2, #:upper16:1073758208
 1736 001a 1278     		ldrb	r2, [r2, #0]
 1737 001c D2B2     		uxtb	r2, r2
 1738 001e 1146     		mov	r1, r2
 1739 0020 01F0F301 		and	r1, r1, #243
 1740 0024 FA79     		ldrb	r2, [r7, #7]
 1741 0026 4FEA8202 		lsl	r2, r2, #2
 1742 002a D2B2     		uxtb	r2, r2
 1743 002c 02F00C02 		and	r2, r2, #12
 1744 0030 41EA0202 		orr	r2, r1, r2
ARM GAS  C:\Users\CHARLI~1\AppData\Local\Temp\cc78mmP1.s 			page 50


 1745 0034 D2B2     		uxtb	r2, r2
 1746 0036 1A70     		strb	r2, [r3, #0]
1046:./Generated_Source/PSoC5/CyLib.c **** }
 1747              		.loc 1 1046 0
 1748 0038 07F10C07 		add	r7, r7, #12
 1749 003c BD46     		mov	sp, r7
 1750 003e 80BC     		pop	{r7}
 1751 0040 7047     		bx	lr
 1752              		.cfi_endproc
 1753              	.LFE23:
 1754              		.size	CyILO_SetSource, .-CyILO_SetSource
 1755 0042 00BF     		.section	.text.CyILO_SetPowerMode,"ax",%progbits
 1756              		.align	2
 1757              		.global	CyILO_SetPowerMode
 1758              		.thumb
 1759              		.thumb_func
 1760              		.type	CyILO_SetPowerMode, %function
 1761              	CyILO_SetPowerMode:
 1762              	.LFB24:
1047:./Generated_Source/PSoC5/CyLib.c **** 
1048:./Generated_Source/PSoC5/CyLib.c **** 
1049:./Generated_Source/PSoC5/CyLib.c **** /*******************************************************************************
1050:./Generated_Source/PSoC5/CyLib.c **** * Function Name: CyILO_SetPowerMode
1051:./Generated_Source/PSoC5/CyLib.c **** ********************************************************************************
1052:./Generated_Source/PSoC5/CyLib.c **** * Summary:
1053:./Generated_Source/PSoC5/CyLib.c **** *   Sets the power mode used by the ILO during power down.  
1054:./Generated_Source/PSoC5/CyLib.c **** *   Allows for lower power down power usage resulting in a slower startup time.
1055:./Generated_Source/PSoC5/CyLib.c **** *
1056:./Generated_Source/PSoC5/CyLib.c **** *
1057:./Generated_Source/PSoC5/CyLib.c **** * Parameters:
1058:./Generated_Source/PSoC5/CyLib.c **** *   mode, 0 : Faster start-up, internal bias left on when powered down
1059:./Generated_Source/PSoC5/CyLib.c **** *         1 : Slower start-up, internal bias off when powered down
1060:./Generated_Source/PSoC5/CyLib.c **** *
1061:./Generated_Source/PSoC5/CyLib.c **** *
1062:./Generated_Source/PSoC5/CyLib.c **** * Return:
1063:./Generated_Source/PSoC5/CyLib.c **** *   Prevous power mode state.
1064:./Generated_Source/PSoC5/CyLib.c **** *
1065:./Generated_Source/PSoC5/CyLib.c **** *******************************************************************************/
1066:./Generated_Source/PSoC5/CyLib.c **** uint8 CyILO_SetPowerMode(uint8 mode) 
1067:./Generated_Source/PSoC5/CyLib.c **** {
 1763              		.loc 1 1067 0
 1764              		.cfi_startproc
 1765              		@ args = 0, pretend = 0, frame = 16
 1766              		@ frame_needed = 1, uses_anonymous_args = 0
 1767              		@ link register save eliminated.
 1768 0000 80B4     		push	{r7}
 1769              	.LCFI62:
 1770              		.cfi_def_cfa_offset 4
 1771 0002 85B0     		sub	sp, sp, #20
 1772              	.LCFI63:
 1773              		.cfi_def_cfa_offset 24
 1774 0004 00AF     		add	r7, sp, #0
 1775              		.cfi_offset 7, -4
 1776              	.LCFI64:
 1777              		.cfi_def_cfa_register 7
 1778 0006 0346     		mov	r3, r0
 1779 0008 FB71     		strb	r3, [r7, #7]
ARM GAS  C:\Users\CHARLI~1\AppData\Local\Temp\cc78mmP1.s 			page 51


1068:./Generated_Source/PSoC5/CyLib.c ****     uint8 state;
1069:./Generated_Source/PSoC5/CyLib.c **** 
1070:./Generated_Source/PSoC5/CyLib.c ****     /* Get current state. */
1071:./Generated_Source/PSoC5/CyLib.c ****     state = SLOWCLK_ILO_CR0;
 1780              		.loc 1 1071 0
 1781 000a 44F20033 		movw	r3, #:lower16:1073758976
 1782 000e C4F20003 		movt	r3, #:upper16:1073758976
 1783 0012 1B78     		ldrb	r3, [r3, #0]
 1784 0014 FB73     		strb	r3, [r7, #15]
1072:./Generated_Source/PSoC5/CyLib.c **** 
1073:./Generated_Source/PSoC5/CyLib.c ****     /* Set the the oscillator power mode. */
1074:./Generated_Source/PSoC5/CyLib.c ****     if(mode!=0)
 1785              		.loc 1 1074 0
 1786 0016 FB79     		ldrb	r3, [r7, #7]	@ zero_extendqisi2
 1787 0018 002B     		cmp	r3, #0
 1788 001a 09D0     		beq	.L114
1075:./Generated_Source/PSoC5/CyLib.c ****     {
1076:./Generated_Source/PSoC5/CyLib.c ****         SLOWCLK_ILO_CR0 = (state | ILO_CONTROL_PD_MODE);
 1789              		.loc 1 1076 0
 1790 001c 44F20033 		movw	r3, #:lower16:1073758976
 1791 0020 C4F20003 		movt	r3, #:upper16:1073758976
 1792 0024 FA7B     		ldrb	r2, [r7, #15]
 1793 0026 42F01002 		orr	r2, r2, #16
 1794 002a D2B2     		uxtb	r2, r2
 1795 002c 1A70     		strb	r2, [r3, #0]
 1796 002e 07E0     		b	.L115
 1797              	.L114:
1077:./Generated_Source/PSoC5/CyLib.c ****     }
1078:./Generated_Source/PSoC5/CyLib.c ****     else
1079:./Generated_Source/PSoC5/CyLib.c ****     {
1080:./Generated_Source/PSoC5/CyLib.c ****         SLOWCLK_ILO_CR0 = (state & ~ILO_CONTROL_PD_MODE);
 1798              		.loc 1 1080 0
 1799 0030 44F20033 		movw	r3, #:lower16:1073758976
 1800 0034 C4F20003 		movt	r3, #:upper16:1073758976
 1801 0038 FA7B     		ldrb	r2, [r7, #15]	@ zero_extendqisi2
 1802 003a 02F0EF02 		and	r2, r2, #239
 1803 003e 1A70     		strb	r2, [r3, #0]
 1804              	.L115:
1081:./Generated_Source/PSoC5/CyLib.c ****     }
1082:./Generated_Source/PSoC5/CyLib.c **** 
1083:./Generated_Source/PSoC5/CyLib.c ****     /* Return the old mode. */
1084:./Generated_Source/PSoC5/CyLib.c ****     return ((state & ILO_CONTROL_PD_MODE) >> ILO_CONTROL_PD_POSITION);
 1805              		.loc 1 1084 0
 1806 0040 FB7B     		ldrb	r3, [r7, #15]	@ zero_extendqisi2
 1807 0042 03F01003 		and	r3, r3, #16
 1808 0046 4FEA2313 		asr	r3, r3, #4
 1809 004a DBB2     		uxtb	r3, r3
1085:./Generated_Source/PSoC5/CyLib.c **** }
 1810              		.loc 1 1085 0
 1811 004c 1846     		mov	r0, r3
 1812 004e 07F11407 		add	r7, r7, #20
 1813 0052 BD46     		mov	sp, r7
 1814 0054 80BC     		pop	{r7}
 1815 0056 7047     		bx	lr
 1816              		.cfi_endproc
 1817              	.LFE24:
 1818              		.size	CyILO_SetPowerMode, .-CyILO_SetPowerMode
ARM GAS  C:\Users\CHARLI~1\AppData\Local\Temp\cc78mmP1.s 			page 52


 1819              		.section	.text.CyXTAL_32KHZ_Start,"ax",%progbits
 1820              		.align	2
 1821              		.global	CyXTAL_32KHZ_Start
 1822              		.thumb
 1823              		.thumb_func
 1824              		.type	CyXTAL_32KHZ_Start, %function
 1825              	CyXTAL_32KHZ_Start:
 1826              	.LFB25:
1086:./Generated_Source/PSoC5/CyLib.c **** 
1087:./Generated_Source/PSoC5/CyLib.c **** 
1088:./Generated_Source/PSoC5/CyLib.c **** /*******************************************************************************
1089:./Generated_Source/PSoC5/CyLib.c **** * Function Name: CyXTAL_32KHZ_Start
1090:./Generated_Source/PSoC5/CyLib.c **** ********************************************************************************
1091:./Generated_Source/PSoC5/CyLib.c **** * Summary:
1092:./Generated_Source/PSoC5/CyLib.c **** *   Enables the 32KHz Crystal Oscillator.
1093:./Generated_Source/PSoC5/CyLib.c **** *
1094:./Generated_Source/PSoC5/CyLib.c **** *
1095:./Generated_Source/PSoC5/CyLib.c **** * Parameters:
1096:./Generated_Source/PSoC5/CyLib.c **** *   void.
1097:./Generated_Source/PSoC5/CyLib.c **** *
1098:./Generated_Source/PSoC5/CyLib.c **** *
1099:./Generated_Source/PSoC5/CyLib.c **** * Return:
1100:./Generated_Source/PSoC5/CyLib.c **** *   void.
1101:./Generated_Source/PSoC5/CyLib.c **** *
1102:./Generated_Source/PSoC5/CyLib.c **** *******************************************************************************/
1103:./Generated_Source/PSoC5/CyLib.c **** void CyXTAL_32KHZ_Start(void) 
1104:./Generated_Source/PSoC5/CyLib.c **** {
 1827              		.loc 1 1104 0
 1828              		.cfi_startproc
 1829              		@ args = 0, pretend = 0, frame = 8
 1830              		@ frame_needed = 1, uses_anonymous_args = 0
 1831              		@ link register save eliminated.
 1832 0000 80B4     		push	{r7}
 1833              	.LCFI65:
 1834              		.cfi_def_cfa_offset 4
 1835 0002 83B0     		sub	sp, sp, #12
 1836              	.LCFI66:
 1837              		.cfi_def_cfa_offset 16
 1838 0004 00AF     		add	r7, sp, #0
 1839              		.cfi_offset 7, -4
 1840              	.LCFI67:
 1841              		.cfi_def_cfa_register 7
1105:./Generated_Source/PSoC5/CyLib.c ****     volatile uint32  timeout;
1106:./Generated_Source/PSoC5/CyLib.c ****     volatile uint32* timeout_p = &timeout;
 1842              		.loc 1 1106 0
 1843 0006 3B46     		mov	r3, r7
 1844 0008 7B60     		str	r3, [r7, #4]
1107:./Generated_Source/PSoC5/CyLib.c ****     
1108:./Generated_Source/PSoC5/CyLib.c **** #if (CYLIB_PSOC3_ES3 || CYLIB_PSOC5_ES2)
1109:./Generated_Source/PSoC5/CyLib.c ****     uint8 x32TrHold;
1110:./Generated_Source/PSoC5/CyLib.c ****     x32TrHold = MFGCFG_X32_TR;
1111:./Generated_Source/PSoC5/CyLib.c ****     MFGCFG_X32_TR = X32_TR_CLEAR;
1112:./Generated_Source/PSoC5/CyLib.c **** #endif
1113:./Generated_Source/PSoC5/CyLib.c **** 
1114:./Generated_Source/PSoC5/CyLib.c ****     SLOWCLK_X32_TST = X32_TST_SETALL;
 1845              		.loc 1 1114 0
 1846 000a 44F20A33 		movw	r3, #:lower16:1073758986
ARM GAS  C:\Users\CHARLI~1\AppData\Local\Temp\cc78mmP1.s 			page 53


 1847 000e C4F20003 		movt	r3, #:upper16:1073758986
 1848 0012 6FF00E02 		mvn	r2, #14
 1849 0016 1A70     		strb	r2, [r3, #0]
1115:./Generated_Source/PSoC5/CyLib.c ****     SLOWCLK_X32_CFG = X32_CFG_LOWPOWERMODE;
 1850              		.loc 1 1115 0
 1851 0018 44F20933 		movw	r3, #:lower16:1073758985
 1852 001c C4F20003 		movt	r3, #:upper16:1073758985
 1853 0020 6FF07F02 		mvn	r2, #127
 1854 0024 1A70     		strb	r2, [r3, #0]
1116:./Generated_Source/PSoC5/CyLib.c **** 
1117:./Generated_Source/PSoC5/CyLib.c **** 	/* Enable the the oscillator. */
1118:./Generated_Source/PSoC5/CyLib.c **** #if (CYLIB_PSOC3_ES3 || CYLIB_PSOC5_ES2)
1119:./Generated_Source/PSoC5/CyLib.c ****     SLOWCLK_X32_CR |= X32_CONTROL_PDBEN;
1120:./Generated_Source/PSoC5/CyLib.c **** #endif
1121:./Generated_Source/PSoC5/CyLib.c ****     SLOWCLK_X32_CR |= X32_CONTROL_X32EN;
 1855              		.loc 1 1121 0
 1856 0026 44F20833 		movw	r3, #:lower16:1073758984
 1857 002a C4F20003 		movt	r3, #:upper16:1073758984
 1858 002e 44F20832 		movw	r2, #:lower16:1073758984
 1859 0032 C4F20002 		movt	r2, #:upper16:1073758984
 1860 0036 1278     		ldrb	r2, [r2, #0]
 1861 0038 D2B2     		uxtb	r2, r2
 1862 003a 42F00102 		orr	r2, r2, #1
 1863 003e D2B2     		uxtb	r2, r2
 1864 0040 1A70     		strb	r2, [r3, #0]
1122:./Generated_Source/PSoC5/CyLib.c ****     for (timeout = 224000; *timeout_p && !(SLOWCLK_X32_CR & 0x20u); timeout--) { }
 1865              		.loc 1 1122 0
 1866 0042 46F60033 		movw	r3, #:lower16:224000
 1867 0046 C0F20303 		movt	r3, #:upper16:224000
 1868 004a 3B60     		str	r3, [r7, #0]
 1869 004c 03E0     		b	.L118
 1870              	.L120:
 1871 004e 3B68     		ldr	r3, [r7, #0]
 1872 0050 03F1FF33 		add	r3, r3, #-1
 1873 0054 3B60     		str	r3, [r7, #0]
 1874              	.L118:
 1875 0056 7B68     		ldr	r3, [r7, #4]
 1876 0058 1B68     		ldr	r3, [r3, #0]
 1877 005a 002B     		cmp	r3, #0
 1878 005c 09D0     		beq	.L121
 1879 005e 44F20833 		movw	r3, #:lower16:1073758984
 1880 0062 C4F20003 		movt	r3, #:upper16:1073758984
 1881 0066 1B78     		ldrb	r3, [r3, #0]
 1882 0068 DBB2     		uxtb	r3, r3
 1883 006a 03F02003 		and	r3, r3, #32
 1884 006e 002B     		cmp	r3, #0
 1885 0070 EDD0     		beq	.L120
 1886              	.L121:
1123:./Generated_Source/PSoC5/CyLib.c **** #if (CYLIB_PSOC3_ES3 || CYLIB_PSOC5_ES2)
1124:./Generated_Source/PSoC5/CyLib.c ****     MFGCFG_X32_TR = x32TrHold;
1125:./Generated_Source/PSoC5/CyLib.c **** #endif
1126:./Generated_Source/PSoC5/CyLib.c **** }
 1887              		.loc 1 1126 0
 1888 0072 07F10C07 		add	r7, r7, #12
 1889 0076 BD46     		mov	sp, r7
 1890 0078 80BC     		pop	{r7}
 1891 007a 7047     		bx	lr
ARM GAS  C:\Users\CHARLI~1\AppData\Local\Temp\cc78mmP1.s 			page 54


 1892              		.cfi_endproc
 1893              	.LFE25:
 1894              		.size	CyXTAL_32KHZ_Start, .-CyXTAL_32KHZ_Start
 1895              		.section	.text.CyXTAL_32KHZ_Stop,"ax",%progbits
 1896              		.align	2
 1897              		.global	CyXTAL_32KHZ_Stop
 1898              		.thumb
 1899              		.thumb_func
 1900              		.type	CyXTAL_32KHZ_Stop, %function
 1901              	CyXTAL_32KHZ_Stop:
 1902              	.LFB26:
1127:./Generated_Source/PSoC5/CyLib.c **** 
1128:./Generated_Source/PSoC5/CyLib.c **** 
1129:./Generated_Source/PSoC5/CyLib.c **** /*******************************************************************************
1130:./Generated_Source/PSoC5/CyLib.c **** * Function Name: CyXTAL_32KHZ_Stop
1131:./Generated_Source/PSoC5/CyLib.c **** ********************************************************************************
1132:./Generated_Source/PSoC5/CyLib.c **** * Summary:
1133:./Generated_Source/PSoC5/CyLib.c **** *   Disables the 32KHz Crystal Oscillator.
1134:./Generated_Source/PSoC5/CyLib.c **** *
1135:./Generated_Source/PSoC5/CyLib.c **** *
1136:./Generated_Source/PSoC5/CyLib.c **** * Parameters:
1137:./Generated_Source/PSoC5/CyLib.c **** *   void.
1138:./Generated_Source/PSoC5/CyLib.c **** *
1139:./Generated_Source/PSoC5/CyLib.c **** *
1140:./Generated_Source/PSoC5/CyLib.c **** * Return:
1141:./Generated_Source/PSoC5/CyLib.c **** *   void.
1142:./Generated_Source/PSoC5/CyLib.c **** *
1143:./Generated_Source/PSoC5/CyLib.c **** *******************************************************************************/
1144:./Generated_Source/PSoC5/CyLib.c **** void CyXTAL_32KHZ_Stop(void) 
1145:./Generated_Source/PSoC5/CyLib.c **** {
 1903              		.loc 1 1145 0
 1904              		.cfi_startproc
 1905              		@ args = 0, pretend = 0, frame = 0
 1906              		@ frame_needed = 1, uses_anonymous_args = 0
 1907              		@ link register save eliminated.
 1908 0000 80B4     		push	{r7}
 1909              	.LCFI68:
 1910              		.cfi_def_cfa_offset 4
 1911 0002 00AF     		add	r7, sp, #0
 1912              		.cfi_offset 7, -4
 1913              	.LCFI69:
 1914              		.cfi_def_cfa_register 7
1146:./Generated_Source/PSoC5/CyLib.c ****     /* Disable the oscillator. */
1147:./Generated_Source/PSoC5/CyLib.c ****     SLOWCLK_X32_CR &= ~X32_CONTROL_X32EN;
 1915              		.loc 1 1147 0
 1916 0004 44F20833 		movw	r3, #:lower16:1073758984
 1917 0008 C4F20003 		movt	r3, #:upper16:1073758984
 1918 000c 44F20832 		movw	r2, #:lower16:1073758984
 1919 0010 C4F20002 		movt	r2, #:upper16:1073758984
 1920 0014 1278     		ldrb	r2, [r2, #0]
 1921 0016 D2B2     		uxtb	r2, r2
 1922 0018 02F0FE02 		and	r2, r2, #254
 1923 001c 1A70     		strb	r2, [r3, #0]
1148:./Generated_Source/PSoC5/CyLib.c **** }
 1924              		.loc 1 1148 0
 1925 001e BD46     		mov	sp, r7
 1926 0020 80BC     		pop	{r7}
ARM GAS  C:\Users\CHARLI~1\AppData\Local\Temp\cc78mmP1.s 			page 55


 1927 0022 7047     		bx	lr
 1928              		.cfi_endproc
 1929              	.LFE26:
 1930              		.size	CyXTAL_32KHZ_Stop, .-CyXTAL_32KHZ_Stop
 1931              		.section	.text.CyXTAL_32KHZ_ReadStatus,"ax",%progbits
 1932              		.align	2
 1933              		.global	CyXTAL_32KHZ_ReadStatus
 1934              		.thumb
 1935              		.thumb_func
 1936              		.type	CyXTAL_32KHZ_ReadStatus, %function
 1937              	CyXTAL_32KHZ_ReadStatus:
 1938              	.LFB27:
1149:./Generated_Source/PSoC5/CyLib.c **** 
1150:./Generated_Source/PSoC5/CyLib.c **** 
1151:./Generated_Source/PSoC5/CyLib.c **** /*******************************************************************************
1152:./Generated_Source/PSoC5/CyLib.c **** * Function Name: CyXTAL_32KHZ_ReadStatus
1153:./Generated_Source/PSoC5/CyLib.c **** ********************************************************************************
1154:./Generated_Source/PSoC5/CyLib.c **** * Summary:
1155:./Generated_Source/PSoC5/CyLib.c **** *   Reads the two status bits for the 32 KHz oscillator.
1156:./Generated_Source/PSoC5/CyLib.c **** *
1157:./Generated_Source/PSoC5/CyLib.c **** *
1158:./Generated_Source/PSoC5/CyLib.c **** * Parameters:
1159:./Generated_Source/PSoC5/CyLib.c **** *   None
1160:./Generated_Source/PSoC5/CyLib.c **** *
1161:./Generated_Source/PSoC5/CyLib.c **** *
1162:./Generated_Source/PSoC5/CyLib.c **** * Return:
1163:./Generated_Source/PSoC5/CyLib.c **** *   Value     Define                    Source
1164:./Generated_Source/PSoC5/CyLib.c **** *   20        CY_XTAL32K_ANA_STAT        Analog measurement   
1165:./Generated_Source/PSoC5/CyLib.c **** *                                   20: Stable
1166:./Generated_Source/PSoC5/CyLib.c **** *                                   00: Not stable
1167:./Generated_Source/PSoC5/CyLib.c **** *   10        CY_XTAL32K_DIG_STAT        Digital measurement (Requires the 33 KHz 
1168:./Generated_Source/PSoC5/CyLib.c **** *                                           ILO to make this measurement)
1169:./Generated_Source/PSoC5/CyLib.c **** *                                   10: Stable
1170:./Generated_Source/PSoC5/CyLib.c **** *                                   00: Not stable
1171:./Generated_Source/PSoC5/CyLib.c **** *
1172:./Generated_Source/PSoC5/CyLib.c **** *******************************************************************************/
1173:./Generated_Source/PSoC5/CyLib.c **** uint8 CyXTAL_32KHZ_ReadStatus() 
1174:./Generated_Source/PSoC5/CyLib.c **** {
 1939              		.loc 1 1174 0
 1940              		.cfi_startproc
 1941              		@ args = 0, pretend = 0, frame = 8
 1942              		@ frame_needed = 1, uses_anonymous_args = 0
 1943              		@ link register save eliminated.
 1944 0000 80B4     		push	{r7}
 1945              	.LCFI70:
 1946              		.cfi_def_cfa_offset 4
 1947 0002 83B0     		sub	sp, sp, #12
 1948              	.LCFI71:
 1949              		.cfi_def_cfa_offset 16
 1950 0004 00AF     		add	r7, sp, #0
 1951              		.cfi_offset 7, -4
 1952              	.LCFI72:
 1953              		.cfi_def_cfa_register 7
1175:./Generated_Source/PSoC5/CyLib.c ****     uint8 status;
1176:./Generated_Source/PSoC5/CyLib.c ****     status = SLOWCLK_X32_CR;
 1954              		.loc 1 1176 0
 1955 0006 44F20833 		movw	r3, #:lower16:1073758984
ARM GAS  C:\Users\CHARLI~1\AppData\Local\Temp\cc78mmP1.s 			page 56


 1956 000a C4F20003 		movt	r3, #:upper16:1073758984
 1957 000e 1B78     		ldrb	r3, [r3, #0]
 1958 0010 FB71     		strb	r3, [r7, #7]
1177:./Generated_Source/PSoC5/CyLib.c ****     /*
1178:./Generated_Source/PSoC5/CyLib.c ****     Bits 5:4
1179:./Generated_Source/PSoC5/CyLib.c ****     */
1180:./Generated_Source/PSoC5/CyLib.c ****     return (status & CY_XTAL32K_STAT_FIELDS);
 1959              		.loc 1 1180 0
 1960 0012 FB79     		ldrb	r3, [r7, #7]	@ zero_extendqisi2
 1961 0014 03F03003 		and	r3, r3, #48
1181:./Generated_Source/PSoC5/CyLib.c **** }
 1962              		.loc 1 1181 0
 1963 0018 1846     		mov	r0, r3
 1964 001a 07F10C07 		add	r7, r7, #12
 1965 001e BD46     		mov	sp, r7
 1966 0020 80BC     		pop	{r7}
 1967 0022 7047     		bx	lr
 1968              		.cfi_endproc
 1969              	.LFE27:
 1970              		.size	CyXTAL_32KHZ_ReadStatus, .-CyXTAL_32KHZ_ReadStatus
 1971              		.section	.text.CyXTAL_32KHZ_SetPowerMode,"ax",%progbits
 1972              		.align	2
 1973              		.global	CyXTAL_32KHZ_SetPowerMode
 1974              		.thumb
 1975              		.thumb_func
 1976              		.type	CyXTAL_32KHZ_SetPowerMode, %function
 1977              	CyXTAL_32KHZ_SetPowerMode:
 1978              	.LFB28:
1182:./Generated_Source/PSoC5/CyLib.c **** 
1183:./Generated_Source/PSoC5/CyLib.c **** 
1184:./Generated_Source/PSoC5/CyLib.c **** /*******************************************************************************
1185:./Generated_Source/PSoC5/CyLib.c **** * Function Name: CyXTAL_32KHZ_SetPowerMode
1186:./Generated_Source/PSoC5/CyLib.c **** ********************************************************************************
1187:./Generated_Source/PSoC5/CyLib.c **** * Summary:
1188:./Generated_Source/PSoC5/CyLib.c **** *   Sets the power mode for the 32 KHz oscillator used during sleep mode.  
1189:./Generated_Source/PSoC5/CyLib.c **** *   Allows for lower power during sleep when there are fewer sources of noise.  
1190:./Generated_Source/PSoC5/CyLib.c **** *   During active mode the oscillator is always run in high power mode.
1191:./Generated_Source/PSoC5/CyLib.c **** *
1192:./Generated_Source/PSoC5/CyLib.c **** * Parameters:
1193:./Generated_Source/PSoC5/CyLib.c **** *   mode
1194:./Generated_Source/PSoC5/CyLib.c **** *       0: High power mode
1195:./Generated_Source/PSoC5/CyLib.c **** *       1: Low power mode during sleep
1196:./Generated_Source/PSoC5/CyLib.c **** *
1197:./Generated_Source/PSoC5/CyLib.c **** *
1198:./Generated_Source/PSoC5/CyLib.c **** * Return:
1199:./Generated_Source/PSoC5/CyLib.c **** *   Prevous power mode.
1200:./Generated_Source/PSoC5/CyLib.c **** *
1201:./Generated_Source/PSoC5/CyLib.c **** *******************************************************************************/
1202:./Generated_Source/PSoC5/CyLib.c **** uint8 CyXTAL_32KHZ_SetPowerMode(uint8 mode) 
1203:./Generated_Source/PSoC5/CyLib.c **** {
 1979              		.loc 1 1203 0
 1980              		.cfi_startproc
 1981              		@ args = 0, pretend = 0, frame = 16
 1982              		@ frame_needed = 1, uses_anonymous_args = 0
 1983              		@ link register save eliminated.
 1984 0000 80B4     		push	{r7}
 1985              	.LCFI73:
ARM GAS  C:\Users\CHARLI~1\AppData\Local\Temp\cc78mmP1.s 			page 57


 1986              		.cfi_def_cfa_offset 4
 1987 0002 85B0     		sub	sp, sp, #20
 1988              	.LCFI74:
 1989              		.cfi_def_cfa_offset 24
 1990 0004 00AF     		add	r7, sp, #0
 1991              		.cfi_offset 7, -4
 1992              	.LCFI75:
 1993              		.cfi_def_cfa_register 7
 1994 0006 0346     		mov	r3, r0
 1995 0008 FB71     		strb	r3, [r7, #7]
1204:./Generated_Source/PSoC5/CyLib.c ****     uint8 state;
1205:./Generated_Source/PSoC5/CyLib.c **** 
1206:./Generated_Source/PSoC5/CyLib.c ****     /* Get current state. */
1207:./Generated_Source/PSoC5/CyLib.c ****     state = SLOWCLK_X32_CR;
 1996              		.loc 1 1207 0
 1997 000a 44F20833 		movw	r3, #:lower16:1073758984
 1998 000e C4F20003 		movt	r3, #:upper16:1073758984
 1999 0012 1B78     		ldrb	r3, [r3, #0]
 2000 0014 FB73     		strb	r3, [r7, #15]
1208:./Generated_Source/PSoC5/CyLib.c **** 
1209:./Generated_Source/PSoC5/CyLib.c ****     /* Set the the oscillator power mode. */
1210:./Generated_Source/PSoC5/CyLib.c ****     if(mode!=0)
 2001              		.loc 1 1210 0
 2002 0016 FB79     		ldrb	r3, [r7, #7]	@ zero_extendqisi2
 2003 0018 002B     		cmp	r3, #0
 2004 001a 09D0     		beq	.L127
1211:./Generated_Source/PSoC5/CyLib.c ****     {
1212:./Generated_Source/PSoC5/CyLib.c ****         SLOWCLK_X32_CR = (state | X32_CONTROL_LPM);
 2005              		.loc 1 1212 0
 2006 001c 44F20833 		movw	r3, #:lower16:1073758984
 2007 0020 C4F20003 		movt	r3, #:upper16:1073758984
 2008 0024 FA7B     		ldrb	r2, [r7, #15]
 2009 0026 42F00202 		orr	r2, r2, #2
 2010 002a D2B2     		uxtb	r2, r2
 2011 002c 1A70     		strb	r2, [r3, #0]
 2012 002e 07E0     		b	.L128
 2013              	.L127:
1213:./Generated_Source/PSoC5/CyLib.c ****     }
1214:./Generated_Source/PSoC5/CyLib.c ****     else
1215:./Generated_Source/PSoC5/CyLib.c ****     {
1216:./Generated_Source/PSoC5/CyLib.c ****         SLOWCLK_X32_CR = (state & ~X32_CONTROL_LPM);
 2014              		.loc 1 1216 0
 2015 0030 44F20833 		movw	r3, #:lower16:1073758984
 2016 0034 C4F20003 		movt	r3, #:upper16:1073758984
 2017 0038 FA7B     		ldrb	r2, [r7, #15]	@ zero_extendqisi2
 2018 003a 02F0FD02 		and	r2, r2, #253
 2019 003e 1A70     		strb	r2, [r3, #0]
 2020              	.L128:
1217:./Generated_Source/PSoC5/CyLib.c ****     }
1218:./Generated_Source/PSoC5/CyLib.c **** 
1219:./Generated_Source/PSoC5/CyLib.c ****     /* Return the old mode. 
1220:./Generated_Source/PSoC5/CyLib.c ****         Bit 1 position.*/
1221:./Generated_Source/PSoC5/CyLib.c ****     return ((state & X32_CONTROL_LPM) >> X32_CONTROL_LPM_POSITION);
 2021              		.loc 1 1221 0
 2022 0040 FB7B     		ldrb	r3, [r7, #15]	@ zero_extendqisi2
 2023 0042 03F00203 		and	r3, r3, #2
 2024 0046 4FEA6303 		asr	r3, r3, #1
ARM GAS  C:\Users\CHARLI~1\AppData\Local\Temp\cc78mmP1.s 			page 58


 2025 004a DBB2     		uxtb	r3, r3
1222:./Generated_Source/PSoC5/CyLib.c **** }
 2026              		.loc 1 1222 0
 2027 004c 1846     		mov	r0, r3
 2028 004e 07F11407 		add	r7, r7, #20
 2029 0052 BD46     		mov	sp, r7
 2030 0054 80BC     		pop	{r7}
 2031 0056 7047     		bx	lr
 2032              		.cfi_endproc
 2033              	.LFE28:
 2034              		.size	CyXTAL_32KHZ_SetPowerMode, .-CyXTAL_32KHZ_SetPowerMode
 2035              		.section	.text.CyXTAL_Start,"ax",%progbits
 2036              		.align	2
 2037              		.global	CyXTAL_Start
 2038              		.thumb
 2039              		.thumb_func
 2040              		.type	CyXTAL_Start, %function
 2041              	CyXTAL_Start:
 2042              	.LFB29:
1223:./Generated_Source/PSoC5/CyLib.c **** 
1224:./Generated_Source/PSoC5/CyLib.c **** 
1225:./Generated_Source/PSoC5/CyLib.c **** /*******************************************************************************
1226:./Generated_Source/PSoC5/CyLib.c **** * Function Name: CyXTAL_Start
1227:./Generated_Source/PSoC5/CyLib.c **** ********************************************************************************
1228:./Generated_Source/PSoC5/CyLib.c **** * Summary:
1229:./Generated_Source/PSoC5/CyLib.c **** *   Enables the megahertz crystal.  
1230:./Generated_Source/PSoC5/CyLib.c **** *   Waits until the XERR bit is low (no error) for a millisecond or 
1231:./Generated_Source/PSoC5/CyLib.c **** *   until the number of milliseconds specified by the wait parameter has expired.
1232:./Generated_Source/PSoC5/CyLib.c **** *
1233:./Generated_Source/PSoC5/CyLib.c **** *
1234:./Generated_Source/PSoC5/CyLib.c **** * Parameters:
1235:./Generated_Source/PSoC5/CyLib.c **** *   wait: Valid range [0-255].
1236:./Generated_Source/PSoC5/CyLib.c **** *   This is the timeout value in milliseconds.  
1237:./Generated_Source/PSoC5/CyLib.c **** *   The appropriate value is crystal specific.
1238:./Generated_Source/PSoC5/CyLib.c **** *
1239:./Generated_Source/PSoC5/CyLib.c **** *
1240:./Generated_Source/PSoC5/CyLib.c **** * Return:
1241:./Generated_Source/PSoC5/CyLib.c **** *   CYRET_SUCCESS - Completed successfully
1242:./Generated_Source/PSoC5/CyLib.c **** *   CYRET_TIMEOUT - Timeout occurred without detecting a low value on XERR..
1243:./Generated_Source/PSoC5/CyLib.c **** *
1244:./Generated_Source/PSoC5/CyLib.c **** * Side Effects and Restrictions:
1245:./Generated_Source/PSoC5/CyLib.c **** *   If wait is enabled (non-zero wait):
1246:./Generated_Source/PSoC5/CyLib.c **** *    Uses the Fast Timewheel to time the wait.  Any other use of the 
1247:./Generated_Source/PSoC5/CyLib.c **** *    Fast Timewheel will be stopped during the period of this function and 
1248:./Generated_Source/PSoC5/CyLib.c **** *    then restored.
1249:./Generated_Source/PSoC5/CyLib.c **** *    Uses the 100KHz ILO.  If not enabled, this function will enable 
1250:./Generated_Source/PSoC5/CyLib.c **** *    the 100KHz ILO for the period of this function.
1251:./Generated_Source/PSoC5/CyLib.c **** *    No changes to the setup of the ILO, Fast Timewheel, Central Timewheel or 
1252:./Generated_Source/PSoC5/CyLib.c **** *    Once Per Second interrupt may be made by interrupt routines during 
1253:./Generated_Source/PSoC5/CyLib.c **** *    the period of this function.  
1254:./Generated_Source/PSoC5/CyLib.c **** *    The current operation of the ILO, Central Timewheel and Once Per Second 
1255:./Generated_Source/PSoC5/CyLib.c **** *    interrupt are maintained during the operation of this function provided 
1256:./Generated_Source/PSoC5/CyLib.c **** *    the reading of the Power Manager Interrupt Status Register is 
1257:./Generated_Source/PSoC5/CyLib.c **** *    only done using the CyPmReadStatus() function.
1258:./Generated_Source/PSoC5/CyLib.c **** *******************************************************************************/
1259:./Generated_Source/PSoC5/CyLib.c **** cystatus CyXTAL_Start(uint8 wait) 
1260:./Generated_Source/PSoC5/CyLib.c **** {
ARM GAS  C:\Users\CHARLI~1\AppData\Local\Temp\cc78mmP1.s 			page 59


 2043              		.loc 1 1260 0
 2044              		.cfi_startproc
 2045              		@ args = 0, pretend = 0, frame = 24
 2046              		@ frame_needed = 1, uses_anonymous_args = 0
 2047 0000 80B5     		push	{r7, lr}
 2048              	.LCFI76:
 2049              		.cfi_def_cfa_offset 8
 2050 0002 86B0     		sub	sp, sp, #24
 2051              	.LCFI77:
 2052              		.cfi_def_cfa_offset 32
 2053 0004 00AF     		add	r7, sp, #0
 2054              		.cfi_offset 14, -4
 2055              		.cfi_offset 7, -8
 2056              	.LCFI78:
 2057              		.cfi_def_cfa_register 7
 2058 0006 0346     		mov	r3, r0
 2059 0008 FB71     		strb	r3, [r7, #7]
1261:./Generated_Source/PSoC5/CyLib.c ****     cystatus status = CYRET_SUCCESS;
 2060              		.loc 1 1261 0
 2061 000a 4FF00003 		mov	r3, #0
 2062 000e 3B61     		str	r3, [r7, #16]
1262:./Generated_Source/PSoC5/CyLib.c ****     uint8 pm_tw_cfg2_state = 0;
 2063              		.loc 1 1262 0
 2064 0010 4FF00003 		mov	r3, #0
 2065 0014 7B75     		strb	r3, [r7, #21]
1263:./Generated_Source/PSoC5/CyLib.c ****     uint8 pm_tw_cfg0_state = 0;
 2066              		.loc 1 1263 0
 2067 0016 4FF00003 		mov	r3, #0
 2068 001a BB75     		strb	r3, [r7, #22]
1264:./Generated_Source/PSoC5/CyLib.c ****     uint8 ilo_clock_state = 0;
 2069              		.loc 1 1264 0
 2070 001c 4FF00003 		mov	r3, #0
 2071 0020 FB75     		strb	r3, [r7, #23]
1265:./Generated_Source/PSoC5/CyLib.c ****     volatile uint8 count = 0;
 2072              		.loc 1 1265 0
 2073 0022 4FF00003 		mov	r3, #0
 2074 0026 FB73     		strb	r3, [r7, #15]
1266:./Generated_Source/PSoC5/CyLib.c ****     volatile uint8 wait_msec = wait;
 2075              		.loc 1 1266 0
 2076 0028 FB79     		ldrb	r3, [r7, #7]
 2077 002a BB73     		strb	r3, [r7, #14]
1267:./Generated_Source/PSoC5/CyLib.c **** 
1268:./Generated_Source/PSoC5/CyLib.c ****     FASTCLK_XMHZ_CSR |= XMHZ_CONTROL_ENABLE;
 2078              		.loc 1 1268 0
 2079 002c 44F21023 		movw	r3, #:lower16:1073758736
 2080 0030 C4F20003 		movt	r3, #:upper16:1073758736
 2081 0034 44F21022 		movw	r2, #:lower16:1073758736
 2082 0038 C4F20002 		movt	r2, #:upper16:1073758736
 2083 003c 1278     		ldrb	r2, [r2, #0]
 2084 003e D2B2     		uxtb	r2, r2
 2085 0040 42F00102 		orr	r2, r2, #1
 2086 0044 D2B2     		uxtb	r2, r2
 2087 0046 1A70     		strb	r2, [r3, #0]
1269:./Generated_Source/PSoC5/CyLib.c ****     
1270:./Generated_Source/PSoC5/CyLib.c ****     if(wait > 0) 
 2088              		.loc 1 1270 0
 2089 0048 FB79     		ldrb	r3, [r7, #7]	@ zero_extendqisi2
ARM GAS  C:\Users\CHARLI~1\AppData\Local\Temp\cc78mmP1.s 			page 60


 2090 004a 002B     		cmp	r3, #0
 2091 004c 65D0     		beq	.L142
1271:./Generated_Source/PSoC5/CyLib.c ****     {
1272:./Generated_Source/PSoC5/CyLib.c ****         /*    Need to turn on the 100KHz ILO if it happens to not already be running.*/
1273:./Generated_Source/PSoC5/CyLib.c ****         ilo_clock_state = SLOWCLK_ILO_CR0;
 2092              		.loc 1 1273 0
 2093 004e 44F20033 		movw	r3, #:lower16:1073758976
 2094 0052 C4F20003 		movt	r3, #:upper16:1073758976
 2095 0056 1B78     		ldrb	r3, [r3, #0]
 2096 0058 FB75     		strb	r3, [r7, #23]
1274:./Generated_Source/PSoC5/CyLib.c ****         if(!(ilo_clock_state & ILO_CONTROL_100KHZ_ON))
 2097              		.loc 1 1274 0
 2098 005a FB7D     		ldrb	r3, [r7, #23]	@ zero_extendqisi2
 2099 005c 03F00403 		and	r3, r3, #4
 2100 0060 002B     		cmp	r3, #0
 2101 0062 01D1     		bne	.L132
1275:./Generated_Source/PSoC5/CyLib.c ****         {
1276:./Generated_Source/PSoC5/CyLib.c ****             CyILO_Start100K();
 2102              		.loc 1 1276 0
 2103 0064 FFF7FEFF 		bl	CyILO_Start100K
 2104              	.L132:
1277:./Generated_Source/PSoC5/CyLib.c ****         }
1278:./Generated_Source/PSoC5/CyLib.c ****         status = CYRET_TIMEOUT;
 2105              		.loc 1 1278 0
 2106 0068 4FF01003 		mov	r3, #16
 2107 006c 3B61     		str	r3, [r7, #16]
1279:./Generated_Source/PSoC5/CyLib.c ****         
1280:./Generated_Source/PSoC5/CyLib.c ****         /*Store the value*/
1281:./Generated_Source/PSoC5/CyLib.c ****         pm_tw_cfg2_state = PM_TW_CFG2;
 2108              		.loc 1 1281 0
 2109 006e 44F28233 		movw	r3, #:lower16:1073759106
 2110 0072 C4F20003 		movt	r3, #:upper16:1073759106
 2111 0076 1B78     		ldrb	r3, [r3, #0]
 2112 0078 7B75     		strb	r3, [r7, #21]
1282:./Generated_Source/PSoC5/CyLib.c ****         pm_tw_cfg0_state = PM_TW_CFG0;
 2113              		.loc 1 1282 0
 2114 007a 44F28033 		movw	r3, #:lower16:1073759104
 2115 007e C4F20003 		movt	r3, #:upper16:1073759104
 2116 0082 1B78     		ldrb	r3, [r3, #0]
 2117 0084 BB75     		strb	r3, [r7, #22]
1283:./Generated_Source/PSoC5/CyLib.c **** 
1284:./Generated_Source/PSoC5/CyLib.c ****         /* FTW_EN (bit 0) must be clear to change the period*/
1285:./Generated_Source/PSoC5/CyLib.c ****         PM_TW_CFG2 &= FTW_CLEAR_FTW_BITS;
 2118              		.loc 1 1285 0
 2119 0086 44F28233 		movw	r3, #:lower16:1073759106
 2120 008a C4F20003 		movt	r3, #:upper16:1073759106
 2121 008e 44F28232 		movw	r2, #:lower16:1073759106
 2122 0092 C4F20002 		movt	r2, #:upper16:1073759106
 2123 0096 1278     		ldrb	r2, [r2, #0]
 2124 0098 D2B2     		uxtb	r2, r2
 2125 009a 02F0FC02 		and	r2, r2, #252
 2126 009e 1A70     		strb	r2, [r3, #0]
1286:./Generated_Source/PSoC5/CyLib.c ****         
1287:./Generated_Source/PSoC5/CyLib.c ****         /* Set the FTW interval of 25 100KHz ILO clocks
1288:./Generated_Source/PSoC5/CyLib.c ****         Should result in status getting set at a (100/25)KHz rate*/
1289:./Generated_Source/PSoC5/CyLib.c ****         PM_TW_CFG0 = 25-1;
 2127              		.loc 1 1289 0
ARM GAS  C:\Users\CHARLI~1\AppData\Local\Temp\cc78mmP1.s 			page 61


 2128 00a0 44F28033 		movw	r3, #:lower16:1073759104
 2129 00a4 C4F20003 		movt	r3, #:upper16:1073759104
 2130 00a8 4FF01802 		mov	r2, #24
 2131 00ac 1A70     		strb	r2, [r3, #0]
1290:./Generated_Source/PSoC5/CyLib.c ****         /* Enable FTW, but not the interrupt*/
1291:./Generated_Source/PSoC5/CyLib.c ****         PM_TW_CFG2 = FTW_ENABLE;
 2132              		.loc 1 1291 0
 2133 00ae 44F28233 		movw	r3, #:lower16:1073759106
 2134 00b2 C4F20003 		movt	r3, #:upper16:1073759106
 2135 00b6 4FF00102 		mov	r2, #1
 2136 00ba 1A70     		strb	r2, [r3, #0]
1292:./Generated_Source/PSoC5/CyLib.c ****     }
1293:./Generated_Source/PSoC5/CyLib.c ****     
1294:./Generated_Source/PSoC5/CyLib.c ****     for(; wait_msec > 0; wait_msec--)
 2137              		.loc 1 1294 0
 2138 00bc 2EE0     		b	.L133
 2139              	.L138:
1295:./Generated_Source/PSoC5/CyLib.c ****     {
1296:./Generated_Source/PSoC5/CyLib.c ****         /*read XERR bit to clear it */
1297:./Generated_Source/PSoC5/CyLib.c ****         FASTCLK_XMHZ_CSR;
 2140              		.loc 1 1297 0
 2141 00be 44F21023 		movw	r3, #:lower16:1073758736
 2142 00c2 C4F20003 		movt	r3, #:upper16:1073758736
 2143 00c6 1B78     		ldrb	r3, [r3, #0]
1298:./Generated_Source/PSoC5/CyLib.c ****         
1299:./Generated_Source/PSoC5/CyLib.c ****         /*wait for milliseconds.. 4 times 250uS delay*/
1300:./Generated_Source/PSoC5/CyLib.c ****         for(count = 4; count > 0; count --)
 2144              		.loc 1 1300 0
 2145 00c8 4FF00403 		mov	r3, #4
 2146 00cc FB73     		strb	r3, [r7, #15]
 2147 00ce 0CE0     		b	.L134
 2148              	.L135:
1301:./Generated_Source/PSoC5/CyLib.c ****         {
1302:./Generated_Source/PSoC5/CyLib.c ****             /*CyPmReadStatus()*/
1303:./Generated_Source/PSoC5/CyLib.c ****             while (CyPmReadStatus(1) == 0)
 2149              		.loc 1 1303 0
 2150 00d0 4FF00100 		mov	r0, #1
 2151 00d4 FFF7FEFF 		bl	CyPmReadStatus
 2152 00d8 0346     		mov	r3, r0
 2153 00da 002B     		cmp	r3, #0
 2154 00dc F8D0     		beq	.L135
 2155              		.loc 1 1300 0
 2156 00de FB7B     		ldrb	r3, [r7, #15]
 2157 00e0 DBB2     		uxtb	r3, r3
 2158 00e2 03F1FF33 		add	r3, r3, #-1
 2159 00e6 DBB2     		uxtb	r3, r3
 2160 00e8 FB73     		strb	r3, [r7, #15]
 2161              	.L134:
 2162 00ea FB7B     		ldrb	r3, [r7, #15]
 2163 00ec DBB2     		uxtb	r3, r3
 2164 00ee 002B     		cmp	r3, #0
 2165 00f0 EED1     		bne	.L135
1304:./Generated_Source/PSoC5/CyLib.c ****             {
1305:./Generated_Source/PSoC5/CyLib.c ****                 /* Wait for the interrupt status*/
1306:./Generated_Source/PSoC5/CyLib.c ****             }            
1307:./Generated_Source/PSoC5/CyLib.c ****         } /* end of for(count = 4; count > 0; count --)*/
1308:./Generated_Source/PSoC5/CyLib.c ****         /*High output indicates oscillator failure. 
ARM GAS  C:\Users\CHARLI~1\AppData\Local\Temp\cc78mmP1.s 			page 62


1309:./Generated_Source/PSoC5/CyLib.c ****         Only use this after start-up interval is completed (1ms).*/
1310:./Generated_Source/PSoC5/CyLib.c ****         if ((FASTCLK_XMHZ_CSR & X32_CONTROL_XERR_MASK) == 0) 
 2166              		.loc 1 1310 0
 2167 00f2 44F21023 		movw	r3, #:lower16:1073758736
 2168 00f6 C4F20003 		movt	r3, #:upper16:1073758736
 2169 00fa 1B78     		ldrb	r3, [r3, #0]
 2170 00fc DBB2     		uxtb	r3, r3
 2171 00fe 5BB2     		sxtb	r3, r3
 2172 0100 002B     		cmp	r3, #0
 2173 0102 03DB     		blt	.L136
1311:./Generated_Source/PSoC5/CyLib.c ****         {
1312:./Generated_Source/PSoC5/CyLib.c ****             status = CYRET_SUCCESS;
 2174              		.loc 1 1312 0
 2175 0104 4FF00003 		mov	r3, #0
 2176 0108 3B61     		str	r3, [r7, #16]
1313:./Generated_Source/PSoC5/CyLib.c ****             break;
 2177              		.loc 1 1313 0
 2178 010a 0BE0     		b	.L137
 2179              	.L136:
 2180              		.loc 1 1294 0
 2181 010c BB7B     		ldrb	r3, [r7, #14]
 2182 010e DBB2     		uxtb	r3, r3
 2183 0110 03F1FF33 		add	r3, r3, #-1
 2184 0114 DBB2     		uxtb	r3, r3
 2185 0116 BB73     		strb	r3, [r7, #14]
 2186 0118 00E0     		b	.L133
 2187              	.L142:
 2188 011a 00BF     		nop
 2189              	.L133:
 2190 011c BB7B     		ldrb	r3, [r7, #14]
 2191 011e DBB2     		uxtb	r3, r3
 2192 0120 002B     		cmp	r3, #0
 2193 0122 CCD1     		bne	.L138
 2194              	.L137:
1314:./Generated_Source/PSoC5/CyLib.c ****         }
1315:./Generated_Source/PSoC5/CyLib.c ****     } /* end for(; wait_msec > 0; wait_msec--) */
1316:./Generated_Source/PSoC5/CyLib.c **** 
1317:./Generated_Source/PSoC5/CyLib.c ****     if(wait > 0)
 2195              		.loc 1 1317 0
 2196 0124 FB79     		ldrb	r3, [r7, #7]	@ zero_extendqisi2
 2197 0126 002B     		cmp	r3, #0
 2198 0128 12D0     		beq	.L139
1318:./Generated_Source/PSoC5/CyLib.c ****     {
1319:./Generated_Source/PSoC5/CyLib.c ****         if (!(ilo_clock_state & ILO_CONTROL_100KHZ_ON))
 2199              		.loc 1 1319 0
 2200 012a FB7D     		ldrb	r3, [r7, #23]	@ zero_extendqisi2
 2201 012c 03F00403 		and	r3, r3, #4
 2202 0130 002B     		cmp	r3, #0
 2203 0132 01D1     		bne	.L140
1320:./Generated_Source/PSoC5/CyLib.c ****         {
1321:./Generated_Source/PSoC5/CyLib.c ****             /*reset the clock */
1322:./Generated_Source/PSoC5/CyLib.c ****             CyILO_Stop100K();
 2204              		.loc 1 1322 0
 2205 0134 FFF7FEFF 		bl	CyILO_Stop100K
 2206              	.L140:
1323:./Generated_Source/PSoC5/CyLib.c ****         }
1324:./Generated_Source/PSoC5/CyLib.c **** 
ARM GAS  C:\Users\CHARLI~1\AppData\Local\Temp\cc78mmP1.s 			page 63


1325:./Generated_Source/PSoC5/CyLib.c ****         /*restore the FTW*/
1326:./Generated_Source/PSoC5/CyLib.c ****         PM_TW_CFG0 = pm_tw_cfg0_state;
 2207              		.loc 1 1326 0
 2208 0138 44F28033 		movw	r3, #:lower16:1073759104
 2209 013c C4F20003 		movt	r3, #:upper16:1073759104
 2210 0140 BA7D     		ldrb	r2, [r7, #22]
 2211 0142 1A70     		strb	r2, [r3, #0]
1327:./Generated_Source/PSoC5/CyLib.c ****         PM_TW_CFG2 = pm_tw_cfg2_state;
 2212              		.loc 1 1327 0
 2213 0144 44F28233 		movw	r3, #:lower16:1073759106
 2214 0148 C4F20003 		movt	r3, #:upper16:1073759106
 2215 014c 7A7D     		ldrb	r2, [r7, #21]
 2216 014e 1A70     		strb	r2, [r3, #0]
 2217              	.L139:
1328:./Generated_Source/PSoC5/CyLib.c ****     }
1329:./Generated_Source/PSoC5/CyLib.c ****     
1330:./Generated_Source/PSoC5/CyLib.c ****     return status;
 2218              		.loc 1 1330 0
 2219 0150 3B69     		ldr	r3, [r7, #16]
1331:./Generated_Source/PSoC5/CyLib.c **** }
 2220              		.loc 1 1331 0
 2221 0152 1846     		mov	r0, r3
 2222 0154 07F11807 		add	r7, r7, #24
 2223 0158 BD46     		mov	sp, r7
 2224 015a 80BD     		pop	{r7, pc}
 2225              		.cfi_endproc
 2226              	.LFE29:
 2227              		.size	CyXTAL_Start, .-CyXTAL_Start
 2228              		.section	.text.CyXTAL_Stop,"ax",%progbits
 2229              		.align	2
 2230              		.global	CyXTAL_Stop
 2231              		.thumb
 2232              		.thumb_func
 2233              		.type	CyXTAL_Stop, %function
 2234              	CyXTAL_Stop:
 2235              	.LFB30:
1332:./Generated_Source/PSoC5/CyLib.c **** 
1333:./Generated_Source/PSoC5/CyLib.c **** 
1334:./Generated_Source/PSoC5/CyLib.c **** /*******************************************************************************
1335:./Generated_Source/PSoC5/CyLib.c **** * Function Name: CyXTAL_Stop
1336:./Generated_Source/PSoC5/CyLib.c **** ********************************************************************************
1337:./Generated_Source/PSoC5/CyLib.c **** * Summary:
1338:./Generated_Source/PSoC5/CyLib.c **** *   Disables the megahertz crystal oscillator.
1339:./Generated_Source/PSoC5/CyLib.c **** *
1340:./Generated_Source/PSoC5/CyLib.c **** *
1341:./Generated_Source/PSoC5/CyLib.c **** * Parameters:
1342:./Generated_Source/PSoC5/CyLib.c **** *   void.
1343:./Generated_Source/PSoC5/CyLib.c **** *
1344:./Generated_Source/PSoC5/CyLib.c **** *
1345:./Generated_Source/PSoC5/CyLib.c **** * Return:
1346:./Generated_Source/PSoC5/CyLib.c **** *   void.
1347:./Generated_Source/PSoC5/CyLib.c **** *
1348:./Generated_Source/PSoC5/CyLib.c **** *******************************************************************************/
1349:./Generated_Source/PSoC5/CyLib.c **** void CyXTAL_Stop(void) 
1350:./Generated_Source/PSoC5/CyLib.c **** {
 2236              		.loc 1 1350 0
 2237              		.cfi_startproc
ARM GAS  C:\Users\CHARLI~1\AppData\Local\Temp\cc78mmP1.s 			page 64


 2238              		@ args = 0, pretend = 0, frame = 0
 2239              		@ frame_needed = 1, uses_anonymous_args = 0
 2240              		@ link register save eliminated.
 2241 0000 80B4     		push	{r7}
 2242              	.LCFI79:
 2243              		.cfi_def_cfa_offset 4
 2244 0002 00AF     		add	r7, sp, #0
 2245              		.cfi_offset 7, -4
 2246              	.LCFI80:
 2247              		.cfi_def_cfa_register 7
1351:./Generated_Source/PSoC5/CyLib.c ****     /* Disable the the oscillator. */
1352:./Generated_Source/PSoC5/CyLib.c ****     FASTCLK_XMHZ_CSR &= ~XMHZ_CONTROL_ENABLE;
 2248              		.loc 1 1352 0
 2249 0004 44F21023 		movw	r3, #:lower16:1073758736
 2250 0008 C4F20003 		movt	r3, #:upper16:1073758736
 2251 000c 44F21022 		movw	r2, #:lower16:1073758736
 2252 0010 C4F20002 		movt	r2, #:upper16:1073758736
 2253 0014 1278     		ldrb	r2, [r2, #0]
 2254 0016 D2B2     		uxtb	r2, r2
 2255 0018 02F0FE02 		and	r2, r2, #254
 2256 001c 1A70     		strb	r2, [r3, #0]
1353:./Generated_Source/PSoC5/CyLib.c **** }
 2257              		.loc 1 1353 0
 2258 001e BD46     		mov	sp, r7
 2259 0020 80BC     		pop	{r7}
 2260 0022 7047     		bx	lr
 2261              		.cfi_endproc
 2262              	.LFE30:
 2263              		.size	CyXTAL_Stop, .-CyXTAL_Stop
 2264              		.section	.text.CyXTAL_EnableErrStatus,"ax",%progbits
 2265              		.align	2
 2266              		.global	CyXTAL_EnableErrStatus
 2267              		.thumb
 2268              		.thumb_func
 2269              		.type	CyXTAL_EnableErrStatus, %function
 2270              	CyXTAL_EnableErrStatus:
 2271              	.LFB31:
1354:./Generated_Source/PSoC5/CyLib.c **** 
1355:./Generated_Source/PSoC5/CyLib.c **** 
1356:./Generated_Source/PSoC5/CyLib.c **** /*******************************************************************************
1357:./Generated_Source/PSoC5/CyLib.c **** * Function Name: CyXTAL_EnableErrStatus
1358:./Generated_Source/PSoC5/CyLib.c **** ********************************************************************************
1359:./Generated_Source/PSoC5/CyLib.c **** * Summary:
1360:./Generated_Source/PSoC5/CyLib.c **** *    Enables the generation of the XERR status bit for the megahertz crystal.
1361:./Generated_Source/PSoC5/CyLib.c **** *
1362:./Generated_Source/PSoC5/CyLib.c **** *
1363:./Generated_Source/PSoC5/CyLib.c **** * Parameters:
1364:./Generated_Source/PSoC5/CyLib.c **** *   void.
1365:./Generated_Source/PSoC5/CyLib.c **** *
1366:./Generated_Source/PSoC5/CyLib.c **** *
1367:./Generated_Source/PSoC5/CyLib.c **** * Return:
1368:./Generated_Source/PSoC5/CyLib.c **** *   void.
1369:./Generated_Source/PSoC5/CyLib.c **** *
1370:./Generated_Source/PSoC5/CyLib.c **** *******************************************************************************/
1371:./Generated_Source/PSoC5/CyLib.c **** void CyXTAL_EnableErrStatus(void) 
1372:./Generated_Source/PSoC5/CyLib.c **** {
 2272              		.loc 1 1372 0
ARM GAS  C:\Users\CHARLI~1\AppData\Local\Temp\cc78mmP1.s 			page 65


 2273              		.cfi_startproc
 2274              		@ args = 0, pretend = 0, frame = 0
 2275              		@ frame_needed = 1, uses_anonymous_args = 0
 2276              		@ link register save eliminated.
 2277 0000 80B4     		push	{r7}
 2278              	.LCFI81:
 2279              		.cfi_def_cfa_offset 4
 2280 0002 00AF     		add	r7, sp, #0
 2281              		.cfi_offset 7, -4
 2282              	.LCFI82:
 2283              		.cfi_def_cfa_register 7
1373:./Generated_Source/PSoC5/CyLib.c ****     /*1'b0      XFB_DIS_0      enabled. If oscillator has insufficient amplitude, XERR bit will be 
1374:./Generated_Source/PSoC5/CyLib.c ****     FASTCLK_XMHZ_CSR &= ~X32_CONTROL_XERR_DIS;
 2284              		.loc 1 1374 0
 2285 0004 44F21023 		movw	r3, #:lower16:1073758736
 2286 0008 C4F20003 		movt	r3, #:upper16:1073758736
 2287 000c 44F21022 		movw	r2, #:lower16:1073758736
 2288 0010 C4F20002 		movt	r2, #:upper16:1073758736
 2289 0014 1278     		ldrb	r2, [r2, #0]
 2290 0016 D2B2     		uxtb	r2, r2
 2291 0018 02F0FB02 		and	r2, r2, #251
 2292 001c 1A70     		strb	r2, [r3, #0]
1375:./Generated_Source/PSoC5/CyLib.c **** }
 2293              		.loc 1 1375 0
 2294 001e BD46     		mov	sp, r7
 2295 0020 80BC     		pop	{r7}
 2296 0022 7047     		bx	lr
 2297              		.cfi_endproc
 2298              	.LFE31:
 2299              		.size	CyXTAL_EnableErrStatus, .-CyXTAL_EnableErrStatus
 2300              		.section	.text.CyXTAL_DisableErrStatus,"ax",%progbits
 2301              		.align	2
 2302              		.global	CyXTAL_DisableErrStatus
 2303              		.thumb
 2304              		.thumb_func
 2305              		.type	CyXTAL_DisableErrStatus, %function
 2306              	CyXTAL_DisableErrStatus:
 2307              	.LFB32:
1376:./Generated_Source/PSoC5/CyLib.c **** 
1377:./Generated_Source/PSoC5/CyLib.c **** 
1378:./Generated_Source/PSoC5/CyLib.c **** /*******************************************************************************
1379:./Generated_Source/PSoC5/CyLib.c **** * Function Name: CyXTAL_DisableErrStatus
1380:./Generated_Source/PSoC5/CyLib.c **** ********************************************************************************
1381:./Generated_Source/PSoC5/CyLib.c **** * Summary:
1382:./Generated_Source/PSoC5/CyLib.c **** *    Disables the generation of the XERR status bit for the megahertz crystal..
1383:./Generated_Source/PSoC5/CyLib.c **** *
1384:./Generated_Source/PSoC5/CyLib.c **** *
1385:./Generated_Source/PSoC5/CyLib.c **** * Parameters:
1386:./Generated_Source/PSoC5/CyLib.c **** *   void.
1387:./Generated_Source/PSoC5/CyLib.c **** *
1388:./Generated_Source/PSoC5/CyLib.c **** *
1389:./Generated_Source/PSoC5/CyLib.c **** * Return:
1390:./Generated_Source/PSoC5/CyLib.c **** *   void.
1391:./Generated_Source/PSoC5/CyLib.c **** *
1392:./Generated_Source/PSoC5/CyLib.c **** *******************************************************************************/
1393:./Generated_Source/PSoC5/CyLib.c **** void CyXTAL_DisableErrStatus(void) 
1394:./Generated_Source/PSoC5/CyLib.c **** {
ARM GAS  C:\Users\CHARLI~1\AppData\Local\Temp\cc78mmP1.s 			page 66


 2308              		.loc 1 1394 0
 2309              		.cfi_startproc
 2310              		@ args = 0, pretend = 0, frame = 0
 2311              		@ frame_needed = 1, uses_anonymous_args = 0
 2312              		@ link register save eliminated.
 2313 0000 80B4     		push	{r7}
 2314              	.LCFI83:
 2315              		.cfi_def_cfa_offset 4
 2316 0002 00AF     		add	r7, sp, #0
 2317              		.cfi_offset 7, -4
 2318              	.LCFI84:
 2319              		.cfi_def_cfa_register 7
1395:./Generated_Source/PSoC5/CyLib.c ****     /*1'b0      XFB_DIS_0      enabled. If oscillator has insufficient amplitude, XERR bit will be 
1396:./Generated_Source/PSoC5/CyLib.c ****     FASTCLK_XMHZ_CSR |= X32_CONTROL_XERR_DIS;
 2320              		.loc 1 1396 0
 2321 0004 44F21023 		movw	r3, #:lower16:1073758736
 2322 0008 C4F20003 		movt	r3, #:upper16:1073758736
 2323 000c 44F21022 		movw	r2, #:lower16:1073758736
 2324 0010 C4F20002 		movt	r2, #:upper16:1073758736
 2325 0014 1278     		ldrb	r2, [r2, #0]
 2326 0016 D2B2     		uxtb	r2, r2
 2327 0018 42F00402 		orr	r2, r2, #4
 2328 001c D2B2     		uxtb	r2, r2
 2329 001e 1A70     		strb	r2, [r3, #0]
1397:./Generated_Source/PSoC5/CyLib.c **** }
 2330              		.loc 1 1397 0
 2331 0020 BD46     		mov	sp, r7
 2332 0022 80BC     		pop	{r7}
 2333 0024 7047     		bx	lr
 2334              		.cfi_endproc
 2335              	.LFE32:
 2336              		.size	CyXTAL_DisableErrStatus, .-CyXTAL_DisableErrStatus
 2337 0026 00BF     		.section	.text.CyXTAL_ReadStatus,"ax",%progbits
 2338              		.align	2
 2339              		.global	CyXTAL_ReadStatus
 2340              		.thumb
 2341              		.thumb_func
 2342              		.type	CyXTAL_ReadStatus, %function
 2343              	CyXTAL_ReadStatus:
 2344              	.LFB33:
1398:./Generated_Source/PSoC5/CyLib.c **** 
1399:./Generated_Source/PSoC5/CyLib.c **** 
1400:./Generated_Source/PSoC5/CyLib.c **** /*******************************************************************************
1401:./Generated_Source/PSoC5/CyLib.c **** * Function Name: CyXTAL_ReadStatus
1402:./Generated_Source/PSoC5/CyLib.c **** ********************************************************************************
1403:./Generated_Source/PSoC5/CyLib.c **** * Summary:
1404:./Generated_Source/PSoC5/CyLib.c **** *    Reads the XERR status bit for the megahertz crystal.  
1405:./Generated_Source/PSoC5/CyLib.c **** *    This status bit is a sticky clear on read value.
1406:./Generated_Source/PSoC5/CyLib.c **** *
1407:./Generated_Source/PSoC5/CyLib.c **** *
1408:./Generated_Source/PSoC5/CyLib.c **** * Parameters:
1409:./Generated_Source/PSoC5/CyLib.c **** *   void.
1410:./Generated_Source/PSoC5/CyLib.c **** *
1411:./Generated_Source/PSoC5/CyLib.c **** *
1412:./Generated_Source/PSoC5/CyLib.c **** * Return:
1413:./Generated_Source/PSoC5/CyLib.c **** *   Status
1414:./Generated_Source/PSoC5/CyLib.c **** *    0: No error
ARM GAS  C:\Users\CHARLI~1\AppData\Local\Temp\cc78mmP1.s 			page 67


1415:./Generated_Source/PSoC5/CyLib.c **** *    1: Error.
1416:./Generated_Source/PSoC5/CyLib.c **** *
1417:./Generated_Source/PSoC5/CyLib.c **** *******************************************************************************/
1418:./Generated_Source/PSoC5/CyLib.c **** uint8 CyXTAL_ReadStatus(void) 
1419:./Generated_Source/PSoC5/CyLib.c **** {
 2345              		.loc 1 1419 0
 2346              		.cfi_startproc
 2347              		@ args = 0, pretend = 0, frame = 0
 2348              		@ frame_needed = 1, uses_anonymous_args = 0
 2349              		@ link register save eliminated.
 2350 0000 80B4     		push	{r7}
 2351              	.LCFI85:
 2352              		.cfi_def_cfa_offset 4
 2353 0002 00AF     		add	r7, sp, #0
 2354              		.cfi_offset 7, -4
 2355              	.LCFI86:
 2356              		.cfi_def_cfa_register 7
1420:./Generated_Source/PSoC5/CyLib.c ****     /*Bits      Name      Description
1421:./Generated_Source/PSoC5/CyLib.c ****         7         xerr     High output indicates oscillator failure. 
1422:./Generated_Source/PSoC5/CyLib.c ****     Only use this after start-up interval is completed. This can be used for 
1423:./Generated_Source/PSoC5/CyLib.c ****     status and failure recovery.
1424:./Generated_Source/PSoC5/CyLib.c ****     */
1425:./Generated_Source/PSoC5/CyLib.c ****     return ((FASTCLK_XMHZ_CSR & X32_CONTROL_XERR_MASK) >> X32_CONTROL_XERR_POSITION);
 2357              		.loc 1 1425 0
 2358 0004 44F21023 		movw	r3, #:lower16:1073758736
 2359 0008 C4F20003 		movt	r3, #:upper16:1073758736
 2360 000c 1B78     		ldrb	r3, [r3, #0]
 2361 000e DBB2     		uxtb	r3, r3
 2362 0010 4FEAD313 		lsr	r3, r3, #7
 2363 0014 DBB2     		uxtb	r3, r3
1426:./Generated_Source/PSoC5/CyLib.c **** }
 2364              		.loc 1 1426 0
 2365 0016 1846     		mov	r0, r3
 2366 0018 BD46     		mov	sp, r7
 2367 001a 80BC     		pop	{r7}
 2368 001c 7047     		bx	lr
 2369              		.cfi_endproc
 2370              	.LFE33:
 2371              		.size	CyXTAL_ReadStatus, .-CyXTAL_ReadStatus
 2372 001e 00BF     		.section	.text.CyXTAL_EnableFaultRecovery,"ax",%progbits
 2373              		.align	2
 2374              		.global	CyXTAL_EnableFaultRecovery
 2375              		.thumb
 2376              		.thumb_func
 2377              		.type	CyXTAL_EnableFaultRecovery, %function
 2378              	CyXTAL_EnableFaultRecovery:
 2379              	.LFB34:
1427:./Generated_Source/PSoC5/CyLib.c **** 
1428:./Generated_Source/PSoC5/CyLib.c **** 
1429:./Generated_Source/PSoC5/CyLib.c **** /*******************************************************************************
1430:./Generated_Source/PSoC5/CyLib.c **** * Function Name: CyXTAL_EnableFaultRecovery
1431:./Generated_Source/PSoC5/CyLib.c **** ********************************************************************************
1432:./Generated_Source/PSoC5/CyLib.c **** * Summary:
1433:./Generated_Source/PSoC5/CyLib.c **** *    Enables the fault recovery circuit which will switch to the IMO 
1434:./Generated_Source/PSoC5/CyLib.c **** *    in the case of a fault in the megahertz crystal circuit.  
1435:./Generated_Source/PSoC5/CyLib.c **** *    The crystal must be up and running with the XERR bit at 0, 
1436:./Generated_Source/PSoC5/CyLib.c **** *    before calling this function to prevent immediate fault switchover.
ARM GAS  C:\Users\CHARLI~1\AppData\Local\Temp\cc78mmP1.s 			page 68


1437:./Generated_Source/PSoC5/CyLib.c **** *
1438:./Generated_Source/PSoC5/CyLib.c **** *
1439:./Generated_Source/PSoC5/CyLib.c **** * Parameters:
1440:./Generated_Source/PSoC5/CyLib.c **** *   void.
1441:./Generated_Source/PSoC5/CyLib.c **** *
1442:./Generated_Source/PSoC5/CyLib.c **** *
1443:./Generated_Source/PSoC5/CyLib.c **** * Return:
1444:./Generated_Source/PSoC5/CyLib.c **** *   void.
1445:./Generated_Source/PSoC5/CyLib.c **** *
1446:./Generated_Source/PSoC5/CyLib.c **** *******************************************************************************/
1447:./Generated_Source/PSoC5/CyLib.c **** void CyXTAL_EnableFaultRecovery(void) 
1448:./Generated_Source/PSoC5/CyLib.c **** {
 2380              		.loc 1 1448 0
 2381              		.cfi_startproc
 2382              		@ args = 0, pretend = 0, frame = 0
 2383              		@ frame_needed = 1, uses_anonymous_args = 0
 2384              		@ link register save eliminated.
 2385 0000 80B4     		push	{r7}
 2386              	.LCFI87:
 2387              		.cfi_def_cfa_offset 4
 2388 0002 00AF     		add	r7, sp, #0
 2389              		.cfi_offset 7, -4
 2390              	.LCFI88:
 2391              		.cfi_def_cfa_register 7
1449:./Generated_Source/PSoC5/CyLib.c ****     /*6th bit       xprot of FASTCLK_XMHZ_CSR 
1450:./Generated_Source/PSoC5/CyLib.c ****     */
1451:./Generated_Source/PSoC5/CyLib.c ****     FASTCLK_XMHZ_CSR |= X32_CONTROL_FAULT_RECOVER;
 2392              		.loc 1 1451 0
 2393 0004 44F21023 		movw	r3, #:lower16:1073758736
 2394 0008 C4F20003 		movt	r3, #:upper16:1073758736
 2395 000c 44F21022 		movw	r2, #:lower16:1073758736
 2396 0010 C4F20002 		movt	r2, #:upper16:1073758736
 2397 0014 1278     		ldrb	r2, [r2, #0]
 2398 0016 D2B2     		uxtb	r2, r2
 2399 0018 42F04002 		orr	r2, r2, #64
 2400 001c D2B2     		uxtb	r2, r2
 2401 001e 1A70     		strb	r2, [r3, #0]
1452:./Generated_Source/PSoC5/CyLib.c **** }
 2402              		.loc 1 1452 0
 2403 0020 BD46     		mov	sp, r7
 2404 0022 80BC     		pop	{r7}
 2405 0024 7047     		bx	lr
 2406              		.cfi_endproc
 2407              	.LFE34:
 2408              		.size	CyXTAL_EnableFaultRecovery, .-CyXTAL_EnableFaultRecovery
 2409 0026 00BF     		.section	.text.CyXTAL_DisableFaultRecovery,"ax",%progbits
 2410              		.align	2
 2411              		.global	CyXTAL_DisableFaultRecovery
 2412              		.thumb
 2413              		.thumb_func
 2414              		.type	CyXTAL_DisableFaultRecovery, %function
 2415              	CyXTAL_DisableFaultRecovery:
 2416              	.LFB35:
1453:./Generated_Source/PSoC5/CyLib.c **** 
1454:./Generated_Source/PSoC5/CyLib.c **** 
1455:./Generated_Source/PSoC5/CyLib.c **** /*******************************************************************************
1456:./Generated_Source/PSoC5/CyLib.c **** * Function Name: CyXTAL_DisableFaultRecovery
ARM GAS  C:\Users\CHARLI~1\AppData\Local\Temp\cc78mmP1.s 			page 69


1457:./Generated_Source/PSoC5/CyLib.c **** ********************************************************************************
1458:./Generated_Source/PSoC5/CyLib.c **** * Summary:
1459:./Generated_Source/PSoC5/CyLib.c **** *    Disables the fault recovery circuit which will switch to the IMO 
1460:./Generated_Source/PSoC5/CyLib.c **** *     in the case of a fault in the megahertz crystal circuit.
1461:./Generated_Source/PSoC5/CyLib.c **** *
1462:./Generated_Source/PSoC5/CyLib.c **** *
1463:./Generated_Source/PSoC5/CyLib.c **** * Parameters:
1464:./Generated_Source/PSoC5/CyLib.c **** *   void.
1465:./Generated_Source/PSoC5/CyLib.c **** *
1466:./Generated_Source/PSoC5/CyLib.c **** *
1467:./Generated_Source/PSoC5/CyLib.c **** * Return:
1468:./Generated_Source/PSoC5/CyLib.c **** *   void.
1469:./Generated_Source/PSoC5/CyLib.c **** *
1470:./Generated_Source/PSoC5/CyLib.c **** *******************************************************************************/
1471:./Generated_Source/PSoC5/CyLib.c **** void CyXTAL_DisableFaultRecovery(void) 
1472:./Generated_Source/PSoC5/CyLib.c **** {
 2417              		.loc 1 1472 0
 2418              		.cfi_startproc
 2419              		@ args = 0, pretend = 0, frame = 0
 2420              		@ frame_needed = 1, uses_anonymous_args = 0
 2421              		@ link register save eliminated.
 2422 0000 80B4     		push	{r7}
 2423              	.LCFI89:
 2424              		.cfi_def_cfa_offset 4
 2425 0002 00AF     		add	r7, sp, #0
 2426              		.cfi_offset 7, -4
 2427              	.LCFI90:
 2428              		.cfi_def_cfa_register 7
1473:./Generated_Source/PSoC5/CyLib.c ****     /*6th bit       xprot of FASTCLK_XMHZ_CSR 
1474:./Generated_Source/PSoC5/CyLib.c ****     */
1475:./Generated_Source/PSoC5/CyLib.c ****     FASTCLK_XMHZ_CSR &= ~X32_CONTROL_FAULT_RECOVER;
 2429              		.loc 1 1475 0
 2430 0004 44F21023 		movw	r3, #:lower16:1073758736
 2431 0008 C4F20003 		movt	r3, #:upper16:1073758736
 2432 000c 44F21022 		movw	r2, #:lower16:1073758736
 2433 0010 C4F20002 		movt	r2, #:upper16:1073758736
 2434 0014 1278     		ldrb	r2, [r2, #0]
 2435 0016 D2B2     		uxtb	r2, r2
 2436 0018 02F0BF02 		and	r2, r2, #191
 2437 001c 1A70     		strb	r2, [r3, #0]
1476:./Generated_Source/PSoC5/CyLib.c **** }
 2438              		.loc 1 1476 0
 2439 001e BD46     		mov	sp, r7
 2440 0020 80BC     		pop	{r7}
 2441 0022 7047     		bx	lr
 2442              		.cfi_endproc
 2443              	.LFE35:
 2444              		.size	CyXTAL_DisableFaultRecovery, .-CyXTAL_DisableFaultRecovery
 2445              		.section	.text.CyXTAL_SetStartup,"ax",%progbits
 2446              		.align	2
 2447              		.global	CyXTAL_SetStartup
 2448              		.thumb
 2449              		.thumb_func
 2450              		.type	CyXTAL_SetStartup, %function
 2451              	CyXTAL_SetStartup:
 2452              	.LFB36:
1477:./Generated_Source/PSoC5/CyLib.c **** 
ARM GAS  C:\Users\CHARLI~1\AppData\Local\Temp\cc78mmP1.s 			page 70


1478:./Generated_Source/PSoC5/CyLib.c **** 
1479:./Generated_Source/PSoC5/CyLib.c **** /*******************************************************************************
1480:./Generated_Source/PSoC5/CyLib.c **** * Function Name: CyXTAL_SetStartup
1481:./Generated_Source/PSoC5/CyLib.c **** ********************************************************************************
1482:./Generated_Source/PSoC5/CyLib.c **** * Summary:
1483:./Generated_Source/PSoC5/CyLib.c **** *   Sets the startup settings for the crystal.
1484:./Generated_Source/PSoC5/CyLib.c **** *
1485:./Generated_Source/PSoC5/CyLib.c **** *
1486:./Generated_Source/PSoC5/CyLib.c **** * Parameters:
1487:./Generated_Source/PSoC5/CyLib.c **** *   setting: Valid range [0-31].  
1488:./Generated_Source/PSoC5/CyLib.c **** *    Value is dependent on the frequency and quality of the crystal being used.  
1489:./Generated_Source/PSoC5/CyLib.c **** *    Refer to the TRM for appropriate values for a specific crystal..
1490:./Generated_Source/PSoC5/CyLib.c **** *
1491:./Generated_Source/PSoC5/CyLib.c **** *
1492:./Generated_Source/PSoC5/CyLib.c **** * Return:
1493:./Generated_Source/PSoC5/CyLib.c **** *   void.
1494:./Generated_Source/PSoC5/CyLib.c **** *
1495:./Generated_Source/PSoC5/CyLib.c **** *******************************************************************************/
1496:./Generated_Source/PSoC5/CyLib.c **** void CyXTAL_SetStartup(uint8 setting) 
1497:./Generated_Source/PSoC5/CyLib.c **** {
 2453              		.loc 1 1497 0
 2454              		.cfi_startproc
 2455              		@ args = 0, pretend = 0, frame = 8
 2456              		@ frame_needed = 1, uses_anonymous_args = 0
 2457              		@ link register save eliminated.
 2458 0000 80B4     		push	{r7}
 2459              	.LCFI91:
 2460              		.cfi_def_cfa_offset 4
 2461 0002 83B0     		sub	sp, sp, #12
 2462              	.LCFI92:
 2463              		.cfi_def_cfa_offset 16
 2464 0004 00AF     		add	r7, sp, #0
 2465              		.cfi_offset 7, -4
 2466              	.LCFI93:
 2467              		.cfi_def_cfa_register 7
 2468 0006 0346     		mov	r3, r0
 2469 0008 FB71     		strb	r3, [r7, #7]
1498:./Generated_Source/PSoC5/CyLib.c ****     /*Valid range 0-31*/
1499:./Generated_Source/PSoC5/CyLib.c ****     FASTCLK_XMHZ_CFG0 = (FASTCLK_XMHZ_CFG0 & ~FASTCLK_XMHZ_GAINMASK) | 
 2470              		.loc 1 1499 0
 2471 000a 44F21223 		movw	r3, #:lower16:1073758738
 2472 000e C4F20003 		movt	r3, #:upper16:1073758738
 2473 0012 44F21222 		movw	r2, #:lower16:1073758738
 2474 0016 C4F20002 		movt	r2, #:upper16:1073758738
 2475 001a 1278     		ldrb	r2, [r2, #0]
 2476 001c D2B2     		uxtb	r2, r2
 2477 001e 1146     		mov	r1, r2
 2478 0020 01F0E001 		and	r1, r1, #224
 2479 0024 FA79     		ldrb	r2, [r7, #7]	@ zero_extendqisi2
 2480 0026 02F01F02 		and	r2, r2, #31
 2481 002a 41EA0202 		orr	r2, r1, r2
 2482 002e D2B2     		uxtb	r2, r2
 2483 0030 1A70     		strb	r2, [r3, #0]
1500:./Generated_Source/PSoC5/CyLib.c ****                          (setting & FASTCLK_XMHZ_GAINMASK);
1501:./Generated_Source/PSoC5/CyLib.c **** }
 2484              		.loc 1 1501 0
 2485 0032 07F10C07 		add	r7, r7, #12
ARM GAS  C:\Users\CHARLI~1\AppData\Local\Temp\cc78mmP1.s 			page 71


 2486 0036 BD46     		mov	sp, r7
 2487 0038 80BC     		pop	{r7}
 2488 003a 7047     		bx	lr
 2489              		.cfi_endproc
 2490              	.LFE36:
 2491              		.size	CyXTAL_SetStartup, .-CyXTAL_SetStartup
 2492              		.section	.text.CyHalt,"ax",%progbits
 2493              		.align	2
 2494              		.global	CyHalt
 2495              		.thumb
 2496              		.thumb_func
 2497              		.type	CyHalt, %function
 2498              	CyHalt:
 2499              	.LFB37:
1502:./Generated_Source/PSoC5/CyLib.c **** 
1503:./Generated_Source/PSoC5/CyLib.c **** 
1504:./Generated_Source/PSoC5/CyLib.c **** #if CYLIB_PSOC3_ES3
1505:./Generated_Source/PSoC5/CyLib.c **** /*******************************************************************************
1506:./Generated_Source/PSoC5/CyLib.c **** * Function Name: CyXTAL_SetFbVoltage
1507:./Generated_Source/PSoC5/CyLib.c **** ********************************************************************************
1508:./Generated_Source/PSoC5/CyLib.c **** * Summary:
1509:./Generated_Source/PSoC5/CyLib.c **** *   Sets the feedback reference voltage to use for the crystal circuit.
1510:./Generated_Source/PSoC5/CyLib.c **** *
1511:./Generated_Source/PSoC5/CyLib.c **** *
1512:./Generated_Source/PSoC5/CyLib.c **** * Parameters:
1513:./Generated_Source/PSoC5/CyLib.c **** *   setting: Valid range [0-15].  
1514:./Generated_Source/PSoC5/CyLib.c **** *   Refer to the TRM for details on the mapping of the setting value to 
1515:./Generated_Source/PSoC5/CyLib.c **** *   specific voltages.
1516:./Generated_Source/PSoC5/CyLib.c **** *
1517:./Generated_Source/PSoC5/CyLib.c **** *
1518:./Generated_Source/PSoC5/CyLib.c **** * Return:
1519:./Generated_Source/PSoC5/CyLib.c **** *   void.
1520:./Generated_Source/PSoC5/CyLib.c **** *
1521:./Generated_Source/PSoC5/CyLib.c **** *
1522:./Generated_Source/PSoC5/CyLib.c **** * Side Effects and Restrictions:
1523:./Generated_Source/PSoC5/CyLib.c **** *   The feedback reference voltage must be greater than the watchdog reference 
1524:./Generated_Source/PSoC5/CyLib.c **** *   voltage.
1525:./Generated_Source/PSoC5/CyLib.c **** *
1526:./Generated_Source/PSoC5/CyLib.c **** *******************************************************************************/
1527:./Generated_Source/PSoC5/CyLib.c **** void CyXTAL_SetFbVoltage(uint8 setting) 
1528:./Generated_Source/PSoC5/CyLib.c **** {
1529:./Generated_Source/PSoC5/CyLib.c ****     /*The register with this value has changed between ES2 and ES3 silicon.  
1530:./Generated_Source/PSoC5/CyLib.c ****     This function should only be made available for ES3 silicon.  
1531:./Generated_Source/PSoC5/CyLib.c ****     For ES2 there will not be an equivalent function and this register will 
1532:./Generated_Source/PSoC5/CyLib.c ****     just be left at its default value.*/
1533:./Generated_Source/PSoC5/CyLib.c ****     FASTCLK_XMHZ_CFG1 = ((FASTCLK_XMHZ_CFG1 & ~FASTCLK_XMHZ_VREFMASK) | 
1534:./Generated_Source/PSoC5/CyLib.c ****                          (setting & FASTCLK_XMHZ_VREFMASK));
1535:./Generated_Source/PSoC5/CyLib.c **** }
1536:./Generated_Source/PSoC5/CyLib.c **** 
1537:./Generated_Source/PSoC5/CyLib.c **** 
1538:./Generated_Source/PSoC5/CyLib.c **** /*******************************************************************************
1539:./Generated_Source/PSoC5/CyLib.c **** * Function Name: CyXTAL_SetWdVoltage
1540:./Generated_Source/PSoC5/CyLib.c **** ********************************************************************************
1541:./Generated_Source/PSoC5/CyLib.c **** * Summary:
1542:./Generated_Source/PSoC5/CyLib.c **** *   Sets the reference voltage used by the watchdog to detect a failure 
1543:./Generated_Source/PSoC5/CyLib.c **** *   in the crystal circuit. 
1544:./Generated_Source/PSoC5/CyLib.c **** *
ARM GAS  C:\Users\CHARLI~1\AppData\Local\Temp\cc78mmP1.s 			page 72


1545:./Generated_Source/PSoC5/CyLib.c **** *
1546:./Generated_Source/PSoC5/CyLib.c **** * Parameters:
1547:./Generated_Source/PSoC5/CyLib.c **** *   setting: Valid range [0-7].  
1548:./Generated_Source/PSoC5/CyLib.c **** *   Refer to the TRM for details on the mapping of the setting value to 
1549:./Generated_Source/PSoC5/CyLib.c **** *   specific voltages.
1550:./Generated_Source/PSoC5/CyLib.c **** *
1551:./Generated_Source/PSoC5/CyLib.c **** *
1552:./Generated_Source/PSoC5/CyLib.c **** * Return:
1553:./Generated_Source/PSoC5/CyLib.c **** *   void.
1554:./Generated_Source/PSoC5/CyLib.c **** *
1555:./Generated_Source/PSoC5/CyLib.c **** * Side Effects and Restrictions:
1556:./Generated_Source/PSoC5/CyLib.c **** *   The feedback reference voltage must be greater than the watchdog 
1557:./Generated_Source/PSoC5/CyLib.c **** *   reference voltage.
1558:./Generated_Source/PSoC5/CyLib.c **** *
1559:./Generated_Source/PSoC5/CyLib.c **** *******************************************************************************/
1560:./Generated_Source/PSoC5/CyLib.c **** void CyXTAL_SetWdVoltage(uint8 setting) 
1561:./Generated_Source/PSoC5/CyLib.c **** {
1562:./Generated_Source/PSoC5/CyLib.c ****     /*
1563:./Generated_Source/PSoC5/CyLib.c ****     The register with this value has changed between ES2 and ES3 silicon.
1564:./Generated_Source/PSoC5/CyLib.c ****     This function should only be made available for ES3 silicon.
1565:./Generated_Source/PSoC5/CyLib.c ****     For ES2 there will not be an equivalent function and this register will 
1566:./Generated_Source/PSoC5/CyLib.c ****     -just be left at its default value.
1567:./Generated_Source/PSoC5/CyLib.c ****     */
1568:./Generated_Source/PSoC5/CyLib.c ****     FASTCLK_XMHZ_CFG1 = ((FASTCLK_XMHZ_CFG1 & ~FASTCLK_XMHZ_VREF_WD_MASK) | 
1569:./Generated_Source/PSoC5/CyLib.c ****                          ((setting << 4) & FASTCLK_XMHZ_VREF_WD_MASK));
1570:./Generated_Source/PSoC5/CyLib.c **** }
1571:./Generated_Source/PSoC5/CyLib.c **** 
1572:./Generated_Source/PSoC5/CyLib.c **** #endif /*CYLIB_PSOC3_ES3*/
1573:./Generated_Source/PSoC5/CyLib.c **** 
1574:./Generated_Source/PSoC5/CyLib.c **** /* CYLIB CLOCK funcs end */
1575:./Generated_Source/PSoC5/CyLib.c **** 
1576:./Generated_Source/PSoC5/CyLib.c **** 
1577:./Generated_Source/PSoC5/CyLib.c **** /* CYLIB SYSTEM funcs begin */
1578:./Generated_Source/PSoC5/CyLib.c **** 
1579:./Generated_Source/PSoC5/CyLib.c **** 
1580:./Generated_Source/PSoC5/CyLib.c **** /*******************************************************************************
1581:./Generated_Source/PSoC5/CyLib.c **** * Function Name: CyHalt
1582:./Generated_Source/PSoC5/CyLib.c **** ********************************************************************************
1583:./Generated_Source/PSoC5/CyLib.c **** * Summary:
1584:./Generated_Source/PSoC5/CyLib.c **** *  Halts the CPU
1585:./Generated_Source/PSoC5/CyLib.c **** *
1586:./Generated_Source/PSoC5/CyLib.c **** *
1587:./Generated_Source/PSoC5/CyLib.c **** * Parameters:
1588:./Generated_Source/PSoC5/CyLib.c **** *   reason: Value to be used during debugging.
1589:./Generated_Source/PSoC5/CyLib.c **** *
1590:./Generated_Source/PSoC5/CyLib.c **** *
1591:./Generated_Source/PSoC5/CyLib.c **** * Return: 
1592:./Generated_Source/PSoC5/CyLib.c **** *   void.
1593:./Generated_Source/PSoC5/CyLib.c **** *
1594:./Generated_Source/PSoC5/CyLib.c **** *
1595:./Generated_Source/PSoC5/CyLib.c **** *******************************************************************************/
1596:./Generated_Source/PSoC5/CyLib.c **** void CyHalt(uint8 reason)
1597:./Generated_Source/PSoC5/CyLib.c **** {
 2500              		.loc 1 1597 0
 2501              		.cfi_startproc
 2502              		@ args = 0, pretend = 0, frame = 8
 2503              		@ frame_needed = 1, uses_anonymous_args = 0
ARM GAS  C:\Users\CHARLI~1\AppData\Local\Temp\cc78mmP1.s 			page 73


 2504              		@ link register save eliminated.
 2505 0000 80B4     		push	{r7}
 2506              	.LCFI94:
 2507              		.cfi_def_cfa_offset 4
 2508 0002 83B0     		sub	sp, sp, #12
 2509              	.LCFI95:
 2510              		.cfi_def_cfa_offset 16
 2511 0004 00AF     		add	r7, sp, #0
 2512              		.cfi_offset 7, -4
 2513              	.LCFI96:
 2514              		.cfi_def_cfa_register 7
 2515 0006 0346     		mov	r3, r0
 2516 0008 FB71     		strb	r3, [r7, #7]
1598:./Generated_Source/PSoC5/CyLib.c ****     reason = reason;
1599:./Generated_Source/PSoC5/CyLib.c **** #if defined (__ARMCC_VERSION)
1600:./Generated_Source/PSoC5/CyLib.c ****     __breakpoint(0x0);
1601:./Generated_Source/PSoC5/CyLib.c **** #elif defined(__GNUC__)
1602:./Generated_Source/PSoC5/CyLib.c ****     __asm("    bkpt    1");
 2517              		.loc 1 1602 0
 2518              	@ 1602 "./Generated_Source/PSoC5/CyLib.c" 1
 2519 000a 01BE     		    bkpt    1
 2520              	@ 0 "" 2
1603:./Generated_Source/PSoC5/CyLib.c **** #elif defined(__C51__)
1604:./Generated_Source/PSoC5/CyLib.c ****     CYDEV_HALT_CPU;
1605:./Generated_Source/PSoC5/CyLib.c **** #endif
1606:./Generated_Source/PSoC5/CyLib.c **** }
 2521              		.loc 1 1606 0
 2522              		.thumb
 2523 000c 07F10C07 		add	r7, r7, #12
 2524 0010 BD46     		mov	sp, r7
 2525 0012 80BC     		pop	{r7}
 2526 0014 7047     		bx	lr
 2527              		.cfi_endproc
 2528              	.LFE37:
 2529              		.size	CyHalt, .-CyHalt
 2530 0016 00BF     		.section	.text.CySoftwareReset,"ax",%progbits
 2531              		.align	2
 2532              		.global	CySoftwareReset
 2533              		.thumb
 2534              		.thumb_func
 2535              		.type	CySoftwareReset, %function
 2536              	CySoftwareReset:
 2537              	.LFB38:
1607:./Generated_Source/PSoC5/CyLib.c **** 
1608:./Generated_Source/PSoC5/CyLib.c **** 
1609:./Generated_Source/PSoC5/CyLib.c **** /*******************************************************************************
1610:./Generated_Source/PSoC5/CyLib.c **** * Function Name: CySoftwareReset
1611:./Generated_Source/PSoC5/CyLib.c **** ********************************************************************************
1612:./Generated_Source/PSoC5/CyLib.c **** * Summary:
1613:./Generated_Source/PSoC5/CyLib.c **** *  Forces a software reset of the device.
1614:./Generated_Source/PSoC5/CyLib.c **** *
1615:./Generated_Source/PSoC5/CyLib.c **** *
1616:./Generated_Source/PSoC5/CyLib.c **** * Parameters:
1617:./Generated_Source/PSoC5/CyLib.c **** *   None.
1618:./Generated_Source/PSoC5/CyLib.c **** *
1619:./Generated_Source/PSoC5/CyLib.c **** *
1620:./Generated_Source/PSoC5/CyLib.c **** * Return: 
ARM GAS  C:\Users\CHARLI~1\AppData\Local\Temp\cc78mmP1.s 			page 74


1621:./Generated_Source/PSoC5/CyLib.c **** *   void.
1622:./Generated_Source/PSoC5/CyLib.c **** *
1623:./Generated_Source/PSoC5/CyLib.c **** *
1624:./Generated_Source/PSoC5/CyLib.c **** *******************************************************************************/
1625:./Generated_Source/PSoC5/CyLib.c **** void CySoftwareReset()
1626:./Generated_Source/PSoC5/CyLib.c **** {
 2538              		.loc 1 1626 0
 2539              		.cfi_startproc
 2540              		@ args = 0, pretend = 0, frame = 0
 2541              		@ frame_needed = 1, uses_anonymous_args = 0
 2542              		@ link register save eliminated.
 2543 0000 80B4     		push	{r7}
 2544              	.LCFI97:
 2545              		.cfi_def_cfa_offset 4
 2546 0002 00AF     		add	r7, sp, #0
 2547              		.cfi_offset 7, -4
 2548              	.LCFI98:
 2549              		.cfi_def_cfa_register 7
1627:./Generated_Source/PSoC5/CyLib.c ****     /* Perform a reset by writing the software reset bit in reset control register 2 */
1628:./Generated_Source/PSoC5/CyLib.c ****     *RESET_CR2 = 0x1;
 2550              		.loc 1 1628 0
 2551 0004 44F2F663 		movw	r3, #:lower16:1073759990
 2552 0008 C4F20003 		movt	r3, #:upper16:1073759990
 2553 000c 4FF00102 		mov	r2, #1
 2554 0010 1A70     		strb	r2, [r3, #0]
1629:./Generated_Source/PSoC5/CyLib.c **** }
 2555              		.loc 1 1629 0
 2556 0012 BD46     		mov	sp, r7
 2557 0014 80BC     		pop	{r7}
 2558 0016 7047     		bx	lr
 2559              		.cfi_endproc
 2560              	.LFE38:
 2561              		.size	CySoftwareReset, .-CySoftwareReset
 2562              		.global	cydelay_freq_hz
 2563              		.data
 2564              		.align	2
 2565              		.type	cydelay_freq_hz, %object
 2566              		.size	cydelay_freq_hz, 4
 2567              	cydelay_freq_hz:
 2568 0000 00366E01 		.word	24000000
 2569              		.global	cydelay_freq_khz
 2570              		.align	2
 2571              		.type	cydelay_freq_khz, %object
 2572              		.size	cydelay_freq_khz, 4
 2573              	cydelay_freq_khz:
 2574 0004 C05D0000 		.word	24000
 2575              		.global	cydelay_freq_mhz
 2576              		.type	cydelay_freq_mhz, %object
 2577              		.size	cydelay_freq_mhz, 1
 2578              	cydelay_freq_mhz:
 2579 0008 18       		.byte	24
 2580              		.global	cydelay_32k_ms
 2581 0009 000000   		.align	2
 2582              		.type	cydelay_32k_ms, %object
 2583              		.size	cydelay_32k_ms, 4
 2584              	cydelay_32k_ms:
 2585 000c 0000E02E 		.word	786432000
ARM GAS  C:\Users\CHARLI~1\AppData\Local\Temp\cc78mmP1.s 			page 75


 2586              		.section	.text.CyDelay,"ax",%progbits
 2587              		.align	2
 2588              		.global	CyDelay
 2589              		.thumb
 2590              		.thumb_func
 2591              		.type	CyDelay, %function
 2592              	CyDelay:
 2593              	.LFB39:
1630:./Generated_Source/PSoC5/CyLib.c **** 
1631:./Generated_Source/PSoC5/CyLib.c **** /* CYLIB SYSTEM funcs end */
1632:./Generated_Source/PSoC5/CyLib.c **** 
1633:./Generated_Source/PSoC5/CyLib.c **** 
1634:./Generated_Source/PSoC5/CyLib.c **** uint32 cydelay_freq_hz = BCLK__BUS_CLK__HZ;
1635:./Generated_Source/PSoC5/CyLib.c **** uint32 cydelay_freq_khz = (BCLK__BUS_CLK__HZ + 999u) / 1000u;
1636:./Generated_Source/PSoC5/CyLib.c **** uint8 cydelay_freq_mhz = (uint8)((BCLK__BUS_CLK__HZ + 999999u) / 1000000u);
1637:./Generated_Source/PSoC5/CyLib.c **** uint32 cydelay_32k_ms = 32768 * ((BCLK__BUS_CLK__HZ + 999u) / 1000u);
1638:./Generated_Source/PSoC5/CyLib.c **** 
1639:./Generated_Source/PSoC5/CyLib.c **** 
1640:./Generated_Source/PSoC5/CyLib.c **** /*******************************************************************************
1641:./Generated_Source/PSoC5/CyLib.c **** * Function Name: CyDelay
1642:./Generated_Source/PSoC5/CyLib.c **** ********************************************************************************
1643:./Generated_Source/PSoC5/CyLib.c **** * Summary:
1644:./Generated_Source/PSoC5/CyLib.c **** *   Blocks for milliseconds.
1645:./Generated_Source/PSoC5/CyLib.c **** *    Note: CyDelay has been implemented with the instruction cache assumed enabled. 
1646:./Generated_Source/PSoC5/CyLib.c **** *      When instruction cache is disabled on PSoC5, CyDelay will be two times 
1647:./Generated_Source/PSoC5/CyLib.c **** *      larger. Ex: With instruction cache disabled CyDelay(100) would result 
1648:./Generated_Source/PSoC5/CyLib.c **** *      in about 200ms delay instead of 100ms.
1649:./Generated_Source/PSoC5/CyLib.c **** *
1650:./Generated_Source/PSoC5/CyLib.c **** * Parameters:
1651:./Generated_Source/PSoC5/CyLib.c **** *   milliseconds: number of milliseconds to delay.
1652:./Generated_Source/PSoC5/CyLib.c **** *
1653:./Generated_Source/PSoC5/CyLib.c **** * Return:
1654:./Generated_Source/PSoC5/CyLib.c **** *   void.
1655:./Generated_Source/PSoC5/CyLib.c **** *
1656:./Generated_Source/PSoC5/CyLib.c **** *******************************************************************************/
1657:./Generated_Source/PSoC5/CyLib.c **** void CyDelay(uint32 milliseconds) CYREENTRANT
1658:./Generated_Source/PSoC5/CyLib.c **** {
 2594              		.loc 1 1658 0
 2595              		.cfi_startproc
 2596              		@ args = 0, pretend = 0, frame = 8
 2597              		@ frame_needed = 1, uses_anonymous_args = 0
 2598 0000 80B5     		push	{r7, lr}
 2599              	.LCFI99:
 2600              		.cfi_def_cfa_offset 8
 2601 0002 82B0     		sub	sp, sp, #8
 2602              	.LCFI100:
 2603              		.cfi_def_cfa_offset 16
 2604 0004 00AF     		add	r7, sp, #0
 2605              		.cfi_offset 14, -4
 2606              		.cfi_offset 7, -8
 2607              	.LCFI101:
 2608              		.cfi_def_cfa_register 7
 2609 0006 7860     		str	r0, [r7, #4]
1659:./Generated_Source/PSoC5/CyLib.c ****     while (milliseconds > 32768)
 2610              		.loc 1 1659 0
 2611 0008 0BE0     		b	.L162
 2612              	.L163:
ARM GAS  C:\Users\CHARLI~1\AppData\Local\Temp\cc78mmP1.s 			page 76


1660:./Generated_Source/PSoC5/CyLib.c ****     {
1661:./Generated_Source/PSoC5/CyLib.c ****         /* This loop prevents overflow.
1662:./Generated_Source/PSoC5/CyLib.c ****          * At 100MHz, milliseconds * delay_freq_khz overflows at about 42 seconds
1663:./Generated_Source/PSoC5/CyLib.c ****          */
1664:./Generated_Source/PSoC5/CyLib.c ****         CyDelayCycles(cydelay_32k_ms);
 2613              		.loc 1 1664 0
 2614 000a 40F20003 		movw	r3, #:lower16:cydelay_32k_ms
 2615 000e C0F20003 		movt	r3, #:upper16:cydelay_32k_ms
 2616 0012 1B68     		ldr	r3, [r3, #0]
 2617 0014 1846     		mov	r0, r3
 2618 0016 FFF7FEFF 		bl	CyDelayCycles
1665:./Generated_Source/PSoC5/CyLib.c ****         milliseconds -= 32768;
 2619              		.loc 1 1665 0
 2620 001a 7B68     		ldr	r3, [r7, #4]
 2621 001c A3F50043 		sub	r3, r3, #32768
 2622 0020 7B60     		str	r3, [r7, #4]
 2623              	.L162:
 2624              		.loc 1 1659 0
 2625 0022 7B68     		ldr	r3, [r7, #4]
 2626 0024 B3F5004F 		cmp	r3, #32768
 2627 0028 EFD8     		bhi	.L163
1666:./Generated_Source/PSoC5/CyLib.c ****     }
1667:./Generated_Source/PSoC5/CyLib.c **** 
1668:./Generated_Source/PSoC5/CyLib.c ****     CyDelayCycles(milliseconds * cydelay_freq_khz);
 2628              		.loc 1 1668 0
 2629 002a 40F20003 		movw	r3, #:lower16:cydelay_freq_khz
 2630 002e C0F20003 		movt	r3, #:upper16:cydelay_freq_khz
 2631 0032 1B68     		ldr	r3, [r3, #0]
 2632 0034 7A68     		ldr	r2, [r7, #4]
 2633 0036 02FB03F3 		mul	r3, r2, r3
 2634 003a 1846     		mov	r0, r3
 2635 003c FFF7FEFF 		bl	CyDelayCycles
1669:./Generated_Source/PSoC5/CyLib.c **** }
 2636              		.loc 1 1669 0
 2637 0040 07F10807 		add	r7, r7, #8
 2638 0044 BD46     		mov	sp, r7
 2639 0046 80BD     		pop	{r7, pc}
 2640              		.cfi_endproc
 2641              	.LFE39:
 2642              		.size	CyDelay, .-CyDelay
 2643              		.section	.text.CyDelayUs,"ax",%progbits
 2644              		.align	2
 2645              		.global	CyDelayUs
 2646              		.thumb
 2647              		.thumb_func
 2648              		.type	CyDelayUs, %function
 2649              	CyDelayUs:
 2650              	.LFB40:
1670:./Generated_Source/PSoC5/CyLib.c **** 
1671:./Generated_Source/PSoC5/CyLib.c **** 
1672:./Generated_Source/PSoC5/CyLib.c **** /*******************************************************************************
1673:./Generated_Source/PSoC5/CyLib.c **** * Function Name: CyDelayUs
1674:./Generated_Source/PSoC5/CyLib.c **** ********************************************************************************
1675:./Generated_Source/PSoC5/CyLib.c **** * Summary:
1676:./Generated_Source/PSoC5/CyLib.c **** *   Blocks for microseconds.
1677:./Generated_Source/PSoC5/CyLib.c **** *    Note: CyDelay has been implemented with the instruction cache assumed enabled. 
1678:./Generated_Source/PSoC5/CyLib.c **** *      When instruction cache is disabled on PSoC5, CyDelayUs will be two times 
ARM GAS  C:\Users\CHARLI~1\AppData\Local\Temp\cc78mmP1.s 			page 77


1679:./Generated_Source/PSoC5/CyLib.c **** *      larger. Ex: With instruction cache disabled CyDelayUs(100) would result 
1680:./Generated_Source/PSoC5/CyLib.c **** *      in about 200us delay instead of 100us.
1681:./Generated_Source/PSoC5/CyLib.c **** *
1682:./Generated_Source/PSoC5/CyLib.c **** * Parameters:
1683:./Generated_Source/PSoC5/CyLib.c **** *   microseconds: number of microseconds to delay.
1684:./Generated_Source/PSoC5/CyLib.c **** *
1685:./Generated_Source/PSoC5/CyLib.c **** * Return:
1686:./Generated_Source/PSoC5/CyLib.c **** *   void.
1687:./Generated_Source/PSoC5/CyLib.c **** *
1688:./Generated_Source/PSoC5/CyLib.c **** *******************************************************************************/
1689:./Generated_Source/PSoC5/CyLib.c **** #if defined(__ARMCC_VERSION)
1690:./Generated_Source/PSoC5/CyLib.c **** void CyDelayUs(uint16 microseconds) CYREENTRANT
1691:./Generated_Source/PSoC5/CyLib.c **** {
1692:./Generated_Source/PSoC5/CyLib.c ****     CyDelayCycles((uint32)microseconds * cydelay_freq_mhz);
1693:./Generated_Source/PSoC5/CyLib.c **** }
1694:./Generated_Source/PSoC5/CyLib.c **** #elif defined(__GNUC__)
1695:./Generated_Source/PSoC5/CyLib.c **** void CyDelayUs(uint16 microseconds) CYREENTRANT
1696:./Generated_Source/PSoC5/CyLib.c **** {
 2651              		.loc 1 1696 0
 2652              		.cfi_startproc
 2653              		@ args = 0, pretend = 0, frame = 8
 2654              		@ frame_needed = 1, uses_anonymous_args = 0
 2655 0000 80B5     		push	{r7, lr}
 2656              	.LCFI102:
 2657              		.cfi_def_cfa_offset 8
 2658 0002 82B0     		sub	sp, sp, #8
 2659              	.LCFI103:
 2660              		.cfi_def_cfa_offset 16
 2661 0004 00AF     		add	r7, sp, #0
 2662              		.cfi_offset 14, -4
 2663              		.cfi_offset 7, -8
 2664              	.LCFI104:
 2665              		.cfi_def_cfa_register 7
 2666 0006 0346     		mov	r3, r0
 2667 0008 FB80     		strh	r3, [r7, #6]	@ movhi
1697:./Generated_Source/PSoC5/CyLib.c ****     CyDelayCycles((uint32)microseconds * cydelay_freq_mhz);
 2668              		.loc 1 1697 0
 2669 000a FA88     		ldrh	r2, [r7, #6]
 2670 000c 40F20003 		movw	r3, #:lower16:cydelay_freq_mhz
 2671 0010 C0F20003 		movt	r3, #:upper16:cydelay_freq_mhz
 2672 0014 1B78     		ldrb	r3, [r3, #0]	@ zero_extendqisi2
 2673 0016 03FB02F3 		mul	r3, r3, r2
 2674 001a 1846     		mov	r0, r3
 2675 001c FFF7FEFF 		bl	CyDelayCycles
1698:./Generated_Source/PSoC5/CyLib.c **** }
 2676              		.loc 1 1698 0
 2677 0020 07F10807 		add	r7, r7, #8
 2678 0024 BD46     		mov	sp, r7
 2679 0026 80BD     		pop	{r7, pc}
 2680              		.cfi_endproc
 2681              	.LFE40:
 2682              		.size	CyDelayUs, .-CyDelayUs
 2683              		.section	.text.CyDelayFreq,"ax",%progbits
 2684              		.align	2
 2685              		.global	CyDelayFreq
 2686              		.thumb
 2687              		.thumb_func
ARM GAS  C:\Users\CHARLI~1\AppData\Local\Temp\cc78mmP1.s 			page 78


 2688              		.type	CyDelayFreq, %function
 2689              	CyDelayFreq:
 2690              	.LFB41:
1699:./Generated_Source/PSoC5/CyLib.c **** #endif
1700:./Generated_Source/PSoC5/CyLib.c **** 
1701:./Generated_Source/PSoC5/CyLib.c **** 
1702:./Generated_Source/PSoC5/CyLib.c **** /*******************************************************************************
1703:./Generated_Source/PSoC5/CyLib.c **** * Function Name: CyDelayFreq
1704:./Generated_Source/PSoC5/CyLib.c **** ********************************************************************************
1705:./Generated_Source/PSoC5/CyLib.c **** * Summary:
1706:./Generated_Source/PSoC5/CyLib.c **** *   Sets clock frequency for CyDelay.
1707:./Generated_Source/PSoC5/CyLib.c **** *
1708:./Generated_Source/PSoC5/CyLib.c **** * Parameters:
1709:./Generated_Source/PSoC5/CyLib.c **** *   freq: Frequency of bus clock in Hertz.
1710:./Generated_Source/PSoC5/CyLib.c **** *
1711:./Generated_Source/PSoC5/CyLib.c **** * Return:
1712:./Generated_Source/PSoC5/CyLib.c **** *   void.
1713:./Generated_Source/PSoC5/CyLib.c **** *
1714:./Generated_Source/PSoC5/CyLib.c **** *******************************************************************************/
1715:./Generated_Source/PSoC5/CyLib.c **** void CyDelayFreq(uint32 freq) CYREENTRANT
1716:./Generated_Source/PSoC5/CyLib.c **** {
 2691              		.loc 1 1716 0
 2692              		.cfi_startproc
 2693              		@ args = 0, pretend = 0, frame = 8
 2694              		@ frame_needed = 1, uses_anonymous_args = 0
 2695              		@ link register save eliminated.
 2696 0000 80B4     		push	{r7}
 2697              	.LCFI105:
 2698              		.cfi_def_cfa_offset 4
 2699 0002 83B0     		sub	sp, sp, #12
 2700              	.LCFI106:
 2701              		.cfi_def_cfa_offset 16
 2702 0004 00AF     		add	r7, sp, #0
 2703              		.cfi_offset 7, -4
 2704              	.LCFI107:
 2705              		.cfi_def_cfa_register 7
 2706 0006 7860     		str	r0, [r7, #4]
1717:./Generated_Source/PSoC5/CyLib.c ****     if (freq != 0u)
 2707              		.loc 1 1717 0
 2708 0008 7B68     		ldr	r3, [r7, #4]
 2709 000a 002B     		cmp	r3, #0
 2710 000c 06D0     		beq	.L168
1718:./Generated_Source/PSoC5/CyLib.c ****         cydelay_freq_hz = freq;
 2711              		.loc 1 1718 0
 2712 000e 40F20003 		movw	r3, #:lower16:cydelay_freq_hz
 2713 0012 C0F20003 		movt	r3, #:upper16:cydelay_freq_hz
 2714 0016 7A68     		ldr	r2, [r7, #4]
 2715 0018 1A60     		str	r2, [r3, #0]
 2716 001a 08E0     		b	.L169
 2717              	.L168:
1719:./Generated_Source/PSoC5/CyLib.c ****     else
1720:./Generated_Source/PSoC5/CyLib.c ****         cydelay_freq_hz = BCLK__BUS_CLK__HZ;
 2718              		.loc 1 1720 0
 2719 001c 40F20003 		movw	r3, #:lower16:cydelay_freq_hz
 2720 0020 C0F20003 		movt	r3, #:upper16:cydelay_freq_hz
 2721 0024 43F20062 		movw	r2, #:lower16:24000000
 2722 0028 C0F26E12 		movt	r2, #:upper16:24000000
ARM GAS  C:\Users\CHARLI~1\AppData\Local\Temp\cc78mmP1.s 			page 79


 2723 002c 1A60     		str	r2, [r3, #0]
 2724              	.L169:
1721:./Generated_Source/PSoC5/CyLib.c ****     cydelay_freq_mhz = (uint8)((cydelay_freq_hz + 999999u) / 1000000u);
 2725              		.loc 1 1721 0
 2726 002e 40F20003 		movw	r3, #:lower16:cydelay_freq_hz
 2727 0032 C0F20003 		movt	r3, #:upper16:cydelay_freq_hz
 2728 0036 1A68     		ldr	r2, [r3, #0]
 2729 0038 44F23F23 		movw	r3, #:lower16:999999
 2730 003c C0F20F03 		movt	r3, #:upper16:999999
 2731 0040 1344     		add	r3, r2, r3
 2732 0042 4DF68362 		movw	r2, #:lower16:1125899907
 2733 0046 C4F21B32 		movt	r2, #:upper16:1125899907
 2734 004a A2FB0313 		umull	r1, r3, r2, r3
 2735 004e 4FEA9343 		lsr	r3, r3, #18
 2736 0052 DAB2     		uxtb	r2, r3
 2737 0054 40F20003 		movw	r3, #:lower16:cydelay_freq_mhz
 2738 0058 C0F20003 		movt	r3, #:upper16:cydelay_freq_mhz
 2739 005c 1A70     		strb	r2, [r3, #0]
1722:./Generated_Source/PSoC5/CyLib.c ****     cydelay_freq_khz = (cydelay_freq_hz + 999u) / 1000u;
 2740              		.loc 1 1722 0
 2741 005e 40F20003 		movw	r3, #:lower16:cydelay_freq_hz
 2742 0062 C0F20003 		movt	r3, #:upper16:cydelay_freq_hz
 2743 0066 1B68     		ldr	r3, [r3, #0]
 2744 0068 03F57872 		add	r2, r3, #992
 2745 006c 02F10702 		add	r2, r2, #7
 2746 0070 44F6D353 		movw	r3, #:lower16:274877907
 2747 0074 C1F26203 		movt	r3, #:upper16:274877907
 2748 0078 A3FB0213 		umull	r1, r3, r3, r2
 2749 007c 4FEA9312 		lsr	r2, r3, #6
 2750 0080 40F20003 		movw	r3, #:lower16:cydelay_freq_khz
 2751 0084 C0F20003 		movt	r3, #:upper16:cydelay_freq_khz
 2752 0088 1A60     		str	r2, [r3, #0]
1723:./Generated_Source/PSoC5/CyLib.c ****     cydelay_32k_ms = 32768 * cydelay_freq_khz;
 2753              		.loc 1 1723 0
 2754 008a 40F20003 		movw	r3, #:lower16:cydelay_freq_khz
 2755 008e C0F20003 		movt	r3, #:upper16:cydelay_freq_khz
 2756 0092 1B68     		ldr	r3, [r3, #0]
 2757 0094 4FEAC332 		lsl	r2, r3, #15
 2758 0098 40F20003 		movw	r3, #:lower16:cydelay_32k_ms
 2759 009c C0F20003 		movt	r3, #:upper16:cydelay_32k_ms
 2760 00a0 1A60     		str	r2, [r3, #0]
1724:./Generated_Source/PSoC5/CyLib.c **** }
 2761              		.loc 1 1724 0
 2762 00a2 07F10C07 		add	r7, r7, #12
 2763 00a6 BD46     		mov	sp, r7
 2764 00a8 80BC     		pop	{r7}
 2765 00aa 7047     		bx	lr
 2766              		.cfi_endproc
 2767              	.LFE41:
 2768              		.size	CyDelayFreq, .-CyDelayFreq
 2769              		.section	.text.CyWdtStart,"ax",%progbits
 2770              		.align	2
 2771              		.global	CyWdtStart
 2772              		.thumb
 2773              		.thumb_func
 2774              		.type	CyWdtStart, %function
 2775              	CyWdtStart:
ARM GAS  C:\Users\CHARLI~1\AppData\Local\Temp\cc78mmP1.s 			page 80


 2776              	.LFB42:
1725:./Generated_Source/PSoC5/CyLib.c **** 
1726:./Generated_Source/PSoC5/CyLib.c **** /*******************************************************************************
1727:./Generated_Source/PSoC5/CyLib.c **** * Function Name: CyWdtStart
1728:./Generated_Source/PSoC5/CyLib.c **** ********************************************************************************
1729:./Generated_Source/PSoC5/CyLib.c **** * Summary:
1730:./Generated_Source/PSoC5/CyLib.c **** *  Enables the watchdog timer.  
1731:./Generated_Source/PSoC5/CyLib.c **** *  The timer is configured for the specified count interval, the central timewheel 
1732:./Generated_Source/PSoC5/CyLib.c **** *  is cleared, the setting for low power mode is configured and the watchdog 
1733:./Generated_Source/PSoC5/CyLib.c **** *  timer is enabled.  
1734:./Generated_Source/PSoC5/CyLib.c **** *  Once enabled the watchdog cannot be disabled.  
1735:./Generated_Source/PSoC5/CyLib.c **** *  The watchdog must be cleared using the CyWdtClear() function before 
1736:./Generated_Source/PSoC5/CyLib.c **** *  three ticks of the watchdog timer occur.
1737:./Generated_Source/PSoC5/CyLib.c **** *
1738:./Generated_Source/PSoC5/CyLib.c **** *
1739:./Generated_Source/PSoC5/CyLib.c **** * Parameters: 
1740:./Generated_Source/PSoC5/CyLib.c **** *   ticks: One of the four available timer periods.
1741:./Generated_Source/PSoC5/CyLib.c **** *         CYWDT_2_TICKS     -    2 CTW Ticks
1742:./Generated_Source/PSoC5/CyLib.c **** *         CYWDT_16_TICKS    -   16 CTW Ticks
1743:./Generated_Source/PSoC5/CyLib.c **** *         CYWDT_128_TICKS   -  128 CTW Ticks
1744:./Generated_Source/PSoC5/CyLib.c **** *         CYWDT_1024_TICKS  - 1024 CTW Ticks
1745:./Generated_Source/PSoC5/CyLib.c **** *   lpMode: Low power mode configuration
1746:./Generated_Source/PSoC5/CyLib.c **** *         CYWDT_LPMODE_NOCHANGE - No Change
1747:./Generated_Source/PSoC5/CyLib.c **** *         CYWDT_LPMODE_MAXINTER - Switch to longest timer mode during sleep/hibernate
1748:./Generated_Source/PSoC5/CyLib.c **** *         CYWDT_LPMODE_DISABLED - Disable WDT during sleep/hibernate
1749:./Generated_Source/PSoC5/CyLib.c **** * 
1750:./Generated_Source/PSoC5/CyLib.c **** * Return: 
1751:./Generated_Source/PSoC5/CyLib.c **** *  None.
1752:./Generated_Source/PSoC5/CyLib.c **** *
1753:./Generated_Source/PSoC5/CyLib.c **** *******************************************************************************/
1754:./Generated_Source/PSoC5/CyLib.c **** void CyWdtStart(uint8 ticks, uint8 lpMode)
1755:./Generated_Source/PSoC5/CyLib.c **** {
 2777              		.loc 1 1755 0
 2778              		.cfi_startproc
 2779              		@ args = 0, pretend = 0, frame = 8
 2780              		@ frame_needed = 1, uses_anonymous_args = 0
 2781              		@ link register save eliminated.
 2782 0000 80B4     		push	{r7}
 2783              	.LCFI108:
 2784              		.cfi_def_cfa_offset 4
 2785 0002 83B0     		sub	sp, sp, #12
 2786              	.LCFI109:
 2787              		.cfi_def_cfa_offset 16
 2788 0004 00AF     		add	r7, sp, #0
 2789              		.cfi_offset 7, -4
 2790              	.LCFI110:
 2791              		.cfi_def_cfa_register 7
 2792 0006 0246     		mov	r2, r0
 2793 0008 0B46     		mov	r3, r1
 2794 000a FA71     		strb	r2, [r7, #7]
 2795 000c BB71     		strb	r3, [r7, #6]
1756:./Generated_Source/PSoC5/CyLib.c ****     /* Set the number of ticks. */
1757:./Generated_Source/PSoC5/CyLib.c ****     *CYWDT_CFG = (ticks & CYWDT_TICKS_MASK) | (*CYWDT_CFG & ~CYWDT_TICKS_MASK);
 2796              		.loc 1 1757 0
 2797 000e 44F28333 		movw	r3, #:lower16:1073759107
 2798 0012 C4F20003 		movt	r3, #:upper16:1073759107
 2799 0016 FA79     		ldrb	r2, [r7, #7]	@ zero_extendqisi2
ARM GAS  C:\Users\CHARLI~1\AppData\Local\Temp\cc78mmP1.s 			page 81


 2800 0018 D1B2     		uxtb	r1, r2
 2801 001a 01F00301 		and	r1, r1, #3
 2802 001e 44F28332 		movw	r2, #:lower16:1073759107
 2803 0022 C4F20002 		movt	r2, #:upper16:1073759107
 2804 0026 1278     		ldrb	r2, [r2, #0]
 2805 0028 D2B2     		uxtb	r2, r2
 2806 002a D2B2     		uxtb	r2, r2
 2807 002c 02F0FC02 		and	r2, r2, #252
 2808 0030 41EA0202 		orr	r2, r1, r2
 2809 0034 D2B2     		uxtb	r2, r2
 2810 0036 D2B2     		uxtb	r2, r2
 2811 0038 1A70     		strb	r2, [r3, #0]
1758:./Generated_Source/PSoC5/CyLib.c ****     
1759:./Generated_Source/PSoC5/CyLib.c ****     /*Clear the central time wheel.*/
1760:./Generated_Source/PSoC5/CyLib.c ****     *CYWDT_CFG = CYWDT_RESET | *CYWDT_CFG;
 2812              		.loc 1 1760 0
 2813 003a 44F28333 		movw	r3, #:lower16:1073759107
 2814 003e C4F20003 		movt	r3, #:upper16:1073759107
 2815 0042 44F28332 		movw	r2, #:lower16:1073759107
 2816 0046 C4F20002 		movt	r2, #:upper16:1073759107
 2817 004a 1278     		ldrb	r2, [r2, #0]
 2818 004c D2B2     		uxtb	r2, r2
 2819 004e 6FEA4262 		mvn	r2, r2, lsl #25
 2820 0052 6FEA5262 		mvn	r2, r2, lsr #25
 2821 0056 D2B2     		uxtb	r2, r2
