ARM GAS  C:\Users\CHARLI~1\AppData\Local\Temp\cc78mmP1.s 			page 1


   1              		.syntax unified
   2              		.cpu cortex-m3
   3              		.fpu softvfp
   4              		.eabi_attribute 20, 1
   5              		.eabi_attribute 21, 1
   6              		.eabi_attribute 23, 3
   7              		.eabi_attribute 24, 1
   8              		.eabi_attribute 25, 1
   9              		.eabi_attribute 26, 1
  10              		.eabi_attribute 30, 6
  11              		.eabi_attribute 18, 4
  12              		.thumb
  13              		.file	"CyLib.c"
  14              		.section	.debug_abbrev,"",%progbits
  15              	.Ldebug_abbrev0:
  16              		.section	.debug_info,"",%progbits
  17              	.Ldebug_info0:
  18              		.section	.debug_line,"",%progbits
  19              	.Ldebug_line0:
  20 0000 60050000 		.text
  20      02004400 
  20      00000201 
  20      FB0E0D00 
  20      01010101 
  21              	.Ltext0:
  22              		.cfi_sections	.debug_frame
  23              		.comm	CyResetStatus,1,1
  24              		.section	.text.CyPLL_OUT_Start,"ax",%progbits
  25              		.align	2
  26              		.global	CyPLL_OUT_Start
  27              		.thumb
  28              		.thumb_func
  29              		.type	CyPLL_OUT_Start, %function
  30              	CyPLL_OUT_Start:
  31              	.LFB0:
  32              		.file 1 "./Generated_Source/PSoC5/CyLib.c"
   1:./Generated_Source/PSoC5/CyLib.c **** /*******************************************************************************
   2:./Generated_Source/PSoC5/CyLib.c **** * File Name: CyLib.c
   3:./Generated_Source/PSoC5/CyLib.c **** * Version 2.21
   4:./Generated_Source/PSoC5/CyLib.c **** *
   5:./Generated_Source/PSoC5/CyLib.c **** *  Description:
   6:./Generated_Source/PSoC5/CyLib.c **** *
   7:./Generated_Source/PSoC5/CyLib.c **** *  Note:
   8:./Generated_Source/PSoC5/CyLib.c **** *   Documentation of the API's in this file is located in the
   9:./Generated_Source/PSoC5/CyLib.c **** *   System Reference Guide provided with PSoC Creator.
  10:./Generated_Source/PSoC5/CyLib.c **** *
  11:./Generated_Source/PSoC5/CyLib.c **** *******************************************************************************
  12:./Generated_Source/PSoC5/CyLib.c **** * Copyright 2008-2011, Cypress Semiconductor Corporation.  All rights reserved.
  13:./Generated_Source/PSoC5/CyLib.c **** * You may use this file only in accordance with the license, terms, conditions,
  14:./Generated_Source/PSoC5/CyLib.c **** * disclaimers, and limitations in the end user license agreement accompanying
  15:./Generated_Source/PSoC5/CyLib.c **** * the software package with which this file was provided.
  16:./Generated_Source/PSoC5/CyLib.c **** ********************************************************************************/
  17:./Generated_Source/PSoC5/CyLib.c **** 
  18:./Generated_Source/PSoC5/CyLib.c **** #include <CyLib.h>
  19:./Generated_Source/PSoC5/CyLib.c **** 
  20:./Generated_Source/PSoC5/CyLib.c **** 
  21:./Generated_Source/PSoC5/CyLib.c **** #if (CYDEV_CHIP_MEMBER_USED == CYDEV_CHIP_MEMBER_3A)
ARM GAS  C:\Users\CHARLI~1\AppData\Local\Temp\cc78mmP1.s 			page 2


  22:./Generated_Source/PSoC5/CyLib.c ****     /* Variables must be placed beyond the first 256 bytes to ensure they do
  23:./Generated_Source/PSoC5/CyLib.c ****      * not get clobbered by SROM boot code during the software reset.  They
  24:./Generated_Source/PSoC5/CyLib.c ****      * are placed at the very end of SRAM to reduce the backward compatablity
  25:./Generated_Source/PSoC5/CyLib.c ****      * impacts of reserving specific addresses.
  26:./Generated_Source/PSoC5/CyLib.c ****      */
  27:./Generated_Source/PSoC5/CyLib.c ****     uint8 CYXDATA CyResetStatus _at_ (CYDEV_SRAM_SIZE - 1);
  28:./Generated_Source/PSoC5/CyLib.c ****     uint8 CYXDATA _CyResetInduced _at_ (CYDEV_SRAM_SIZE - 2); /* This should not be used outside of
  29:./Generated_Source/PSoC5/CyLib.c **** #else
  30:./Generated_Source/PSoC5/CyLib.c ****     uint8 CYXDATA CyResetStatus;
  31:./Generated_Source/PSoC5/CyLib.c **** #endif
  32:./Generated_Source/PSoC5/CyLib.c **** 
  33:./Generated_Source/PSoC5/CyLib.c **** /* CYLIB CLOCK funcs begin*/
  34:./Generated_Source/PSoC5/CyLib.c **** 
  35:./Generated_Source/PSoC5/CyLib.c **** /*******************************************************************************
  36:./Generated_Source/PSoC5/CyLib.c **** * Function Name: CyPLL_OUT_Start
  37:./Generated_Source/PSoC5/CyLib.c **** ********************************************************************************
  38:./Generated_Source/PSoC5/CyLib.c **** *
  39:./Generated_Source/PSoC5/CyLib.c **** * Summary:
  40:./Generated_Source/PSoC5/CyLib.c **** *   Enables the PLL.  Optionally waits for it to become stable.
  41:./Generated_Source/PSoC5/CyLib.c **** *   Waits at least 250us or until it is detected that the PLL is stable.
  42:./Generated_Source/PSoC5/CyLib.c **** *
  43:./Generated_Source/PSoC5/CyLib.c **** * Parameters:
  44:./Generated_Source/PSoC5/CyLib.c **** *   wait:
  45:./Generated_Source/PSoC5/CyLib.c **** *    0: Return immediately after configuration
  46:./Generated_Source/PSoC5/CyLib.c **** *    1: Wait for PLL lock or timeout.
  47:./Generated_Source/PSoC5/CyLib.c **** *
  48:./Generated_Source/PSoC5/CyLib.c **** * Return:
  49:./Generated_Source/PSoC5/CyLib.c **** *   Status
  50:./Generated_Source/PSoC5/CyLib.c **** *     CYRET_SUCCESS - Completed successfully
  51:./Generated_Source/PSoC5/CyLib.c **** *    CYRET_TIMEOUT - Timeout occurred without detecting a stable clock.  
  52:./Generated_Source/PSoC5/CyLib.c **** *     If the input source of the clock is jittery, then the lock indication 
  53:./Generated_Source/PSoC5/CyLib.c **** *     may not occur.  However, after the timeout has expired the generated PLL 
  54:./Generated_Source/PSoC5/CyLib.c **** *     clock can still be used..
  55:./Generated_Source/PSoC5/CyLib.c **** *
  56:./Generated_Source/PSoC5/CyLib.c **** *******************************************************************************/
  57:./Generated_Source/PSoC5/CyLib.c **** cystatus CyPLL_OUT_Start(uint8 wait) 
  58:./Generated_Source/PSoC5/CyLib.c **** {
  33              		.loc 1 58 0
  34              		.cfi_startproc
  35              		@ args = 0, pretend = 0, frame = 16
  36              		@ frame_needed = 1, uses_anonymous_args = 0
  37 0000 80B5     		push	{r7, lr}
  38              	.LCFI0:
  39              		.cfi_def_cfa_offset 8
  40 0002 84B0     		sub	sp, sp, #16
  41              	.LCFI1:
  42              		.cfi_def_cfa_offset 24
  43 0004 00AF     		add	r7, sp, #0
  44              		.cfi_offset 14, -4
  45              		.cfi_offset 7, -8
  46              	.LCFI2:
  47              		.cfi_def_cfa_register 7
  48 0006 0346     		mov	r3, r0
  49 0008 FB71     		strb	r3, [r7, #7]
  59:./Generated_Source/PSoC5/CyLib.c ****     cystatus status = CYRET_SUCCESS;
  50              		.loc 1 59 0
  51 000a 4FF00003 		mov	r3, #0
ARM GAS  C:\Users\CHARLI~1\AppData\Local\Temp\cc78mmP1.s 			page 3


  52 000e BB60     		str	r3, [r7, #8]
  60:./Generated_Source/PSoC5/CyLib.c ****     uint8 pm_tw_cfg2_state;
  61:./Generated_Source/PSoC5/CyLib.c ****     uint8 pm_tw_cfg0_state;
  62:./Generated_Source/PSoC5/CyLib.c ****     uint8 ilo_clock_state;
  63:./Generated_Source/PSoC5/CyLib.c ****     
  64:./Generated_Source/PSoC5/CyLib.c ****     FASTCLK_PLL_CFG0 |= PLL_CONTROL_ENABLE;
  53              		.loc 1 64 0
  54 0010 44F22023 		movw	r3, #:lower16:1073758752
  55 0014 C4F20003 		movt	r3, #:upper16:1073758752
  56 0018 44F22022 		movw	r2, #:lower16:1073758752
  57 001c C4F20002 		movt	r2, #:upper16:1073758752
  58 0020 1278     		ldrb	r2, [r2, #0]
  59 0022 D2B2     		uxtb	r2, r2
  60 0024 42F00102 		orr	r2, r2, #1
  61 0028 D2B2     		uxtb	r2, r2
  62 002a 1A70     		strb	r2, [r3, #0]
  65:./Generated_Source/PSoC5/CyLib.c ****     
  66:./Generated_Source/PSoC5/CyLib.c ****     /*Non-zero wait value*/
  67:./Generated_Source/PSoC5/CyLib.c ****     if (wait != 0) 
  63              		.loc 1 67 0
  64 002c FB79     		ldrb	r3, [r7, #7]	@ zero_extendqisi2
  65 002e 002B     		cmp	r3, #0
  66 0030 6BD0     		beq	.L2
  68:./Generated_Source/PSoC5/CyLib.c ****     {
  69:./Generated_Source/PSoC5/CyLib.c ****         /*Need to turn on the 100KHz ILO if it happens to not already be running.*/
  70:./Generated_Source/PSoC5/CyLib.c ****         ilo_clock_state = SLOWCLK_ILO_CR0;
  67              		.loc 1 70 0
  68 0032 44F20033 		movw	r3, #:lower16:1073758976
  69 0036 C4F20003 		movt	r3, #:upper16:1073758976
  70 003a 1B78     		ldrb	r3, [r3, #0]
  71 003c FB73     		strb	r3, [r7, #15]
  71:./Generated_Source/PSoC5/CyLib.c ****         if(!(ilo_clock_state & ILO_CONTROL_100KHZ_ON))
  72              		.loc 1 71 0
  73 003e FB7B     		ldrb	r3, [r7, #15]	@ zero_extendqisi2
  74 0040 03F00403 		and	r3, r3, #4
  75 0044 002B     		cmp	r3, #0
  76 0046 01D1     		bne	.L3
  72:./Generated_Source/PSoC5/CyLib.c ****         {
  73:./Generated_Source/PSoC5/CyLib.c ****             CyILO_Start100K();
  77              		.loc 1 73 0
  78 0048 FFF7FEFF 		bl	CyILO_Start100K
  79              	.L3:
  74:./Generated_Source/PSoC5/CyLib.c ****         }
  75:./Generated_Source/PSoC5/CyLib.c ****         
  76:./Generated_Source/PSoC5/CyLib.c ****         /*Use ILO 100Khz*/
  77:./Generated_Source/PSoC5/CyLib.c ****         pm_tw_cfg2_state = PM_TW_CFG2;
  80              		.loc 1 77 0
  81 004c 44F28233 		movw	r3, #:lower16:1073759106
  82 0050 C4F20003 		movt	r3, #:upper16:1073759106
  83 0054 1B78     		ldrb	r3, [r3, #0]
  84 0056 7B73     		strb	r3, [r7, #13]
  78:./Generated_Source/PSoC5/CyLib.c ****         pm_tw_cfg0_state = PM_TW_CFG0;
  85              		.loc 1 78 0
  86 0058 44F28033 		movw	r3, #:lower16:1073759104
  87 005c C4F20003 		movt	r3, #:upper16:1073759104
  88 0060 1B78     		ldrb	r3, [r3, #0]
  89 0062 BB73     		strb	r3, [r7, #14]
ARM GAS  C:\Users\CHARLI~1\AppData\Local\Temp\cc78mmP1.s 			page 4


  79:./Generated_Source/PSoC5/CyLib.c ****         
  80:./Generated_Source/PSoC5/CyLib.c ****         /* FTW_EN (bit 0) must be clear to change the period*/
  81:./Generated_Source/PSoC5/CyLib.c ****         PM_TW_CFG2 &= FTW_CLEAR_FTW_BITS;
  90              		.loc 1 81 0
  91 0064 44F28233 		movw	r3, #:lower16:1073759106
  92 0068 C4F20003 		movt	r3, #:upper16:1073759106
  93 006c 44F28232 		movw	r2, #:lower16:1073759106
  94 0070 C4F20002 		movt	r2, #:upper16:1073759106
  95 0074 1278     		ldrb	r2, [r2, #0]
  96 0076 D2B2     		uxtb	r2, r2
  97 0078 02F0FC02 		and	r2, r2, #252
  98 007c 1A70     		strb	r2, [r3, #0]
  82:./Generated_Source/PSoC5/CyLib.c ****         
  83:./Generated_Source/PSoC5/CyLib.c ****         /* Set the FTW interval of 25 100KHz ILO clocks
  84:./Generated_Source/PSoC5/CyLib.c ****         Should result in status getting set at a (100/25)KHz rate*/
  85:./Generated_Source/PSoC5/CyLib.c ****         PM_TW_CFG0 =  25-1;
  99              		.loc 1 85 0
 100 007e 44F28033 		movw	r3, #:lower16:1073759104
 101 0082 C4F20003 		movt	r3, #:upper16:1073759104
 102 0086 4FF01802 		mov	r2, #24
 103 008a 1A70     		strb	r2, [r3, #0]
  86:./Generated_Source/PSoC5/CyLib.c ****         /* Enable FTW, but not the interrupt*/
  87:./Generated_Source/PSoC5/CyLib.c ****         PM_TW_CFG2 = FTW_ENABLE;        
 104              		.loc 1 87 0
 105 008c 44F28233 		movw	r3, #:lower16:1073759106
 106 0090 C4F20003 		movt	r3, #:upper16:1073759106
 107 0094 4FF00102 		mov	r2, #1
 108 0098 1A70     		strb	r2, [r3, #0]
  88:./Generated_Source/PSoC5/CyLib.c ****         
  89:./Generated_Source/PSoC5/CyLib.c ****         status = CYRET_TIMEOUT;
 109              		.loc 1 89 0
 110 009a 4FF01003 		mov	r3, #16
 111 009e BB60     		str	r3, [r7, #8]
  90:./Generated_Source/PSoC5/CyLib.c ****         /*check the CyPmReadStatus() return value, 0th bit is ftw*/
  91:./Generated_Source/PSoC5/CyLib.c ****         while (CyPmReadStatus(1) == 0)
 112              		.loc 1 91 0
 113 00a0 19E0     		b	.L4
 114              	.L6:
  92:./Generated_Source/PSoC5/CyLib.c ****         {
  93:./Generated_Source/PSoC5/CyLib.c ****             /* Wait for the interrupt status*/
  94:./Generated_Source/PSoC5/CyLib.c ****             if(FASTCLK_PLL_SR & PLL_STATUS_LOCK)
 115              		.loc 1 94 0
 116 00a2 44F22523 		movw	r3, #:lower16:1073758757
 117 00a6 C4F20003 		movt	r3, #:upper16:1073758757
 118 00aa 1B78     		ldrb	r3, [r3, #0]
 119 00ac DBB2     		uxtb	r3, r3
 120 00ae 03F00103 		and	r3, r3, #1
 121 00b2 DBB2     		uxtb	r3, r3
 122 00b4 002B     		cmp	r3, #0
 123 00b6 0ED0     		beq	.L4
  95:./Generated_Source/PSoC5/CyLib.c ****             {
  96:./Generated_Source/PSoC5/CyLib.c ****                 if(FASTCLK_PLL_SR & PLL_STATUS_LOCK)
 124              		.loc 1 96 0
 125 00b8 44F22523 		movw	r3, #:lower16:1073758757
 126 00bc C4F20003 		movt	r3, #:upper16:1073758757
 127 00c0 1B78     		ldrb	r3, [r3, #0]
 128 00c2 DBB2     		uxtb	r3, r3
ARM GAS  C:\Users\CHARLI~1\AppData\Local\Temp\cc78mmP1.s 			page 5


 129 00c4 03F00103 		and	r3, r3, #1
 130 00c8 DBB2     		uxtb	r3, r3
 131 00ca 002B     		cmp	r3, #0
 132 00cc 03D0     		beq	.L4
  97:./Generated_Source/PSoC5/CyLib.c ****                 {
  98:./Generated_Source/PSoC5/CyLib.c ****                     /*A stable clock.                    */
  99:./Generated_Source/PSoC5/CyLib.c ****                     status = CYRET_SUCCESS;
 133              		.loc 1 99 0
 134 00ce 4FF00003 		mov	r3, #0
 135 00d2 BB60     		str	r3, [r7, #8]
 100:./Generated_Source/PSoC5/CyLib.c ****                     break;
 136              		.loc 1 100 0
 137 00d4 06E0     		b	.L5
 138              	.L4:
 139              		.loc 1 91 0
 140 00d6 4FF00100 		mov	r0, #1
 141 00da FFF7FEFF 		bl	CyPmReadStatus
 142 00de 0346     		mov	r3, r0
 143 00e0 002B     		cmp	r3, #0
 144 00e2 DED0     		beq	.L6
 145              	.L5:
 101:./Generated_Source/PSoC5/CyLib.c ****                 }
 102:./Generated_Source/PSoC5/CyLib.c ****             }
 103:./Generated_Source/PSoC5/CyLib.c ****         }
 104:./Generated_Source/PSoC5/CyLib.c ****         /*reset the clock */
 105:./Generated_Source/PSoC5/CyLib.c ****         if(!(ilo_clock_state & ILO_CONTROL_100KHZ_ON))
 146              		.loc 1 105 0
 147 00e4 FB7B     		ldrb	r3, [r7, #15]	@ zero_extendqisi2
 148 00e6 03F00403 		and	r3, r3, #4
 149 00ea 002B     		cmp	r3, #0
 150 00ec 01D1     		bne	.L7
 106:./Generated_Source/PSoC5/CyLib.c ****         {
 107:./Generated_Source/PSoC5/CyLib.c ****             CyILO_Stop100K();
 151              		.loc 1 107 0
 152 00ee FFF7FEFF 		bl	CyILO_Stop100K
 153              	.L7:
 108:./Generated_Source/PSoC5/CyLib.c ****         }
 109:./Generated_Source/PSoC5/CyLib.c **** 
 110:./Generated_Source/PSoC5/CyLib.c ****         /*restore the FTW*/
 111:./Generated_Source/PSoC5/CyLib.c ****         PM_TW_CFG0 = pm_tw_cfg0_state;
 154              		.loc 1 111 0
 155 00f2 44F28033 		movw	r3, #:lower16:1073759104
 156 00f6 C4F20003 		movt	r3, #:upper16:1073759104
 157 00fa BA7B     		ldrb	r2, [r7, #14]
 158 00fc 1A70     		strb	r2, [r3, #0]
 112:./Generated_Source/PSoC5/CyLib.c ****         PM_TW_CFG2 = pm_tw_cfg2_state;
 159              		.loc 1 112 0
 160 00fe 44F28233 		movw	r3, #:lower16:1073759106
 161 0102 C4F20003 		movt	r3, #:upper16:1073759106
 162 0106 7A7B     		ldrb	r2, [r7, #13]
 163 0108 1A70     		strb	r2, [r3, #0]
 164              	.L2:
 113:./Generated_Source/PSoC5/CyLib.c ****     }
 114:./Generated_Source/PSoC5/CyLib.c ****     return status;
 165              		.loc 1 114 0
 166 010a BB68     		ldr	r3, [r7, #8]
 115:./Generated_Source/PSoC5/CyLib.c **** }
ARM GAS  C:\Users\CHARLI~1\AppData\Local\Temp\cc78mmP1.s 			page 6


 167              		.loc 1 115 0
 168 010c 1846     		mov	r0, r3
 169 010e 07F11007 		add	r7, r7, #16
 170 0112 BD46     		mov	sp, r7
 171 0114 80BD     		pop	{r7, pc}
 172              		.cfi_endproc
 173              	.LFE0:
 174              		.size	CyPLL_OUT_Start, .-CyPLL_OUT_Start
 175 0116 00BF     		.section	.text.CyPLL_OUT_Stop,"ax",%progbits
 176              		.align	2
 177              		.global	CyPLL_OUT_Stop
 178              		.thumb
 179              		.thumb_func
 180              		.type	CyPLL_OUT_Stop, %function
 181              	CyPLL_OUT_Stop:
 182              	.LFB1:
 116:./Generated_Source/PSoC5/CyLib.c **** 
 117:./Generated_Source/PSoC5/CyLib.c **** 
 118:./Generated_Source/PSoC5/CyLib.c **** /*******************************************************************************
 119:./Generated_Source/PSoC5/CyLib.c **** * Function Name: CyPLL_OUT_Stop
 120:./Generated_Source/PSoC5/CyLib.c **** ********************************************************************************
 121:./Generated_Source/PSoC5/CyLib.c **** * Summary:
 122:./Generated_Source/PSoC5/CyLib.c **** *   Disables the PLL.
 123:./Generated_Source/PSoC5/CyLib.c **** *
 124:./Generated_Source/PSoC5/CyLib.c **** *
 125:./Generated_Source/PSoC5/CyLib.c **** * Parameters:
 126:./Generated_Source/PSoC5/CyLib.c **** *   void.
 127:./Generated_Source/PSoC5/CyLib.c **** *
 128:./Generated_Source/PSoC5/CyLib.c **** *
 129:./Generated_Source/PSoC5/CyLib.c **** * Return:
 130:./Generated_Source/PSoC5/CyLib.c **** *   void.
 131:./Generated_Source/PSoC5/CyLib.c **** *
 132:./Generated_Source/PSoC5/CyLib.c **** *******************************************************************************/
 133:./Generated_Source/PSoC5/CyLib.c **** void CyPLL_OUT_Stop(void) 
 134:./Generated_Source/PSoC5/CyLib.c **** {
 183              		.loc 1 134 0
 184              		.cfi_startproc
 185              		@ args = 0, pretend = 0, frame = 0
 186              		@ frame_needed = 1, uses_anonymous_args = 0
 187              		@ link register save eliminated.
 188 0000 80B4     		push	{r7}
 189              	.LCFI3:
 190              		.cfi_def_cfa_offset 4
 191 0002 00AF     		add	r7, sp, #0
 192              		.cfi_offset 7, -4
 193              	.LCFI4:
 194              		.cfi_def_cfa_register 7
 135:./Generated_Source/PSoC5/CyLib.c ****     /* Disable the PLL. */
 136:./Generated_Source/PSoC5/CyLib.c ****     FASTCLK_PLL_CFG0 &= ~PLL_CONTROL_ENABLE;
 195              		.loc 1 136 0
 196 0004 44F22023 		movw	r3, #:lower16:1073758752
 197 0008 C4F20003 		movt	r3, #:upper16:1073758752
 198 000c 44F22022 		movw	r2, #:lower16:1073758752
 199 0010 C4F20002 		movt	r2, #:upper16:1073758752
 200 0014 1278     		ldrb	r2, [r2, #0]
 201 0016 D2B2     		uxtb	r2, r2
 202 0018 02F0FE02 		and	r2, r2, #254
ARM GAS  C:\Users\CHARLI~1\AppData\Local\Temp\cc78mmP1.s 			page 7


 203 001c 1A70     		strb	r2, [r3, #0]
 137:./Generated_Source/PSoC5/CyLib.c **** }
 204              		.loc 1 137 0
 205 001e BD46     		mov	sp, r7
 206 0020 80BC     		pop	{r7}
 207 0022 7047     		bx	lr
 208              		.cfi_endproc
 209              	.LFE1:
 210              		.size	CyPLL_OUT_Stop, .-CyPLL_OUT_Stop
 211              		.section	.text.CyPLL_OUT_SetPQ,"ax",%progbits
 212              		.align	2
 213              		.global	CyPLL_OUT_SetPQ
 214              		.thumb
 215              		.thumb_func
 216              		.type	CyPLL_OUT_SetPQ, %function
 217              	CyPLL_OUT_SetPQ:
 218              	.LFB2:
 138:./Generated_Source/PSoC5/CyLib.c **** 
 139:./Generated_Source/PSoC5/CyLib.c **** 
 140:./Generated_Source/PSoC5/CyLib.c **** /*******************************************************************************
 141:./Generated_Source/PSoC5/CyLib.c **** * Function Name: CyPLL_OUT_SetPQ
 142:./Generated_Source/PSoC5/CyLib.c **** ********************************************************************************
 143:./Generated_Source/PSoC5/CyLib.c **** * Summary:
 144:./Generated_Source/PSoC5/CyLib.c **** *   Sets the P and Q dividers and the charge pump current.  
 145:./Generated_Source/PSoC5/CyLib.c **** *   The Frequency Out will be P/Q * Frequency In.  
 146:./Generated_Source/PSoC5/CyLib.c **** *   The PLL must be disabled before calling this function.
 147:./Generated_Source/PSoC5/CyLib.c **** *
 148:./Generated_Source/PSoC5/CyLib.c **** *
 149:./Generated_Source/PSoC5/CyLib.c **** * Parameters:
 150:./Generated_Source/PSoC5/CyLib.c **** *   P: Valid range [4 - 255]
 151:./Generated_Source/PSoC5/CyLib.c **** *   Q: Valid range [1 - 16].  Input Frequency / Q must be in the range of 1MHz to 3MHz.
 152:./Generated_Source/PSoC5/CyLib.c **** *   current: Valid range [1 - 7].  Charge pump current in uA.  
 153:./Generated_Source/PSoC5/CyLib.c **** *            Recommendation of 2uA for output frequencies of 67MHz or less and 
 154:./Generated_Source/PSoC5/CyLib.c **** *            3uA for higher output frequencies.
 155:./Generated_Source/PSoC5/CyLib.c **** *
 156:./Generated_Source/PSoC5/CyLib.c **** *
 157:./Generated_Source/PSoC5/CyLib.c **** * Return:
 158:./Generated_Source/PSoC5/CyLib.c **** *   void.
 159:./Generated_Source/PSoC5/CyLib.c **** *
 160:./Generated_Source/PSoC5/CyLib.c **** *******************************************************************************/
 161:./Generated_Source/PSoC5/CyLib.c **** void CyPLL_OUT_SetPQ(uint8 P, uint8 Q, uint8 current) 
 162:./Generated_Source/PSoC5/CyLib.c **** {
 219              		.loc 1 162 0
 220              		.cfi_startproc
 221              		@ args = 0, pretend = 0, frame = 8
 222              		@ frame_needed = 1, uses_anonymous_args = 0
 223 0000 80B5     		push	{r7, lr}
 224              	.LCFI5:
 225              		.cfi_def_cfa_offset 8
 226 0002 82B0     		sub	sp, sp, #8
 227              	.LCFI6:
 228              		.cfi_def_cfa_offset 16
 229 0004 00AF     		add	r7, sp, #0
 230              		.cfi_offset 14, -4
 231              		.cfi_offset 7, -8
 232              	.LCFI7:
 233              		.cfi_def_cfa_register 7
ARM GAS  C:\Users\CHARLI~1\AppData\Local\Temp\cc78mmP1.s 			page 8


 234 0006 1346     		mov	r3, r2
 235 0008 0246     		mov	r2, r0
 236 000a FA71     		strb	r2, [r7, #7]
 237 000c 0A46     		mov	r2, r1
 238 000e BA71     		strb	r2, [r7, #6]
 239 0010 7B71     		strb	r3, [r7, #5]
 163:./Generated_Source/PSoC5/CyLib.c ****     CYASSERT(!(FASTCLK_PLL_CFG0 & PLL_STATUS_ENABLED));
 240              		.loc 1 163 0
 241 0012 44F22023 		movw	r3, #:lower16:1073758752
 242 0016 C4F20003 		movt	r3, #:upper16:1073758752
 243 001a 1B78     		ldrb	r3, [r3, #0]
 244 001c DBB2     		uxtb	r3, r3
 245 001e 03F00103 		and	r3, r3, #1
 246 0022 002B     		cmp	r3, #0
 247 0024 0ED0     		beq	.L12
 248 0026 44F22023 		movw	r3, #:lower16:1073758752
 249 002a C4F20003 		movt	r3, #:upper16:1073758752
 250 002e 1B78     		ldrb	r3, [r3, #0]
 251 0030 DBB2     		uxtb	r3, r3
 252 0032 03F00103 		and	r3, r3, #1
 253 0036 002B     		cmp	r3, #0
 254 0038 14BF     		ite	ne
 255 003a 0023     		movne	r3, #0
 256 003c 0123     		moveq	r3, #1
 257 003e 1846     		mov	r0, r3
 258 0040 FFF7FEFF 		bl	CyHalt
 259              	.L12:
 164:./Generated_Source/PSoC5/CyLib.c ****     
 165:./Generated_Source/PSoC5/CyLib.c ****     /*Set the CYREG_FASTCLK_PLL_P register
 166:./Generated_Source/PSoC5/CyLib.c ****     Settings less than 4 do not give valid outputs. Valid range is 4 - 255*/
 167:./Generated_Source/PSoC5/CyLib.c ****     if (P >= MIN_FASTCLK_PLL_P_VALUE)
 260              		.loc 1 167 0
 261 0044 FB79     		ldrb	r3, [r7, #7]	@ zero_extendqisi2
 262 0046 032B     		cmp	r3, #3
 263 0048 05D9     		bls	.L13
 168:./Generated_Source/PSoC5/CyLib.c ****     {
 169:./Generated_Source/PSoC5/CyLib.c ****         FASTCLK_PLL_P = P;
 264              		.loc 1 169 0
 265 004a 44F22223 		movw	r3, #:lower16:1073758754
 266 004e C4F20003 		movt	r3, #:upper16:1073758754
 267 0052 FA79     		ldrb	r2, [r7, #7]
 268 0054 1A70     		strb	r2, [r3, #0]
 269              	.L13:
 170:./Generated_Source/PSoC5/CyLib.c ****     }
 171:./Generated_Source/PSoC5/CyLib.c ****     /*Set the CYREG_FASTCLK_PLL_Q register*/
 172:./Generated_Source/PSoC5/CyLib.c ****     if (Q <= MAX_FASTCLK_PLL_Q_VALUE && Q >= MIN_FASTCLK_PLL_Q_VALUE)
 270              		.loc 1 172 0
 271 0056 BB79     		ldrb	r3, [r7, #6]	@ zero_extendqisi2
 272 0058 102B     		cmp	r3, #16
 273 005a 0BD8     		bhi	.L14
 274 005c BB79     		ldrb	r3, [r7, #6]	@ zero_extendqisi2
 275 005e 002B     		cmp	r3, #0
 276 0060 08D0     		beq	.L14
 173:./Generated_Source/PSoC5/CyLib.c ****     {
 174:./Generated_Source/PSoC5/CyLib.c ****         FASTCLK_PLL_Q = Q-1;
 277              		.loc 1 174 0
 278 0062 44F22323 		movw	r3, #:lower16:1073758755
ARM GAS  C:\Users\CHARLI~1\AppData\Local\Temp\cc78mmP1.s 			page 9


 279 0066 C4F20003 		movt	r3, #:upper16:1073758755
 280 006a BA79     		ldrb	r2, [r7, #6]
 281 006c 02F1FF32 		add	r2, r2, #-1
 282 0070 D2B2     		uxtb	r2, r2
 283 0072 1A70     		strb	r2, [r3, #0]
 284              	.L14:
 175:./Generated_Source/PSoC5/CyLib.c ****     }
 176:./Generated_Source/PSoC5/CyLib.c ****     if(current >= MIN_FASTCLK_PLL_CUR_VALUE && current <= MAX_FASTCLK_PLL_CUR_VALUE)
 285              		.loc 1 176 0
 286 0074 7B79     		ldrb	r3, [r7, #5]	@ zero_extendqisi2
 287 0076 002B     		cmp	r3, #0
 288 0078 11D0     		beq	.L16
 289 007a 7B79     		ldrb	r3, [r7, #5]	@ zero_extendqisi2
 290 007c 072B     		cmp	r3, #7
 291 007e 0ED8     		bhi	.L16
 177:./Generated_Source/PSoC5/CyLib.c ****     {
 178:./Generated_Source/PSoC5/CyLib.c ****         /*
 179:./Generated_Source/PSoC5/CyLib.c ****         Bits     Name         Description
 180:./Generated_Source/PSoC5/CyLib.c ****         6:4     icpsel[2:0] Charge Pump current select; BROS tables contain 
 181:./Generated_Source/PSoC5/CyLib.c ****                             important stability information for given frequencies,
 182:./Generated_Source/PSoC5/CyLib.c ****                             P values, and other parameters
 183:./Generated_Source/PSoC5/CyLib.c ****         1:0     vco_gain[1:0] VCO loop gain
 184:./Generated_Source/PSoC5/CyLib.c ****         */
 185:./Generated_Source/PSoC5/CyLib.c ****         FASTCLK_PLL_CFG1 = ((current - 1) << PLL_CURRENT_POSITION) | PLL_VCO_GAIN_2;
 292              		.loc 1 185 0
 293 0080 44F22123 		movw	r3, #:lower16:1073758753
 294 0084 C4F20003 		movt	r3, #:upper16:1073758753
 295 0088 7A79     		ldrb	r2, [r7, #5]	@ zero_extendqisi2
 296 008a 02F1FF32 		add	r2, r2, #-1
 297 008e 4FEA0212 		lsl	r2, r2, #4
 298 0092 D2B2     		uxtb	r2, r2
 299 0094 42F00202 		orr	r2, r2, #2
 300 0098 D2B2     		uxtb	r2, r2
 301 009a D2B2     		uxtb	r2, r2
 302 009c 1A70     		strb	r2, [r3, #0]
 303              	.L16:
 186:./Generated_Source/PSoC5/CyLib.c ****     }
 187:./Generated_Source/PSoC5/CyLib.c **** }
 304              		.loc 1 187 0
 305 009e 07F10807 		add	r7, r7, #8
 306 00a2 BD46     		mov	sp, r7
 307 00a4 80BD     		pop	{r7, pc}
 308              		.cfi_endproc
 309              	.LFE2:
 310              		.size	CyPLL_OUT_SetPQ, .-CyPLL_OUT_SetPQ
 311 00a6 00BF     		.section	.text.CyPLL_OUT_SetSource,"ax",%progbits
 312              		.align	2
 313              		.global	CyPLL_OUT_SetSource
 314              		.thumb
 315              		.thumb_func
 316              		.type	CyPLL_OUT_SetSource, %function
 317              	CyPLL_OUT_SetSource:
 318              	.LFB3:
 188:./Generated_Source/PSoC5/CyLib.c **** 
 189:./Generated_Source/PSoC5/CyLib.c **** 
 190:./Generated_Source/PSoC5/CyLib.c **** /*******************************************************************************
 191:./Generated_Source/PSoC5/CyLib.c **** * Function Name: CyPLL_OUT_SetSource
ARM GAS  C:\Users\CHARLI~1\AppData\Local\Temp\cc78mmP1.s 			page 10


 192:./Generated_Source/PSoC5/CyLib.c **** ********************************************************************************
 193:./Generated_Source/PSoC5/CyLib.c **** * Summary:
 194:./Generated_Source/PSoC5/CyLib.c **** *   Sets the input clock source to the PLL.  The PLL must be disabled before 
 195:./Generated_Source/PSoC5/CyLib.c **** *   calling this function.
 196:./Generated_Source/PSoC5/CyLib.c **** *
 197:./Generated_Source/PSoC5/CyLib.c **** * Parameters:
 198:./Generated_Source/PSoC5/CyLib.c **** *   source: One of the three available PLL clock sources
 199:./Generated_Source/PSoC5/CyLib.c **** *            0 :        IMO
 200:./Generated_Source/PSoC5/CyLib.c **** *            1 :        MHz Crystal
 201:./Generated_Source/PSoC5/CyLib.c **** *            2 :        DSI
 202:./Generated_Source/PSoC5/CyLib.c **** *
 203:./Generated_Source/PSoC5/CyLib.c **** *
 204:./Generated_Source/PSoC5/CyLib.c **** * Return:
 205:./Generated_Source/PSoC5/CyLib.c **** *   void.
 206:./Generated_Source/PSoC5/CyLib.c **** *
 207:./Generated_Source/PSoC5/CyLib.c **** *******************************************************************************/
 208:./Generated_Source/PSoC5/CyLib.c **** void CyPLL_OUT_SetSource(uint8 source) 
 209:./Generated_Source/PSoC5/CyLib.c **** {
 319              		.loc 1 209 0
 320              		.cfi_startproc
 321              		@ args = 0, pretend = 0, frame = 8
 322              		@ frame_needed = 1, uses_anonymous_args = 0
 323 0000 80B5     		push	{r7, lr}
 324              	.LCFI8:
 325              		.cfi_def_cfa_offset 8
 326 0002 82B0     		sub	sp, sp, #8
 327              	.LCFI9:
 328              		.cfi_def_cfa_offset 16
 329 0004 00AF     		add	r7, sp, #0
 330              		.cfi_offset 14, -4
 331              		.cfi_offset 7, -8
 332              	.LCFI10:
 333              		.cfi_def_cfa_register 7
 334 0006 0346     		mov	r3, r0
 335 0008 FB71     		strb	r3, [r7, #7]
 210:./Generated_Source/PSoC5/CyLib.c ****     CYASSERT(!(FASTCLK_PLL_CFG0 & PLL_STATUS_ENABLED));
 336              		.loc 1 210 0
 337 000a 44F22023 		movw	r3, #:lower16:1073758752
 338 000e C4F20003 		movt	r3, #:upper16:1073758752
 339 0012 1B78     		ldrb	r3, [r3, #0]
 340 0014 DBB2     		uxtb	r3, r3
 341 0016 03F00103 		and	r3, r3, #1
 342 001a 002B     		cmp	r3, #0
 343 001c 0ED0     		beq	.L18
 344 001e 44F22023 		movw	r3, #:lower16:1073758752
 345 0022 C4F20003 		movt	r3, #:upper16:1073758752
 346 0026 1B78     		ldrb	r3, [r3, #0]
 347 0028 DBB2     		uxtb	r3, r3
 348 002a 03F00103 		and	r3, r3, #1
 349 002e 002B     		cmp	r3, #0
 350 0030 14BF     		ite	ne
 351 0032 0023     		movne	r3, #0
 352 0034 0123     		moveq	r3, #1
 353 0036 1846     		mov	r0, r3
 354 0038 FFF7FEFF 		bl	CyHalt
 355              	.L18:
 211:./Generated_Source/PSoC5/CyLib.c ****     
ARM GAS  C:\Users\CHARLI~1\AppData\Local\Temp\cc78mmP1.s 			page 11


 212:./Generated_Source/PSoC5/CyLib.c ****     /*Set the 1:0 bits of CLKDIST_CR */
 213:./Generated_Source/PSoC5/CyLib.c ****     /*  Value    Name    Description
 214:./Generated_Source/PSoC5/CyLib.c ****         2'h0     IMO     IMO is selected
 215:./Generated_Source/PSoC5/CyLib.c ****         2'h1     XTAL    33MHz XTAL is selected
 216:./Generated_Source/PSoC5/CyLib.c ****         2'h2     DSI     Digital System Interconnect is selected*/
 217:./Generated_Source/PSoC5/CyLib.c ****     switch(source)
 356              		.loc 1 217 0
 357 003c FB79     		ldrb	r3, [r7, #7]	@ zero_extendqisi2
 358 003e 03F10003 		add	r3, r3, #0
 359 0042 022B     		cmp	r3, #2
 360 0044 10D8     		bhi	.L21
 218:./Generated_Source/PSoC5/CyLib.c ****     {
 219:./Generated_Source/PSoC5/CyLib.c ****         case CY_PLL_SOURCE_IMO:
 220:./Generated_Source/PSoC5/CyLib.c ****         case CY_PLL_SOURCE_XTAL:
 221:./Generated_Source/PSoC5/CyLib.c ****         case CY_PLL_SOURCE_DSI:
 222:./Generated_Source/PSoC5/CyLib.c ****             CLKDIST_CR = ((CLKDIST_CR & CLOCK_CONTROL_DIST_MASK) | source);
 361              		.loc 1 222 0
 362 0046 44F20003 		movw	r3, #:lower16:1073758208
 363 004a C4F20003 		movt	r3, #:upper16:1073758208
 364 004e 44F20002 		movw	r2, #:lower16:1073758208
 365 0052 C4F20002 		movt	r2, #:upper16:1073758208
 366 0056 1278     		ldrb	r2, [r2, #0]
 367 0058 D2B2     		uxtb	r2, r2
 368 005a 02F0FC02 		and	r2, r2, #252
 369 005e F979     		ldrb	r1, [r7, #7]
 370 0060 42EA0102 		orr	r2, r2, r1
 371 0064 D2B2     		uxtb	r2, r2
 372 0066 1A70     		strb	r2, [r3, #0]
 373              	.L21:
 223:./Generated_Source/PSoC5/CyLib.c ****         break;
 224:./Generated_Source/PSoC5/CyLib.c ****     }
 225:./Generated_Source/PSoC5/CyLib.c **** }
 374              		.loc 1 225 0
 375 0068 07F10807 		add	r7, r7, #8
 376 006c BD46     		mov	sp, r7
 377 006e 80BD     		pop	{r7, pc}
 378              		.cfi_endproc
 379              	.LFE3:
 380              		.size	CyPLL_OUT_SetSource, .-CyPLL_OUT_SetSource
 381              		.section	.text.CyIMO_Start,"ax",%progbits
 382              		.align	2
 383              		.global	CyIMO_Start
 384              		.thumb
 385              		.thumb_func
 386              		.type	CyIMO_Start, %function
 387              	CyIMO_Start:
 388              	.LFB4:
 226:./Generated_Source/PSoC5/CyLib.c **** 
 227:./Generated_Source/PSoC5/CyLib.c **** 
 228:./Generated_Source/PSoC5/CyLib.c **** /*******************************************************************************
 229:./Generated_Source/PSoC5/CyLib.c **** * Function Name: CyIMO_Start
 230:./Generated_Source/PSoC5/CyLib.c **** ********************************************************************************
 231:./Generated_Source/PSoC5/CyLib.c **** * Summary:
 232:./Generated_Source/PSoC5/CyLib.c **** *   Enables the IMO.  Optionally waits at least 6us for it to settle.
 233:./Generated_Source/PSoC5/CyLib.c **** *
 234:./Generated_Source/PSoC5/CyLib.c **** *
 235:./Generated_Source/PSoC5/CyLib.c **** * Parameters:
ARM GAS  C:\Users\CHARLI~1\AppData\Local\Temp\cc78mmP1.s 			page 12


 236:./Generated_Source/PSoC5/CyLib.c **** *   wait:
 237:./Generated_Source/PSoC5/CyLib.c **** *   0: Return immediately after configuration
 238:./Generated_Source/PSoC5/CyLib.c **** *   1: Wait for at least 6us for the IMO to settle.
 239:./Generated_Source/PSoC5/CyLib.c **** *
 240:./Generated_Source/PSoC5/CyLib.c **** *
 241:./Generated_Source/PSoC5/CyLib.c **** * Return:
 242:./Generated_Source/PSoC5/CyLib.c **** *   void.
 243:./Generated_Source/PSoC5/CyLib.c **** *
 244:./Generated_Source/PSoC5/CyLib.c **** * Side Effects and Restrictions:
 245:./Generated_Source/PSoC5/CyLib.c **** *   If wait is enabled: Uses the Fast Timewheel to time the wait.
 246:./Generated_Source/PSoC5/CyLib.c **** *   Any other use of the Fast Timewheel will be stopped during the period of -
 247:./Generated_Source/PSoC5/CyLib.c **** *   this function and then restored.
 248:./Generated_Source/PSoC5/CyLib.c **** *   Uses the 100KHz ILO.  If not enabled, this function will enable the 100KHz -
 249:./Generated_Source/PSoC5/CyLib.c **** *   ILO for the period of this function.
 250:./Generated_Source/PSoC5/CyLib.c **** *
 251:./Generated_Source/PSoC5/CyLib.c **** *******************************************************************************/
 252:./Generated_Source/PSoC5/CyLib.c **** void CyIMO_Start(uint8 wait) 
 253:./Generated_Source/PSoC5/CyLib.c **** {
 389              		.loc 1 253 0
 390              		.cfi_startproc
 391              		@ args = 0, pretend = 0, frame = 16
 392              		@ frame_needed = 1, uses_anonymous_args = 0
 393 0000 80B5     		push	{r7, lr}
 394              	.LCFI11:
 395              		.cfi_def_cfa_offset 8
 396 0002 84B0     		sub	sp, sp, #16
 397              	.LCFI12:
 398              		.cfi_def_cfa_offset 24
 399 0004 00AF     		add	r7, sp, #0
 400              		.cfi_offset 14, -4
 401              		.cfi_offset 7, -8
 402              	.LCFI13:
 403              		.cfi_def_cfa_register 7
 404 0006 0346     		mov	r3, r0
 405 0008 FB71     		strb	r3, [r7, #7]
 254:./Generated_Source/PSoC5/CyLib.c ****     uint8 pm_tw_cfg2_state;
 255:./Generated_Source/PSoC5/CyLib.c ****     uint8 pm_tw_cfg0_state;
 256:./Generated_Source/PSoC5/CyLib.c ****     uint8 ilo_clock_state;
 257:./Generated_Source/PSoC5/CyLib.c **** 
 258:./Generated_Source/PSoC5/CyLib.c ****     /* Set the bit to enable the clock. */
 259:./Generated_Source/PSoC5/CyLib.c ****     PM_ACT_CFG0 |= IMO_PM_ENABLE;
 406              		.loc 1 259 0
 407 000a 44F2A033 		movw	r3, #:lower16:1073759136
 408 000e C4F20003 		movt	r3, #:upper16:1073759136
 409 0012 44F2A032 		movw	r2, #:lower16:1073759136
 410 0016 C4F20002 		movt	r2, #:upper16:1073759136
 411 001a 1278     		ldrb	r2, [r2, #0]
 412 001c D2B2     		uxtb	r2, r2
 413 001e 42F01002 		orr	r2, r2, #16
 414 0022 D2B2     		uxtb	r2, r2
 415 0024 1A70     		strb	r2, [r3, #0]
 260:./Generated_Source/PSoC5/CyLib.c **** 
 261:./Generated_Source/PSoC5/CyLib.c ****     /*Wait for 6 us*/
 262:./Generated_Source/PSoC5/CyLib.c ****     if(wait)
 416              		.loc 1 262 0
 417 0026 FB79     		ldrb	r3, [r7, #7]	@ zero_extendqisi2
 418 0028 002B     		cmp	r3, #0
ARM GAS  C:\Users\CHARLI~1\AppData\Local\Temp\cc78mmP1.s 			page 13


 419 002a 4DD0     		beq	.L27
 263:./Generated_Source/PSoC5/CyLib.c ****     {
 264:./Generated_Source/PSoC5/CyLib.c ****         /*Need to turn on the 100KHz ILO if it happens to not already be running.*/
 265:./Generated_Source/PSoC5/CyLib.c ****         ilo_clock_state = SLOWCLK_ILO_CR0;
 420              		.loc 1 265 0
 421 002c 44F20033 		movw	r3, #:lower16:1073758976
 422 0030 C4F20003 		movt	r3, #:upper16:1073758976
 423 0034 1B78     		ldrb	r3, [r3, #0]
 424 0036 FB73     		strb	r3, [r7, #15]
 266:./Generated_Source/PSoC5/CyLib.c ****         if(!(ilo_clock_state & ILO_CONTROL_100KHZ_ON))
 425              		.loc 1 266 0
 426 0038 FB7B     		ldrb	r3, [r7, #15]	@ zero_extendqisi2
 427 003a 03F00403 		and	r3, r3, #4
 428 003e 002B     		cmp	r3, #0
 429 0040 01D1     		bne	.L24
 267:./Generated_Source/PSoC5/CyLib.c ****         {
 268:./Generated_Source/PSoC5/CyLib.c ****             CyILO_Start100K();
 430              		.loc 1 268 0
 431 0042 FFF7FEFF 		bl	CyILO_Start100K
 432              	.L24:
 269:./Generated_Source/PSoC5/CyLib.c ****         }
 270:./Generated_Source/PSoC5/CyLib.c ****         
 271:./Generated_Source/PSoC5/CyLib.c ****         /*Use ILO 100Khz*/
 272:./Generated_Source/PSoC5/CyLib.c ****         pm_tw_cfg2_state = PM_TW_CFG2;
 433              		.loc 1 272 0
 434 0046 44F28233 		movw	r3, #:lower16:1073759106
 435 004a C4F20003 		movt	r3, #:upper16:1073759106
 436 004e 1B78     		ldrb	r3, [r3, #0]
 437 0050 7B73     		strb	r3, [r7, #13]
 273:./Generated_Source/PSoC5/CyLib.c ****         pm_tw_cfg0_state = PM_TW_CFG0;
 438              		.loc 1 273 0
 439 0052 44F28033 		movw	r3, #:lower16:1073759104
 440 0056 C4F20003 		movt	r3, #:upper16:1073759104
 441 005a 1B78     		ldrb	r3, [r3, #0]
 442 005c BB73     		strb	r3, [r7, #14]
 274:./Generated_Source/PSoC5/CyLib.c ****         
 275:./Generated_Source/PSoC5/CyLib.c ****         /* FTW_EN (bit 0) must be clear to change the period*/
 276:./Generated_Source/PSoC5/CyLib.c ****         PM_TW_CFG2 &= FTW_CLEAR_FTW_BITS;
 443              		.loc 1 276 0
 444 005e 44F28233 		movw	r3, #:lower16:1073759106
 445 0062 C4F20003 		movt	r3, #:upper16:1073759106
 446 0066 44F28232 		movw	r2, #:lower16:1073759106
 447 006a C4F20002 		movt	r2, #:upper16:1073759106
 448 006e 1278     		ldrb	r2, [r2, #0]
 449 0070 D2B2     		uxtb	r2, r2
 450 0072 02F0FC02 		and	r2, r2, #252
 451 0076 1A70     		strb	r2, [r3, #0]
 277:./Generated_Source/PSoC5/CyLib.c ****         
 278:./Generated_Source/PSoC5/CyLib.c ****         /* Set the FTW interval of 1 100KHz ILO clocks
 279:./Generated_Source/PSoC5/CyLib.c ****         Should result in status getting set at a (100/1)KHz rate*/
 280:./Generated_Source/PSoC5/CyLib.c ****         PM_TW_CFG0 = 1-1;
 452              		.loc 1 280 0
 453 0078 44F28033 		movw	r3, #:lower16:1073759104
 454 007c C4F20003 		movt	r3, #:upper16:1073759104
 455 0080 4FF00002 		mov	r2, #0
 456 0084 1A70     		strb	r2, [r3, #0]
 281:./Generated_Source/PSoC5/CyLib.c ****         /* Enable FTW, but not the interrupt*/
ARM GAS  C:\Users\CHARLI~1\AppData\Local\Temp\cc78mmP1.s 			page 14


 282:./Generated_Source/PSoC5/CyLib.c ****         PM_TW_CFG2 = FTW_ENABLE;        
 457              		.loc 1 282 0
 458 0086 44F28233 		movw	r3, #:lower16:1073759106
 459 008a C4F20003 		movt	r3, #:upper16:1073759106
 460 008e 4FF00102 		mov	r2, #1
 461 0092 1A70     		strb	r2, [r3, #0]
 462              	.L25:
 283:./Generated_Source/PSoC5/CyLib.c ****         
 284:./Generated_Source/PSoC5/CyLib.c ****         /*Read FTW value*/
 285:./Generated_Source/PSoC5/CyLib.c ****         while (CyPmReadStatus(1) == 0)
 463              		.loc 1 285 0
 464 0094 4FF00100 		mov	r0, #1
 465 0098 FFF7FEFF 		bl	CyPmReadStatus
 466 009c 0346     		mov	r3, r0
 467 009e 002B     		cmp	r3, #0
 468 00a0 F8D0     		beq	.L25
 286:./Generated_Source/PSoC5/CyLib.c ****         {
 287:./Generated_Source/PSoC5/CyLib.c ****             /* Wait for the interrupt status*/
 288:./Generated_Source/PSoC5/CyLib.c ****         }
 289:./Generated_Source/PSoC5/CyLib.c **** 
 290:./Generated_Source/PSoC5/CyLib.c ****         /*reset the clock */
 291:./Generated_Source/PSoC5/CyLib.c ****         if(!(ilo_clock_state & ILO_CONTROL_100KHZ_ON))
 469              		.loc 1 291 0
 470 00a2 FB7B     		ldrb	r3, [r7, #15]	@ zero_extendqisi2
 471 00a4 03F00403 		and	r3, r3, #4
 472 00a8 002B     		cmp	r3, #0
 473 00aa 01D1     		bne	.L26
 292:./Generated_Source/PSoC5/CyLib.c ****         {
 293:./Generated_Source/PSoC5/CyLib.c ****             CyILO_Stop100K();
 474              		.loc 1 293 0
 475 00ac FFF7FEFF 		bl	CyILO_Stop100K
 476              	.L26:
 294:./Generated_Source/PSoC5/CyLib.c ****         }
 295:./Generated_Source/PSoC5/CyLib.c ****         /*restore the FTW*/
 296:./Generated_Source/PSoC5/CyLib.c ****         PM_TW_CFG0 = pm_tw_cfg0_state;
 477              		.loc 1 296 0
 478 00b0 44F28033 		movw	r3, #:lower16:1073759104
 479 00b4 C4F20003 		movt	r3, #:upper16:1073759104
 480 00b8 BA7B     		ldrb	r2, [r7, #14]
 481 00ba 1A70     		strb	r2, [r3, #0]
 297:./Generated_Source/PSoC5/CyLib.c ****         PM_TW_CFG2 = pm_tw_cfg2_state;
 482              		.loc 1 297 0
 483 00bc 44F28233 		movw	r3, #:lower16:1073759106
 484 00c0 C4F20003 		movt	r3, #:upper16:1073759106
 485 00c4 7A7B     		ldrb	r2, [r7, #13]
 486 00c6 1A70     		strb	r2, [r3, #0]
 487              	.L27:
 298:./Generated_Source/PSoC5/CyLib.c ****     }
 299:./Generated_Source/PSoC5/CyLib.c **** }
 488              		.loc 1 299 0
 489 00c8 07F11007 		add	r7, r7, #16
 490 00cc BD46     		mov	sp, r7
 491 00ce 80BD     		pop	{r7, pc}
 492              		.cfi_endproc
 493              	.LFE4:
 494              		.size	CyIMO_Start, .-CyIMO_Start
 495              		.section	.text.CyIMO_Stop,"ax",%progbits
ARM GAS  C:\Users\CHARLI~1\AppData\Local\Temp\cc78mmP1.s 			page 15


 496              		.align	2
 497              		.global	CyIMO_Stop
 498              		.thumb
 499              		.thumb_func
 500              		.type	CyIMO_Stop, %function
 501              	CyIMO_Stop:
 502              	.LFB5:
 300:./Generated_Source/PSoC5/CyLib.c **** 
 301:./Generated_Source/PSoC5/CyLib.c **** 
 302:./Generated_Source/PSoC5/CyLib.c **** /*******************************************************************************
 303:./Generated_Source/PSoC5/CyLib.c **** * Function Name: CyIMO_Stop
 304:./Generated_Source/PSoC5/CyLib.c **** ********************************************************************************
 305:./Generated_Source/PSoC5/CyLib.c **** * Summary:
 306:./Generated_Source/PSoC5/CyLib.c **** *   Disables the IMO.
 307:./Generated_Source/PSoC5/CyLib.c **** *
 308:./Generated_Source/PSoC5/CyLib.c **** * Parameters:
 309:./Generated_Source/PSoC5/CyLib.c **** *   void.
 310:./Generated_Source/PSoC5/CyLib.c **** *
 311:./Generated_Source/PSoC5/CyLib.c **** *
 312:./Generated_Source/PSoC5/CyLib.c **** * Return:
 313:./Generated_Source/PSoC5/CyLib.c **** *   void.
 314:./Generated_Source/PSoC5/CyLib.c **** *
 315:./Generated_Source/PSoC5/CyLib.c **** *******************************************************************************/
 316:./Generated_Source/PSoC5/CyLib.c **** void CyIMO_Stop(void) 
 317:./Generated_Source/PSoC5/CyLib.c **** {
 503              		.loc 1 317 0
 504              		.cfi_startproc
 505              		@ args = 0, pretend = 0, frame = 0
 506              		@ frame_needed = 1, uses_anonymous_args = 0
 507              		@ link register save eliminated.
 508 0000 80B4     		push	{r7}
 509              	.LCFI14:
 510              		.cfi_def_cfa_offset 4
 511 0002 00AF     		add	r7, sp, #0
 512              		.cfi_offset 7, -4
 513              	.LCFI15:
 514              		.cfi_def_cfa_register 7
 318:./Generated_Source/PSoC5/CyLib.c ****     /* Clear the bit to disable the clock. */
 319:./Generated_Source/PSoC5/CyLib.c ****     PM_ACT_CFG0 &= ~IMO_PM_ENABLE;
 515              		.loc 1 319 0
 516 0004 44F2A033 		movw	r3, #:lower16:1073759136
 517 0008 C4F20003 		movt	r3, #:upper16:1073759136
 518 000c 44F2A032 		movw	r2, #:lower16:1073759136
 519 0010 C4F20002 		movt	r2, #:upper16:1073759136
 520 0014 1278     		ldrb	r2, [r2, #0]
 521 0016 D2B2     		uxtb	r2, r2
 522 0018 02F0EF02 		and	r2, r2, #239
 523 001c 1A70     		strb	r2, [r3, #0]
 320:./Generated_Source/PSoC5/CyLib.c **** }
 524              		.loc 1 320 0
 525 001e BD46     		mov	sp, r7
 526 0020 80BC     		pop	{r7}
 527 0022 7047     		bx	lr
 528              		.cfi_endproc
 529              	.LFE5:
 530              		.size	CyIMO_Stop, .-CyIMO_Stop
 531              		.section	.text.CyIMO_SetTrimValue,"ax",%progbits
ARM GAS  C:\Users\CHARLI~1\AppData\Local\Temp\cc78mmP1.s 			page 16


 532              		.align	2
 533              		.global	CyIMO_SetTrimValue
 534              		.thumb
 535              		.thumb_func
 536              		.type	CyIMO_SetTrimValue, %function
 537              	CyIMO_SetTrimValue:
 538              	.LFB6:
 321:./Generated_Source/PSoC5/CyLib.c **** 
 322:./Generated_Source/PSoC5/CyLib.c **** 
 323:./Generated_Source/PSoC5/CyLib.c **** /*******************************************************************************
 324:./Generated_Source/PSoC5/CyLib.c **** * Function Name: CyIMO_SetTrimValue
 325:./Generated_Source/PSoC5/CyLib.c **** ********************************************************************************
 326:./Generated_Source/PSoC5/CyLib.c **** * Summary:
 327:./Generated_Source/PSoC5/CyLib.c **** *   Sets the IMO factory trim values.
 328:./Generated_Source/PSoC5/CyLib.c **** *
 329:./Generated_Source/PSoC5/CyLib.c **** * Parameters:
 330:./Generated_Source/PSoC5/CyLib.c **** *   freq.
 331:./Generated_Source/PSoC5/CyLib.c **** *
 332:./Generated_Source/PSoC5/CyLib.c **** *
 333:./Generated_Source/PSoC5/CyLib.c **** * Return:
 334:./Generated_Source/PSoC5/CyLib.c **** *   void.
 335:./Generated_Source/PSoC5/CyLib.c **** *
 336:./Generated_Source/PSoC5/CyLib.c **** *******************************************************************************/
 337:./Generated_Source/PSoC5/CyLib.c **** void CyIMO_SetTrimValue(uint8 freq) 
 338:./Generated_Source/PSoC5/CyLib.c **** {
 539              		.loc 1 338 0
 540              		.cfi_startproc
 541              		@ args = 0, pretend = 0, frame = 8
 542              		@ frame_needed = 1, uses_anonymous_args = 0
 543 0000 80B5     		push	{r7, lr}
 544              	.LCFI16:
 545              		.cfi_def_cfa_offset 8
 546 0002 82B0     		sub	sp, sp, #8
 547              	.LCFI17:
 548              		.cfi_def_cfa_offset 16
 549 0004 00AF     		add	r7, sp, #0
 550              		.cfi_offset 14, -4
 551              		.cfi_offset 7, -8
 552              	.LCFI18:
 553              		.cfi_def_cfa_register 7
 554 0006 0346     		mov	r3, r0
 555 0008 FB71     		strb	r3, [r7, #7]
 339:./Generated_Source/PSoC5/CyLib.c ****     /*Unlock USB write*/
 340:./Generated_Source/PSoC5/CyLib.c ****     CY_USB_CR1 &= ~CLOCK_USB_ENABLE;
 556              		.loc 1 340 0
 557 000a 46F20903 		movw	r3, #:lower16:1073766409
 558 000e C4F20003 		movt	r3, #:upper16:1073766409
 559 0012 46F20902 		movw	r2, #:lower16:1073766409
 560 0016 C4F20002 		movt	r2, #:upper16:1073766409
 561 001a 1278     		ldrb	r2, [r2, #0]
 562 001c D2B2     		uxtb	r2, r2
 563 001e 02F0FD02 		and	r2, r2, #253
 564 0022 1A70     		strb	r2, [r3, #0]
 341:./Generated_Source/PSoC5/CyLib.c ****     
 342:./Generated_Source/PSoC5/CyLib.c ****     switch(freq)
 565              		.loc 1 342 0
 566 0024 FB79     		ldrb	r3, [r7, #7]	@ zero_extendqisi2
ARM GAS  C:\Users\CHARLI~1\AppData\Local\Temp\cc78mmP1.s 			page 17


 567 0026 082B     		cmp	r3, #8
 568 0028 00F28480 		bhi	.L31
 569 002c 01A2     		adr	r2, .L40
 570 002e 52F823F0 		ldr	pc, [r2, r3, lsl #2]
 571 0032 00BF     		.align	2
 572              	.L40:
 573 0034 59000000 		.word	.L32+1
 574 0038 71000000 		.word	.L33+1
 575 003c 89000000 		.word	.L34+1
 576 0040 A1000000 		.word	.L35+1
 577 0044 B9000000 		.word	.L36+1
 578 0048 D1000000 		.word	.L37+1
 579 004c E9000000 		.word	.L38+1
 580 0050 35010000 		.word	.L31+1
 581 0054 01010000 		.word	.L39+1
 582              	.L32:
 343:./Generated_Source/PSoC5/CyLib.c ****     {
 344:./Generated_Source/PSoC5/CyLib.c ****         case CY_IMO_FREQ_3MHZ:
 345:./Generated_Source/PSoC5/CyLib.c ****         IMO_TR1 = CY_GET_XTND_REG8(FLSHID_CUST_TABLES_IMO_3MHZ_PTR);
 583              		.loc 1 345 0
 584 0058 44F2A163 		movw	r3, #:lower16:1073759905
 585 005c C4F20003 		movt	r3, #:upper16:1073759905
 586 0060 40F20812 		movw	r2, #:lower16:1224737032
 587 0064 C4F60012 		movt	r2, #:upper16:1224737032
 588 0068 1278     		ldrb	r2, [r2, #0]
 589 006a D2B2     		uxtb	r2, r2
 590 006c 1A70     		strb	r2, [r3, #0]
 346:./Generated_Source/PSoC5/CyLib.c ****         break;
 591              		.loc 1 346 0
 592 006e 65E0     		b	.L42
 593              	.L33:
 347:./Generated_Source/PSoC5/CyLib.c **** 
 348:./Generated_Source/PSoC5/CyLib.c ****         case CY_IMO_FREQ_6MHZ:
 349:./Generated_Source/PSoC5/CyLib.c ****         IMO_TR1 = CY_GET_XTND_REG8(FLSHID_CUST_TABLES_IMO_6MHZ_PTR);
 594              		.loc 1 349 0
 595 0070 44F2A163 		movw	r3, #:lower16:1073759905
 596 0074 C4F20003 		movt	r3, #:upper16:1073759905
 597 0078 40F20912 		movw	r2, #:lower16:1224737033
 598 007c C4F60012 		movt	r2, #:upper16:1224737033
 599 0080 1278     		ldrb	r2, [r2, #0]
 600 0082 D2B2     		uxtb	r2, r2
 601 0084 1A70     		strb	r2, [r3, #0]
 350:./Generated_Source/PSoC5/CyLib.c ****         break;
 602              		.loc 1 350 0
 603 0086 59E0     		b	.L42
 604              	.L34:
 351:./Generated_Source/PSoC5/CyLib.c **** 
 352:./Generated_Source/PSoC5/CyLib.c ****         case CY_IMO_FREQ_12MHZ:
 353:./Generated_Source/PSoC5/CyLib.c ****         IMO_TR1 = CY_GET_XTND_REG8(FLSHID_CUST_TABLES_IMO_12MHZ_PTR);
 605              		.loc 1 353 0
 606 0088 44F2A163 		movw	r3, #:lower16:1073759905
 607 008c C4F20003 		movt	r3, #:upper16:1073759905
 608 0090 40F20A12 		movw	r2, #:lower16:1224737034
 609 0094 C4F60012 		movt	r2, #:upper16:1224737034
 610 0098 1278     		ldrb	r2, [r2, #0]
 611 009a D2B2     		uxtb	r2, r2
 612 009c 1A70     		strb	r2, [r3, #0]
ARM GAS  C:\Users\CHARLI~1\AppData\Local\Temp\cc78mmP1.s 			page 18


 354:./Generated_Source/PSoC5/CyLib.c ****         break;
 613              		.loc 1 354 0
 614 009e 4DE0     		b	.L42
 615              	.L35:
 355:./Generated_Source/PSoC5/CyLib.c **** 
 356:./Generated_Source/PSoC5/CyLib.c ****         case CY_IMO_FREQ_24MHZ:
 357:./Generated_Source/PSoC5/CyLib.c ****         IMO_TR1 = CY_GET_XTND_REG8(FLSHID_CUST_TABLES_IMO_24MHZ_PTR);
 616              		.loc 1 357 0
 617 00a0 44F2A163 		movw	r3, #:lower16:1073759905
 618 00a4 C4F20003 		movt	r3, #:upper16:1073759905
 619 00a8 40F20B12 		movw	r2, #:lower16:1224737035
 620 00ac C4F60012 		movt	r2, #:upper16:1224737035
 621 00b0 1278     		ldrb	r2, [r2, #0]
 622 00b2 D2B2     		uxtb	r2, r2
 623 00b4 1A70     		strb	r2, [r3, #0]
 358:./Generated_Source/PSoC5/CyLib.c ****         break;
 624              		.loc 1 358 0
 625 00b6 41E0     		b	.L42
 626              	.L36:
 359:./Generated_Source/PSoC5/CyLib.c **** 
 360:./Generated_Source/PSoC5/CyLib.c ****         case CY_IMO_FREQ_48MHZ:
 361:./Generated_Source/PSoC5/CyLib.c ****         IMO_TR1 = CY_GET_XTND_REG8(FLSHID_MFG_CFG_IMO_TR1_PTR);
 627              		.loc 1 361 0
 628 00b8 44F2A163 		movw	r3, #:lower16:1073759905
 629 00bc C4F20003 		movt	r3, #:upper16:1073759905
 630 00c0 40F28312 		movw	r2, #:lower16:1224737155
 631 00c4 C4F60012 		movt	r2, #:upper16:1224737155
 632 00c8 1278     		ldrb	r2, [r2, #0]
 633 00ca D2B2     		uxtb	r2, r2
 634 00cc 1A70     		strb	r2, [r3, #0]
 362:./Generated_Source/PSoC5/CyLib.c ****         break;
 635              		.loc 1 362 0
 636 00ce 35E0     		b	.L42
 637              	.L37:
 363:./Generated_Source/PSoC5/CyLib.c **** 
 364:./Generated_Source/PSoC5/CyLib.c ****         case CY_IMO_FREQ_62MHZ:
 365:./Generated_Source/PSoC5/CyLib.c ****         IMO_TR1 = CY_GET_XTND_REG8(FLSHID_CUST_TABLES_IMO_67MHZ_PTR);
 638              		.loc 1 365 0
 639 00d0 44F2A163 		movw	r3, #:lower16:1073759905
 640 00d4 C4F20003 		movt	r3, #:upper16:1073759905
 641 00d8 40F20C12 		movw	r2, #:lower16:1224737036
 642 00dc C4F60012 		movt	r2, #:upper16:1224737036
 643 00e0 1278     		ldrb	r2, [r2, #0]
 644 00e2 D2B2     		uxtb	r2, r2
 645 00e4 1A70     		strb	r2, [r3, #0]
 366:./Generated_Source/PSoC5/CyLib.c ****         break;
 646              		.loc 1 366 0
 647 00e6 29E0     		b	.L42
 648              	.L38:
 367:./Generated_Source/PSoC5/CyLib.c **** 
 368:./Generated_Source/PSoC5/CyLib.c ****         case CY_IMO_FREQ_74MHZ:
 369:./Generated_Source/PSoC5/CyLib.c ****         IMO_TR1 = CY_GET_XTND_REG8(FLSHID_CUST_TABLES_IMO_80MHZ_PTR);
 649              		.loc 1 369 0
 650 00e8 44F2A163 		movw	r3, #:lower16:1073759905
 651 00ec C4F20003 		movt	r3, #:upper16:1073759905
 652 00f0 40F20D12 		movw	r2, #:lower16:1224737037
 653 00f4 C4F60012 		movt	r2, #:upper16:1224737037
ARM GAS  C:\Users\CHARLI~1\AppData\Local\Temp\cc78mmP1.s 			page 19


 654 00f8 1278     		ldrb	r2, [r2, #0]
 655 00fa D2B2     		uxtb	r2, r2
 656 00fc 1A70     		strb	r2, [r3, #0]
 370:./Generated_Source/PSoC5/CyLib.c ****         break;
 657              		.loc 1 370 0
 658 00fe 1DE0     		b	.L42
 659              	.L39:
 371:./Generated_Source/PSoC5/CyLib.c ****         
 372:./Generated_Source/PSoC5/CyLib.c ****         case CY_IMO_FREQ_USB:
 373:./Generated_Source/PSoC5/CyLib.c ****         IMO_TR1 = CY_GET_XTND_REG8(FLSHID_CUST_TABLES_IMO_USB_PTR);
 660              		.loc 1 373 0
 661 0100 44F2A163 		movw	r3, #:lower16:1073759905
 662 0104 C4F20003 		movt	r3, #:upper16:1073759905
 663 0108 40F20F12 		movw	r2, #:lower16:1224737039
 664 010c C4F60012 		movt	r2, #:upper16:1224737039
 665 0110 1278     		ldrb	r2, [r2, #0]
 666 0112 D2B2     		uxtb	r2, r2
 667 0114 1A70     		strb	r2, [r3, #0]
 374:./Generated_Source/PSoC5/CyLib.c ****         /*Lock the USB Oscillator*/
 375:./Generated_Source/PSoC5/CyLib.c ****         CY_USB_CR1 |= CLOCK_USB_ENABLE;
 668              		.loc 1 375 0
 669 0116 46F20903 		movw	r3, #:lower16:1073766409
 670 011a C4F20003 		movt	r3, #:upper16:1073766409
 671 011e 46F20902 		movw	r2, #:lower16:1073766409
 672 0122 C4F20002 		movt	r2, #:upper16:1073766409
 673 0126 1278     		ldrb	r2, [r2, #0]
 674 0128 D2B2     		uxtb	r2, r2
 675 012a 42F00202 		orr	r2, r2, #2
 676 012e D2B2     		uxtb	r2, r2
 677 0130 1A70     		strb	r2, [r3, #0]
 376:./Generated_Source/PSoC5/CyLib.c ****         break;
 678              		.loc 1 376 0
 679 0132 03E0     		b	.L42
 680              	.L31:
 377:./Generated_Source/PSoC5/CyLib.c ****         
 378:./Generated_Source/PSoC5/CyLib.c ****         default:
 379:./Generated_Source/PSoC5/CyLib.c ****         CYASSERT(0);
 681              		.loc 1 379 0
 682 0134 4FF00000 		mov	r0, #0
 683 0138 FFF7FEFF 		bl	CyHalt
 684              	.L42:
 380:./Generated_Source/PSoC5/CyLib.c ****         break;
 381:./Generated_Source/PSoC5/CyLib.c ****     }
 382:./Generated_Source/PSoC5/CyLib.c ****     
 383:./Generated_Source/PSoC5/CyLib.c **** }
 685              		.loc 1 383 0
 686 013c 07F10807 		add	r7, r7, #8
 687 0140 BD46     		mov	sp, r7
 688 0142 80BD     		pop	{r7, pc}
 689              		.cfi_endproc
 690              	.LFE6:
 691              		.size	CyIMO_SetTrimValue, .-CyIMO_SetTrimValue
 692              		.section	.text.CyIMO_SetFreq,"ax",%progbits
 693              		.align	2
 694              		.global	CyIMO_SetFreq
 695              		.thumb
 696              		.thumb_func
ARM GAS  C:\Users\CHARLI~1\AppData\Local\Temp\cc78mmP1.s 			page 20


 697              		.type	CyIMO_SetFreq, %function
 698              	CyIMO_SetFreq:
 699              	.LFB7:
 384:./Generated_Source/PSoC5/CyLib.c **** 
 385:./Generated_Source/PSoC5/CyLib.c **** 
 386:./Generated_Source/PSoC5/CyLib.c **** /*******************************************************************************
 387:./Generated_Source/PSoC5/CyLib.c **** * Function Name: CyIMO_SetFreq
 388:./Generated_Source/PSoC5/CyLib.c **** ********************************************************************************
 389:./Generated_Source/PSoC5/CyLib.c **** * Summary:
 390:./Generated_Source/PSoC5/CyLib.c **** *   Alows the caller to set the IMO fequency (3, 6, 12, 24, 48, 62 MHZ).
 391:./Generated_Source/PSoC5/CyLib.c **** *   Sets the frequency of the IMO.  
 392:./Generated_Source/PSoC5/CyLib.c **** *   Changes may be made while the IMO is running.  
 393:./Generated_Source/PSoC5/CyLib.c **** *   When the USB setting is chosen the USB clock locking circuit is enabled.  
 394:./Generated_Source/PSoC5/CyLib.c **** *   Otherwise this circuit is disabled.
 395:./Generated_Source/PSoC5/CyLib.c **** *   If the IMO is currently driving the Master clock, then the Flash wait states
 396:./Generated_Source/PSoC5/CyLib.c **** *   must be set appropriately before making this change -
 397:./Generated_Source/PSoC5/CyLib.c **** *   by using CyFlash_SetWaitCycles().
 398:./Generated_Source/PSoC5/CyLib.c **** *
 399:./Generated_Source/PSoC5/CyLib.c **** *
 400:./Generated_Source/PSoC5/CyLib.c **** * Parameters:
 401:./Generated_Source/PSoC5/CyLib.c **** *   frequency,    CY_IMO_FREQ_3MHZ  to set 3 MHz,
 402:./Generated_Source/PSoC5/CyLib.c **** *                 CY_IMO_FREQ_6MHZ  to set 6 MHz,
 403:./Generated_Source/PSoC5/CyLib.c **** *                 CY_IMO_FREQ_12MHZ to set 12MHz,
 404:./Generated_Source/PSoC5/CyLib.c **** *                 CY_IMO_FREQ_24MHZ to set 24MHz,
 405:./Generated_Source/PSoC5/CyLib.c **** *                 CY_IMO_FREQ_48MHZ to set 48MHz,
 406:./Generated_Source/PSoC5/CyLib.c **** *                 CY_IMO_FREQ_62MHZ to set 62.6MHz.
 407:./Generated_Source/PSoC5/CyLib.c **** *                 CY_IMO_FREQ_74MHZ    to set 74.7 MHz (PSoC 5)
 408:./Generated_Source/PSoC5/CyLib.c **** *                 CY_IMO_FREQ_USB    to set 24 MHz (Trimmed for USB operation)
 409:./Generated_Source/PSoC5/CyLib.c **** *
 410:./Generated_Source/PSoC5/CyLib.c **** *
 411:./Generated_Source/PSoC5/CyLib.c **** * Return:
 412:./Generated_Source/PSoC5/CyLib.c **** *   void.
 413:./Generated_Source/PSoC5/CyLib.c **** *
 414:./Generated_Source/PSoC5/CyLib.c **** *******************************************************************************/
 415:./Generated_Source/PSoC5/CyLib.c **** void CyIMO_SetFreq(uint8 freq) 
 416:./Generated_Source/PSoC5/CyLib.c **** {
 700              		.loc 1 416 0
 701              		.cfi_startproc
 702              		@ args = 0, pretend = 0, frame = 16
 703              		@ frame_needed = 1, uses_anonymous_args = 0
 704 0000 80B5     		push	{r7, lr}
 705              	.LCFI19:
 706              		.cfi_def_cfa_offset 8
 707 0002 84B0     		sub	sp, sp, #16
 708              	.LCFI20:
 709              		.cfi_def_cfa_offset 24
 710 0004 00AF     		add	r7, sp, #0
 711              		.cfi_offset 14, -4
 712              		.cfi_offset 7, -8
 713              	.LCFI21:
 714              		.cfi_def_cfa_register 7
 715 0006 0346     		mov	r3, r0
 716 0008 FB71     		strb	r3, [r7, #7]
 417:./Generated_Source/PSoC5/CyLib.c ****     uint8 current_freq;
 418:./Generated_Source/PSoC5/CyLib.c ****     uint8 next_freq;
 419:./Generated_Source/PSoC5/CyLib.c ****     
 420:./Generated_Source/PSoC5/CyLib.c ****     /*
ARM GAS  C:\Users\CHARLI~1\AppData\Local\Temp\cc78mmP1.s 			page 21


 421:./Generated_Source/PSoC5/CyLib.c ****     When changing the IMO frequency the Trim values must also be set accordingly.  
 422:./Generated_Source/PSoC5/CyLib.c ****     This requires reading the current frequency.  
 423:./Generated_Source/PSoC5/CyLib.c ****     If the new frequency is faster, then set the new trim and then change the
 424:./Generated_Source/PSoC5/CyLib.c ****     frequency, otherwise change the frequency and then set the new trim values.
 425:./Generated_Source/PSoC5/CyLib.c ****     */
 426:./Generated_Source/PSoC5/CyLib.c **** 
 427:./Generated_Source/PSoC5/CyLib.c ****     /*
 428:./Generated_Source/PSoC5/CyLib.c ****     Value Name         Description
 429:./Generated_Source/PSoC5/CyLib.c ****     3'h0 F_RANGE_0 12 MHz (normal)
 430:./Generated_Source/PSoC5/CyLib.c ****     3'h1 F_RANGE_1 6 MHz (normal); 12 MHz (fast start)
 431:./Generated_Source/PSoC5/CyLib.c ****     3'h2 F_RANGE_2 24 MHz
 432:./Generated_Source/PSoC5/CyLib.c ****     3'h3 F_RANGE_3 3 MHz (normal); 12 MHz (fast start)
 433:./Generated_Source/PSoC5/CyLib.c ****     3'h4 F_RANGE_4 48 MHz
 434:./Generated_Source/PSoC5/CyLib.c ****     3'h5 F_RANGE_5 67 MHz
 435:./Generated_Source/PSoC5/CyLib.c ****     3'h6 F_RANGE_6 80 MHz (normal); 48 MHz (fast start)
 436:./Generated_Source/PSoC5/CyLib.c ****     3'h7 F_RANGE_7 96 MHz (normal); 48 MHz (fast start)
 437:./Generated_Source/PSoC5/CyLib.c ****     */
 438:./Generated_Source/PSoC5/CyLib.c ****     current_freq = FASTCLK_IMO_CR & ~CLOCK_IMO_RANGE_CLEAR;
 717              		.loc 1 438 0
 718 000a 44F20023 		movw	r3, #:lower16:1073758720
 719 000e C4F20003 		movt	r3, #:upper16:1073758720
 720 0012 1B78     		ldrb	r3, [r3, #0]
 721 0014 DBB2     		uxtb	r3, r3
 722 0016 03F00703 		and	r3, r3, #7
 723 001a BB73     		strb	r3, [r7, #14]
 439:./Generated_Source/PSoC5/CyLib.c ****     /*Check if the requested frequency is USB.*/
 440:./Generated_Source/PSoC5/CyLib.c ****     next_freq = (freq == CY_IMO_FREQ_USB) ? CY_IMO_FREQ_24MHZ : freq;
 724              		.loc 1 440 0
 725 001c FB79     		ldrb	r3, [r7, #7]	@ zero_extendqisi2
 726 001e 082B     		cmp	r3, #8
 727 0020 01D0     		beq	.L44
 728 0022 FB79     		ldrb	r3, [r7, #7]	@ zero_extendqisi2
 729 0024 01E0     		b	.L45
 730              	.L44:
 731 0026 4FF00303 		mov	r3, #3
 732              	.L45:
 733 002a FB73     		strb	r3, [r7, #15]
 441:./Generated_Source/PSoC5/CyLib.c ****     switch (current_freq)
 734              		.loc 1 441 0
 735 002c BB7B     		ldrb	r3, [r7, #14]	@ zero_extendqisi2
 736 002e 062B     		cmp	r3, #6
 737 0030 2BD8     		bhi	.L46
 738 0032 01A2     		adr	r2, .L54
 739 0034 52F823F0 		ldr	pc, [r2, r3, lsl #2]
 740              		.align	2
 741              	.L54:
 742 0038 55000000 		.word	.L47+1
 743 003c 5D000000 		.word	.L48+1
 744 0040 65000000 		.word	.L49+1
 745 0044 6D000000 		.word	.L50+1
 746 0048 75000000 		.word	.L51+1
 747 004c 7D000000 		.word	.L52+1
 748 0050 85000000 		.word	.L53+1
 749              	.L47:
 442:./Generated_Source/PSoC5/CyLib.c ****     {
 443:./Generated_Source/PSoC5/CyLib.c ****         case 0:
 444:./Generated_Source/PSoC5/CyLib.c ****         current_freq = CY_IMO_FREQ_12MHZ;
ARM GAS  C:\Users\CHARLI~1\AppData\Local\Temp\cc78mmP1.s 			page 22


 750              		.loc 1 444 0
 751 0054 4FF00203 		mov	r3, #2
 752 0058 BB73     		strb	r3, [r7, #14]
 445:./Generated_Source/PSoC5/CyLib.c ****         break;
 753              		.loc 1 445 0
 754 005a 16E0     		b	.L46
 755              	.L48:
 446:./Generated_Source/PSoC5/CyLib.c ****         
 447:./Generated_Source/PSoC5/CyLib.c ****         case 1:
 448:./Generated_Source/PSoC5/CyLib.c ****         current_freq = CY_IMO_FREQ_6MHZ;
 756              		.loc 1 448 0
 757 005c 4FF00103 		mov	r3, #1
 758 0060 BB73     		strb	r3, [r7, #14]
 449:./Generated_Source/PSoC5/CyLib.c ****         break;
 759              		.loc 1 449 0
 760 0062 12E0     		b	.L46
 761              	.L49:
 450:./Generated_Source/PSoC5/CyLib.c **** 
 451:./Generated_Source/PSoC5/CyLib.c ****         case 2:
 452:./Generated_Source/PSoC5/CyLib.c ****         current_freq = CY_IMO_FREQ_24MHZ;
 762              		.loc 1 452 0
 763 0064 4FF00303 		mov	r3, #3
 764 0068 BB73     		strb	r3, [r7, #14]
 453:./Generated_Source/PSoC5/CyLib.c ****         break;
 765              		.loc 1 453 0
 766 006a 0EE0     		b	.L46
 767              	.L50:
 454:./Generated_Source/PSoC5/CyLib.c **** 
 455:./Generated_Source/PSoC5/CyLib.c ****         case 3:
 456:./Generated_Source/PSoC5/CyLib.c ****         current_freq = CY_IMO_FREQ_3MHZ;
 768              		.loc 1 456 0
 769 006c 4FF00003 		mov	r3, #0
 770 0070 BB73     		strb	r3, [r7, #14]
 457:./Generated_Source/PSoC5/CyLib.c ****         break;
 771              		.loc 1 457 0
 772 0072 0AE0     		b	.L46
 773              	.L51:
 458:./Generated_Source/PSoC5/CyLib.c **** 
 459:./Generated_Source/PSoC5/CyLib.c ****         case 4:
 460:./Generated_Source/PSoC5/CyLib.c ****         current_freq = CY_IMO_FREQ_48MHZ;
 774              		.loc 1 460 0
 775 0074 4FF00403 		mov	r3, #4
 776 0078 BB73     		strb	r3, [r7, #14]
 461:./Generated_Source/PSoC5/CyLib.c ****         break;
 777              		.loc 1 461 0
 778 007a 06E0     		b	.L46
 779              	.L52:
 462:./Generated_Source/PSoC5/CyLib.c **** 
 463:./Generated_Source/PSoC5/CyLib.c ****         case 5:
 464:./Generated_Source/PSoC5/CyLib.c ****         current_freq = CY_IMO_FREQ_62MHZ;
 780              		.loc 1 464 0
 781 007c 4FF00503 		mov	r3, #5
 782 0080 BB73     		strb	r3, [r7, #14]
 465:./Generated_Source/PSoC5/CyLib.c ****         break;
 783              		.loc 1 465 0
 784 0082 02E0     		b	.L46
 785              	.L53:
ARM GAS  C:\Users\CHARLI~1\AppData\Local\Temp\cc78mmP1.s 			page 23


 466:./Generated_Source/PSoC5/CyLib.c **** 
 467:./Generated_Source/PSoC5/CyLib.c ****         case 6:
 468:./Generated_Source/PSoC5/CyLib.c ****         current_freq = CY_IMO_FREQ_74MHZ;
 786              		.loc 1 468 0
 787 0084 4FF00603 		mov	r3, #6
 788 0088 BB73     		strb	r3, [r7, #14]
 789              	.L46:
 469:./Generated_Source/PSoC5/CyLib.c ****         break;
 470:./Generated_Source/PSoC5/CyLib.c ****     }
 471:./Generated_Source/PSoC5/CyLib.c ****     
 472:./Generated_Source/PSoC5/CyLib.c ****     if (next_freq >= current_freq)
 790              		.loc 1 472 0
 791 008a FA7B     		ldrb	r2, [r7, #15]	@ zero_extendqisi2
 792 008c BB7B     		ldrb	r3, [r7, #14]	@ zero_extendqisi2
 793 008e 9A42     		cmp	r2, r3
 794 0090 03D3     		bcc	.L55
 473:./Generated_Source/PSoC5/CyLib.c ****     {
 474:./Generated_Source/PSoC5/CyLib.c ****         /*Set the new trim first*/
 475:./Generated_Source/PSoC5/CyLib.c ****         CyIMO_SetTrimValue(freq);
 795              		.loc 1 475 0
 796 0092 FB79     		ldrb	r3, [r7, #7]	@ zero_extendqisi2
 797 0094 1846     		mov	r0, r3
 798 0096 FFF7FEFF 		bl	CyIMO_SetTrimValue
 799              	.L55:
 476:./Generated_Source/PSoC5/CyLib.c ****     }
 477:./Generated_Source/PSoC5/CyLib.c ****     
 478:./Generated_Source/PSoC5/CyLib.c ****     
 479:./Generated_Source/PSoC5/CyLib.c ****     switch(freq)
 800              		.loc 1 479 0
 801 009a FB79     		ldrb	r3, [r7, #7]	@ zero_extendqisi2
 802 009c 082B     		cmp	r3, #8
 803 009e 00F2A880 		bhi	.L56
 804 00a2 01A2     		adr	r2, .L65
 805 00a4 52F823F0 		ldr	pc, [r2, r3, lsl #2]
 806              		.align	2
 807              	.L65:
 808 00a8 CD000000 		.word	.L57+1
 809 00ac F3000000 		.word	.L58+1
 810 00b0 19010000 		.word	.L59+1
 811 00b4 35010000 		.word	.L60+1
 812 00b8 5B010000 		.word	.L61+1
 813 00bc 81010000 		.word	.L62+1
 814 00c0 A7010000 		.word	.L63+1
 815 00c4 F3010000 		.word	.L56+1
 816 00c8 CD010000 		.word	.L64+1
 817              	.L57:
 480:./Generated_Source/PSoC5/CyLib.c ****     {
 481:./Generated_Source/PSoC5/CyLib.c ****         case CY_IMO_FREQ_3MHZ:
 482:./Generated_Source/PSoC5/CyLib.c ****         FASTCLK_IMO_CR = (FASTCLK_IMO_CR & CLOCK_IMO_RANGE_CLEAR) | CLOCK_IMO_3MHZ_VALUE;
 818              		.loc 1 482 0
 819 00cc 44F20023 		movw	r3, #:lower16:1073758720
 820 00d0 C4F20003 		movt	r3, #:upper16:1073758720
 821 00d4 44F20022 		movw	r2, #:lower16:1073758720
 822 00d8 C4F20002 		movt	r2, #:upper16:1073758720
 823 00dc 1278     		ldrb	r2, [r2, #0]
 824 00de D2B2     		uxtb	r2, r2
 825 00e0 D2B2     		uxtb	r2, r2
ARM GAS  C:\Users\CHARLI~1\AppData\Local\Temp\cc78mmP1.s 			page 24


 826 00e2 02F0F802 		and	r2, r2, #248
 827 00e6 42F00302 		orr	r2, r2, #3
 828 00ea D2B2     		uxtb	r2, r2
 829 00ec D2B2     		uxtb	r2, r2
 830 00ee 1A70     		strb	r2, [r3, #0]
 483:./Generated_Source/PSoC5/CyLib.c ****         break;
 831              		.loc 1 483 0
 832 00f0 83E0     		b	.L66
 833              	.L58:
 484:./Generated_Source/PSoC5/CyLib.c **** 
 485:./Generated_Source/PSoC5/CyLib.c ****         case CY_IMO_FREQ_6MHZ:
 486:./Generated_Source/PSoC5/CyLib.c ****         FASTCLK_IMO_CR = (FASTCLK_IMO_CR & CLOCK_IMO_RANGE_CLEAR) | CLOCK_IMO_6MHZ_VALUE;
 834              		.loc 1 486 0
 835 00f2 44F20023 		movw	r3, #:lower16:1073758720
 836 00f6 C4F20003 		movt	r3, #:upper16:1073758720
 837 00fa 44F20022 		movw	r2, #:lower16:1073758720
 838 00fe C4F20002 		movt	r2, #:upper16:1073758720
 839 0102 1278     		ldrb	r2, [r2, #0]
 840 0104 D2B2     		uxtb	r2, r2
 841 0106 D2B2     		uxtb	r2, r2
 842 0108 02F0F802 		and	r2, r2, #248
 843 010c 42F00102 		orr	r2, r2, #1
 844 0110 D2B2     		uxtb	r2, r2
 845 0112 D2B2     		uxtb	r2, r2
 846 0114 1A70     		strb	r2, [r3, #0]
 487:./Generated_Source/PSoC5/CyLib.c ****         break;
 847              		.loc 1 487 0
 848 0116 70E0     		b	.L66
 849              	.L59:
 488:./Generated_Source/PSoC5/CyLib.c **** 
 489:./Generated_Source/PSoC5/CyLib.c ****         case CY_IMO_FREQ_12MHZ:
 490:./Generated_Source/PSoC5/CyLib.c ****         FASTCLK_IMO_CR = (FASTCLK_IMO_CR & CLOCK_IMO_RANGE_CLEAR) | CLOCK_IMO_12MHZ_VALUE;
 850              		.loc 1 490 0
 851 0118 44F20023 		movw	r3, #:lower16:1073758720
 852 011c C4F20003 		movt	r3, #:upper16:1073758720
 853 0120 44F20022 		movw	r2, #:lower16:1073758720
 854 0124 C4F20002 		movt	r2, #:upper16:1073758720
 855 0128 1278     		ldrb	r2, [r2, #0]
 856 012a D2B2     		uxtb	r2, r2
 857 012c 02F0F802 		and	r2, r2, #248
 858 0130 1A70     		strb	r2, [r3, #0]
 491:./Generated_Source/PSoC5/CyLib.c ****         break;
 859              		.loc 1 491 0
 860 0132 62E0     		b	.L66
 861              	.L60:
 492:./Generated_Source/PSoC5/CyLib.c **** 
 493:./Generated_Source/PSoC5/CyLib.c ****         case CY_IMO_FREQ_24MHZ:
 494:./Generated_Source/PSoC5/CyLib.c ****         FASTCLK_IMO_CR = (FASTCLK_IMO_CR & CLOCK_IMO_RANGE_CLEAR) | CLOCK_IMO_24MHZ_VALUE;
 862              		.loc 1 494 0
 863 0134 44F20023 		movw	r3, #:lower16:1073758720
 864 0138 C4F20003 		movt	r3, #:upper16:1073758720
 865 013c 44F20022 		movw	r2, #:lower16:1073758720
 866 0140 C4F20002 		movt	r2, #:upper16:1073758720
 867 0144 1278     		ldrb	r2, [r2, #0]
 868 0146 D2B2     		uxtb	r2, r2
 869 0148 D2B2     		uxtb	r2, r2
 870 014a 02F0F802 		and	r2, r2, #248
ARM GAS  C:\Users\CHARLI~1\AppData\Local\Temp\cc78mmP1.s 			page 25


 871 014e 42F00202 		orr	r2, r2, #2
 872 0152 D2B2     		uxtb	r2, r2
 873 0154 D2B2     		uxtb	r2, r2
 874 0156 1A70     		strb	r2, [r3, #0]
 495:./Generated_Source/PSoC5/CyLib.c ****         break;
 875              		.loc 1 495 0
 876 0158 4FE0     		b	.L66
 877              	.L61:
 496:./Generated_Source/PSoC5/CyLib.c **** 
 497:./Generated_Source/PSoC5/CyLib.c ****         case CY_IMO_FREQ_48MHZ:
 498:./Generated_Source/PSoC5/CyLib.c ****         FASTCLK_IMO_CR = (FASTCLK_IMO_CR & CLOCK_IMO_RANGE_CLEAR) | CLOCK_IMO_48MHZ_VALUE;
 878              		.loc 1 498 0
 879 015a 44F20023 		movw	r3, #:lower16:1073758720
 880 015e C4F20003 		movt	r3, #:upper16:1073758720
 881 0162 44F20022 		movw	r2, #:lower16:1073758720
 882 0166 C4F20002 		movt	r2, #:upper16:1073758720
 883 016a 1278     		ldrb	r2, [r2, #0]
 884 016c D2B2     		uxtb	r2, r2
 885 016e D2B2     		uxtb	r2, r2
 886 0170 02F0F802 		and	r2, r2, #248
 887 0174 42F00402 		orr	r2, r2, #4
 888 0178 D2B2     		uxtb	r2, r2
 889 017a D2B2     		uxtb	r2, r2
 890 017c 1A70     		strb	r2, [r3, #0]
 499:./Generated_Source/PSoC5/CyLib.c ****         break;
 891              		.loc 1 499 0
 892 017e 3CE0     		b	.L66
 893              	.L62:
 500:./Generated_Source/PSoC5/CyLib.c **** 
 501:./Generated_Source/PSoC5/CyLib.c ****         case CY_IMO_FREQ_62MHZ:
 502:./Generated_Source/PSoC5/CyLib.c ****         FASTCLK_IMO_CR = (FASTCLK_IMO_CR & CLOCK_IMO_RANGE_CLEAR) | CLOCK_IMO_62MHZ_VALUE;
 894              		.loc 1 502 0
 895 0180 44F20023 		movw	r3, #:lower16:1073758720
 896 0184 C4F20003 		movt	r3, #:upper16:1073758720
 897 0188 44F20022 		movw	r2, #:lower16:1073758720
 898 018c C4F20002 		movt	r2, #:upper16:1073758720
 899 0190 1278     		ldrb	r2, [r2, #0]
 900 0192 D2B2     		uxtb	r2, r2
 901 0194 D2B2     		uxtb	r2, r2
 902 0196 02F0F802 		and	r2, r2, #248
 903 019a 42F00502 		orr	r2, r2, #5
 904 019e D2B2     		uxtb	r2, r2
 905 01a0 D2B2     		uxtb	r2, r2
 906 01a2 1A70     		strb	r2, [r3, #0]
 503:./Generated_Source/PSoC5/CyLib.c ****         break;
 907              		.loc 1 503 0
 908 01a4 29E0     		b	.L66
 909              	.L63:
 504:./Generated_Source/PSoC5/CyLib.c **** 
 505:./Generated_Source/PSoC5/CyLib.c ****         case CY_IMO_FREQ_74MHZ:
 506:./Generated_Source/PSoC5/CyLib.c ****         FASTCLK_IMO_CR = (FASTCLK_IMO_CR & CLOCK_IMO_RANGE_CLEAR) | CLOCK_IMO_74MHZ_VALUE;
 910              		.loc 1 506 0
 911 01a6 44F20023 		movw	r3, #:lower16:1073758720
 912 01aa C4F20003 		movt	r3, #:upper16:1073758720
 913 01ae 44F20022 		movw	r2, #:lower16:1073758720
 914 01b2 C4F20002 		movt	r2, #:upper16:1073758720
 915 01b6 1278     		ldrb	r2, [r2, #0]
ARM GAS  C:\Users\CHARLI~1\AppData\Local\Temp\cc78mmP1.s 			page 26


 916 01b8 D2B2     		uxtb	r2, r2
 917 01ba D2B2     		uxtb	r2, r2
 918 01bc 02F0F802 		and	r2, r2, #248
 919 01c0 42F00602 		orr	r2, r2, #6
 920 01c4 D2B2     		uxtb	r2, r2
 921 01c6 D2B2     		uxtb	r2, r2
 922 01c8 1A70     		strb	r2, [r3, #0]
 507:./Generated_Source/PSoC5/CyLib.c ****         break;
 923              		.loc 1 507 0
 924 01ca 16E0     		b	.L66
 925              	.L64:
 508:./Generated_Source/PSoC5/CyLib.c ****         
 509:./Generated_Source/PSoC5/CyLib.c ****         case CY_IMO_FREQ_USB:
 510:./Generated_Source/PSoC5/CyLib.c ****         FASTCLK_IMO_CR = (FASTCLK_IMO_CR & CLOCK_IMO_RANGE_CLEAR) | CLOCK_IMO_24MHZ_VALUE;
 926              		.loc 1 510 0
 927 01cc 44F20023 		movw	r3, #:lower16:1073758720
 928 01d0 C4F20003 		movt	r3, #:upper16:1073758720
 929 01d4 44F20022 		movw	r2, #:lower16:1073758720
 930 01d8 C4F20002 		movt	r2, #:upper16:1073758720
 931 01dc 1278     		ldrb	r2, [r2, #0]
 932 01de D2B2     		uxtb	r2, r2
 933 01e0 D2B2     		uxtb	r2, r2
 934 01e2 02F0F802 		and	r2, r2, #248
 935 01e6 42F00202 		orr	r2, r2, #2
 936 01ea D2B2     		uxtb	r2, r2
 937 01ec D2B2     		uxtb	r2, r2
 938 01ee 1A70     		strb	r2, [r3, #0]
 511:./Generated_Source/PSoC5/CyLib.c ****         break;
 939              		.loc 1 511 0
 940 01f0 03E0     		b	.L66
 941              	.L56:
 512:./Generated_Source/PSoC5/CyLib.c ****         
 513:./Generated_Source/PSoC5/CyLib.c ****         default:
 514:./Generated_Source/PSoC5/CyLib.c ****         /*Not a correct fequency value.*/
 515:./Generated_Source/PSoC5/CyLib.c ****         CYASSERT(0);
 942              		.loc 1 515 0
 943 01f2 4FF00000 		mov	r0, #0
 944 01f6 FFF7FEFF 		bl	CyHalt
 945              	.L66:
 516:./Generated_Source/PSoC5/CyLib.c ****         break;
 517:./Generated_Source/PSoC5/CyLib.c ****     }
 518:./Generated_Source/PSoC5/CyLib.c ****     
 519:./Generated_Source/PSoC5/CyLib.c ****     if (next_freq < current_freq)
 946              		.loc 1 519 0
 947 01fa FA7B     		ldrb	r2, [r7, #15]	@ zero_extendqisi2
 948 01fc BB7B     		ldrb	r3, [r7, #14]	@ zero_extendqisi2
 949 01fe 9A42     		cmp	r2, r3
 950 0200 03D2     		bcs	.L68
 520:./Generated_Source/PSoC5/CyLib.c ****     {
 521:./Generated_Source/PSoC5/CyLib.c ****         /*Set the new trim after setting the frequency*/
 522:./Generated_Source/PSoC5/CyLib.c ****         CyIMO_SetTrimValue(freq);
 951              		.loc 1 522 0
 952 0202 FB79     		ldrb	r3, [r7, #7]	@ zero_extendqisi2
 953 0204 1846     		mov	r0, r3
 954 0206 FFF7FEFF 		bl	CyIMO_SetTrimValue
 955              	.L68:
 523:./Generated_Source/PSoC5/CyLib.c ****     }
ARM GAS  C:\Users\CHARLI~1\AppData\Local\Temp\cc78mmP1.s 			page 27


 524:./Generated_Source/PSoC5/CyLib.c **** }
 956              		.loc 1 524 0
 957 020a 07F11007 		add	r7, r7, #16
 958 020e BD46     		mov	sp, r7
 959 0210 80BD     		pop	{r7, pc}
 960              		.cfi_endproc
 961              	.LFE7:
 962              		.size	CyIMO_SetFreq, .-CyIMO_SetFreq
 963 0212 00BF     		.section	.text.CyIMO_SetSource,"ax",%progbits
 964              		.align	2
 965              		.global	CyIMO_SetSource
 966              		.thumb
 967              		.thumb_func
 968              		.type	CyIMO_SetSource, %function
 969              	CyIMO_SetSource:
 970              	.LFB8:
 525:./Generated_Source/PSoC5/CyLib.c **** 
 526:./Generated_Source/PSoC5/CyLib.c **** 
 527:./Generated_Source/PSoC5/CyLib.c **** /*******************************************************************************
 528:./Generated_Source/PSoC5/CyLib.c **** * Function Name: CyIMO_SetSource
 529:./Generated_Source/PSoC5/CyLib.c **** ********************************************************************************
 530:./Generated_Source/PSoC5/CyLib.c **** * Summary:
 531:./Generated_Source/PSoC5/CyLib.c **** *   Sets the source of the clock output from the IMO block.  
 532:./Generated_Source/PSoC5/CyLib.c **** *   The output from the IMO is by default the IMO itself.  
 533:./Generated_Source/PSoC5/CyLib.c **** *   Optionally the MHz Crystal or a DSI input can be the source of the 
 534:./Generated_Source/PSoC5/CyLib.c **** *   IMO output instead.  
 535:./Generated_Source/PSoC5/CyLib.c **** *   If the IMO is currently driving the Master clock, 
 536:./Generated_Source/PSoC5/CyLib.c **** *   then the Flash wait states must be set appropriately before making this 
 537:./Generated_Source/PSoC5/CyLib.c **** *   change by using CyFlash_SetWaitCycles().
 538:./Generated_Source/PSoC5/CyLib.c **** *
 539:./Generated_Source/PSoC5/CyLib.c **** *
 540:./Generated_Source/PSoC5/CyLib.c **** * Parameters:
 541:./Generated_Source/PSoC5/CyLib.c **** *   source, CY_IMO_SOURCE_DSI to set the DSI as source.
 542:./Generated_Source/PSoC5/CyLib.c **** *           CY_IMO_SOURCE_XTAL to set the MHz as source.
 543:./Generated_Source/PSoC5/CyLib.c **** *           CY_IMO_SOURCE_IMO to set the IMO itself.
 544:./Generated_Source/PSoC5/CyLib.c **** *
 545:./Generated_Source/PSoC5/CyLib.c **** *
 546:./Generated_Source/PSoC5/CyLib.c **** * Return:
 547:./Generated_Source/PSoC5/CyLib.c **** *   void.
 548:./Generated_Source/PSoC5/CyLib.c **** *
 549:./Generated_Source/PSoC5/CyLib.c **** *******************************************************************************/
 550:./Generated_Source/PSoC5/CyLib.c **** void CyIMO_SetSource(uint8 source) 
 551:./Generated_Source/PSoC5/CyLib.c **** {
 971              		.loc 1 551 0
 972              		.cfi_startproc
 973              		@ args = 0, pretend = 0, frame = 8
 974              		@ frame_needed = 1, uses_anonymous_args = 0
 975 0000 80B5     		push	{r7, lr}
 976              	.LCFI22:
 977              		.cfi_def_cfa_offset 8
 978 0002 82B0     		sub	sp, sp, #8
 979              	.LCFI23:
 980              		.cfi_def_cfa_offset 16
 981 0004 00AF     		add	r7, sp, #0
 982              		.cfi_offset 14, -4
 983              		.cfi_offset 7, -8
 984              	.LCFI24:
ARM GAS  C:\Users\CHARLI~1\AppData\Local\Temp\cc78mmP1.s 			page 28


 985              		.cfi_def_cfa_register 7
 986 0006 0346     		mov	r3, r0
 987 0008 FB71     		strb	r3, [r7, #7]
 552:./Generated_Source/PSoC5/CyLib.c ****     /*Set the xclken bit of FASTCLK_IMO_CR regigster*/
 553:./Generated_Source/PSoC5/CyLib.c ****     /*
 554:./Generated_Source/PSoC5/CyLib.c ****         IMO2X_SRC     bit in CLKDIST_CR
 555:./Generated_Source/PSoC5/CyLib.c ****         
 556:./Generated_Source/PSoC5/CyLib.c ****         Bit field encoding: IMO2X_INPUT_SEL_ENUM
 557:./Generated_Source/PSoC5/CyLib.c ****         Value Name Description
 558:./Generated_Source/PSoC5/CyLib.c ****         1'b0  DSI  Digital System Interconnect is used as a source to IMO doubler
 559:./Generated_Source/PSoC5/CyLib.c ****         1'b1  XTAL External clock source is used as a source to IMO doubler
 560:./Generated_Source/PSoC5/CyLib.c ****         
 561:./Generated_Source/PSoC5/CyLib.c ****         xclken         bit in FASTCLK_IMO_CR
 562:./Generated_Source/PSoC5/CyLib.c ****         
 563:./Generated_Source/PSoC5/CyLib.c ****         Value      Name      Description
 564:./Generated_Source/PSoC5/CyLib.c ****         1'b0     XCLKEN_0     IMO doubler runs from the IMOCLK
 565:./Generated_Source/PSoC5/CyLib.c ****         1'b1     XCLKEN_1     IMO doubler runs from the selected 'external' clock. 
 566:./Generated_Source/PSoC5/CyLib.c ****                             This is a signal on a global - source is TBD.
 567:./Generated_Source/PSoC5/CyLib.c ****     */
 568:./Generated_Source/PSoC5/CyLib.c ****     
 569:./Generated_Source/PSoC5/CyLib.c ****     switch(source)
 988              		.loc 1 569 0
 989 000a FB79     		ldrb	r3, [r7, #7]	@ zero_extendqisi2
 990 000c 012B     		cmp	r3, #1
 991 000e 20D0     		beq	.L72
 992 0010 022B     		cmp	r3, #2
 993 0012 02D0     		beq	.L73
 994 0014 002B     		cmp	r3, #0
 995 0016 39D0     		beq	.L71
 996 0018 46E0     		b	.L76
 997              	.L73:
 570:./Generated_Source/PSoC5/CyLib.c ****     {
 571:./Generated_Source/PSoC5/CyLib.c ****         case CY_IMO_SOURCE_DSI:
 572:./Generated_Source/PSoC5/CyLib.c ****             CLKDIST_CR &= ~CLOCK_IMO2X_XTAL;
 998              		.loc 1 572 0
 999 001a 44F20003 		movw	r3, #:lower16:1073758208
 1000 001e C4F20003 		movt	r3, #:upper16:1073758208
 1001 0022 44F20002 		movw	r2, #:lower16:1073758208
 1002 0026 C4F20002 		movt	r2, #:upper16:1073758208
 1003 002a 1278     		ldrb	r2, [r2, #0]
 1004 002c D2B2     		uxtb	r2, r2
 1005 002e 02F0BF02 		and	r2, r2, #191
 1006 0032 1A70     		strb	r2, [r3, #0]
 573:./Generated_Source/PSoC5/CyLib.c ****             FASTCLK_IMO_CR |= CLOCK_IMO_IMO;
 1007              		.loc 1 573 0
 1008 0034 44F20023 		movw	r3, #:lower16:1073758720
 1009 0038 C4F20003 		movt	r3, #:upper16:1073758720
 1010 003c 44F20022 		movw	r2, #:lower16:1073758720
 1011 0040 C4F20002 		movt	r2, #:upper16:1073758720
 1012 0044 1278     		ldrb	r2, [r2, #0]
 1013 0046 D2B2     		uxtb	r2, r2
 1014 0048 42F02002 		orr	r2, r2, #32
 1015 004c D2B2     		uxtb	r2, r2
 1016 004e 1A70     		strb	r2, [r3, #0]
 574:./Generated_Source/PSoC5/CyLib.c ****             break;
 1017              		.loc 1 574 0
 1018 0050 2EE0     		b	.L75
ARM GAS  C:\Users\CHARLI~1\AppData\Local\Temp\cc78mmP1.s 			page 29


 1019              	.L72:
 575:./Generated_Source/PSoC5/CyLib.c ****         
 576:./Generated_Source/PSoC5/CyLib.c ****         case CY_IMO_SOURCE_XTAL:        
 577:./Generated_Source/PSoC5/CyLib.c ****             CLKDIST_CR |= CLOCK_IMO2X_XTAL;
 1020              		.loc 1 577 0
 1021 0052 44F20003 		movw	r3, #:lower16:1073758208
 1022 0056 C4F20003 		movt	r3, #:upper16:1073758208
 1023 005a 44F20002 		movw	r2, #:lower16:1073758208
 1024 005e C4F20002 		movt	r2, #:upper16:1073758208
 1025 0062 1278     		ldrb	r2, [r2, #0]
 1026 0064 D2B2     		uxtb	r2, r2
 1027 0066 42F04002 		orr	r2, r2, #64
 1028 006a D2B2     		uxtb	r2, r2
 1029 006c 1A70     		strb	r2, [r3, #0]
 578:./Generated_Source/PSoC5/CyLib.c ****             FASTCLK_IMO_CR |= CLOCK_IMO_IMO;
 1030              		.loc 1 578 0
 1031 006e 44F20023 		movw	r3, #:lower16:1073758720
 1032 0072 C4F20003 		movt	r3, #:upper16:1073758720
 1033 0076 44F20022 		movw	r2, #:lower16:1073758720
 1034 007a C4F20002 		movt	r2, #:upper16:1073758720
 1035 007e 1278     		ldrb	r2, [r2, #0]
 1036 0080 D2B2     		uxtb	r2, r2
 1037 0082 42F02002 		orr	r2, r2, #32
 1038 0086 D2B2     		uxtb	r2, r2
 1039 0088 1A70     		strb	r2, [r3, #0]
 579:./Generated_Source/PSoC5/CyLib.c ****             break;
 1040              		.loc 1 579 0
 1041 008a 11E0     		b	.L75
 1042              	.L71:
 580:./Generated_Source/PSoC5/CyLib.c ****         
 581:./Generated_Source/PSoC5/CyLib.c ****         case CY_IMO_SOURCE_IMO:
 582:./Generated_Source/PSoC5/CyLib.c ****             FASTCLK_IMO_CR &= ~CLOCK_IMO_IMO;
 1043              		.loc 1 582 0
 1044 008c 44F20023 		movw	r3, #:lower16:1073758720
 1045 0090 C4F20003 		movt	r3, #:upper16:1073758720
 1046 0094 44F20022 		movw	r2, #:lower16:1073758720
 1047 0098 C4F20002 		movt	r2, #:upper16:1073758720
 1048 009c 1278     		ldrb	r2, [r2, #0]
 1049 009e D2B2     		uxtb	r2, r2
 1050 00a0 02F0DF02 		and	r2, r2, #223
 1051 00a4 1A70     		strb	r2, [r3, #0]
 583:./Generated_Source/PSoC5/CyLib.c ****             break;
 1052              		.loc 1 583 0
 1053 00a6 03E0     		b	.L75
 1054              	.L76:
 584:./Generated_Source/PSoC5/CyLib.c ****         
 585:./Generated_Source/PSoC5/CyLib.c ****         default:
 586:./Generated_Source/PSoC5/CyLib.c ****             /*Not a correct source value.*/
 587:./Generated_Source/PSoC5/CyLib.c ****             CYASSERT(0);
 1055              		.loc 1 587 0
 1056 00a8 4FF00000 		mov	r0, #0
 1057 00ac FFF7FEFF 		bl	CyHalt
 1058              	.L75:
 588:./Generated_Source/PSoC5/CyLib.c ****             break;        
 589:./Generated_Source/PSoC5/CyLib.c ****     }
 590:./Generated_Source/PSoC5/CyLib.c **** }
 1059              		.loc 1 590 0
ARM GAS  C:\Users\CHARLI~1\AppData\Local\Temp\cc78mmP1.s 			page 30


 1060 00b0 07F10807 		add	r7, r7, #8
 1061 00b4 BD46     		mov	sp, r7
 1062 00b6 80BD     		pop	{r7, pc}
 1063              		.cfi_endproc
 1064              	.LFE8:
 1065              		.size	CyIMO_SetSource, .-CyIMO_SetSource
 1066              		.section	.text.CyIMO_EnableDoubler,"ax",%progbits
 1067              		.align	2
 1068              		.global	CyIMO_EnableDoubler
 1069              		.thumb
 1070              		.thumb_func
 1071              		.type	CyIMO_EnableDoubler, %function
 1072              	CyIMO_EnableDoubler:
 1073              	.LFB9:
 591:./Generated_Source/PSoC5/CyLib.c **** 
 592:./Generated_Source/PSoC5/CyLib.c **** 
 593:./Generated_Source/PSoC5/CyLib.c **** /*******************************************************************************
 594:./Generated_Source/PSoC5/CyLib.c **** * Function Name: CyIMO_EnableDoubler
 595:./Generated_Source/PSoC5/CyLib.c **** ********************************************************************************
 596:./Generated_Source/PSoC5/CyLib.c **** * Summary:
 597:./Generated_Source/PSoC5/CyLib.c **** *   Enables the IMO doubler.  The 2x frequency clock is used to convert 
 598:./Generated_Source/PSoC5/CyLib.c **** *   a 24MHz input to a 48MHz output for use by the USB block.
 599:./Generated_Source/PSoC5/CyLib.c **** *
 600:./Generated_Source/PSoC5/CyLib.c **** *
 601:./Generated_Source/PSoC5/CyLib.c **** * Parameters:
 602:./Generated_Source/PSoC5/CyLib.c **** *   void.
 603:./Generated_Source/PSoC5/CyLib.c **** *
 604:./Generated_Source/PSoC5/CyLib.c **** *
 605:./Generated_Source/PSoC5/CyLib.c **** * Return:
 606:./Generated_Source/PSoC5/CyLib.c **** *   void.
 607:./Generated_Source/PSoC5/CyLib.c **** *
 608:./Generated_Source/PSoC5/CyLib.c **** *******************************************************************************/
 609:./Generated_Source/PSoC5/CyLib.c **** void CyIMO_EnableDoubler(void) 
 610:./Generated_Source/PSoC5/CyLib.c **** {
 1074              		.loc 1 610 0
 1075              		.cfi_startproc
 1076              		@ args = 0, pretend = 0, frame = 0
 1077              		@ frame_needed = 1, uses_anonymous_args = 0
 1078              		@ link register save eliminated.
 1079 0000 80B4     		push	{r7}
 1080              	.LCFI25:
 1081              		.cfi_def_cfa_offset 4
 1082 0002 00AF     		add	r7, sp, #0
 1083              		.cfi_offset 7, -4
 1084              	.LCFI26:
 1085              		.cfi_def_cfa_register 7
 611:./Generated_Source/PSoC5/CyLib.c ****     /*Set the FASTCLK_IMO_CR_PTR regigster's 4th bit*/
 612:./Generated_Source/PSoC5/CyLib.c ****     FASTCLK_IMO_CR |= IMO_DOUBLER_ENABLE;
 1086              		.loc 1 612 0
 1087 0004 44F20023 		movw	r3, #:lower16:1073758720
 1088 0008 C4F20003 		movt	r3, #:upper16:1073758720
 1089 000c 44F20022 		movw	r2, #:lower16:1073758720
 1090 0010 C4F20002 		movt	r2, #:upper16:1073758720
 1091 0014 1278     		ldrb	r2, [r2, #0]
 1092 0016 D2B2     		uxtb	r2, r2
 1093 0018 42F01002 		orr	r2, r2, #16
 1094 001c D2B2     		uxtb	r2, r2
ARM GAS  C:\Users\CHARLI~1\AppData\Local\Temp\cc78mmP1.s 			page 31


 1095 001e 1A70     		strb	r2, [r3, #0]
 613:./Generated_Source/PSoC5/CyLib.c **** }
 1096              		.loc 1 613 0
 1097 0020 BD46     		mov	sp, r7
 1098 0022 80BC     		pop	{r7}
 1099 0024 7047     		bx	lr
 1100              		.cfi_endproc
 1101              	.LFE9:
 1102              		.size	CyIMO_EnableDoubler, .-CyIMO_EnableDoubler
 1103 0026 00BF     		.section	.text.CyIMO_DisableDoubler,"ax",%progbits
 1104              		.align	2
 1105              		.global	CyIMO_DisableDoubler
 1106              		.thumb
 1107              		.thumb_func
 1108              		.type	CyIMO_DisableDoubler, %function
 1109              	CyIMO_DisableDoubler:
 1110              	.LFB10:
 614:./Generated_Source/PSoC5/CyLib.c **** 
 615:./Generated_Source/PSoC5/CyLib.c **** 
 616:./Generated_Source/PSoC5/CyLib.c **** /*******************************************************************************
 617:./Generated_Source/PSoC5/CyLib.c **** * Function Name: CyIMO_DisableDoubler
 618:./Generated_Source/PSoC5/CyLib.c **** ********************************************************************************
 619:./Generated_Source/PSoC5/CyLib.c **** * Summary:
 620:./Generated_Source/PSoC5/CyLib.c **** *   Disables the IMO doubler.
 621:./Generated_Source/PSoC5/CyLib.c **** *
 622:./Generated_Source/PSoC5/CyLib.c **** *
 623:./Generated_Source/PSoC5/CyLib.c **** * Parameters:
 624:./Generated_Source/PSoC5/CyLib.c **** *   void.
 625:./Generated_Source/PSoC5/CyLib.c **** *
 626:./Generated_Source/PSoC5/CyLib.c **** *
 627:./Generated_Source/PSoC5/CyLib.c **** * Return:
 628:./Generated_Source/PSoC5/CyLib.c **** *   void.
 629:./Generated_Source/PSoC5/CyLib.c **** *
 630:./Generated_Source/PSoC5/CyLib.c **** *******************************************************************************/
 631:./Generated_Source/PSoC5/CyLib.c **** void CyIMO_DisableDoubler(void) 
 632:./Generated_Source/PSoC5/CyLib.c **** {
 1111              		.loc 1 632 0
 1112              		.cfi_startproc
 1113              		@ args = 0, pretend = 0, frame = 0
 1114              		@ frame_needed = 1, uses_anonymous_args = 0
 1115              		@ link register save eliminated.
 1116 0000 80B4     		push	{r7}
 1117              	.LCFI27:
 1118              		.cfi_def_cfa_offset 4
 1119 0002 00AF     		add	r7, sp, #0
 1120              		.cfi_offset 7, -4
 1121              	.LCFI28:
 1122              		.cfi_def_cfa_register 7
 633:./Generated_Source/PSoC5/CyLib.c ****     /*Set the FASTCLK_IMO_CR_PTR regigster's 4th bit*/
 634:./Generated_Source/PSoC5/CyLib.c ****     FASTCLK_IMO_CR &= ~IMO_DOUBLER_ENABLE;
 1123              		.loc 1 634 0
 1124 0004 44F20023 		movw	r3, #:lower16:1073758720
 1125 0008 C4F20003 		movt	r3, #:upper16:1073758720
 1126 000c 44F20022 		movw	r2, #:lower16:1073758720
 1127 0010 C4F20002 		movt	r2, #:upper16:1073758720
 1128 0014 1278     		ldrb	r2, [r2, #0]
 1129 0016 D2B2     		uxtb	r2, r2
ARM GAS  C:\Users\CHARLI~1\AppData\Local\Temp\cc78mmP1.s 			page 32


 1130 0018 02F0EF02 		and	r2, r2, #239
 1131 001c 1A70     		strb	r2, [r3, #0]
 635:./Generated_Source/PSoC5/CyLib.c **** }
 1132              		.loc 1 635 0
 1133 001e BD46     		mov	sp, r7
 1134 0020 80BC     		pop	{r7}
 1135 0022 7047     		bx	lr
 1136              		.cfi_endproc
 1137              	.LFE10:
 1138              		.size	CyIMO_DisableDoubler, .-CyIMO_DisableDoubler
 1139              		.section	.text.CyMasterClk_SetSource,"ax",%progbits
 1140              		.align	2
 1141              		.global	CyMasterClk_SetSource
 1142              		.thumb
 1143              		.thumb_func
 1144              		.type	CyMasterClk_SetSource, %function
 1145              	CyMasterClk_SetSource:
 1146              	.LFB11:
 636:./Generated_Source/PSoC5/CyLib.c **** 
 637:./Generated_Source/PSoC5/CyLib.c **** 
 638:./Generated_Source/PSoC5/CyLib.c **** /*******************************************************************************
 639:./Generated_Source/PSoC5/CyLib.c **** * Function Name: CyMasterClk_SetSource
 640:./Generated_Source/PSoC5/CyLib.c **** ********************************************************************************
 641:./Generated_Source/PSoC5/CyLib.c **** * Summary:
 642:./Generated_Source/PSoC5/CyLib.c **** *   Sets the source of the master clock.  
 643:./Generated_Source/PSoC5/CyLib.c **** *   The current source and the new source must both be running and stable 
 644:./Generated_Source/PSoC5/CyLib.c **** *   before calling this function.  
 645:./Generated_Source/PSoC5/CyLib.c **** *   The Flash wait states must be set appropriately before making this change 
 646:./Generated_Source/PSoC5/CyLib.c **** *   by using CyFlash_SetWaitCycles().
 647:./Generated_Source/PSoC5/CyLib.c **** *
 648:./Generated_Source/PSoC5/CyLib.c **** *
 649:./Generated_Source/PSoC5/CyLib.c **** * Parameters:
 650:./Generated_Source/PSoC5/CyLib.c **** *   source: One of the four available Master clock sources.
 651:./Generated_Source/PSoC5/CyLib.c **** *     CY_MASTER_SOURCE_IMO
 652:./Generated_Source/PSoC5/CyLib.c **** *     CY_MASTER_SOURCE_PLL
 653:./Generated_Source/PSoC5/CyLib.c **** *     CY_MASTER_SOURCE_XTAL
 654:./Generated_Source/PSoC5/CyLib.c **** *     CY_MASTER_SOURCE_DSI
 655:./Generated_Source/PSoC5/CyLib.c **** *
 656:./Generated_Source/PSoC5/CyLib.c **** *
 657:./Generated_Source/PSoC5/CyLib.c **** * Return:
 658:./Generated_Source/PSoC5/CyLib.c **** *   void.
 659:./Generated_Source/PSoC5/CyLib.c **** *
 660:./Generated_Source/PSoC5/CyLib.c **** *******************************************************************************/
 661:./Generated_Source/PSoC5/CyLib.c **** void CyMasterClk_SetSource(uint8 source) 
 662:./Generated_Source/PSoC5/CyLib.c **** {
 1147              		.loc 1 662 0
 1148              		.cfi_startproc
 1149              		@ args = 0, pretend = 0, frame = 16
 1150              		@ frame_needed = 1, uses_anonymous_args = 0
 1151              		@ link register save eliminated.
 1152 0000 80B4     		push	{r7}
 1153              	.LCFI29:
 1154              		.cfi_def_cfa_offset 4
 1155 0002 85B0     		sub	sp, sp, #20
 1156              	.LCFI30:
 1157              		.cfi_def_cfa_offset 24
 1158 0004 00AF     		add	r7, sp, #0
ARM GAS  C:\Users\CHARLI~1\AppData\Local\Temp\cc78mmP1.s 			page 33


 1159              		.cfi_offset 7, -4
 1160              	.LCFI31:
 1161              		.cfi_def_cfa_register 7
 1162 0006 0346     		mov	r3, r0
 1163 0008 FB71     		strb	r3, [r7, #7]
 663:./Generated_Source/PSoC5/CyLib.c ****     /*
 664:./Generated_Source/PSoC5/CyLib.c ****     Silicon before ES3 where a glitch could be created when switching the 
 665:./Generated_Source/PSoC5/CyLib.c ****     master clock source.  
 666:./Generated_Source/PSoC5/CyLib.c ****     Here is what should be implemented:
 667:./Generated_Source/PSoC5/CyLib.c ****     if (master_clk divider == 0)
 668:./Generated_Source/PSoC5/CyLib.c ****         set master_clk divider = 3
 669:./Generated_Source/PSoC5/CyLib.c ****         change master_clk source
 670:./Generated_Source/PSoC5/CyLib.c ****         set master_clk divider back to 0
 671:./Generated_Source/PSoC5/CyLib.c ****     else
 672:./Generated_Source/PSoC5/CyLib.c ****         change master_clk source
 673:./Generated_Source/PSoC5/CyLib.c **** 
 674:./Generated_Source/PSoC5/CyLib.c ****     1) Write a non-zero period to the master mux clock divider (MSTR0). 
 675:./Generated_Source/PSoC5/CyLib.c ****     Recommended value is 3. This results in    a divide of the master clock by 4.
 676:./Generated_Source/PSoC5/CyLib.c ****     2) Write the new select to the mux select register (MSTR1).
 677:./Generated_Source/PSoC5/CyLib.c ****     3) Restore the zero period (if desired) to the master mux clock divider (MSTR0).        
 678:./Generated_Source/PSoC5/CyLib.c ****     */
 679:./Generated_Source/PSoC5/CyLib.c ****     uint8 master_reg_1;
 680:./Generated_Source/PSoC5/CyLib.c **** 
 681:./Generated_Source/PSoC5/CyLib.c **** #if CYLIB_PSOC3_ES2
 682:./Generated_Source/PSoC5/CyLib.c ****     uint8 master_reg_0;
 683:./Generated_Source/PSoC5/CyLib.c **** 
 684:./Generated_Source/PSoC5/CyLib.c ****     /* Read the current setting */
 685:./Generated_Source/PSoC5/CyLib.c ****     master_reg_0 = CLKDIST_MSTR0;
 686:./Generated_Source/PSoC5/CyLib.c ****     if (master_reg_0 == 0x00u)
 687:./Generated_Source/PSoC5/CyLib.c ****     {
 688:./Generated_Source/PSoC5/CyLib.c ****         CLKDIST_MSTR0 = 3;
 689:./Generated_Source/PSoC5/CyLib.c ****     }
 690:./Generated_Source/PSoC5/CyLib.c **** #endif
 691:./Generated_Source/PSoC5/CyLib.c **** 
 692:./Generated_Source/PSoC5/CyLib.c ****     /* Read the current setting */
 693:./Generated_Source/PSoC5/CyLib.c ****     master_reg_1 = CLKDIST_MSTR1;
 1164              		.loc 1 693 0
 1165 000a 44F20503 		movw	r3, #:lower16:1073758213
 1166 000e C4F20003 		movt	r3, #:upper16:1073758213
 1167 0012 1B78     		ldrb	r3, [r3, #0]
 1168 0014 FB73     		strb	r3, [r7, #15]
 694:./Generated_Source/PSoC5/CyLib.c **** 
 695:./Generated_Source/PSoC5/CyLib.c ****     CLKDIST_MSTR1 = (master_reg_1 & MASTER_CLK_SRC_CLEAR) | (source & ~MASTER_CLK_SRC_CLEAR);
 1169              		.loc 1 695 0
 1170 0016 44F20503 		movw	r3, #:lower16:1073758213
 1171 001a C4F20003 		movt	r3, #:upper16:1073758213
 1172 001e FA7B     		ldrb	r2, [r7, #15]	@ zero_extendqisi2
 1173 0020 D1B2     		uxtb	r1, r2
 1174 0022 01F0FC01 		and	r1, r1, #252
 1175 0026 FA79     		ldrb	r2, [r7, #7]	@ zero_extendqisi2
 1176 0028 D2B2     		uxtb	r2, r2
 1177 002a 02F00302 		and	r2, r2, #3
 1178 002e 41EA0202 		orr	r2, r1, r2
 1179 0032 D2B2     		uxtb	r2, r2
 1180 0034 D2B2     		uxtb	r2, r2
 1181 0036 1A70     		strb	r2, [r3, #0]
 696:./Generated_Source/PSoC5/CyLib.c ****     
ARM GAS  C:\Users\CHARLI~1\AppData\Local\Temp\cc78mmP1.s 			page 34


 697:./Generated_Source/PSoC5/CyLib.c **** #if CYLIB_PSOC3_ES2
 698:./Generated_Source/PSoC5/CyLib.c ****     /*Restore the registry value.*/
 699:./Generated_Source/PSoC5/CyLib.c ****     if (master_reg_0 == 0x00u)
 700:./Generated_Source/PSoC5/CyLib.c ****     {
 701:./Generated_Source/PSoC5/CyLib.c ****         CLKDIST_MSTR0 = 0;
 702:./Generated_Source/PSoC5/CyLib.c ****     }
 703:./Generated_Source/PSoC5/CyLib.c **** #endif
 704:./Generated_Source/PSoC5/CyLib.c **** }
 1182              		.loc 1 704 0
 1183 0038 07F11407 		add	r7, r7, #20
 1184 003c BD46     		mov	sp, r7
 1185 003e 80BC     		pop	{r7}
 1186 0040 7047     		bx	lr
 1187              		.cfi_endproc
 1188              	.LFE11:
 1189              		.size	CyMasterClk_SetSource, .-CyMasterClk_SetSource
 1190 0042 00BF     		.section	.text.CyMasterClk_SetDivider,"ax",%progbits
 1191              		.align	2
 1192              		.global	CyMasterClk_SetDivider
 1193              		.thumb
 1194              		.thumb_func
 1195              		.type	CyMasterClk_SetDivider, %function
 1196              	CyMasterClk_SetDivider:
 1197              	.LFB12:
 705:./Generated_Source/PSoC5/CyLib.c **** 
 706:./Generated_Source/PSoC5/CyLib.c **** 
 707:./Generated_Source/PSoC5/CyLib.c **** /*******************************************************************************
 708:./Generated_Source/PSoC5/CyLib.c **** * Function Name: CyMasterClk_SetDivider
 709:./Generated_Source/PSoC5/CyLib.c **** ********************************************************************************
 710:./Generated_Source/PSoC5/CyLib.c **** * Summary:
 711:./Generated_Source/PSoC5/CyLib.c **** *   Sets the divider value used to generate Master Clock.  
 712:./Generated_Source/PSoC5/CyLib.c **** *   The Flash wait states must be set appropriately before making this change 
 713:./Generated_Source/PSoC5/CyLib.c **** *   by using CyFlash_SetWaitCycles().
 714:./Generated_Source/PSoC5/CyLib.c **** *
 715:./Generated_Source/PSoC5/CyLib.c **** *
 716:./Generated_Source/PSoC5/CyLib.c **** * Parameters:
 717:./Generated_Source/PSoC5/CyLib.c **** *   divider: Valid range [0-255].  
 718:./Generated_Source/PSoC5/CyLib.c **** *   The clock will be divided by this value + 1.  
 719:./Generated_Source/PSoC5/CyLib.c **** *   For example to divide by 2 this parameter should be set to 1.
 720:./Generated_Source/PSoC5/CyLib.c **** *
 721:./Generated_Source/PSoC5/CyLib.c **** *
 722:./Generated_Source/PSoC5/CyLib.c **** * Return:
 723:./Generated_Source/PSoC5/CyLib.c **** *   void.
 724:./Generated_Source/PSoC5/CyLib.c **** *
 725:./Generated_Source/PSoC5/CyLib.c **** *******************************************************************************/
 726:./Generated_Source/PSoC5/CyLib.c **** void CyMasterClk_SetDivider(uint8 divider) 
 727:./Generated_Source/PSoC5/CyLib.c **** {
 1198              		.loc 1 727 0
 1199              		.cfi_startproc
 1200              		@ args = 0, pretend = 0, frame = 8
 1201              		@ frame_needed = 1, uses_anonymous_args = 0
 1202              		@ link register save eliminated.
 1203 0000 80B4     		push	{r7}
 1204              	.LCFI32:
 1205              		.cfi_def_cfa_offset 4
 1206 0002 83B0     		sub	sp, sp, #12
 1207              	.LCFI33:
ARM GAS  C:\Users\CHARLI~1\AppData\Local\Temp\cc78mmP1.s 			page 35


 1208              		.cfi_def_cfa_offset 16
 1209 0004 00AF     		add	r7, sp, #0
 1210              		.cfi_offset 7, -4
 1211              	.LCFI34:
 1212              		.cfi_def_cfa_register 7
 1213 0006 0346     		mov	r3, r0
 1214 0008 FB71     		strb	r3, [r7, #7]
 728:./Generated_Source/PSoC5/CyLib.c ****     CLKDIST_MSTR0 = divider;
 1215              		.loc 1 728 0
 1216 000a 44F20403 		movw	r3, #:lower16:1073758212
 1217 000e C4F20003 		movt	r3, #:upper16:1073758212
 1218 0012 FA79     		ldrb	r2, [r7, #7]
 1219 0014 1A70     		strb	r2, [r3, #0]
 729:./Generated_Source/PSoC5/CyLib.c **** }
 1220              		.loc 1 729 0
 1221 0016 07F10C07 		add	r7, r7, #12
 1222 001a BD46     		mov	sp, r7
 1223 001c 80BC     		pop	{r7}
 1224 001e 7047     		bx	lr
 1225              		.cfi_endproc
 1226              	.LFE12:
 1227              		.size	CyMasterClk_SetDivider, .-CyMasterClk_SetDivider
 1228              		.section	.text.CyBusClk_Internal_SetDivider,"ax",%progbits
 1229              		.align	2
 1230              		.global	CyBusClk_Internal_SetDivider
 1231              		.thumb
 1232              		.thumb_func
 1233              		.type	CyBusClk_Internal_SetDivider, %function
 1234              	CyBusClk_Internal_SetDivider:
 1235              	.LFB13:
 730:./Generated_Source/PSoC5/CyLib.c **** 
 731:./Generated_Source/PSoC5/CyLib.c **** 
 732:./Generated_Source/PSoC5/CyLib.c **** /*******************************************************************************
 733:./Generated_Source/PSoC5/CyLib.c **** * Function Name: CyBusClk_Internal_SetDivider
 734:./Generated_Source/PSoC5/CyLib.c **** ********************************************************************************
 735:./Generated_Source/PSoC5/CyLib.c **** * Summary:
 736:./Generated_Source/PSoC5/CyLib.c **** *   Sets the divider value used to generate Bus Clock.  
 737:./Generated_Source/PSoC5/CyLib.c **** *   The Flash wait states must be set appropriately before making this change 
 738:./Generated_Source/PSoC5/CyLib.c **** *   by using CyFlash_SetWaitCycles().
 739:./Generated_Source/PSoC5/CyLib.c **** *
 740:./Generated_Source/PSoC5/CyLib.c **** *
 741:./Generated_Source/PSoC5/CyLib.c **** * Parameters:
 742:./Generated_Source/PSoC5/CyLib.c **** *   divider: Valid range [0-65535].
 743:./Generated_Source/PSoC5/CyLib.c **** *   The clock will be divided by this value + 1.
 744:./Generated_Source/PSoC5/CyLib.c **** *   For example to divide by 2 this parameter should be set to 1.
 745:./Generated_Source/PSoC5/CyLib.c **** *
 746:./Generated_Source/PSoC5/CyLib.c **** *
 747:./Generated_Source/PSoC5/CyLib.c **** * Return:
 748:./Generated_Source/PSoC5/CyLib.c **** *   void.
 749:./Generated_Source/PSoC5/CyLib.c **** *
 750:./Generated_Source/PSoC5/CyLib.c **** *******************************************************************************/
 751:./Generated_Source/PSoC5/CyLib.c **** void CyBusClk_Internal_SetDivider(uint16 divider)
 752:./Generated_Source/PSoC5/CyLib.c **** {
 1236              		.loc 1 752 0
 1237              		.cfi_startproc
 1238              		@ args = 0, pretend = 0, frame = 8
 1239              		@ frame_needed = 1, uses_anonymous_args = 0
ARM GAS  C:\Users\CHARLI~1\AppData\Local\Temp\cc78mmP1.s 			page 36


 1240              		@ link register save eliminated.
 1241 0000 80B4     		push	{r7}
 1242              	.LCFI35:
 1243              		.cfi_def_cfa_offset 4
 1244 0002 83B0     		sub	sp, sp, #12
 1245              	.LCFI36:
 1246              		.cfi_def_cfa_offset 16
 1247 0004 00AF     		add	r7, sp, #0
 1248              		.cfi_offset 7, -4
 1249              	.LCFI37:
 1250              		.cfi_def_cfa_register 7
 1251 0006 0346     		mov	r3, r0
 1252 0008 FB80     		strh	r3, [r7, #6]	@ movhi
 753:./Generated_Source/PSoC5/CyLib.c ****     /*Clear all the masks (CLKDIST_AMASK, CLKDIST_DMASK)*/
 754:./Generated_Source/PSoC5/CyLib.c ****     CLKDIST_AMASK &= BUS_AMASK_CLEAR;
 1253              		.loc 1 754 0
 1254 000a 44F21403 		movw	r3, #:lower16:1073758228
 1255 000e C4F20003 		movt	r3, #:upper16:1073758228
 1256 0012 44F21402 		movw	r2, #:lower16:1073758228
 1257 0016 C4F20002 		movt	r2, #:upper16:1073758228
 1258 001a 1278     		ldrb	r2, [r2, #0]
 1259 001c D2B2     		uxtb	r2, r2
 1260 001e 02F0F002 		and	r2, r2, #240
 1261 0022 1A70     		strb	r2, [r3, #0]
 755:./Generated_Source/PSoC5/CyLib.c ****     CLKDIST_DMASK = BUS_DMASK_CLEAR;
 1262              		.loc 1 755 0
 1263 0024 44F21003 		movw	r3, #:lower16:1073758224
 1264 0028 C4F20003 		movt	r3, #:upper16:1073758224
 1265 002c 4FF00002 		mov	r2, #0
 1266 0030 1A70     		strb	r2, [r3, #0]
 756:./Generated_Source/PSoC5/CyLib.c ****     
 757:./Generated_Source/PSoC5/CyLib.c ****     /*set the MASK for bus clock, CLKDIST_BCFG2
 758:./Generated_Source/PSoC5/CyLib.c ****     Bits      Name      Description
 759:./Generated_Source/PSoC5/CyLib.c ****     7         MASK     Mask bit to enable shadow loads
 760:./Generated_Source/PSoC5/CyLib.c ****     1'b1      ENABLE      Enable shadow loads*/
 761:./Generated_Source/PSoC5/CyLib.c ****     CLKDIST_BCFG2 |= CLKDIST_WRK0_MASK_SET;
 1267              		.loc 1 761 0
 1268 0032 44F20803 		movw	r3, #:lower16:1073758216
 1269 0036 C4F20003 		movt	r3, #:upper16:1073758216
 1270 003a 44F20802 		movw	r2, #:lower16:1073758216
 1271 003e C4F20002 		movt	r2, #:upper16:1073758216
 1272 0042 1278     		ldrb	r2, [r2, #0]
 1273 0044 D2B2     		uxtb	r2, r2
 1274 0046 6FEA4262 		mvn	r2, r2, lsl #25
 1275 004a 6FEA5262 		mvn	r2, r2, lsr #25
 1276 004e D2B2     		uxtb	r2, r2
 1277 0050 1A70     		strb	r2, [r3, #0]
 762:./Generated_Source/PSoC5/CyLib.c ****     
 763:./Generated_Source/PSoC5/CyLib.c ****     /*We change both bytes before we enable/start the clock.*/
 764:./Generated_Source/PSoC5/CyLib.c ****     CY_SET_REG16(CLKDIST_WRK0_PTR, divider);
 1278              		.loc 1 764 0
 1279 0052 44F20203 		movw	r3, #:lower16:1073758210
 1280 0056 C4F20003 		movt	r3, #:upper16:1073758210
 1281 005a FA88     		ldrh	r2, [r7, #6]	@ movhi
 1282 005c 1A80     		strh	r2, [r3, #0]	@ movhi
 765:./Generated_Source/PSoC5/CyLib.c ****     
 766:./Generated_Source/PSoC5/CyLib.c ****     /*load the value , set the CLKDIST_LD LOAD bit*/
ARM GAS  C:\Users\CHARLI~1\AppData\Local\Temp\cc78mmP1.s 			page 37


 767:./Generated_Source/PSoC5/CyLib.c ****     CLKDIST_LD |= CLKDIST_LD_LOAD_SET;    
 1283              		.loc 1 767 0
 1284 005e 44F20103 		movw	r3, #:lower16:1073758209
 1285 0062 C4F20003 		movt	r3, #:upper16:1073758209
 1286 0066 44F20102 		movw	r2, #:lower16:1073758209
 1287 006a C4F20002 		movt	r2, #:upper16:1073758209
 1288 006e 1278     		ldrb	r2, [r2, #0]
 1289 0070 D2B2     		uxtb	r2, r2
 1290 0072 42F00102 		orr	r2, r2, #1
 1291 0076 D2B2     		uxtb	r2, r2
 1292 0078 1A70     		strb	r2, [r3, #0]
 768:./Generated_Source/PSoC5/CyLib.c **** }
 1293              		.loc 1 768 0
 1294 007a 07F10C07 		add	r7, r7, #12
 1295 007e BD46     		mov	sp, r7
 1296 0080 80BC     		pop	{r7}
 1297 0082 7047     		bx	lr
 1298              		.cfi_endproc
 1299              	.LFE13:
 1300              		.size	CyBusClk_Internal_SetDivider, .-CyBusClk_Internal_SetDivider
 1301              		.section	.text.CyBusClk_SetDivider,"ax",%progbits
 1302              		.align	2
 1303              		.global	CyBusClk_SetDivider
 1304              		.thumb
 1305              		.thumb_func
 1306              		.type	CyBusClk_SetDivider, %function
 1307              	CyBusClk_SetDivider:
 1308              	.LFB14:
 769:./Generated_Source/PSoC5/CyLib.c **** 
 770:./Generated_Source/PSoC5/CyLib.c **** 
 771:./Generated_Source/PSoC5/CyLib.c **** /*******************************************************************************
 772:./Generated_Source/PSoC5/CyLib.c **** * Function Name: CyBusClk_SetDivider
 773:./Generated_Source/PSoC5/CyLib.c **** ********************************************************************************
 774:./Generated_Source/PSoC5/CyLib.c **** * Summary:
 775:./Generated_Source/PSoC5/CyLib.c **** *   Sets the divider value used to generate Bus Clock.  
 776:./Generated_Source/PSoC5/CyLib.c **** *   The Flash wait states must be set appropriately before making this change 
 777:./Generated_Source/PSoC5/CyLib.c **** *   by using CyFlash_SetWaitCycles().
 778:./Generated_Source/PSoC5/CyLib.c **** *
 779:./Generated_Source/PSoC5/CyLib.c **** *
 780:./Generated_Source/PSoC5/CyLib.c **** * Parameters:
 781:./Generated_Source/PSoC5/CyLib.c **** *   divider: Valid range [0-65535].  
 782:./Generated_Source/PSoC5/CyLib.c **** *   The clock will be divided by this value + 1.  
 783:./Generated_Source/PSoC5/CyLib.c **** *   For example to divide by 2 this parameter should be set to 1..
 784:./Generated_Source/PSoC5/CyLib.c **** *
 785:./Generated_Source/PSoC5/CyLib.c **** *
 786:./Generated_Source/PSoC5/CyLib.c **** * Return:
 787:./Generated_Source/PSoC5/CyLib.c **** *   void.
 788:./Generated_Source/PSoC5/CyLib.c **** *
 789:./Generated_Source/PSoC5/CyLib.c **** *******************************************************************************/
 790:./Generated_Source/PSoC5/CyLib.c **** void CyBusClk_SetDivider(uint16 divider) 
 791:./Generated_Source/PSoC5/CyLib.c **** {
 1309              		.loc 1 791 0
 1310              		.cfi_startproc
 1311              		@ args = 0, pretend = 0, frame = 16
 1312              		@ frame_needed = 1, uses_anonymous_args = 0
 1313 0000 80B5     		push	{r7, lr}
 1314              	.LCFI38:
ARM GAS  C:\Users\CHARLI~1\AppData\Local\Temp\cc78mmP1.s 			page 38


 1315              		.cfi_def_cfa_offset 8
 1316 0002 84B0     		sub	sp, sp, #16
 1317              	.LCFI39:
 1318              		.cfi_def_cfa_offset 24
 1319 0004 00AF     		add	r7, sp, #0
 1320              		.cfi_offset 14, -4
 1321              		.cfi_offset 7, -8
 1322              	.LCFI40:
 1323              		.cfi_def_cfa_register 7
 1324 0006 0346     		mov	r3, r0
 1325 0008 FB80     		strh	r3, [r7, #6]	@ movhi
 792:./Generated_Source/PSoC5/CyLib.c ****     uint16 current_busclk_divider;
 793:./Generated_Source/PSoC5/CyLib.c ****     uint8 current_masterclk_divider;
 794:./Generated_Source/PSoC5/CyLib.c **** 
 795:./Generated_Source/PSoC5/CyLib.c ****     /*Bus clock divider value.*/
 796:./Generated_Source/PSoC5/CyLib.c ****     current_busclk_divider = CY_GET_REG16(CLKDIST_BCFG0_PTR);
 1326              		.loc 1 796 0
 1327 000a 44F20603 		movw	r3, #:lower16:1073758214
 1328 000e C4F20003 		movt	r3, #:upper16:1073758214
 1329 0012 1B88     		ldrh	r3, [r3, #0]	@ movhi
 1330 0014 BB81     		strh	r3, [r7, #12]	@ movhi
 797:./Generated_Source/PSoC5/CyLib.c ****     
 798:./Generated_Source/PSoC5/CyLib.c ****     /*Work around to set the bus clock divider value.*/
 799:./Generated_Source/PSoC5/CyLib.c ****     if (divider == 0 || current_busclk_divider == 0)
 1331              		.loc 1 799 0
 1332 0016 FB88     		ldrh	r3, [r7, #6]
 1333 0018 002B     		cmp	r3, #0
 1334 001a 02D0     		beq	.L88
 1335 001c BB89     		ldrh	r3, [r7, #12]
 1336 001e 002B     		cmp	r3, #0
 1337 0020 38D1     		bne	.L89
 1338              	.L88:
 800:./Generated_Source/PSoC5/CyLib.c ****     {
 801:./Generated_Source/PSoC5/CyLib.c ****         /*save away the master clock divider value*/
 802:./Generated_Source/PSoC5/CyLib.c ****         current_masterclk_divider = CY_GET_REG8(CLKDIST_MSTR0_PTR);
 1339              		.loc 1 802 0
 1340 0022 44F20403 		movw	r3, #:lower16:1073758212
 1341 0026 C4F20003 		movt	r3, #:upper16:1073758212
 1342 002a 1B78     		ldrb	r3, [r3, #0]
 1343 002c FB73     		strb	r3, [r7, #15]
 803:./Generated_Source/PSoC5/CyLib.c ****         if (current_masterclk_divider < MASTERCLK_DIVIDER_VALUE)
 1344              		.loc 1 803 0
 1345 002e FB7B     		ldrb	r3, [r7, #15]	@ zero_extendqisi2
 1346 0030 062B     		cmp	r3, #6
 1347 0032 03D8     		bhi	.L90
 804:./Generated_Source/PSoC5/CyLib.c ****         {    
 805:./Generated_Source/PSoC5/CyLib.c ****             /*set master clock divider to 7 */
 806:./Generated_Source/PSoC5/CyLib.c ****             CyMasterClk_SetDivider(MASTERCLK_DIVIDER_VALUE);
 1348              		.loc 1 806 0
 1349 0034 4FF00700 		mov	r0, #7
 1350 0038 FFF7FEFF 		bl	CyMasterClk_SetDivider
 1351              	.L90:
 807:./Generated_Source/PSoC5/CyLib.c ****         }
 808:./Generated_Source/PSoC5/CyLib.c ****         if (divider == 0)
 1352              		.loc 1 808 0
 1353 003c FB88     		ldrh	r3, [r7, #6]
 1354 003e 002B     		cmp	r3, #0
ARM GAS  C:\Users\CHARLI~1\AppData\Local\Temp\cc78mmP1.s 			page 39


 1355 0040 12D1     		bne	.L91
 809:./Generated_Source/PSoC5/CyLib.c ****         {
 810:./Generated_Source/PSoC5/CyLib.c ****             /*
 811:./Generated_Source/PSoC5/CyLib.c ****             set the SSS bit 
 812:./Generated_Source/PSoC5/CyLib.c ****             set the divider register desired value*/
 813:./Generated_Source/PSoC5/CyLib.c ****             CLKDIST_BCFG2 |= CLKDIST_BCFG2_SSS_SET;
 1356              		.loc 1 813 0
 1357 0042 44F20803 		movw	r3, #:lower16:1073758216
 1358 0046 C4F20003 		movt	r3, #:upper16:1073758216
 1359 004a 44F20802 		movw	r2, #:lower16:1073758216
 1360 004e C4F20002 		movt	r2, #:upper16:1073758216
 1361 0052 1278     		ldrb	r2, [r2, #0]
 1362 0054 D2B2     		uxtb	r2, r2
 1363 0056 42F04002 		orr	r2, r2, #64
 1364 005a D2B2     		uxtb	r2, r2
 1365 005c 1A70     		strb	r2, [r3, #0]
 814:./Generated_Source/PSoC5/CyLib.c ****             CyBusClk_Internal_SetDivider(divider);
 1366              		.loc 1 814 0
 1367 005e FB88     		ldrh	r3, [r7, #6]
 1368 0060 1846     		mov	r0, r3
 1369 0062 FFF7FEFF 		bl	CyBusClk_Internal_SetDivider
 1370 0066 10E0     		b	.L92
 1371              	.L91:
 815:./Generated_Source/PSoC5/CyLib.c ****         }
 816:./Generated_Source/PSoC5/CyLib.c ****         else 
 817:./Generated_Source/PSoC5/CyLib.c ****         {
 818:./Generated_Source/PSoC5/CyLib.c ****             /*
 819:./Generated_Source/PSoC5/CyLib.c ****             set the divider register to divider argument value
 820:./Generated_Source/PSoC5/CyLib.c ****             clear the SSS bit            */
 821:./Generated_Source/PSoC5/CyLib.c ****             CyBusClk_Internal_SetDivider(divider);
 1372              		.loc 1 821 0
 1373 0068 FB88     		ldrh	r3, [r7, #6]
 1374 006a 1846     		mov	r0, r3
 1375 006c FFF7FEFF 		bl	CyBusClk_Internal_SetDivider
 822:./Generated_Source/PSoC5/CyLib.c ****             CLKDIST_BCFG2 &= ~CLKDIST_BCFG2_SSS_SET;
 1376              		.loc 1 822 0
 1377 0070 44F20803 		movw	r3, #:lower16:1073758216
 1378 0074 C4F20003 		movt	r3, #:upper16:1073758216
 1379 0078 44F20802 		movw	r2, #:lower16:1073758216
 1380 007c C4F20002 		movt	r2, #:upper16:1073758216
 1381 0080 1278     		ldrb	r2, [r2, #0]
 1382 0082 D2B2     		uxtb	r2, r2
 1383 0084 02F0BF02 		and	r2, r2, #191
 1384 0088 1A70     		strb	r2, [r3, #0]
 1385              	.L92:
 823:./Generated_Source/PSoC5/CyLib.c ****         }
 824:./Generated_Source/PSoC5/CyLib.c ****         /*Restore the master clock */
 825:./Generated_Source/PSoC5/CyLib.c ****         CyMasterClk_SetDivider(current_masterclk_divider);
 1386              		.loc 1 825 0
 1387 008a FB7B     		ldrb	r3, [r7, #15]	@ zero_extendqisi2
 1388 008c 1846     		mov	r0, r3
 1389 008e FFF7FEFF 		bl	CyMasterClk_SetDivider
 1390              		.loc 1 799 0
 1391 0092 03E0     		b	.L94
 1392              	.L89:
 826:./Generated_Source/PSoC5/CyLib.c ****     }
 827:./Generated_Source/PSoC5/CyLib.c ****     else
ARM GAS  C:\Users\CHARLI~1\AppData\Local\Temp\cc78mmP1.s 			page 40


 828:./Generated_Source/PSoC5/CyLib.c ****     {
 829:./Generated_Source/PSoC5/CyLib.c ****         CyBusClk_Internal_SetDivider(divider);
 1393              		.loc 1 829 0
 1394 0094 FB88     		ldrh	r3, [r7, #6]
 1395 0096 1846     		mov	r0, r3
 1396 0098 FFF7FEFF 		bl	CyBusClk_Internal_SetDivider
 1397              	.L94:
 830:./Generated_Source/PSoC5/CyLib.c ****     }
 831:./Generated_Source/PSoC5/CyLib.c **** }
 1398              		.loc 1 831 0
 1399 009c 07F11007 		add	r7, r7, #16
 1400 00a0 BD46     		mov	sp, r7
 1401 00a2 80BD     		pop	{r7, pc}
 1402              		.cfi_endproc
 1403              	.LFE14:
 1404              		.size	CyBusClk_SetDivider, .-CyBusClk_SetDivider
 1405              		.section	.text.CyCpuClk_SetDivider,"ax",%progbits
 1406              		.align	2
 1407              		.global	CyCpuClk_SetDivider
 1408              		.thumb
 1409              		.thumb_func
 1410              		.type	CyCpuClk_SetDivider, %function
 1411              	CyCpuClk_SetDivider:
 1412              	.LFB15:
 832:./Generated_Source/PSoC5/CyLib.c **** 
 833:./Generated_Source/PSoC5/CyLib.c **** 
 834:./Generated_Source/PSoC5/CyLib.c **** /*******************************************************************************
 835:./Generated_Source/PSoC5/CyLib.c **** * Function Name: CyCpuClk_SetDivider
 836:./Generated_Source/PSoC5/CyLib.c **** ********************************************************************************
 837:./Generated_Source/PSoC5/CyLib.c **** * Summary:
 838:./Generated_Source/PSoC5/CyLib.c **** *   Sets the divider value used to generate the CPU Clock.  Only applicable for PSoC 3.
 839:./Generated_Source/PSoC5/CyLib.c **** *
 840:./Generated_Source/PSoC5/CyLib.c **** *
 841:./Generated_Source/PSoC5/CyLib.c **** * Parameters:
 842:./Generated_Source/PSoC5/CyLib.c **** *   divider: Valid range [0-15].  
 843:./Generated_Source/PSoC5/CyLib.c **** *   The clock will be divided by this value + 1.  
 844:./Generated_Source/PSoC5/CyLib.c **** *   For example to divide by 2 this parameter should be set to 1.
 845:./Generated_Source/PSoC5/CyLib.c **** *
 846:./Generated_Source/PSoC5/CyLib.c **** *
 847:./Generated_Source/PSoC5/CyLib.c **** * Return:
 848:./Generated_Source/PSoC5/CyLib.c **** *   void.
 849:./Generated_Source/PSoC5/CyLib.c **** *
 850:./Generated_Source/PSoC5/CyLib.c **** *******************************************************************************/
 851:./Generated_Source/PSoC5/CyLib.c **** void CyCpuClk_SetDivider(uint8 divider) 
 852:./Generated_Source/PSoC5/CyLib.c **** {
 1413              		.loc 1 852 0
 1414              		.cfi_startproc
 1415              		@ args = 0, pretend = 0, frame = 8
 1416              		@ frame_needed = 1, uses_anonymous_args = 0
 1417              		@ link register save eliminated.
 1418 0000 80B4     		push	{r7}
 1419              	.LCFI41:
 1420              		.cfi_def_cfa_offset 4
 1421 0002 83B0     		sub	sp, sp, #12
 1422              	.LCFI42:
 1423              		.cfi_def_cfa_offset 16
 1424 0004 00AF     		add	r7, sp, #0
ARM GAS  C:\Users\CHARLI~1\AppData\Local\Temp\cc78mmP1.s 			page 41


 1425              		.cfi_offset 7, -4
 1426              	.LCFI43:
 1427              		.cfi_def_cfa_register 7
 1428 0006 0346     		mov	r3, r0
 1429 0008 FB71     		strb	r3, [r7, #7]
 853:./Generated_Source/PSoC5/CyLib.c **** #if CYLIB_PSOC3_ES3
 854:./Generated_Source/PSoC5/CyLib.c ****     CLKDIST_MSTR1 = (CLKDIST_MSTR1 & CLKDIST_MSTR1_DIV_CLEAR) | (divider << CLKDIST_DIV_POSITION);
 855:./Generated_Source/PSoC5/CyLib.c **** #elif CYLIB_PSOC3_ES2
 856:./Generated_Source/PSoC5/CyLib.c ****     CPUCLK_DIV = (CPUCLK_DIV & ~CPUCLK_DIV) | (divider & SFR_USER_CPUCLK_DIV_MASK);
 857:./Generated_Source/PSoC5/CyLib.c **** #endif /*end (CYLIB_PSOC3_ES3)*/
 858:./Generated_Source/PSoC5/CyLib.c **** }
 1430              		.loc 1 858 0
 1431 000a 07F10C07 		add	r7, r7, #12
 1432 000e BD46     		mov	sp, r7
 1433 0010 80BC     		pop	{r7}
 1434 0012 7047     		bx	lr
 1435              		.cfi_endproc
 1436              	.LFE15:
 1437              		.size	CyCpuClk_SetDivider, .-CyCpuClk_SetDivider
 1438              		.section	.text.CyUsbClk_SetSource,"ax",%progbits
 1439              		.align	2
 1440              		.global	CyUsbClk_SetSource
 1441              		.thumb
 1442              		.thumb_func
 1443              		.type	CyUsbClk_SetSource, %function
 1444              	CyUsbClk_SetSource:
 1445              	.LFB16:
 859:./Generated_Source/PSoC5/CyLib.c **** 
 860:./Generated_Source/PSoC5/CyLib.c **** 
 861:./Generated_Source/PSoC5/CyLib.c **** /*******************************************************************************
 862:./Generated_Source/PSoC5/CyLib.c **** * Function Name: CyUsbClk_SetSource
 863:./Generated_Source/PSoC5/CyLib.c **** ********************************************************************************
 864:./Generated_Source/PSoC5/CyLib.c **** * Summary:
 865:./Generated_Source/PSoC5/CyLib.c **** *   Sets the source of the USB clock.
 866:./Generated_Source/PSoC5/CyLib.c **** *
 867:./Generated_Source/PSoC5/CyLib.c **** *
 868:./Generated_Source/PSoC5/CyLib.c **** * Parameters:
 869:./Generated_Source/PSoC5/CyLib.c **** *   source: One of the four available USB clock sources
 870:./Generated_Source/PSoC5/CyLib.c **** *             USB_CLK_IMO2X     - imo2x  is selected
 871:./Generated_Source/PSoC5/CyLib.c **** *             USB_CLK_IMO       - imo is selected
 872:./Generated_Source/PSoC5/CyLib.c **** *             USB_CLK_PLL       - pll is selected
 873:./Generated_Source/PSoC5/CyLib.c **** *             USB_CLK_DSI       - dsi is selected
 874:./Generated_Source/PSoC5/CyLib.c **** *
 875:./Generated_Source/PSoC5/CyLib.c **** *
 876:./Generated_Source/PSoC5/CyLib.c **** * Return:
 877:./Generated_Source/PSoC5/CyLib.c **** *   void.
 878:./Generated_Source/PSoC5/CyLib.c **** *
 879:./Generated_Source/PSoC5/CyLib.c **** *******************************************************************************/
 880:./Generated_Source/PSoC5/CyLib.c **** void CyUsbClk_SetSource(uint8 source) 
 881:./Generated_Source/PSoC5/CyLib.c **** {
 1446              		.loc 1 881 0
 1447              		.cfi_startproc
 1448              		@ args = 0, pretend = 0, frame = 8
 1449              		@ frame_needed = 1, uses_anonymous_args = 0
 1450              		@ link register save eliminated.
 1451 0000 80B4     		push	{r7}
 1452              	.LCFI44:
ARM GAS  C:\Users\CHARLI~1\AppData\Local\Temp\cc78mmP1.s 			page 42


 1453              		.cfi_def_cfa_offset 4
 1454 0002 83B0     		sub	sp, sp, #12
 1455              	.LCFI45:
 1456              		.cfi_def_cfa_offset 16
 1457 0004 00AF     		add	r7, sp, #0
 1458              		.cfi_offset 7, -4
 1459              	.LCFI46:
 1460              		.cfi_def_cfa_register 7
 1461 0006 0346     		mov	r3, r0
 1462 0008 FB71     		strb	r3, [r7, #7]
 882:./Generated_Source/PSoC5/CyLib.c ****     /* SRC_SEL[1:0] of CLKDIST.UCFG*/
 883:./Generated_Source/PSoC5/CyLib.c ****     CLKDIST_UCFG = (CLKDIST_UCFG & ~USB_CLKDIST_CONFIG_MASK) | (USB_CLKDIST_CONFIG_MASK & source);
 1463              		.loc 1 883 0
 1464 000a 44F20903 		movw	r3, #:lower16:1073758217
 1465 000e C4F20003 		movt	r3, #:upper16:1073758217
 1466 0012 44F20902 		movw	r2, #:lower16:1073758217
 1467 0016 C4F20002 		movt	r2, #:upper16:1073758217
 1468 001a 1278     		ldrb	r2, [r2, #0]
 1469 001c D2B2     		uxtb	r2, r2
 1470 001e D1B2     		uxtb	r1, r2
 1471 0020 01F0FC01 		and	r1, r1, #252
 1472 0024 FA79     		ldrb	r2, [r7, #7]	@ zero_extendqisi2
 1473 0026 D2B2     		uxtb	r2, r2
 1474 0028 02F00302 		and	r2, r2, #3
 1475 002c 41EA0202 		orr	r2, r1, r2
 1476 0030 D2B2     		uxtb	r2, r2
 1477 0032 D2B2     		uxtb	r2, r2
 1478 0034 1A70     		strb	r2, [r3, #0]
 884:./Generated_Source/PSoC5/CyLib.c **** }
 1479              		.loc 1 884 0
 1480 0036 07F10C07 		add	r7, r7, #12
 1481 003a BD46     		mov	sp, r7
 1482 003c 80BC     		pop	{r7}
 1483 003e 7047     		bx	lr
 1484              		.cfi_endproc
 1485              	.LFE16:
 1486              		.size	CyUsbClk_SetSource, .-CyUsbClk_SetSource
 1487              		.section	.text.CyILO_Start1K,"ax",%progbits
 1488              		.align	2
 1489              		.global	CyILO_Start1K
 1490              		.thumb
 1491              		.thumb_func
 1492              		.type	CyILO_Start1K, %function
 1493              	CyILO_Start1K:
 1494              	.LFB17:
 885:./Generated_Source/PSoC5/CyLib.c **** 
 886:./Generated_Source/PSoC5/CyLib.c **** 
 887:./Generated_Source/PSoC5/CyLib.c **** /*******************************************************************************
 888:./Generated_Source/PSoC5/CyLib.c **** * Function Name: CyILO_1KHZ_Start
 889:./Generated_Source/PSoC5/CyLib.c **** ********************************************************************************
 890:./Generated_Source/PSoC5/CyLib.c **** * Summary:
 891:./Generated_Source/PSoC5/CyLib.c **** *   Enables the ILO 1 KHz oscillator.
 892:./Generated_Source/PSoC5/CyLib.c **** *
 893:./Generated_Source/PSoC5/CyLib.c **** *
 894:./Generated_Source/PSoC5/CyLib.c **** * Parameters:
 895:./Generated_Source/PSoC5/CyLib.c **** *   void.
 896:./Generated_Source/PSoC5/CyLib.c **** *
ARM GAS  C:\Users\CHARLI~1\AppData\Local\Temp\cc78mmP1.s 			page 43


 897:./Generated_Source/PSoC5/CyLib.c **** *
 898:./Generated_Source/PSoC5/CyLib.c **** * Return:
 899:./Generated_Source/PSoC5/CyLib.c **** *   void.
 900:./Generated_Source/PSoC5/CyLib.c **** *
 901:./Generated_Source/PSoC5/CyLib.c **** *******************************************************************************/
 902:./Generated_Source/PSoC5/CyLib.c **** void CyILO_Start1K(void) 
 903:./Generated_Source/PSoC5/CyLib.c **** {
 1495              		.loc 1 903 0
 1496              		.cfi_startproc
 1497              		@ args = 0, pretend = 0, frame = 0
 1498              		@ frame_needed = 1, uses_anonymous_args = 0
 1499              		@ link register save eliminated.
 1500 0000 80B4     		push	{r7}
 1501              	.LCFI47:
 1502              		.cfi_def_cfa_offset 4
 1503 0002 00AF     		add	r7, sp, #0
 1504              		.cfi_offset 7, -4
 1505              	.LCFI48:
 1506              		.cfi_def_cfa_register 7
 904:./Generated_Source/PSoC5/CyLib.c ****     /*Set the bit 1 of ILO RS */
 905:./Generated_Source/PSoC5/CyLib.c ****     SLOWCLK_ILO_CR0 |= ILO_CONTROL_1KHZ_ON;
 1507              		.loc 1 905 0
 1508 0004 44F20033 		movw	r3, #:lower16:1073758976
 1509 0008 C4F20003 		movt	r3, #:upper16:1073758976
 1510 000c 44F20032 		movw	r2, #:lower16:1073758976
 1511 0010 C4F20002 		movt	r2, #:upper16:1073758976
 1512 0014 1278     		ldrb	r2, [r2, #0]
 1513 0016 D2B2     		uxtb	r2, r2
 1514 0018 42F00202 		orr	r2, r2, #2
 1515 001c D2B2     		uxtb	r2, r2
 1516 001e 1A70     		strb	r2, [r3, #0]
 906:./Generated_Source/PSoC5/CyLib.c **** }
 1517              		.loc 1 906 0
 1518 0020 BD46     		mov	sp, r7
 1519 0022 80BC     		pop	{r7}
 1520 0024 7047     		bx	lr
 1521              		.cfi_endproc
 1522              	.LFE17:
 1523              		.size	CyILO_Start1K, .-CyILO_Start1K
 1524 0026 00BF     		.section	.text.CyILO_Stop1K,"ax",%progbits
 1525              		.align	2
 1526              		.global	CyILO_Stop1K
 1527              		.thumb
 1528              		.thumb_func
 1529              		.type	CyILO_Stop1K, %function
 1530              	CyILO_Stop1K:
 1531              	.LFB18:
 907:./Generated_Source/PSoC5/CyLib.c **** 
 908:./Generated_Source/PSoC5/CyLib.c **** 
 909:./Generated_Source/PSoC5/CyLib.c **** /*******************************************************************************
 910:./Generated_Source/PSoC5/CyLib.c **** * Function Name: CyILO_Stop1K
 911:./Generated_Source/PSoC5/CyLib.c **** ********************************************************************************
 912:./Generated_Source/PSoC5/CyLib.c **** * Summary:
 913:./Generated_Source/PSoC5/CyLib.c **** *   Disables the ILO 1 KHz oscillator.
 914:./Generated_Source/PSoC5/CyLib.c **** *
 915:./Generated_Source/PSoC5/CyLib.c **** *
 916:./Generated_Source/PSoC5/CyLib.c **** * Parameters:
ARM GAS  C:\Users\CHARLI~1\AppData\Local\Temp\cc78mmP1.s 			page 44


 917:./Generated_Source/PSoC5/CyLib.c **** *   void.
 918:./Generated_Source/PSoC5/CyLib.c **** *
 919:./Generated_Source/PSoC5/CyLib.c **** *
 920:./Generated_Source/PSoC5/CyLib.c **** * Return:
 921:./Generated_Source/PSoC5/CyLib.c **** *   void.
 922:./Generated_Source/PSoC5/CyLib.c **** *
 923:./Generated_Source/PSoC5/CyLib.c **** *******************************************************************************/
 924:./Generated_Source/PSoC5/CyLib.c **** void CyILO_Stop1K(void) 
 925:./Generated_Source/PSoC5/CyLib.c **** {
 1532              		.loc 1 925 0
 1533              		.cfi_startproc
 1534              		@ args = 0, pretend = 0, frame = 0
 1535              		@ frame_needed = 1, uses_anonymous_args = 0
 1536              		@ link register save eliminated.
 1537 0000 80B4     		push	{r7}
 1538              	.LCFI49:
 1539              		.cfi_def_cfa_offset 4
 1540 0002 00AF     		add	r7, sp, #0
 1541              		.cfi_offset 7, -4
 1542              	.LCFI50:
 1543              		.cfi_def_cfa_register 7
 926:./Generated_Source/PSoC5/CyLib.c ****     /*Clear the bit 1 of ILO RS */
 927:./Generated_Source/PSoC5/CyLib.c ****     SLOWCLK_ILO_CR0 &= ~ILO_CONTROL_1KHZ_ON;
 1544              		.loc 1 927 0
 1545 0004 44F20033 		movw	r3, #:lower16:1073758976
 1546 0008 C4F20003 		movt	r3, #:upper16:1073758976
 1547 000c 44F20032 		movw	r2, #:lower16:1073758976
 1548 0010 C4F20002 		movt	r2, #:upper16:1073758976
 1549 0014 1278     		ldrb	r2, [r2, #0]
 1550 0016 D2B2     		uxtb	r2, r2
 1551 0018 02F0FD02 		and	r2, r2, #253
 1552 001c 1A70     		strb	r2, [r3, #0]
 928:./Generated_Source/PSoC5/CyLib.c **** }
 1553              		.loc 1 928 0
 1554 001e BD46     		mov	sp, r7
 1555 0020 80BC     		pop	{r7}
 1556 0022 7047     		bx	lr
 1557              		.cfi_endproc
 1558              	.LFE18:
 1559              		.size	CyILO_Stop1K, .-CyILO_Stop1K
 1560              		.section	.text.CyILO_Start100K,"ax",%progbits
 1561              		.align	2
 1562              		.global	CyILO_Start100K
 1563              		.thumb
 1564              		.thumb_func
 1565              		.type	CyILO_Start100K, %function
 1566              	CyILO_Start100K:
 1567              	.LFB19:
 929:./Generated_Source/PSoC5/CyLib.c **** 
 930:./Generated_Source/PSoC5/CyLib.c **** 
 931:./Generated_Source/PSoC5/CyLib.c **** /*******************************************************************************
 932:./Generated_Source/PSoC5/CyLib.c **** * Function Name: CyILO_Start100K
 933:./Generated_Source/PSoC5/CyLib.c **** ********************************************************************************
 934:./Generated_Source/PSoC5/CyLib.c **** * Summary:
 935:./Generated_Source/PSoC5/CyLib.c **** *   Enables the ILO 100 KHz oscillator.
 936:./Generated_Source/PSoC5/CyLib.c **** *
 937:./Generated_Source/PSoC5/CyLib.c **** *
ARM GAS  C:\Users\CHARLI~1\AppData\Local\Temp\cc78mmP1.s 			page 45


 938:./Generated_Source/PSoC5/CyLib.c **** * Parameters:
 939:./Generated_Source/PSoC5/CyLib.c **** *   void.
 940:./Generated_Source/PSoC5/CyLib.c **** *
 941:./Generated_Source/PSoC5/CyLib.c **** *
 942:./Generated_Source/PSoC5/CyLib.c **** * Return:
 943:./Generated_Source/PSoC5/CyLib.c **** *   void.
 944:./Generated_Source/PSoC5/CyLib.c **** *
 945:./Generated_Source/PSoC5/CyLib.c **** *******************************************************************************/
 946:./Generated_Source/PSoC5/CyLib.c **** void CyILO_Start100K(void) 
 947:./Generated_Source/PSoC5/CyLib.c **** {
 1568              		.loc 1 947 0
 1569              		.cfi_startproc
 1570              		@ args = 0, pretend = 0, frame = 0
 1571              		@ frame_needed = 1, uses_anonymous_args = 0
 1572              		@ link register save eliminated.
 1573 0000 80B4     		push	{r7}
 1574              	.LCFI51:
 1575              		.cfi_def_cfa_offset 4
 1576 0002 00AF     		add	r7, sp, #0
 1577              		.cfi_offset 7, -4
 1578              	.LCFI52:
 1579              		.cfi_def_cfa_register 7
 948:./Generated_Source/PSoC5/CyLib.c ****     /*Set the bit 2 of ILO RS */
 949:./Generated_Source/PSoC5/CyLib.c ****     SLOWCLK_ILO_CR0 |= ILO_CONTROL_100KHZ_ON;
 1580              		.loc 1 949 0
 1581 0004 44F20033 		movw	r3, #:lower16:1073758976
 1582 0008 C4F20003 		movt	r3, #:upper16:1073758976
 1583 000c 44F20032 		movw	r2, #:lower16:1073758976
 1584 0010 C4F20002 		movt	r2, #:upper16:1073758976
 1585 0014 1278     		ldrb	r2, [r2, #0]
 1586 0016 D2B2     		uxtb	r2, r2
 1587 0018 42F00402 		orr	r2, r2, #4
 1588 001c D2B2     		uxtb	r2, r2
 1589 001e 1A70     		strb	r2, [r3, #0]
 950:./Generated_Source/PSoC5/CyLib.c **** }
 1590              		.loc 1 950 0
 1591 0020 BD46     		mov	sp, r7
 1592 0022 80BC     		pop	{r7}
 1593 0024 7047     		bx	lr
 1594              		.cfi_endproc
 1595              	.LFE19:
 1596              		.size	CyILO_Start100K, .-CyILO_Start100K
 1597 0026 00BF     		.section	.text.CyILO_Stop100K,"ax",%progbits
 1598              		.align	2
 1599              		.global	CyILO_Stop100K
 1600              		.thumb
 1601              		.thumb_func
 1602              		.type	CyILO_Stop100K, %function
 1603              	CyILO_Stop100K:
 1604              	.LFB20:
 951:./Generated_Source/PSoC5/CyLib.c **** 
 952:./Generated_Source/PSoC5/CyLib.c **** 
 953:./Generated_Source/PSoC5/CyLib.c **** /*******************************************************************************
 954:./Generated_Source/PSoC5/CyLib.c **** * Function Name: CyILO_Stop100K
 955:./Generated_Source/PSoC5/CyLib.c **** ********************************************************************************
 956:./Generated_Source/PSoC5/CyLib.c **** * Summary:
 957:./Generated_Source/PSoC5/CyLib.c **** *   Disables the ILO 100 KHz oscillator.
ARM GAS  C:\Users\CHARLI~1\AppData\Local\Temp\cc78mmP1.s 			page 46


 958:./Generated_Source/PSoC5/CyLib.c **** *
 959:./Generated_Source/PSoC5/CyLib.c **** *
 960:./Generated_Source/PSoC5/CyLib.c **** * Parameters:
 961:./Generated_Source/PSoC5/CyLib.c **** *   void.
 962:./Generated_Source/PSoC5/CyLib.c **** *
 963:./Generated_Source/PSoC5/CyLib.c **** *
 964:./Generated_Source/PSoC5/CyLib.c **** * Return:
 965:./Generated_Source/PSoC5/CyLib.c **** *   void.
 966:./Generated_Source/PSoC5/CyLib.c **** *
 967:./Generated_Source/PSoC5/CyLib.c **** *******************************************************************************/
 968:./Generated_Source/PSoC5/CyLib.c **** void CyILO_Stop100K(void) 
 969:./Generated_Source/PSoC5/CyLib.c **** {
 1605              		.loc 1 969 0
 1606              		.cfi_startproc
 1607              		@ args = 0, pretend = 0, frame = 0
 1608              		@ frame_needed = 1, uses_anonymous_args = 0
 1609              		@ link register save eliminated.
 1610 0000 80B4     		push	{r7}
 1611              	.LCFI53:
 1612              		.cfi_def_cfa_offset 4
 1613 0002 00AF     		add	r7, sp, #0
 1614              		.cfi_offset 7, -4
 1615              	.LCFI54:
 1616              		.cfi_def_cfa_register 7
 970:./Generated_Source/PSoC5/CyLib.c ****     /*Clear the bit 2 of ILO RS */
 971:./Generated_Source/PSoC5/CyLib.c ****     SLOWCLK_ILO_CR0 &= ~ILO_CONTROL_100KHZ_ON;
 1617              		.loc 1 971 0
 1618 0004 44F20033 		movw	r3, #:lower16:1073758976
 1619 0008 C4F20003 		movt	r3, #:upper16:1073758976
 1620 000c 44F20032 		movw	r2, #:lower16:1073758976
 1621 0010 C4F20002 		movt	r2, #:upper16:1073758976
 1622 0014 1278     		ldrb	r2, [r2, #0]
 1623 0016 D2B2     		uxtb	r2, r2
 1624 0018 02F0FB02 		and	r2, r2, #251
 1625 001c 1A70     		strb	r2, [r3, #0]
 972:./Generated_Source/PSoC5/CyLib.c **** }
 1626              		.loc 1 972 0
 1627 001e BD46     		mov	sp, r7
 1628 0020 80BC     		pop	{r7}
 1629 0022 7047     		bx	lr
 1630              		.cfi_endproc
 1631              	.LFE20:
 1632              		.size	CyILO_Stop100K, .-CyILO_Stop100K
 1633              		.section	.text.CyILO_Enable33K,"ax",%progbits
 1634              		.align	2
 1635              		.global	CyILO_Enable33K
 1636              		.thumb
 1637              		.thumb_func
 1638              		.type	CyILO_Enable33K, %function
 1639              	CyILO_Enable33K:
 1640              	.LFB21:
 973:./Generated_Source/PSoC5/CyLib.c **** 
 974:./Generated_Source/PSoC5/CyLib.c **** 
 975:./Generated_Source/PSoC5/CyLib.c **** /*******************************************************************************
 976:./Generated_Source/PSoC5/CyLib.c **** * Function Name: CyILO_Enable33K
 977:./Generated_Source/PSoC5/CyLib.c **** ********************************************************************************
 978:./Generated_Source/PSoC5/CyLib.c **** * Summary:
ARM GAS  C:\Users\CHARLI~1\AppData\Local\Temp\cc78mmP1.s 			page 47


 979:./Generated_Source/PSoC5/CyLib.c **** *   Enables the ILO 33 KHz divider.  
 980:./Generated_Source/PSoC5/CyLib.c **** *   Note that the 33 KHz clock is generated from the 100 KHz oscillator, 
 981:./Generated_Source/PSoC5/CyLib.c **** *   so it must also be running in order to generate the 33 KHz output.
 982:./Generated_Source/PSoC5/CyLib.c **** *
 983:./Generated_Source/PSoC5/CyLib.c **** *
 984:./Generated_Source/PSoC5/CyLib.c **** * Parameters:
 985:./Generated_Source/PSoC5/CyLib.c **** *   void.
 986:./Generated_Source/PSoC5/CyLib.c **** *
 987:./Generated_Source/PSoC5/CyLib.c **** *
 988:./Generated_Source/PSoC5/CyLib.c **** * Return:
 989:./Generated_Source/PSoC5/CyLib.c **** *   void.
 990:./Generated_Source/PSoC5/CyLib.c **** *
 991:./Generated_Source/PSoC5/CyLib.c **** *******************************************************************************/
 992:./Generated_Source/PSoC5/CyLib.c **** void CyILO_Enable33K(void) 
 993:./Generated_Source/PSoC5/CyLib.c **** {
 1641              		.loc 1 993 0
 1642              		.cfi_startproc
 1643              		@ args = 0, pretend = 0, frame = 0
 1644              		@ frame_needed = 1, uses_anonymous_args = 0
 1645              		@ link register save eliminated.
 1646 0000 80B4     		push	{r7}
 1647              	.LCFI55:
 1648              		.cfi_def_cfa_offset 4
 1649 0002 00AF     		add	r7, sp, #0
 1650              		.cfi_offset 7, -4
 1651              	.LCFI56:
 1652              		.cfi_def_cfa_register 7
 994:./Generated_Source/PSoC5/CyLib.c ****     /*Set the bit 5 of ILO RS */
 995:./Generated_Source/PSoC5/CyLib.c ****     SLOWCLK_ILO_CR0 |= ILO_CONTROL_33KHZ_ON;
 1653              		.loc 1 995 0
 1654 0004 44F20033 		movw	r3, #:lower16:1073758976
 1655 0008 C4F20003 		movt	r3, #:upper16:1073758976
 1656 000c 44F20032 		movw	r2, #:lower16:1073758976
 1657 0010 C4F20002 		movt	r2, #:upper16:1073758976
 1658 0014 1278     		ldrb	r2, [r2, #0]
 1659 0016 D2B2     		uxtb	r2, r2
 1660 0018 42F02002 		orr	r2, r2, #32
 1661 001c D2B2     		uxtb	r2, r2
 1662 001e 1A70     		strb	r2, [r3, #0]
 996:./Generated_Source/PSoC5/CyLib.c **** }
 1663              		.loc 1 996 0
 1664 0020 BD46     		mov	sp, r7
 1665 0022 80BC     		pop	{r7}
 1666 0024 7047     		bx	lr
 1667              		.cfi_endproc
 1668              	.LFE21:
 1669              		.size	CyILO_Enable33K, .-CyILO_Enable33K
 1670 0026 00BF     		.section	.text.CyILO_Disable33K,"ax",%progbits
 1671              		.align	2
 1672              		.global	CyILO_Disable33K
 1673              		.thumb
 1674              		.thumb_func
 1675              		.type	CyILO_Disable33K, %function
 1676              	CyILO_Disable33K:
 1677              	.LFB22:
 997:./Generated_Source/PSoC5/CyLib.c **** 
 998:./Generated_Source/PSoC5/CyLib.c **** 
ARM GAS  C:\Users\CHARLI~1\AppData\Local\Temp\cc78mmP1.s 			page 48


 999:./Generated_Source/PSoC5/CyLib.c **** /*******************************************************************************
1000:./Generated_Source/PSoC5/CyLib.c **** * Function Name: CyILO_Disable33K
1001:./Generated_Source/PSoC5/CyLib.c **** ********************************************************************************
1002:./Generated_Source/PSoC5/CyLib.c **** * Summary:
1003:./Generated_Source/PSoC5/CyLib.c **** *   Disables the ILO 33 KHz divider.  
1004:./Generated_Source/PSoC5/CyLib.c **** *   Note that the 33 KHz clock is generated from the 100 KHz oscillator, 
1005:./Generated_Source/PSoC5/CyLib.c **** *   but this API does not disable the 100 KHz clock.
1006:./Generated_Source/PSoC5/CyLib.c **** *
1007:./Generated_Source/PSoC5/CyLib.c **** *
1008:./Generated_Source/PSoC5/CyLib.c **** * Parameters:
1009:./Generated_Source/PSoC5/CyLib.c **** *   void.
1010:./Generated_Source/PSoC5/CyLib.c **** *
1011:./Generated_Source/PSoC5/CyLib.c **** *
1012:./Generated_Source/PSoC5/CyLib.c **** * Return:
1013:./Generated_Source/PSoC5/CyLib.c **** *   void.
1014:./Generated_Source/PSoC5/CyLib.c **** *
1015:./Generated_Source/PSoC5/CyLib.c **** *******************************************************************************/
1016:./Generated_Source/PSoC5/CyLib.c **** void CyILO_Disable33K(void) 
1017:./Generated_Source/PSoC5/CyLib.c **** {
 1678              		.loc 1 1017 0
 1679              		.cfi_startproc
 1680              		@ args = 0, pretend = 0, frame = 0
 1681              		@ frame_needed = 1, uses_anonymous_args = 0
 1682              		@ link register save eliminated.
 1683 0000 80B4     		push	{r7}
 1684              	.LCFI57:
 1685              		.cfi_def_cfa_offset 4
 1686 0002 00AF     		add	r7, sp, #0
 1687              		.cfi_offset 7, -4
 1688              	.LCFI58:
 1689              		.cfi_def_cfa_register 7
1018:./Generated_Source/PSoC5/CyLib.c ****     /*Clear the bit 5 of ILO RS */
1019:./Generated_Source/PSoC5/CyLib.c ****     SLOWCLK_ILO_CR0 &= ~ILO_CONTROL_33KHZ_ON;
 1690              		.loc 1 1019 0
 1691 0004 44F20033 		movw	r3, #:lower16:1073758976
 1692 0008 C4F20003 		movt	r3, #:upper16:1073758976
 1693 000c 44F20032 		movw	r2, #:lower16:1073758976
 1694 0010 C4F20002 		movt	r2, #:upper16:1073758976
 1695 0014 1278     		ldrb	r2, [r2, #0]
 1696 0016 D2B2     		uxtb	r2, r2
 1697 0018 02F0DF02 		and	r2, r2, #223
 1698 001c 1A70     		strb	r2, [r3, #0]
1020:./Generated_Source/PSoC5/CyLib.c **** }
 1699              		.loc 1 1020 0
 1700 001e BD46     		mov	sp, r7
 1701 0020 80BC     		pop	{r7}
 1702 0022 7047     		bx	lr
 1703              		.cfi_endproc
 1704              	.LFE22:
 1705              		.size	CyILO_Disable33K, .-CyILO_Disable33K
 1706              		.section	.text.CyILO_SetSource,"ax",%progbits
 1707              		.align	2
 1708              		.global	CyILO_SetSource
 1709              		.thumb
 1710              		.thumb_func
 1711              		.type	CyILO_SetSource, %function
 1712              	CyILO_SetSource:
ARM GAS  C:\Users\CHARLI~1\AppData\Local\Temp\cc78mmP1.s 			page 49


 1713              	.LFB23:
1021:./Generated_Source/PSoC5/CyLib.c **** 
1022:./Generated_Source/PSoC5/CyLib.c **** 
1023:./Generated_Source/PSoC5/CyLib.c **** /*******************************************************************************
1024:./Generated_Source/PSoC5/CyLib.c **** * Function Name: CyILO_SetSource
1025:./Generated_Source/PSoC5/CyLib.c **** ********************************************************************************
1026:./Generated_Source/PSoC5/CyLib.c **** * Summary:
1027:./Generated_Source/PSoC5/CyLib.c **** *   Sets the source of the clock output from the ILO block.
1028:./Generated_Source/PSoC5/CyLib.c **** *
1029:./Generated_Source/PSoC5/CyLib.c **** *
1030:./Generated_Source/PSoC5/CyLib.c **** * Parameters:
1031:./Generated_Source/PSoC5/CyLib.c **** *   source: One of the three available ILO output sources
1032:./Generated_Source/PSoC5/CyLib.c **** *       Value        Define                Source
1033:./Generated_Source/PSoC5/CyLib.c **** *       0            CY_ILO_SOURCE_100K    ILO 100 KHz
1034:./Generated_Source/PSoC5/CyLib.c **** *       1            CY_ILO_SOURCE_33K    ILO 33 KHz
1035:./Generated_Source/PSoC5/CyLib.c **** *       2            CY_ILO_SOURCE_1K    ILO 1 KHz
1036:./Generated_Source/PSoC5/CyLib.c **** *
1037:./Generated_Source/PSoC5/CyLib.c **** *
1038:./Generated_Source/PSoC5/CyLib.c **** * Return:
1039:./Generated_Source/PSoC5/CyLib.c **** *   void.
1040:./Generated_Source/PSoC5/CyLib.c **** *
1041:./Generated_Source/PSoC5/CyLib.c **** *******************************************************************************/
1042:./Generated_Source/PSoC5/CyLib.c **** void CyILO_SetSource(uint8 source) 
1043:./Generated_Source/PSoC5/CyLib.c **** {
 1714              		.loc 1 1043 0
 1715              		.cfi_startproc
 1716              		@ args = 0, pretend = 0, frame = 8
 1717              		@ frame_needed = 1, uses_anonymous_args = 0
 1718              		@ link register save eliminated.
 1719 0000 80B4     		push	{r7}
 1720              	.LCFI59:
 1721              		.cfi_def_cfa_offset 4
 1722 0002 83B0     		sub	sp, sp, #12
 1723              	.LCFI60:
 1724              		.cfi_def_cfa_offset 16
 1725 0004 00AF     		add	r7, sp, #0
 1726              		.cfi_offset 7, -4
 1727              	.LCFI61:
 1728              		.cfi_def_cfa_register 7
 1729 0006 0346     		mov	r3, r0
 1730 0008 FB71     		strb	r3, [r7, #7]
1044:./Generated_Source/PSoC5/CyLib.c ****     /*Bits 3:2       ILO_OUT[1:0] of CLKDIST_CR */
1045:./Generated_Source/PSoC5/CyLib.c ****     CLKDIST_CR = (CLKDIST_CR & CY_ILO_SOURCE_BITS_CLEAR) | ((source << 2) & ~CY_ILO_SOURCE_BITS_CLE
 1731              		.loc 1 1045 0
 1732 000a 44F20003 		movw	r3, #:lower16:1073758208
 1733 000e C4F20003 		movt	r3, #:upper16:1073758208
 1734 0012 44F20002 		movw	r2, #:lower16:1073758208
 1735 0016 C4F20002 		movt	r2, #:upper16:1073758208
 1736 001a 1278     		ldrb	r2, [r2, #0]
 1737 001c D2B2     		uxtb	r2, r2
 1738 001e 1146     		mov	r1, r2
 1739 0020 01F0F301 		and	r1, r1, #243
 1740 0024 FA79     		ldrb	r2, [r7, #7]
 1741 0026 4FEA8202 		lsl	r2, r2, #2
 1742 002a D2B2     		uxtb	r2, r2
 1743 002c 02F00C02 		and	r2, r2, #12
 1744 0030 41EA0202 		orr	r2, r1, r2
ARM GAS  C:\Users\CHARLI~1\AppData\Local\Temp\cc78mmP1.s 			page 50


 1745 0034 D2B2     		uxtb	r2, r2
 1746 0036 1A70     		strb	r2, [r3, #0]
1046:./Generated_Source/PSoC5/CyLib.c **** }
 1747              		.loc 1 1046 0
 1748 0038 07F10C07 		add	r7, r7, #12
 1749 003c BD46     		mov	sp, r7
 1750 003e 80BC     		pop	{r7}
 1751 0040 7047     		bx	lr
 1752              		.cfi_endproc
 1753              	.LFE23:
 1754              		.size	CyILO_SetSource, .-CyILO_SetSource
 1755 0042 00BF     		.section	.text.CyILO_SetPowerMode,"ax",%progbits
 1756              		.align	2
 1757              		.global	CyILO_SetPowerMode
 1758              		.thumb
 1759              		.thumb_func
 1760              		.type	CyILO_SetPowerMode, %function
 1761              	CyILO_SetPowerMode:
 1762              	.LFB24:
1047:./Generated_Source/PSoC5/CyLib.c **** 
1048:./Generated_Source/PSoC5/CyLib.c **** 
1049:./Generated_Source/PSoC5/CyLib.c **** /*******************************************************************************
1050:./Generated_Source/PSoC5/CyLib.c **** * Function Name: CyILO_SetPowerMode
1051:./Generated_Source/PSoC5/CyLib.c **** ********************************************************************************
1052:./Generated_Source/PSoC5/CyLib.c **** * Summary:
1053:./Generated_Source/PSoC5/CyLib.c **** *   Sets the power mode used by the ILO during power down.  
1054:./Generated_Source/PSoC5/CyLib.c **** *   Allows for lower power down power usage resulting in a slower startup time.
1055:./Generated_Source/PSoC5/CyLib.c **** *
1056:./Generated_Source/PSoC5/CyLib.c **** *
1057:./Generated_Source/PSoC5/CyLib.c **** * Parameters:
1058:./Generated_Source/PSoC5/CyLib.c **** *   mode, 0 : Faster start-up, internal bias left on when powered down
1059:./Generated_Source/PSoC5/CyLib.c **** *         1 : Slower start-up, internal bias off when powered down
1060:./Generated_Source/PSoC5/CyLib.c **** *
1061:./Generated_Source/PSoC5/CyLib.c **** *
1062:./Generated_Source/PSoC5/CyLib.c **** * Return:
1063:./Generated_Source/PSoC5/CyLib.c **** *   Prevous power mode state.
1064:./Generated_Source/PSoC5/CyLib.c **** *
1065:./Generated_Source/PSoC5/CyLib.c **** *******************************************************************************/
1066:./Generated_Source/PSoC5/CyLib.c **** uint8 CyILO_SetPowerMode(uint8 mode) 
1067:./Generated_Source/PSoC5/CyLib.c **** {
 1763              		.loc 1 1067 0
 1764              		.cfi_startproc
 1765              		@ args = 0, pretend = 0, frame = 16
 1766              		@ frame_needed = 1, uses_anonymous_args = 0
 1767              		@ link register save eliminated.
 1768 0000 80B4     		push	{r7}
 1769              	.LCFI62:
 1770              		.cfi_def_cfa_offset 4
 1771 0002 85B0     		sub	sp, sp, #20
 1772              	.LCFI63:
 1773              		.cfi_def_cfa_offset 24
 1774 0004 00AF     		add	r7, sp, #0
 1775              		.cfi_offset 7, -4
 1776              	.LCFI64:
 1777              		.cfi_def_cfa_register 7
 1778 0006 0346     		mov	r3, r0
 1779 0008 FB71     		strb	r3, [r7, #7]
ARM GAS  C:\Users\CHARLI~1\AppData\Local\Temp\cc78mmP1.s 			page 51


1068:./Generated_Source/PSoC5/CyLib.c ****     uint8 state;
1069:./Generated_Source/PSoC5/CyLib.c **** 
1070:./Generated_Source/PSoC5/CyLib.c ****     /* Get current state. */
1071:./Generated_Source/PSoC5/CyLib.c ****     state = SLOWCLK_ILO_CR0;
 1780              		.loc 1 1071 0
 1781 000a 44F20033 		movw	r3, #:lower16:1073758976
 1782 000e C4F20003 		movt	r3, #:upper16:1073758976
 1783 0012 1B78     		ldrb	r3, [r3, #0]
 1784 0014 FB73     		strb	r3, [r7, #15]
1072:./Generated_Source/PSoC5/CyLib.c **** 
1073:./Generated_Source/PSoC5/CyLib.c ****     /* Set the the oscillator power mode. */
1074:./Generated_Source/PSoC5/CyLib.c ****     if(mode!=0)
 1785              		.loc 1 1074 0
 1786 0016 FB79     		ldrb	r3, [r7, #7]	@ zero_extendqisi2
 1787 0018 002B     		cmp	r3, #0
 1788 001a 09D0     		beq	.L114
1075:./Generated_Source/PSoC5/CyLib.c ****     {
1076:./Generated_Source/PSoC5/CyLib.c ****         SLOWCLK_ILO_CR0 = (state | ILO_CONTROL_PD_MODE);
 1789              		.loc 1 1076 0
 1790 001c 44F20033 		movw	r3, #:lower16:1073758976
 1791 0020 C4F20003 		movt	r3, #:upper16:1073758976
 1792 0024 FA7B     		ldrb	r2, [r7, #15]
 1793 0026 42F01002 		orr	r2, r2, #16
 1794 002a D2B2     		uxtb	r2, r2
 1795 002c 1A70     		strb	r2, [r3, #0]
 1796 002e 07E0     		b	.L115
 1797              	.L114:
1077:./Generated_Source/PSoC5/CyLib.c ****     }
1078:./Generated_Source/PSoC5/CyLib.c ****     else
1079:./Generated_Source/PSoC5/CyLib.c ****     {
1080:./Generated_Source/PSoC5/CyLib.c ****         SLOWCLK_ILO_CR0 = (state & ~ILO_CONTROL_PD_MODE);
 1798              		.loc 1 1080 0
 1799 0030 44F20033 		movw	r3, #:lower16:1073758976
 1800 0034 C4F20003 		movt	r3, #:upper16:1073758976
 1801 0038 FA7B     		ldrb	r2, [r7, #15]	@ zero_extendqisi2
 1802 003a 02F0EF02 		and	r2, r2, #239
 1803 003e 1A70     		strb	r2, [r3, #0]
 1804              	.L115:
1081:./Generated_Source/PSoC5/CyLib.c ****     }
1082:./Generated_Source/PSoC5/CyLib.c **** 
1083:./Generated_Source/PSoC5/CyLib.c ****     /* Return the old mode. */
1084:./Generated_Source/PSoC5/CyLib.c ****     return ((state & ILO_CONTROL_PD_MODE) >> ILO_CONTROL_PD_POSITION);
 1805              		.loc 1 1084 0
 1806 0040 FB7B     		ldrb	r3, [r7, #15]	@ zero_extendqisi2
 1807 0042 03F01003 		and	r3, r3, #16
 1808 0046 4FEA2313 		asr	r3, r3, #4
 1809 004a DBB2     		uxtb	r3, r3
1085:./Generated_Source/PSoC5/CyLib.c **** }
 1810              		.loc 1 1085 0
 1811 004c 1846     		mov	r0, r3
 1812 004e 07F11407 		add	r7, r7, #20
 1813 0052 BD46     		mov	sp, r7
 1814 0054 80BC     		pop	{r7}
 1815 0056 7047     		bx	lr
 1816              		.cfi_endproc
 1817              	.LFE24:
 1818              		.size	CyILO_SetPowerMode, .-CyILO_SetPowerMode
ARM GAS  C:\Users\CHARLI~1\AppData\Local\Temp\cc78mmP1.s 			page 52


 1819              		.section	.text.CyXTAL_32KHZ_Start,"ax",%progbits
 1820              		.align	2
 1821              		.global	CyXTAL_32KHZ_Start
 1822              		.thumb
 1823              		.thumb_func
 1824              		.type	CyXTAL_32KHZ_Start, %function
 1825              	CyXTAL_32KHZ_Start:
 1826              	.LFB25:
1086:./Generated_Source/PSoC5/CyLib.c **** 
1087:./Generated_Source/PSoC5/CyLib.c **** 
1088:./Generated_Source/PSoC5/CyLib.c **** /*******************************************************************************
1089:./Generated_Source/PSoC5/CyLib.c **** * Function Name: CyXTAL_32KHZ_Start
1090:./Generated_Source/PSoC5/CyLib.c **** ********************************************************************************
1091:./Generated_Source/PSoC5/CyLib.c **** * Summary:
1092:./Generated_Source/PSoC5/CyLib.c **** *   Enables the 32KHz Crystal Oscillator.
1093:./Generated_Source/PSoC5/CyLib.c **** *
1094:./Generated_Source/PSoC5/CyLib.c **** *
1095:./Generated_Source/PSoC5/CyLib.c **** * Parameters:
1096:./Generated_Source/PSoC5/CyLib.c **** *   void.
1097:./Generated_Source/PSoC5/CyLib.c **** *
1098:./Generated_Source/PSoC5/CyLib.c **** *
1099:./Generated_Source/PSoC5/CyLib.c **** * Return:
1100:./Generated_Source/PSoC5/CyLib.c **** *   void.
1101:./Generated_Source/PSoC5/CyLib.c **** *
1102:./Generated_Source/PSoC5/CyLib.c **** *******************************************************************************/
1103:./Generated_Source/PSoC5/CyLib.c **** void CyXTAL_32KHZ_Start(void) 
1104:./Generated_Source/PSoC5/CyLib.c **** {
 1827              		.loc 1 1104 0
 1828              		.cfi_startproc
 1829              		@ args = 0, pretend = 0, frame = 8
 1830              		@ frame_needed = 1, uses_anonymous_args = 0
 1831              		@ link register save eliminated.
 1832 0000 80B4     		push	{r7}
 1833              	.LCFI65:
 1834              		.cfi_def_cfa_offset 4
 1835 0002 83B0     		sub	sp, sp, #12
 1836              	.LCFI66:
 1837              		.cfi_def_cfa_offset 16
 1838 0004 00AF     		add	r7, sp, #0
 1839              		.cfi_offset 7, -4
 1840              	.LCFI67:
 1841              		.cfi_def_cfa_register 7
1105:./Generated_Source/PSoC5/CyLib.c ****     volatile uint32  timeout;
1106:./Generated_Source/PSoC5/CyLib.c ****     volatile uint32* timeout_p = &timeout;
 1842              		.loc 1 1106 0
 1843 0006 3B46     		mov	r3, r7
 1844 0008 7B60     		str	r3, [r7, #4]
1107:./Generated_Source/PSoC5/CyLib.c ****     
1108:./Generated_Source/PSoC5/CyLib.c **** #if (CYLIB_PSOC3_ES3 || CYLIB_PSOC5_ES2)
1109:./Generated_Source/PSoC5/CyLib.c ****     uint8 x32TrHold;
1110:./Generated_Source/PSoC5/CyLib.c ****     x32TrHold = MFGCFG_X32_TR;
1111:./Generated_Source/PSoC5/CyLib.c ****     MFGCFG_X32_TR = X32_TR_CLEAR;
1112:./Generated_Source/PSoC5/CyLib.c **** #endif
1113:./Generated_Source/PSoC5/CyLib.c **** 
1114:./Generated_Source/PSoC5/CyLib.c ****     SLOWCLK_X32_TST = X32_TST_SETALL;
 1845              		.loc 1 1114 0
 1846 000a 44F20A33 		movw	r3, #:lower16:1073758986
ARM GAS  C:\Users\CHARLI~1\AppData\Local\Temp\cc78mmP1.s 			page 53


 1847 000e C4F20003 		movt	r3, #:upper16:1073758986
 1848 0012 6FF00E02 		mvn	r2, #14
 1849 0016 1A70     		strb	r2, [r3, #0]
1115:./Generated_Source/PSoC5/CyLib.c ****     SLOWCLK_X32_CFG = X32_CFG_LOWPOWERMODE;
 1850              		.loc 1 1115 0
 1851 0018 44F20933 		movw	r3, #:lower16:1073758985
 1852 001c C4F20003 		movt	r3, #:upper16:1073758985
 1853 0020 6FF07F02 		mvn	r2, #127
 1854 0024 1A70     		strb	r2, [r3, #0]
1116:./Generated_Source/PSoC5/CyLib.c **** 
1117:./Generated_Source/PSoC5/CyLib.c **** 	/* Enable the the oscillator. */
1118:./Generated_Source/PSoC5/CyLib.c **** #if (CYLIB_PSOC3_ES3 || CYLIB_PSOC5_ES2)
1119:./Generated_Source/PSoC5/CyLib.c ****     SLOWCLK_X32_CR |= X32_CONTROL_PDBEN;
1120:./Generated_Source/PSoC5/CyLib.c **** #endif
1121:./Generated_Source/PSoC5/CyLib.c ****     SLOWCLK_X32_CR |= X32_CONTROL_X32EN;
 1855              		.loc 1 1121 0
 1856 0026 44F20833 		movw	r3, #:lower16:1073758984
 1857 002a C4F20003 		movt	r3, #:upper16:1073758984
 1858 002e 44F20832 		movw	r2, #:lower16:1073758984
 1859 0032 C4F20002 		movt	r2, #:upper16:1073758984
 1860 0036 1278     		ldrb	r2, [r2, #0]
 1861 0038 D2B2     		uxtb	r2, r2
 1862 003a 42F00102 		orr	r2, r2, #1
 1863 003e D2B2     		uxtb	r2, r2
 1864 0040 1A70     		strb	r2, [r3, #0]
1122:./Generated_Source/PSoC5/CyLib.c ****     for (timeout = 224000; *timeout_p && !(SLOWCLK_X32_CR & 0x20u); timeout--) { }
 1865              		.loc 1 1122 0
 1866 0042 46F60033 		movw	r3, #:lower16:224000
 1867 0046 C0F20303 		movt	r3, #:upper16:224000
 1868 004a 3B60     		str	r3, [r7, #0]
 1869 004c 03E0     		b	.L118
 1870              	.L120:
 1871 004e 3B68     		ldr	r3, [r7, #0]
 1872 0050 03F1FF33 		add	r3, r3, #-1
 1873 0054 3B60     		str	r3, [r7, #0]
 1874              	.L118:
 1875 0056 7B68     		ldr	r3, [r7, #4]
 1876 0058 1B68     		ldr	r3, [r3, #0]
 1877 005a 002B     		cmp	r3, #0
 1878 005c 09D0     		beq	.L121
 1879 005e 44F20833 		movw	r3, #:lower16:1073758984
 1880 0062 C4F20003 		movt	r3, #:upper16:1073758984
 1881 0066 1B78     		ldrb	r3, [r3, #0]
 1882 0068 DBB2     		uxtb	r3, r3
 1883 006a 03F02003 		and	r3, r3, #32
 1884 006e 002B     		cmp	r3, #0
 1885 0070 EDD0     		beq	.L120
 1886              	.L121:
1123:./Generated_Source/PSoC5/CyLib.c **** #if (CYLIB_PSOC3_ES3 || CYLIB_PSOC5_ES2)
1124:./Generated_Source/PSoC5/CyLib.c ****     MFGCFG_X32_TR = x32TrHold;
1125:./Generated_Source/PSoC5/CyLib.c **** #endif
1126:./Generated_Source/PSoC5/CyLib.c **** }
 1887              		.loc 1 1126 0
 1888 0072 07F10C07 		add	r7, r7, #12
 1889 0076 BD46     		mov	sp, r7
 1890 0078 80BC     		pop	{r7}
 1891 007a 7047     		bx	lr
ARM GAS  C:\Users\CHARLI~1\AppData\Local\Temp\cc78mmP1.s 			page 54


 1892              		.cfi_endproc
 1893              	.LFE25:
 1894              		.size	CyXTAL_32KHZ_Start, .-CyXTAL_32KHZ_Start
 1895              		.section	.text.CyXTAL_32KHZ_Stop,"ax",%progbits
 1896              		.align	2
 1897              		.global	CyXTAL_32KHZ_Stop
 1898              		.thumb
 1899              		.thumb_func
 1900              		.type	CyXTAL_32KHZ_Stop, %function
 1901              	CyXTAL_32KHZ_Stop:
 1902              	.LFB26:
1127:./Generated_Source/PSoC5/CyLib.c **** 
1128:./Generated_Source/PSoC5/CyLib.c **** 
1129:./Generated_Source/PSoC5/CyLib.c **** /*******************************************************************************
1130:./Generated_Source/PSoC5/CyLib.c **** * Function Name: CyXTAL_32KHZ_Stop
1131:./Generated_Source/PSoC5/CyLib.c **** ********************************************************************************
1132:./Generated_Source/PSoC5/CyLib.c **** * Summary:
1133:./Generated_Source/PSoC5/CyLib.c **** *   Disables the 32KHz Crystal Oscillator.
1134:./Generated_Source/PSoC5/CyLib.c **** *
1135:./Generated_Source/PSoC5/CyLib.c **** *
1136:./Generated_Source/PSoC5/CyLib.c **** * Parameters:
1137:./Generated_Source/PSoC5/CyLib.c **** *   void.
1138:./Generated_Source/PSoC5/CyLib.c **** *
1139:./Generated_Source/PSoC5/CyLib.c **** *
1140:./Generated_Source/PSoC5/CyLib.c **** * Return:
1141:./Generated_Source/PSoC5/CyLib.c **** *   void.
1142:./Generated_Source/PSoC5/CyLib.c **** *
1143:./Generated_Source/PSoC5/CyLib.c **** *******************************************************************************/
1144:./Generated_Source/PSoC5/CyLib.c **** void CyXTAL_32KHZ_Stop(void) 
1145:./Generated_Source/PSoC5/CyLib.c **** {
 1903              		.loc 1 1145 0
 1904              		.cfi_startproc
 1905              		@ args = 0, pretend = 0, frame = 0
 1906              		@ frame_needed = 1, uses_anonymous_args = 0
 1907              		@ link register save eliminated.
 1908 0000 80B4     		push	{r7}
 1909              	.LCFI68:
 1910              		.cfi_def_cfa_offset 4
 1911 0002 00AF     		add	r7, sp, #0
 1912              		.cfi_offset 7, -4
 1913              	.LCFI69:
 1914              		.cfi_def_cfa_register 7
1146:./Generated_Source/PSoC5/CyLib.c ****     /* Disable the oscillator. */
1147:./Generated_Source/PSoC5/CyLib.c ****     SLOWCLK_X32_CR &= ~X32_CONTROL_X32EN;
 1915              		.loc 1 1147 0
 1916 0004 44F20833 		movw	r3, #:lower16:1073758984
 1917 0008 C4F20003 		movt	r3, #:upper16:1073758984
 1918 000c 44F20832 		movw	r2, #:lower16:1073758984
 1919 0010 C4F20002 		movt	r2, #:upper16:1073758984
 1920 0014 1278     		ldrb	r2, [r2, #0]
 1921 0016 D2B2     		uxtb	r2, r2
 1922 0018 02F0FE02 		and	r2, r2, #254
 1923 001c 1A70     		strb	r2, [r3, #0]
1148:./Generated_Source/PSoC5/CyLib.c **** }
 1924              		.loc 1 1148 0
 1925 001e BD46     		mov	sp, r7
 1926 0020 80BC     		pop	{r7}
ARM GAS  C:\Users\CHARLI~1\AppData\Local\Temp\cc78mmP1.s 			page 55


 1927 0022 7047     		bx	lr
 1928              		.cfi_endproc
 1929              	.LFE26:
 1930              		.size	CyXTAL_32KHZ_Stop, .-CyXTAL_32KHZ_Stop
 1931              		.section	.text.CyXTAL_32KHZ_ReadStatus,"ax",%progbits
 1932              		.align	2
 1933              		.global	CyXTAL_32KHZ_ReadStatus
 1934              		.thumb
 1935              		.thumb_func
 1936              		.type	CyXTAL_32KHZ_ReadStatus, %function
 1937              	CyXTAL_32KHZ_ReadStatus:
 1938              	.LFB27:
1149:./Generated_Source/PSoC5/CyLib.c **** 
1150:./Generated_Source/PSoC5/CyLib.c **** 
1151:./Generated_Source/PSoC5/CyLib.c **** /*******************************************************************************
1152:./Generated_Source/PSoC5/CyLib.c **** * Function Name: CyXTAL_32KHZ_ReadStatus
1153:./Generated_Source/PSoC5/CyLib.c **** ********************************************************************************
1154:./Generated_Source/PSoC5/CyLib.c **** * Summary:
1155:./Generated_Source/PSoC5/CyLib.c **** *   Reads the two status bits for the 32 KHz oscillator.
1156:./Generated_Source/PSoC5/CyLib.c **** *
1157:./Generated_Source/PSoC5/CyLib.c **** *
1158:./Generated_Source/PSoC5/CyLib.c **** * Parameters:
1159:./Generated_Source/PSoC5/CyLib.c **** *   None
1160:./Generated_Source/PSoC5/CyLib.c **** *
1161:./Generated_Source/PSoC5/CyLib.c **** *
1162:./Generated_Source/PSoC5/CyLib.c **** * Return:
1163:./Generated_Source/PSoC5/CyLib.c **** *   Value     Define                    Source
1164:./Generated_Source/PSoC5/CyLib.c **** *   20        CY_XTAL32K_ANA_STAT        Analog measurement   
1165:./Generated_Source/PSoC5/CyLib.c **** *                                   20: Stable
1166:./Generated_Source/PSoC5/CyLib.c **** *                                   00: Not stable
1167:./Generated_Source/PSoC5/CyLib.c **** *   10        CY_XTAL32K_DIG_STAT        Digital measurement (Requires the 33 KHz 
1168:./Generated_Source/PSoC5/CyLib.c **** *                                           ILO to make this measurement)
1169:./Generated_Source/PSoC5/CyLib.c **** *                                   10: Stable
1170:./Generated_Source/PSoC5/CyLib.c **** *                                   00: Not stable
1171:./Generated_Source/PSoC5/CyLib.c **** *
1172:./Generated_Source/PSoC5/CyLib.c **** *******************************************************************************/
1173:./Generated_Source/PSoC5/CyLib.c **** uint8 CyXTAL_32KHZ_ReadStatus() 
1174:./Generated_Source/PSoC5/CyLib.c **** {
 1939              		.loc 1 1174 0
 1940              		.cfi_startproc
 1941              		@ args = 0, pretend = 0, frame = 8
 1942              		@ frame_needed = 1, uses_anonymous_args = 0
 1943              		@ link register save eliminated.
 1944 0000 80B4     		push	{r7}
 1945              	.LCFI70:
 1946              		.cfi_def_cfa_offset 4
 1947 0002 83B0     		sub	sp, sp, #12
 1948              	.LCFI71:
 1949              		.cfi_def_cfa_offset 16
 1950 0004 00AF     		add	r7, sp, #0
 1951              		.cfi_offset 7, -4
 1952              	.LCFI72:
 1953              		.cfi_def_cfa_register 7
1175:./Generated_Source/PSoC5/CyLib.c ****     uint8 status;
1176:./Generated_Source/PSoC5/CyLib.c ****     status = SLOWCLK_X32_CR;
 1954              		.loc 1 1176 0
 1955 0006 44F20833 		movw	r3, #:lower16:1073758984
ARM GAS  C:\Users\CHARLI~1\AppData\Local\Temp\cc78mmP1.s 			page 56


 1956 000a C4F20003 		movt	r3, #:upper16:1073758984
 1957 000e 1B78     		ldrb	r3, [r3, #0]
 1958 0010 FB71     		strb	r3, [r7, #7]
1177:./Generated_Source/PSoC5/CyLib.c ****     /*
1178:./Generated_Source/PSoC5/CyLib.c ****     Bits 5:4
1179:./Generated_Source/PSoC5/CyLib.c ****     */
1180:./Generated_Source/PSoC5/CyLib.c ****     return (status & CY_XTAL32K_STAT_FIELDS);
 1959              		.loc 1 1180 0
 1960 0012 FB79     		ldrb	r3, [r7, #7]	@ zero_extendqisi2
 1961 0014 03F03003 		and	r3, r3, #48
1181:./Generated_Source/PSoC5/CyLib.c **** }
 1962              		.loc 1 1181 0
 1963 0018 1846     		mov	r0, r3
 1964 001a 07F10C07 		add	r7, r7, #12
 1965 001e BD46     		mov	sp, r7
 1966 0020 80BC     		pop	{r7}
 1967 0022 7047     		bx	lr
 1968              		.cfi_endproc
 1969              	.LFE27:
 1970              		.size	CyXTAL_32KHZ_ReadStatus, .-CyXTAL_32KHZ_ReadStatus
 1971              		.section	.text.CyXTAL_32KHZ_SetPowerMode,"ax",%progbits
 1972              		.align	2
 1973              		.global	CyXTAL_32KHZ_SetPowerMode
 1974              		.thumb
 1975              		.thumb_func
 1976              		.type	CyXTAL_32KHZ_SetPowerMode, %function
 1977              	CyXTAL_32KHZ_SetPowerMode:
 1978              	.LFB28:
1182:./Generated_Source/PSoC5/CyLib.c **** 
1183:./Generated_Source/PSoC5/CyLib.c **** 
1184:./Generated_Source/PSoC5/CyLib.c **** /*******************************************************************************
1185:./Generated_Source/PSoC5/CyLib.c **** * Function Name: CyXTAL_32KHZ_SetPowerMode
1186:./Generated_Source/PSoC5/CyLib.c **** ********************************************************************************
1187:./Generated_Source/PSoC5/CyLib.c **** * Summary:
1188:./Generated_Source/PSoC5/CyLib.c **** *   Sets the power mode for the 32 KHz oscillator used during sleep mode.  
1189:./Generated_Source/PSoC5/CyLib.c **** *   Allows for lower power during sleep when there are fewer sources of noise.  
1190:./Generated_Source/PSoC5/CyLib.c **** *   During active mode the oscillator is always run in high power mode.
1191:./Generated_Source/PSoC5/CyLib.c **** *
1192:./Generated_Source/PSoC5/CyLib.c **** * Parameters:
1193:./Generated_Source/PSoC5/CyLib.c **** *   mode
1194:./Generated_Source/PSoC5/CyLib.c **** *       0: High power mode
1195:./Generated_Source/PSoC5/CyLib.c **** *       1: Low power mode during sleep
1196:./Generated_Source/PSoC5/CyLib.c **** *
1197:./Generated_Source/PSoC5/CyLib.c **** *
1198:./Generated_Source/PSoC5/CyLib.c **** * Return:
1199:./Generated_Source/PSoC5/CyLib.c **** *   Prevous power mode.
1200:./Generated_Source/PSoC5/CyLib.c **** *
1201:./Generated_Source/PSoC5/CyLib.c **** *******************************************************************************/
1202:./Generated_Source/PSoC5/CyLib.c **** uint8 CyXTAL_32KHZ_SetPowerMode(uint8 mode) 
1203:./Generated_Source/PSoC5/CyLib.c **** {
 1979              		.loc 1 1203 0
 1980              		.cfi_startproc
 1981              		@ args = 0, pretend = 0, frame = 16
 1982              		@ frame_needed = 1, uses_anonymous_args = 0
 1983              		@ link register save eliminated.
 1984 0000 80B4     		push	{r7}
 1985              	.LCFI73:
ARM GAS  C:\Users\CHARLI~1\AppData\Local\Temp\cc78mmP1.s 			page 57


 1986              		.cfi_def_cfa_offset 4
 1987 0002 85B0     		sub	sp, sp, #20
 1988              	.LCFI74:
 1989              		.cfi_def_cfa_offset 24
 1990 0004 00AF     		add	r7, sp, #0
 1991              		.cfi_offset 7, -4
 1992              	.LCFI75:
 1993              		.cfi_def_cfa_register 7
 1994 0006 0346     		mov	r3, r0
 1995 0008 FB71     		strb	r3, [r7, #7]
1204:./Generated_Source/PSoC5/CyLib.c ****     uint8 state;
1205:./Generated_Source/PSoC5/CyLib.c **** 
1206:./Generated_Source/PSoC5/CyLib.c ****     /* Get current state. */
1207:./Generated_Source/PSoC5/CyLib.c ****     state = SLOWCLK_X32_CR;
 1996              		.loc 1 1207 0
 1997 000a 44F20833 		movw	r3, #:lower16:1073758984
 1998 000e C4F20003 		movt	r3, #:upper16:1073758984
 1999 0012 1B78     		ldrb	r3, [r3, #0]
 2000 0014 FB73     		strb	r3, [r7, #15]
1208:./Generated_Source/PSoC5/CyLib.c **** 
1209:./Generated_Source/PSoC5/CyLib.c ****     /* Set the the oscillator power mode. */
1210:./Generated_Source/PSoC5/CyLib.c ****     if(mode!=0)
 2001              		.loc 1 1210 0
 2002 0016 FB79     		ldrb	r3, [r7, #7]	@ zero_extendqisi2
 2003 0018 002B     		cmp	r3, #0
 2004 001a 09D0     		beq	.L127
1211:./Generated_Source/PSoC5/CyLib.c ****     {
1212:./Generated_Source/PSoC5/CyLib.c ****         SLOWCLK_X32_CR = (state | X32_CONTROL_LPM);
 2005              		.loc 1 1212 0
 2006 001c 44F20833 		movw	r3, #:lower16:1073758984
 2007 0020 C4F20003 		movt	r3, #:upper16:1073758984
 2008 0024 FA7B     		ldrb	r2, [r7, #15]
 2009 0026 42F00202 		orr	r2, r2, #2
 2010 002a D2B2     		uxtb	r2, r2
 2011 002c 1A70     		strb	r2, [r3, #0]
 2012 002e 07E0     		b	.L128
 2013              	.L127:
1213:./Generated_Source/PSoC5/CyLib.c ****     }
1214:./Generated_Source/PSoC5/CyLib.c ****     else
1215:./Generated_Source/PSoC5/CyLib.c ****     {
1216:./Generated_Source/PSoC5/CyLib.c ****         SLOWCLK_X32_CR = (state & ~X32_CONTROL_LPM);
 2014              		.loc 1 1216 0
 2015 0030 44F20833 		movw	r3, #:lower16:1073758984
 2016 0034 C4F20003 		movt	r3, #:upper16:1073758984
 2017 0038 FA7B     		ldrb	r2, [r7, #15]	@ zero_extendqisi2
 2018 003a 02F0FD02 		and	r2, r2, #253
 2019 003e 1A70     		strb	r2, [r3, #0]
 2020              	.L128:
1217:./Generated_Source/PSoC5/CyLib.c ****     }
1218:./Generated_Source/PSoC5/CyLib.c **** 
1219:./Generated_Source/PSoC5/CyLib.c ****     /* Return the old mode. 
1220:./Generated_Source/PSoC5/CyLib.c ****         Bit 1 position.*/
1221:./Generated_Source/PSoC5/CyLib.c ****     return ((state & X32_CONTROL_LPM) >> X32_CONTROL_LPM_POSITION);
 2021              		.loc 1 1221 0
 2022 0040 FB7B     		ldrb	r3, [r7, #15]	@ zero_extendqisi2
 2023 0042 03F00203 		and	r3, r3, #2
 2024 0046 4FEA6303 		asr	r3, r3, #1
ARM GAS  C:\Users\CHARLI~1\AppData\Local\Temp\cc78mmP1.s 			page 58


 2025 004a DBB2     		uxtb	r3, r3
1222:./Generated_Source/PSoC5/CyLib.c **** }
 2026              		.loc 1 1222 0
 2027 004c 1846     		mov	r0, r3
 2028 004e 07F11407 		add	r7, r7, #20
 2029 0052 BD46     		mov	sp, r7
 2030 0054 80BC     		pop	{r7}
 2031 0056 7047     		bx	lr
 2032              		.cfi_endproc
 2033              	.LFE28:
 2034              		.size	CyXTAL_32KHZ_SetPowerMode, .-CyXTAL_32KHZ_SetPowerMode
 2035              		.section	.text.CyXTAL_Start,"ax",%progbits
 2036              		.align	2
 2037              		.global	CyXTAL_Start
 2038              		.thumb
 2039              		.thumb_func
 2040              		.type	CyXTAL_Start, %function
 2041              	CyXTAL_Start:
 2042              	.LFB29:
1223:./Generated_Source/PSoC5/CyLib.c **** 
1224:./Generated_Source/PSoC5/CyLib.c **** 
1225:./Generated_Source/PSoC5/CyLib.c **** /*******************************************************************************
1226:./Generated_Source/PSoC5/CyLib.c **** * Function Name: CyXTAL_Start
1227:./Generated_Source/PSoC5/CyLib.c **** ********************************************************************************
1228:./Generated_Source/PSoC5/CyLib.c **** * Summary:
1229:./Generated_Source/PSoC5/CyLib.c **** *   Enables the megahertz crystal.  
1230:./Generated_Source/PSoC5/CyLib.c **** *   Waits until the XERR bit is low (no error) for a millisecond or 
1231:./Generated_Source/PSoC5/CyLib.c **** *   until the number of milliseconds specified by the wait parameter has expired.
1232:./Generated_Source/PSoC5/CyLib.c **** *
1233:./Generated_Source/PSoC5/CyLib.c **** *
1234:./Generated_Source/PSoC5/CyLib.c **** * Parameters:
1235:./Generated_Source/PSoC5/CyLib.c **** *   wait: Valid range [0-255].
1236:./Generated_Source/PSoC5/CyLib.c **** *   This is the timeout value in milliseconds.  
1237:./Generated_Source/PSoC5/CyLib.c **** *   The appropriate value is crystal specific.
1238:./Generated_Source/PSoC5/CyLib.c **** *
1239:./Generated_Source/PSoC5/CyLib.c **** *
1240:./Generated_Source/PSoC5/CyLib.c **** * Return:
1241:./Generated_Source/PSoC5/CyLib.c **** *   CYRET_SUCCESS - Completed successfully
1242:./Generated_Source/PSoC5/CyLib.c **** *   CYRET_TIMEOUT - Timeout occurred without detecting a low value on XERR..
1243:./Generated_Source/PSoC5/CyLib.c **** *
1244:./Generated_Source/PSoC5/CyLib.c **** * Side Effects and Restrictions:
1245:./Generated_Source/PSoC5/CyLib.c **** *   If wait is enabled (non-zero wait):
1246:./Generated_Source/PSoC5/CyLib.c **** *    Uses the Fast Timewheel to time the wait.  Any other use of the 
1247:./Generated_Source/PSoC5/CyLib.c **** *    Fast Timewheel will be stopped during the period of this function and 
1248:./Generated_Source/PSoC5/CyLib.c **** *    then restored.
1249:./Generated_Source/PSoC5/CyLib.c **** *    Uses the 100KHz ILO.  If not enabled, this function will enable 
1250:./Generated_Source/PSoC5/CyLib.c **** *    the 100KHz ILO for the period of this function.
1251:./Generated_Source/PSoC5/CyLib.c **** *    No changes to the setup of the ILO, Fast Timewheel, Central Timewheel or 
1252:./Generated_Source/PSoC5/CyLib.c **** *    Once Per Second interrupt may be made by interrupt routines during 
1253:./Generated_Source/PSoC5/CyLib.c **** *    the period of this function.  
1254:./Generated_Source/PSoC5/CyLib.c **** *    The current operation of the ILO, Central Timewheel and Once Per Second 
1255:./Generated_Source/PSoC5/CyLib.c **** *    interrupt are maintained during the operation of this function provided 
1256:./Generated_Source/PSoC5/CyLib.c **** *    the reading of the Power Manager Interrupt Status Register is 
1257:./Generated_Source/PSoC5/CyLib.c **** *    only done using the CyPmReadStatus() function.
1258:./Generated_Source/PSoC5/CyLib.c **** *******************************************************************************/
1259:./Generated_Source/PSoC5/CyLib.c **** cystatus CyXTAL_Start(uint8 wait) 
1260:./Generated_Source/PSoC5/CyLib.c **** {
ARM GAS  C:\Users\CHARLI~1\AppData\Local\Temp\cc78mmP1.s 			page 59


 2043              		.loc 1 1260 0
 2044              		.cfi_startproc
 2045              		@ args = 0, pretend = 0, frame = 24
 2046              		@ frame_needed = 1, uses_anonymous_args = 0
 2047 0000 80B5     		push	{r7, lr}
 2048              	.LCFI76:
 2049              		.cfi_def_cfa_offset 8
 2050 0002 86B0     		sub	sp, sp, #24
 2051              	.LCFI77:
 2052              		.cfi_def_cfa_offset 32
 2053 0004 00AF     		add	r7, sp, #0
 2054              		.cfi_offset 14, -4
 2055              		.cfi_offset 7, -8
 2056              	.LCFI78:
 2057              		.cfi_def_cfa_register 7
 2058 0006 0346     		mov	r3, r0
 2059 0008 FB71     		strb	r3, [r7, #7]
1261:./Generated_Source/PSoC5/CyLib.c ****     cystatus status = CYRET_SUCCESS;
 2060              		.loc 1 1261 0
 2061 000a 4FF00003 		mov	r3, #0
 2062 000e 3B61     		str	r3, [r7, #16]
1262:./Generated_Source/PSoC5/CyLib.c ****     uint8 pm_tw_cfg2_state = 0;
 2063              		.loc 1 1262 0
 2064 0010 4FF00003 		mov	r3, #0
 2065 0014 7B75     		strb	r3, [r7, #21]
1263:./Generated_Source/PSoC5/CyLib.c ****     uint8 pm_tw_cfg0_state = 0;
 2066              		.loc 1 1263 0
 2067 0016 4FF00003 		mov	r3, #0
 2068 001a BB75     		strb	r3, [r7, #22]
1264:./Generated_Source/PSoC5/CyLib.c ****     uint8 ilo_clock_state = 0;
 2069              		.loc 1 1264 0
 2070 001c 4FF00003 		mov	r3, #0
 2071 0020 FB75     		strb	r3, [r7, #23]
1265:./Generated_Source/PSoC5/CyLib.c ****     volatile uint8 count = 0;
 2072              		.loc 1 1265 0
 2073 0022 4FF00003 		mov	r3, #0
 2074 0026 FB73     		strb	r3, [r7, #15]
1266:./Generated_Source/PSoC5/CyLib.c ****     volatile uint8 wait_msec = wait;
 2075              		.loc 1 1266 0
 2076 0028 FB79     		ldrb	r3, [r7, #7]
 2077 002a BB73     		strb	r3, [r7, #14]
1267:./Generated_Source/PSoC5/CyLib.c **** 
1268:./Generated_Source/PSoC5/CyLib.c ****     FASTCLK_XMHZ_CSR |= XMHZ_CONTROL_ENABLE;
 2078              		.loc 1 1268 0
 2079 002c 44F21023 		movw	r3, #:lower16:1073758736
 2080 0030 C4F20003 		movt	r3, #:upper16:1073758736
 2081 0034 44F21022 		movw	r2, #:lower16:1073758736
 2082 0038 C4F20002 		movt	r2, #:upper16:1073758736
 2083 003c 1278     		ldrb	r2, [r2, #0]
 2084 003e D2B2     		uxtb	r2, r2
 2085 0040 42F00102 		orr	r2, r2, #1
 2086 0044 D2B2     		uxtb	r2, r2
 2087 0046 1A70     		strb	r2, [r3, #0]
1269:./Generated_Source/PSoC5/CyLib.c ****     
1270:./Generated_Source/PSoC5/CyLib.c ****     if(wait > 0) 
 2088              		.loc 1 1270 0
 2089 0048 FB79     		ldrb	r3, [r7, #7]	@ zero_extendqisi2
ARM GAS  C:\Users\CHARLI~1\AppData\Local\Temp\cc78mmP1.s 			page 60


 2090 004a 002B     		cmp	r3, #0
 2091 004c 65D0     		beq	.L142
1271:./Generated_Source/PSoC5/CyLib.c ****     {
1272:./Generated_Source/PSoC5/CyLib.c ****         /*    Need to turn on the 100KHz ILO if it happens to not already be running.*/
1273:./Generated_Source/PSoC5/CyLib.c ****         ilo_clock_state = SLOWCLK_ILO_CR0;
 2092              		.loc 1 1273 0
 2093 004e 44F20033 		movw	r3, #:lower16:1073758976
 2094 0052 C4F20003 		movt	r3, #:upper16:1073758976
 2095 0056 1B78     		ldrb	r3, [r3, #0]
 2096 0058 FB75     		strb	r3, [r7, #23]
1274:./Generated_Source/PSoC5/CyLib.c ****         if(!(ilo_clock_state & ILO_CONTROL_100KHZ_ON))
 2097              		.loc 1 1274 0
 2098 005a FB7D     		ldrb	r3, [r7, #23]	@ zero_extendqisi2
 2099 005c 03F00403 		and	r3, r3, #4
 2100 0060 002B     		cmp	r3, #0
 2101 0062 01D1     		bne	.L132
1275:./Generated_Source/PSoC5/CyLib.c ****         {
1276:./Generated_Source/PSoC5/CyLib.c ****             CyILO_Start100K();
 2102              		.loc 1 1276 0
 2103 0064 FFF7FEFF 		bl	CyILO_Start100K
 2104              	.L132:
1277:./Generated_Source/PSoC5/CyLib.c ****         }
1278:./Generated_Source/PSoC5/CyLib.c ****         status = CYRET_TIMEOUT;
 2105              		.loc 1 1278 0
 2106 0068 4FF01003 		mov	r3, #16
 2107 006c 3B61     		str	r3, [r7, #16]
1279:./Generated_Source/PSoC5/CyLib.c ****         
1280:./Generated_Source/PSoC5/CyLib.c ****         /*Store the value*/
1281:./Generated_Source/PSoC5/CyLib.c ****         pm_tw_cfg2_state = PM_TW_CFG2;
 2108              		.loc 1 1281 0
 2109 006e 44F28233 		movw	r3, #:lower16:1073759106
 2110 0072 C4F20003 		movt	r3, #:upper16:1073759106
 2111 0076 1B78     		ldrb	r3, [r3, #0]
 2112 0078 7B75     		strb	r3, [r7, #21]
1282:./Generated_Source/PSoC5/CyLib.c ****         pm_tw_cfg0_state = PM_TW_CFG0;
 2113              		.loc 1 1282 0
 2114 007a 44F28033 		movw	r3, #:lower16:1073759104
 2115 007e C4F20003 		movt	r3, #:upper16:1073759104
 2116 0082 1B78     		ldrb	r3, [r3, #0]
 2117 0084 BB75     		strb	r3, [r7, #22]
1283:./Generated_Source/PSoC5/CyLib.c **** 
1284:./Generated_Source/PSoC5/CyLib.c ****         /* FTW_EN (bit 0) must be clear to change the period*/
1285:./Generated_Source/PSoC5/CyLib.c ****         PM_TW_CFG2 &= FTW_CLEAR_FTW_BITS;
 2118              		.loc 1 1285 0
 2119 0086 44F28233 		movw	r3, #:lower16:1073759106
 2120 008a C4F20003 		movt	r3, #:upper16:1073759106
 2121 008e 44F28232 		movw	r2, #:lower16:1073759106
 2122 0092 C4F20002 		movt	r2, #:upper16:1073759106
 2123 0096 1278     		ldrb	r2, [r2, #0]
 2124 0098 D2B2     		uxtb	r2, r2
 2125 009a 02F0FC02 		and	r2, r2, #252
 2126 009e 1A70     		strb	r2, [r3, #0]
1286:./Generated_Source/PSoC5/CyLib.c ****         
1287:./Generated_Source/PSoC5/CyLib.c ****         /* Set the FTW interval of 25 100KHz ILO clocks
1288:./Generated_Source/PSoC5/CyLib.c ****         Should result in status getting set at a (100/25)KHz rate*/
1289:./Generated_Source/PSoC5/CyLib.c ****         PM_TW_CFG0 = 25-1;
 2127              		.loc 1 1289 0
ARM GAS  C:\Users\CHARLI~1\AppData\Local\Temp\cc78mmP1.s 			page 61


 2128 00a0 44F28033 		movw	r3, #:lower16:1073759104
 2129 00a4 C4F20003 		movt	r3, #:upper16:1073759104
 2130 00a8 4FF01802 		mov	r2, #24
 2131 00ac 1A70     		strb	r2, [r3, #0]
1290:./Generated_Source/PSoC5/CyLib.c ****         /* Enable FTW, but not the interrupt*/
1291:./Generated_Source/PSoC5/CyLib.c ****         PM_TW_CFG2 = FTW_ENABLE;
 2132              		.loc 1 1291 0
 2133 00ae 44F28233 		movw	r3, #:lower16:1073759106
 2134 00b2 C4F20003 		movt	r3, #:upper16:1073759106
 2135 00b6 4FF00102 		mov	r2, #1
 2136 00ba 1A70     		strb	r2, [r3, #0]
1292:./Generated_Source/PSoC5/CyLib.c ****     }
1293:./Generated_Source/PSoC5/CyLib.c ****     
1294:./Generated_Source/PSoC5/CyLib.c ****     for(; wait_msec > 0; wait_msec--)
 2137              		.loc 1 1294 0
 2138 00bc 2EE0     		b	.L133
 2139              	.L138:
1295:./Generated_Source/PSoC5/CyLib.c ****     {
1296:./Generated_Source/PSoC5/CyLib.c ****         /*read XERR bit to clear it */
1297:./Generated_Source/PSoC5/CyLib.c ****         FASTCLK_XMHZ_CSR;
 2140              		.loc 1 1297 0
 2141 00be 44F21023 		movw	r3, #:lower16:1073758736
 2142 00c2 C4F20003 		movt	r3, #:upper16:1073758736
 2143 00c6 1B78     		ldrb	r3, [r3, #0]
1298:./Generated_Source/PSoC5/CyLib.c ****         
1299:./Generated_Source/PSoC5/CyLib.c ****         /*wait for milliseconds.. 4 times 250uS delay*/
1300:./Generated_Source/PSoC5/CyLib.c ****         for(count = 4; count > 0; count --)
 2144              		.loc 1 1300 0
 2145 00c8 4FF00403 		mov	r3, #4
 2146 00cc FB73     		strb	r3, [r7, #15]
 2147 00ce 0CE0     		b	.L134
 2148              	.L135:
1301:./Generated_Source/PSoC5/CyLib.c ****         {
1302:./Generated_Source/PSoC5/CyLib.c ****             /*CyPmReadStatus()*/
1303:./Generated_Source/PSoC5/CyLib.c ****             while (CyPmReadStatus(1) == 0)
 2149              		.loc 1 1303 0
 2150 00d0 4FF00100 		mov	r0, #1
 2151 00d4 FFF7FEFF 		bl	CyPmReadStatus
 2152 00d8 0346     		mov	r3, r0
 2153 00da 002B     		cmp	r3, #0
 2154 00dc F8D0     		beq	.L135
 2155              		.loc 1 1300 0
 2156 00de FB7B     		ldrb	r3, [r7, #15]
 2157 00e0 DBB2     		uxtb	r3, r3
 2158 00e2 03F1FF33 		add	r3, r3, #-1
 2159 00e6 DBB2     		uxtb	r3, r3
 2160 00e8 FB73     		strb	r3, [r7, #15]
 2161              	.L134:
 2162 00ea FB7B     		ldrb	r3, [r7, #15]
 2163 00ec DBB2     		uxtb	r3, r3
 2164 00ee 002B     		cmp	r3, #0
 2165 00f0 EED1     		bne	.L135
1304:./Generated_Source/PSoC5/CyLib.c ****             {
1305:./Generated_Source/PSoC5/CyLib.c ****                 /* Wait for the interrupt status*/
1306:./Generated_Source/PSoC5/CyLib.c ****             }            
1307:./Generated_Source/PSoC5/CyLib.c ****         } /* end of for(count = 4; count > 0; count --)*/
1308:./Generated_Source/PSoC5/CyLib.c ****         /*High output indicates oscillator failure. 
ARM GAS  C:\Users\CHARLI~1\AppData\Local\Temp\cc78mmP1.s 			page 62


1309:./Generated_Source/PSoC5/CyLib.c ****         Only use this after start-up interval is completed (1ms).*/
1310:./Generated_Source/PSoC5/CyLib.c ****         if ((FASTCLK_XMHZ_CSR & X32_CONTROL_XERR_MASK) == 0) 
 2166              		.loc 1 1310 0
 2167 00f2 44F21023 		movw	r3, #:lower16:1073758736
 2168 00f6 C4F20003 		movt	r3, #:upper16:1073758736
 2169 00fa 1B78     		ldrb	r3, [r3, #0]
 2170 00fc DBB2     		uxtb	r3, r3
 2171 00fe 5BB2     		sxtb	r3, r3
 2172 0100 002B     		cmp	r3, #0
 2173 0102 03DB     		blt	.L136
1311:./Generated_Source/PSoC5/CyLib.c ****         {
1312:./Generated_Source/PSoC5/CyLib.c ****             status = CYRET_SUCCESS;
 2174              		.loc 1 1312 0
 2175 0104 4FF00003 		mov	r3, #0
 2176 0108 3B61     		str	r3, [r7, #16]
1313:./Generated_Source/PSoC5/CyLib.c ****             break;
 2177              		.loc 1 1313 0
 2178 010a 0BE0     		b	.L137
 2179              	.L136:
 2180              		.loc 1 1294 0
 2181 010c BB7B     		ldrb	r3, [r7, #14]
 2182 010e DBB2     		uxtb	r3, r3
 2183 0110 03F1FF33 		add	r3, r3, #-1
 2184 0114 DBB2     		uxtb	r3, r3
 2185 0116 BB73     		strb	r3, [r7, #14]
 2186 0118 00E0     		b	.L133
 2187              	.L142:
 2188 011a 00BF     		nop
 2189              	.L133:
 2190 011c BB7B     		ldrb	r3, [r7, #14]
 2191 011e DBB2     		uxtb	r3, r3
 2192 0120 002B     		cmp	r3, #0
 2193 0122 CCD1     		bne	.L138
 2194              	.L137:
1314:./Generated_Source/PSoC5/CyLib.c ****         }
1315:./Generated_Source/PSoC5/CyLib.c ****     } /* end for(; wait_msec > 0; wait_msec--) */
1316:./Generated_Source/PSoC5/CyLib.c **** 
1317:./Generated_Source/PSoC5/CyLib.c ****     if(wait > 0)
 2195              		.loc 1 1317 0
 2196 0124 FB79     		ldrb	r3, [r7, #7]	@ zero_extendqisi2
 2197 0126 002B     		cmp	r3, #0
 2198 0128 12D0     		beq	.L139
1318:./Generated_Source/PSoC5/CyLib.c ****     {
1319:./Generated_Source/PSoC5/CyLib.c ****         if (!(ilo_clock_state & ILO_CONTROL_100KHZ_ON))
 2199              		.loc 1 1319 0
 2200 012a FB7D     		ldrb	r3, [r7, #23]	@ zero_extendqisi2
 2201 012c 03F00403 		and	r3, r3, #4
 2202 0130 002B     		cmp	r3, #0
 2203 0132 01D1     		bne	.L140
1320:./Generated_Source/PSoC5/CyLib.c ****         {
1321:./Generated_Source/PSoC5/CyLib.c ****             /*reset the clock */
1322:./Generated_Source/PSoC5/CyLib.c ****             CyILO_Stop100K();
 2204              		.loc 1 1322 0
 2205 0134 FFF7FEFF 		bl	CyILO_Stop100K
 2206              	.L140:
1323:./Generated_Source/PSoC5/CyLib.c ****         }
1324:./Generated_Source/PSoC5/CyLib.c **** 
ARM GAS  C:\Users\CHARLI~1\AppData\Local\Temp\cc78mmP1.s 			page 63


1325:./Generated_Source/PSoC5/CyLib.c ****         /*restore the FTW*/
1326:./Generated_Source/PSoC5/CyLib.c ****         PM_TW_CFG0 = pm_tw_cfg0_state;
 2207              		.loc 1 1326 0
 2208 0138 44F28033 		movw	r3, #:lower16:1073759104
 2209 013c C4F20003 		movt	r3, #:upper16:1073759104
 2210 0140 BA7D     		ldrb	r2, [r7, #22]
 2211 0142 1A70     		strb	r2, [r3, #0]
1327:./Generated_Source/PSoC5/CyLib.c ****         PM_TW_CFG2 = pm_tw_cfg2_state;
 2212              		.loc 1 1327 0
 2213 0144 44F28233 		movw	r3, #:lower16:1073759106
 2214 0148 C4F20003 		movt	r3, #:upper16:1073759106
 2215 014c 7A7D     		ldrb	r2, [r7, #21]
 2216 014e 1A70     		strb	r2, [r3, #0]
 2217              	.L139:
1328:./Generated_Source/PSoC5/CyLib.c ****     }
1329:./Generated_Source/PSoC5/CyLib.c ****     
1330:./Generated_Source/PSoC5/CyLib.c ****     return status;
 2218              		.loc 1 1330 0
 2219 0150 3B69     		ldr	r3, [r7, #16]
1331:./Generated_Source/PSoC5/CyLib.c **** }
 2220              		.loc 1 1331 0
 2221 0152 1846     		mov	r0, r3
 2222 0154 07F11807 		add	r7, r7, #24
 2223 0158 BD46     		mov	sp, r7
 2224 015a 80BD     		pop	{r7, pc}
 2225              		.cfi_endproc
 2226              	.LFE29:
 2227              		.size	CyXTAL_Start, .-CyXTAL_Start
 2228              		.section	.text.CyXTAL_Stop,"ax",%progbits
 2229              		.align	2
 2230              		.global	CyXTAL_Stop
 2231              		.thumb
 2232              		.thumb_func
 2233              		.type	CyXTAL_Stop, %function
 2234              	CyXTAL_Stop:
 2235              	.LFB30:
1332:./Generated_Source/PSoC5/CyLib.c **** 
1333:./Generated_Source/PSoC5/CyLib.c **** 
1334:./Generated_Source/PSoC5/CyLib.c **** /*******************************************************************************
1335:./Generated_Source/PSoC5/CyLib.c **** * Function Name: CyXTAL_Stop
1336:./Generated_Source/PSoC5/CyLib.c **** ********************************************************************************
1337:./Generated_Source/PSoC5/CyLib.c **** * Summary:
1338:./Generated_Source/PSoC5/CyLib.c **** *   Disables the megahertz crystal oscillator.
1339:./Generated_Source/PSoC5/CyLib.c **** *
1340:./Generated_Source/PSoC5/CyLib.c **** *
1341:./Generated_Source/PSoC5/CyLib.c **** * Parameters:
1342:./Generated_Source/PSoC5/CyLib.c **** *   void.
1343:./Generated_Source/PSoC5/CyLib.c **** *
1344:./Generated_Source/PSoC5/CyLib.c **** *
1345:./Generated_Source/PSoC5/CyLib.c **** * Return:
1346:./Generated_Source/PSoC5/CyLib.c **** *   void.
1347:./Generated_Source/PSoC5/CyLib.c **** *
1348:./Generated_Source/PSoC5/CyLib.c **** *******************************************************************************/
1349:./Generated_Source/PSoC5/CyLib.c **** void CyXTAL_Stop(void) 
1350:./Generated_Source/PSoC5/CyLib.c **** {
 2236              		.loc 1 1350 0
 2237              		.cfi_startproc
ARM GAS  C:\Users\CHARLI~1\AppData\Local\Temp\cc78mmP1.s 			page 64


 2238              		@ args = 0, pretend = 0, frame = 0
 2239              		@ frame_needed = 1, uses_anonymous_args = 0
 2240              		@ link register save eliminated.
 2241 0000 80B4     		push	{r7}
 2242              	.LCFI79:
 2243              		.cfi_def_cfa_offset 4
 2244 0002 00AF     		add	r7, sp, #0
 2245              		.cfi_offset 7, -4
 2246              	.LCFI80:
 2247              		.cfi_def_cfa_register 7
1351:./Generated_Source/PSoC5/CyLib.c ****     /* Disable the the oscillator. */
1352:./Generated_Source/PSoC5/CyLib.c ****     FASTCLK_XMHZ_CSR &= ~XMHZ_CONTROL_ENABLE;
 2248              		.loc 1 1352 0
 2249 0004 44F21023 		movw	r3, #:lower16:1073758736
 2250 0008 C4F20003 		movt	r3, #:upper16:1073758736
 2251 000c 44F21022 		movw	r2, #:lower16:1073758736
 2252 0010 C4F20002 		movt	r2, #:upper16:1073758736
 2253 0014 1278     		ldrb	r2, [r2, #0]
 2254 0016 D2B2     		uxtb	r2, r2
 2255 0018 02F0FE02 		and	r2, r2, #254
 2256 001c 1A70     		strb	r2, [r3, #0]
1353:./Generated_Source/PSoC5/CyLib.c **** }
 2257              		.loc 1 1353 0
 2258 001e BD46     		mov	sp, r7
 2259 0020 80BC     		pop	{r7}
 2260 0022 7047     		bx	lr
 2261              		.cfi_endproc
 2262              	.LFE30:
 2263              		.size	CyXTAL_Stop, .-CyXTAL_Stop
 2264              		.section	.text.CyXTAL_EnableErrStatus,"ax",%progbits
 2265              		.align	2
 2266              		.global	CyXTAL_EnableErrStatus
 2267              		.thumb
 2268              		.thumb_func
 2269              		.type	CyXTAL_EnableErrStatus, %function
 2270              	CyXTAL_EnableErrStatus:
 2271              	.LFB31:
1354:./Generated_Source/PSoC5/CyLib.c **** 
1355:./Generated_Source/PSoC5/CyLib.c **** 
1356:./Generated_Source/PSoC5/CyLib.c **** /*******************************************************************************
1357:./Generated_Source/PSoC5/CyLib.c **** * Function Name: CyXTAL_EnableErrStatus
1358:./Generated_Source/PSoC5/CyLib.c **** ********************************************************************************
1359:./Generated_Source/PSoC5/CyLib.c **** * Summary:
1360:./Generated_Source/PSoC5/CyLib.c **** *    Enables the generation of the XERR status bit for the megahertz crystal.
1361:./Generated_Source/PSoC5/CyLib.c **** *
1362:./Generated_Source/PSoC5/CyLib.c **** *
1363:./Generated_Source/PSoC5/CyLib.c **** * Parameters:
1364:./Generated_Source/PSoC5/CyLib.c **** *   void.
1365:./Generated_Source/PSoC5/CyLib.c **** *
1366:./Generated_Source/PSoC5/CyLib.c **** *
1367:./Generated_Source/PSoC5/CyLib.c **** * Return:
1368:./Generated_Source/PSoC5/CyLib.c **** *   void.
1369:./Generated_Source/PSoC5/CyLib.c **** *
1370:./Generated_Source/PSoC5/CyLib.c **** *******************************************************************************/
1371:./Generated_Source/PSoC5/CyLib.c **** void CyXTAL_EnableErrStatus(void) 
1372:./Generated_Source/PSoC5/CyLib.c **** {
 2272              		.loc 1 1372 0
ARM GAS  C:\Users\CHARLI~1\AppData\Local\Temp\cc78mmP1.s 			page 65


 2273              		.cfi_startproc
 2274              		@ args = 0, pretend = 0, frame = 0
 2275              		@ frame_needed = 1, uses_anonymous_args = 0
 2276              		@ link register save eliminated.
 2277 0000 80B4     		push	{r7}
 2278              	.LCFI81:
 2279              		.cfi_def_cfa_offset 4
 2280 0002 00AF     		add	r7, sp, #0
 2281              		.cfi_offset 7, -4
 2282              	.LCFI82:
 2283              		.cfi_def_cfa_register 7
1373:./Generated_Source/PSoC5/CyLib.c ****     /*1'b0      XFB_DIS_0      enabled. If oscillator has insufficient amplitude, XERR bit will be 
1374:./Generated_Source/PSoC5/CyLib.c ****     FASTCLK_XMHZ_CSR &= ~X32_CONTROL_XERR_DIS;
 2284              		.loc 1 1374 0
 2285 0004 44F21023 		movw	r3, #:lower16:1073758736
 2286 0008 C4F20003 		movt	r3, #:upper16:1073758736
 2287 000c 44F21022 		movw	r2, #:lower16:1073758736
 2288 0010 C4F20002 		movt	r2, #:upper16:1073758736
 2289 0014 1278     		ldrb	r2, [r2, #0]
 2290 0016 D2B2     		uxtb	r2, r2
 2291 0018 02F0FB02 		and	r2, r2, #251
 2292 001c 1A70     		strb	r2, [r3, #0]
1375:./Generated_Source/PSoC5/CyLib.c **** }
 2293              		.loc 1 1375 0
 2294 001e BD46     		mov	sp, r7
 2295 0020 80BC     		pop	{r7}
 2296 0022 7047     		bx	lr
 2297              		.cfi_endproc
 2298              	.LFE31:
 2299              		.size	CyXTAL_EnableErrStatus, .-CyXTAL_EnableErrStatus
 2300              		.section	.text.CyXTAL_DisableErrStatus,"ax",%progbits
 2301              		.align	2
 2302              		.global	CyXTAL_DisableErrStatus
 2303              		.thumb
 2304              		.thumb_func
 2305              		.type	CyXTAL_DisableErrStatus, %function
 2306              	CyXTAL_DisableErrStatus:
 2307              	.LFB32:
1376:./Generated_Source/PSoC5/CyLib.c **** 
1377:./Generated_Source/PSoC5/CyLib.c **** 
1378:./Generated_Source/PSoC5/CyLib.c **** /*******************************************************************************
1379:./Generated_Source/PSoC5/CyLib.c **** * Function Name: CyXTAL_DisableErrStatus
1380:./Generated_Source/PSoC5/CyLib.c **** ********************************************************************************
1381:./Generated_Source/PSoC5/CyLib.c **** * Summary:
1382:./Generated_Source/PSoC5/CyLib.c **** *    Disables the generation of the XERR status bit for the megahertz crystal..
1383:./Generated_Source/PSoC5/CyLib.c **** *
1384:./Generated_Source/PSoC5/CyLib.c **** *
1385:./Generated_Source/PSoC5/CyLib.c **** * Parameters:
1386:./Generated_Source/PSoC5/CyLib.c **** *   void.
1387:./Generated_Source/PSoC5/CyLib.c **** *
1388:./Generated_Source/PSoC5/CyLib.c **** *
1389:./Generated_Source/PSoC5/CyLib.c **** * Return:
1390:./Generated_Source/PSoC5/CyLib.c **** *   void.
1391:./Generated_Source/PSoC5/CyLib.c **** *
1392:./Generated_Source/PSoC5/CyLib.c **** *******************************************************************************/
1393:./Generated_Source/PSoC5/CyLib.c **** void CyXTAL_DisableErrStatus(void) 
1394:./Generated_Source/PSoC5/CyLib.c **** {
ARM GAS  C:\Users\CHARLI~1\AppData\Local\Temp\cc78mmP1.s 			page 66


 2308              		.loc 1 1394 0
 2309              		.cfi_startproc
 2310              		@ args = 0, pretend = 0, frame = 0
 2311              		@ frame_needed = 1, uses_anonymous_args = 0
 2312              		@ link register save eliminated.
 2313 0000 80B4     		push	{r7}
 2314              	.LCFI83:
 2315              		.cfi_def_cfa_offset 4
 2316 0002 00AF     		add	r7, sp, #0
 2317              		.cfi_offset 7, -4
 2318              	.LCFI84:
 2319              		.cfi_def_cfa_register 7
1395:./Generated_Source/PSoC5/CyLib.c ****     /*1'b0      XFB_DIS_0      enabled. If oscillator has insufficient amplitude, XERR bit will be 
1396:./Generated_Source/PSoC5/CyLib.c ****     FASTCLK_XMHZ_CSR |= X32_CONTROL_XERR_DIS;
 2320              		.loc 1 1396 0
 2321 0004 44F21023 		movw	r3, #:lower16:1073758736
 2322 0008 C4F20003 		movt	r3, #:upper16:1073758736
 2323 000c 44F21022 		movw	r2, #:lower16:1073758736
 2324 0010 C4F20002 		movt	r2, #:upper16:1073758736
 2325 0014 1278     		ldrb	r2, [r2, #0]
 2326 0016 D2B2     		uxtb	r2, r2
 2327 0018 42F00402 		orr	r2, r2, #4
 2328 001c D2B2     		uxtb	r2, r2
 2329 001e 1A70     		strb	r2, [r3, #0]
1397:./Generated_Source/PSoC5/CyLib.c **** }
 2330              		.loc 1 1397 0
 2331 0020 BD46     		mov	sp, r7
 2332 0022 80BC     		pop	{r7}
 2333 0024 7047     		bx	lr
 2334              		.cfi_endproc
 2335              	.LFE32:
 2336              		.size	CyXTAL_DisableErrStatus, .-CyXTAL_DisableErrStatus
 2337 0026 00BF     		.section	.text.CyXTAL_ReadStatus,"ax",%progbits
 2338              		.align	2
 2339              		.global	CyXTAL_ReadStatus
 2340              		.thumb
 2341              		.thumb_func
 2342              		.type	CyXTAL_ReadStatus, %function
 2343              	CyXTAL_ReadStatus:
 2344              	.LFB33:
1398:./Generated_Source/PSoC5/CyLib.c **** 
1399:./Generated_Source/PSoC5/CyLib.c **** 
1400:./Generated_Source/PSoC5/CyLib.c **** /*******************************************************************************
1401:./Generated_Source/PSoC5/CyLib.c **** * Function Name: CyXTAL_ReadStatus
1402:./Generated_Source/PSoC5/CyLib.c **** ********************************************************************************
1403:./Generated_Source/PSoC5/CyLib.c **** * Summary:
1404:./Generated_Source/PSoC5/CyLib.c **** *    Reads the XERR status bit for the megahertz crystal.  
1405:./Generated_Source/PSoC5/CyLib.c **** *    This status bit is a sticky clear on read value.
1406:./Generated_Source/PSoC5/CyLib.c **** *
1407:./Generated_Source/PSoC5/CyLib.c **** *
1408:./Generated_Source/PSoC5/CyLib.c **** * Parameters:
1409:./Generated_Source/PSoC5/CyLib.c **** *   void.
1410:./Generated_Source/PSoC5/CyLib.c **** *
1411:./Generated_Source/PSoC5/CyLib.c **** *
1412:./Generated_Source/PSoC5/CyLib.c **** * Return:
1413:./Generated_Source/PSoC5/CyLib.c **** *   Status
1414:./Generated_Source/PSoC5/CyLib.c **** *    0: No error
ARM GAS  C:\Users\CHARLI~1\AppData\Local\Temp\cc78mmP1.s 			page 67


1415:./Generated_Source/PSoC5/CyLib.c **** *    1: Error.
1416:./Generated_Source/PSoC5/CyLib.c **** *
1417:./Generated_Source/PSoC5/CyLib.c **** *******************************************************************************/
1418:./Generated_Source/PSoC5/CyLib.c **** uint8 CyXTAL_ReadStatus(void) 
1419:./Generated_Source/PSoC5/CyLib.c **** {
 2345              		.loc 1 1419 0
 2346              		.cfi_startproc
 2347              		@ args = 0, pretend = 0, frame = 0
 2348              		@ frame_needed = 1, uses_anonymous_args = 0
 2349              		@ link register save eliminated.
 2350 0000 80B4     		push	{r7}
 2351              	.LCFI85:
 2352              		.cfi_def_cfa_offset 4
 2353 0002 00AF     		add	r7, sp, #0
 2354              		.cfi_offset 7, -4
 2355              	.LCFI86:
 2356              		.cfi_def_cfa_register 7
1420:./Generated_Source/PSoC5/CyLib.c ****     /*Bits      Name      Description
1421:./Generated_Source/PSoC5/CyLib.c ****         7         xerr     High output indicates oscillator failure. 
1422:./Generated_Source/PSoC5/CyLib.c ****     Only use this after start-up interval is completed. This can be used for 
1423:./Generated_Source/PSoC5/CyLib.c ****     status and failure recovery.
1424:./Generated_Source/PSoC5/CyLib.c ****     */
1425:./Generated_Source/PSoC5/CyLib.c ****     return ((FASTCLK_XMHZ_CSR & X32_CONTROL_XERR_MASK) >> X32_CONTROL_XERR_POSITION);
 2357              		.loc 1 1425 0
 2358 0004 44F21023 		movw	r3, #:lower16:1073758736
 2359 0008 C4F20003 		movt	r3, #:upper16:1073758736
 2360 000c 1B78     		ldrb	r3, [r3, #0]
 2361 000e DBB2     		uxtb	r3, r3
 2362 0010 4FEAD313 		lsr	r3, r3, #7
 2363 0014 DBB2     		uxtb	r3, r3
1426:./Generated_Source/PSoC5/CyLib.c **** }
 2364              		.loc 1 1426 0
 2365 0016 1846     		mov	r0, r3
 2366 0018 BD46     		mov	sp, r7
 2367 001a 80BC     		pop	{r7}
 2368 001c 7047     		bx	lr
 2369              		.cfi_endproc
 2370              	.LFE33:
 2371              		.size	CyXTAL_ReadStatus, .-CyXTAL_ReadStatus
 2372 001e 00BF     		.section	.text.CyXTAL_EnableFaultRecovery,"ax",%progbits
 2373              		.align	2
 2374              		.global	CyXTAL_EnableFaultRecovery
 2375              		.thumb
 2376              		.thumb_func
 2377              		.type	CyXTAL_EnableFaultRecovery, %function
 2378              	CyXTAL_EnableFaultRecovery:
 2379              	.LFB34:
1427:./Generated_Source/PSoC5/CyLib.c **** 
1428:./Generated_Source/PSoC5/CyLib.c **** 
1429:./Generated_Source/PSoC5/CyLib.c **** /*******************************************************************************
1430:./Generated_Source/PSoC5/CyLib.c **** * Function Name: CyXTAL_EnableFaultRecovery
1431:./Generated_Source/PSoC5/CyLib.c **** ********************************************************************************
1432:./Generated_Source/PSoC5/CyLib.c **** * Summary:
1433:./Generated_Source/PSoC5/CyLib.c **** *    Enables the fault recovery circuit which will switch to the IMO 
1434:./Generated_Source/PSoC5/CyLib.c **** *    in the case of a fault in the megahertz crystal circuit.  
1435:./Generated_Source/PSoC5/CyLib.c **** *    The crystal must be up and running with the XERR bit at 0, 
1436:./Generated_Source/PSoC5/CyLib.c **** *    before calling this function to prevent immediate fault switchover.
ARM GAS  C:\Users\CHARLI~1\AppData\Local\Temp\cc78mmP1.s 			page 68


1437:./Generated_Source/PSoC5/CyLib.c **** *
1438:./Generated_Source/PSoC5/CyLib.c **** *
1439:./Generated_Source/PSoC5/CyLib.c **** * Parameters:
1440:./Generated_Source/PSoC5/CyLib.c **** *   void.
1441:./Generated_Source/PSoC5/CyLib.c **** *
1442:./Generated_Source/PSoC5/CyLib.c **** *
1443:./Generated_Source/PSoC5/CyLib.c **** * Return:
1444:./Generated_Source/PSoC5/CyLib.c **** *   void.
1445:./Generated_Source/PSoC5/CyLib.c **** *
1446:./Generated_Source/PSoC5/CyLib.c **** *******************************************************************************/
1447:./Generated_Source/PSoC5/CyLib.c **** void CyXTAL_EnableFaultRecovery(void) 
1448:./Generated_Source/PSoC5/CyLib.c **** {
 2380              		.loc 1 1448 0
 2381              		.cfi_startproc
 2382              		@ args = 0, pretend = 0, frame = 0
 2383              		@ frame_needed = 1, uses_anonymous_args = 0
 2384              		@ link register save eliminated.
 2385 0000 80B4     		push	{r7}
 2386              	.LCFI87:
 2387              		.cfi_def_cfa_offset 4
 2388 0002 00AF     		add	r7, sp, #0
 2389              		.cfi_offset 7, -4
 2390              	.LCFI88:
 2391              		.cfi_def_cfa_register 7
1449:./Generated_Source/PSoC5/CyLib.c ****     /*6th bit       xprot of FASTCLK_XMHZ_CSR 
1450:./Generated_Source/PSoC5/CyLib.c ****     */
1451:./Generated_Source/PSoC5/CyLib.c ****     FASTCLK_XMHZ_CSR |= X32_CONTROL_FAULT_RECOVER;
 2392              		.loc 1 1451 0
 2393 0004 44F21023 		movw	r3, #:lower16:1073758736
 2394 0008 C4F20003 		movt	r3, #:upper16:1073758736
 2395 000c 44F21022 		movw	r2, #:lower16:1073758736
 2396 0010 C4F20002 		movt	r2, #:upper16:1073758736
 2397 0014 1278     		ldrb	r2, [r2, #0]
 2398 0016 D2B2     		uxtb	r2, r2
 2399 0018 42F04002 		orr	r2, r2, #64
 2400 001c D2B2     		uxtb	r2, r2
 2401 001e 1A70     		strb	r2, [r3, #0]
1452:./Generated_Source/PSoC5/CyLib.c **** }
 2402              		.loc 1 1452 0
 2403 0020 BD46     		mov	sp, r7
 2404 0022 80BC     		pop	{r7}
 2405 0024 7047     		bx	lr
 2406              		.cfi_endproc
 2407              	.LFE34:
 2408              		.size	CyXTAL_EnableFaultRecovery, .-CyXTAL_EnableFaultRecovery
 2409 0026 00BF     		.section	.text.CyXTAL_DisableFaultRecovery,"ax",%progbits
 2410              		.align	2
 2411              		.global	CyXTAL_DisableFaultRecovery
 2412              		.thumb
 2413              		.thumb_func
 2414              		.type	CyXTAL_DisableFaultRecovery, %function
 2415              	CyXTAL_DisableFaultRecovery:
 2416              	.LFB35:
1453:./Generated_Source/PSoC5/CyLib.c **** 
1454:./Generated_Source/PSoC5/CyLib.c **** 
1455:./Generated_Source/PSoC5/CyLib.c **** /*******************************************************************************
1456:./Generated_Source/PSoC5/CyLib.c **** * Function Name: CyXTAL_DisableFaultRecovery
ARM GAS  C:\Users\CHARLI~1\AppData\Local\Temp\cc78mmP1.s 			page 69


1457:./Generated_Source/PSoC5/CyLib.c **** ********************************************************************************
1458:./Generated_Source/PSoC5/CyLib.c **** * Summary:
1459:./Generated_Source/PSoC5/CyLib.c **** *    Disables the fault recovery circuit which will switch to the IMO 
1460:./Generated_Source/PSoC5/CyLib.c **** *     in the case of a fault in the megahertz crystal circuit.
1461:./Generated_Source/PSoC5/CyLib.c **** *
1462:./Generated_Source/PSoC5/CyLib.c **** *
1463:./Generated_Source/PSoC5/CyLib.c **** * Parameters:
1464:./Generated_Source/PSoC5/CyLib.c **** *   void.
1465:./Generated_Source/PSoC5/CyLib.c **** *
1466:./Generated_Source/PSoC5/CyLib.c **** *
1467:./Generated_Source/PSoC5/CyLib.c **** * Return:
1468:./Generated_Source/PSoC5/CyLib.c **** *   void.
1469:./Generated_Source/PSoC5/CyLib.c **** *
1470:./Generated_Source/PSoC5/CyLib.c **** *******************************************************************************/
1471:./Generated_Source/PSoC5/CyLib.c **** void CyXTAL_DisableFaultRecovery(void) 
1472:./Generated_Source/PSoC5/CyLib.c **** {
 2417              		.loc 1 1472 0
 2418              		.cfi_startproc
 2419              		@ args = 0, pretend = 0, frame = 0
 2420              		@ frame_needed = 1, uses_anonymous_args = 0
 2421              		@ link register save eliminated.
 2422 0000 80B4     		push	{r7}
 2423              	.LCFI89:
 2424              		.cfi_def_cfa_offset 4
 2425 0002 00AF     		add	r7, sp, #0
 2426              		.cfi_offset 7, -4
 2427              	.LCFI90:
 2428              		.cfi_def_cfa_register 7
1473:./Generated_Source/PSoC5/CyLib.c ****     /*6th bit       xprot of FASTCLK_XMHZ_CSR 
1474:./Generated_Source/PSoC5/CyLib.c ****     */
1475:./Generated_Source/PSoC5/CyLib.c ****     FASTCLK_XMHZ_CSR &= ~X32_CONTROL_FAULT_RECOVER;
 2429              		.loc 1 1475 0
 2430 0004 44F21023 		movw	r3, #:lower16:1073758736
 2431 0008 C4F20003 		movt	r3, #:upper16:1073758736
 2432 000c 44F21022 		movw	r2, #:lower16:1073758736
 2433 0010 C4F20002 		movt	r2, #:upper16:1073758736
 2434 0014 1278     		ldrb	r2, [r2, #0]
 2435 0016 D2B2     		uxtb	r2, r2
 2436 0018 02F0BF02 		and	r2, r2, #191
 2437 001c 1A70     		strb	r2, [r3, #0]
1476:./Generated_Source/PSoC5/CyLib.c **** }
 2438              		.loc 1 1476 0
 2439 001e BD46     		mov	sp, r7
 2440 0020 80BC     		pop	{r7}
 2441 0022 7047     		bx	lr
 2442              		.cfi_endproc
 2443              	.LFE35:
 2444              		.size	CyXTAL_DisableFaultRecovery, .-CyXTAL_DisableFaultRecovery
 2445              		.section	.text.CyXTAL_SetStartup,"ax",%progbits
 2446              		.align	2
 2447              		.global	CyXTAL_SetStartup
 2448              		.thumb
 2449              		.thumb_func
 2450              		.type	CyXTAL_SetStartup, %function
 2451              	CyXTAL_SetStartup:
 2452              	.LFB36:
1477:./Generated_Source/PSoC5/CyLib.c **** 
ARM GAS  C:\Users\CHARLI~1\AppData\Local\Temp\cc78mmP1.s 			page 70


1478:./Generated_Source/PSoC5/CyLib.c **** 
1479:./Generated_Source/PSoC5/CyLib.c **** /*******************************************************************************
1480:./Generated_Source/PSoC5/CyLib.c **** * Function Name: CyXTAL_SetStartup
1481:./Generated_Source/PSoC5/CyLib.c **** ********************************************************************************
1482:./Generated_Source/PSoC5/CyLib.c **** * Summary:
1483:./Generated_Source/PSoC5/CyLib.c **** *   Sets the startup settings for the crystal.
1484:./Generated_Source/PSoC5/CyLib.c **** *
1485:./Generated_Source/PSoC5/CyLib.c **** *
1486:./Generated_Source/PSoC5/CyLib.c **** * Parameters:
1487:./Generated_Source/PSoC5/CyLib.c **** *   setting: Valid range [0-31].  
1488:./Generated_Source/PSoC5/CyLib.c **** *    Value is dependent on the frequency and quality of the crystal being used.  
1489:./Generated_Source/PSoC5/CyLib.c **** *    Refer to the TRM for appropriate values for a specific crystal..
1490:./Generated_Source/PSoC5/CyLib.c **** *
1491:./Generated_Source/PSoC5/CyLib.c **** *
1492:./Generated_Source/PSoC5/CyLib.c **** * Return:
1493:./Generated_Source/PSoC5/CyLib.c **** *   void.
1494:./Generated_Source/PSoC5/CyLib.c **** *
1495:./Generated_Source/PSoC5/CyLib.c **** *******************************************************************************/
1496:./Generated_Source/PSoC5/CyLib.c **** void CyXTAL_SetStartup(uint8 setting) 
1497:./Generated_Source/PSoC5/CyLib.c **** {
 2453              		.loc 1 1497 0
 2454              		.cfi_startproc
 2455              		@ args = 0, pretend = 0, frame = 8
 2456              		@ frame_needed = 1, uses_anonymous_args = 0
 2457              		@ link register save eliminated.
 2458 0000 80B4     		push	{r7}
 2459              	.LCFI91:
 2460              		.cfi_def_cfa_offset 4
 2461 0002 83B0     		sub	sp, sp, #12
 2462              	.LCFI92:
 2463              		.cfi_def_cfa_offset 16
 2464 0004 00AF     		add	r7, sp, #0
 2465              		.cfi_offset 7, -4
 2466              	.LCFI93:
 2467              		.cfi_def_cfa_register 7
 2468 0006 0346     		mov	r3, r0
 2469 0008 FB71     		strb	r3, [r7, #7]
1498:./Generated_Source/PSoC5/CyLib.c ****     /*Valid range 0-31*/
1499:./Generated_Source/PSoC5/CyLib.c ****     FASTCLK_XMHZ_CFG0 = (FASTCLK_XMHZ_CFG0 & ~FASTCLK_XMHZ_GAINMASK) | 
 2470              		.loc 1 1499 0
 2471 000a 44F21223 		movw	r3, #:lower16:1073758738
 2472 000e C4F20003 		movt	r3, #:upper16:1073758738
 2473 0012 44F21222 		movw	r2, #:lower16:1073758738
 2474 0016 C4F20002 		movt	r2, #:upper16:1073758738
 2475 001a 1278     		ldrb	r2, [r2, #0]
 2476 001c D2B2     		uxtb	r2, r2
 2477 001e 1146     		mov	r1, r2
 2478 0020 01F0E001 		and	r1, r1, #224
 2479 0024 FA79     		ldrb	r2, [r7, #7]	@ zero_extendqisi2
 2480 0026 02F01F02 		and	r2, r2, #31
 2481 002a 41EA0202 		orr	r2, r1, r2
 2482 002e D2B2     		uxtb	r2, r2
 2483 0030 1A70     		strb	r2, [r3, #0]
1500:./Generated_Source/PSoC5/CyLib.c ****                          (setting & FASTCLK_XMHZ_GAINMASK);
1501:./Generated_Source/PSoC5/CyLib.c **** }
 2484              		.loc 1 1501 0
 2485 0032 07F10C07 		add	r7, r7, #12
ARM GAS  C:\Users\CHARLI~1\AppData\Local\Temp\cc78mmP1.s 			page 71


 2486 0036 BD46     		mov	sp, r7
 2487 0038 80BC     		pop	{r7}
 2488 003a 7047     		bx	lr
 2489              		.cfi_endproc
 2490              	.LFE36:
 2491              		.size	CyXTAL_SetStartup, .-CyXTAL_SetStartup
 2492              		.section	.text.CyHalt,"ax",%progbits
 2493              		.align	2
 2494              		.global	CyHalt
 2495              		.thumb
 2496              		.thumb_func
 2497              		.type	CyHalt, %function
 2498              	CyHalt:
 2499              	.LFB37:
1502:./Generated_Source/PSoC5/CyLib.c **** 
1503:./Generated_Source/PSoC5/CyLib.c **** 
1504:./Generated_Source/PSoC5/CyLib.c **** #if CYLIB_PSOC3_ES3
1505:./Generated_Source/PSoC5/CyLib.c **** /*******************************************************************************
1506:./Generated_Source/PSoC5/CyLib.c **** * Function Name: CyXTAL_SetFbVoltage
1507:./Generated_Source/PSoC5/CyLib.c **** ********************************************************************************
1508:./Generated_Source/PSoC5/CyLib.c **** * Summary:
1509:./Generated_Source/PSoC5/CyLib.c **** *   Sets the feedback reference voltage to use for the crystal circuit.
1510:./Generated_Source/PSoC5/CyLib.c **** *
1511:./Generated_Source/PSoC5/CyLib.c **** *
1512:./Generated_Source/PSoC5/CyLib.c **** * Parameters:
1513:./Generated_Source/PSoC5/CyLib.c **** *   setting: Valid range [0-15].  
1514:./Generated_Source/PSoC5/CyLib.c **** *   Refer to the TRM for details on the mapping of the setting value to 
1515:./Generated_Source/PSoC5/CyLib.c **** *   specific voltages.
1516:./Generated_Source/PSoC5/CyLib.c **** *
1517:./Generated_Source/PSoC5/CyLib.c **** *
1518:./Generated_Source/PSoC5/CyLib.c **** * Return:
1519:./Generated_Source/PSoC5/CyLib.c **** *   void.
1520:./Generated_Source/PSoC5/CyLib.c **** *
1521:./Generated_Source/PSoC5/CyLib.c **** *
1522:./Generated_Source/PSoC5/CyLib.c **** * Side Effects and Restrictions:
1523:./Generated_Source/PSoC5/CyLib.c **** *   The feedback reference voltage must be greater than the watchdog reference 
1524:./Generated_Source/PSoC5/CyLib.c **** *   voltage.
1525:./Generated_Source/PSoC5/CyLib.c **** *
1526:./Generated_Source/PSoC5/CyLib.c **** *******************************************************************************/
1527:./Generated_Source/PSoC5/CyLib.c **** void CyXTAL_SetFbVoltage(uint8 setting) 
1528:./Generated_Source/PSoC5/CyLib.c **** {
1529:./Generated_Source/PSoC5/CyLib.c ****     /*The register with this value has changed between ES2 and ES3 silicon.  
1530:./Generated_Source/PSoC5/CyLib.c ****     This function should only be made available for ES3 silicon.  
1531:./Generated_Source/PSoC5/CyLib.c ****     For ES2 there will not be an equivalent function and this register will 
1532:./Generated_Source/PSoC5/CyLib.c ****     just be left at its default value.*/
1533:./Generated_Source/PSoC5/CyLib.c ****     FASTCLK_XMHZ_CFG1 = ((FASTCLK_XMHZ_CFG1 & ~FASTCLK_XMHZ_VREFMASK) | 
1534:./Generated_Source/PSoC5/CyLib.c ****                          (setting & FASTCLK_XMHZ_VREFMASK));
1535:./Generated_Source/PSoC5/CyLib.c **** }
1536:./Generated_Source/PSoC5/CyLib.c **** 
1537:./Generated_Source/PSoC5/CyLib.c **** 
1538:./Generated_Source/PSoC5/CyLib.c **** /*******************************************************************************
1539:./Generated_Source/PSoC5/CyLib.c **** * Function Name: CyXTAL_SetWdVoltage
1540:./Generated_Source/PSoC5/CyLib.c **** ********************************************************************************
1541:./Generated_Source/PSoC5/CyLib.c **** * Summary:
1542:./Generated_Source/PSoC5/CyLib.c **** *   Sets the reference voltage used by the watchdog to detect a failure 
1543:./Generated_Source/PSoC5/CyLib.c **** *   in the crystal circuit. 
1544:./Generated_Source/PSoC5/CyLib.c **** *
ARM GAS  C:\Users\CHARLI~1\AppData\Local\Temp\cc78mmP1.s 			page 72


1545:./Generated_Source/PSoC5/CyLib.c **** *
1546:./Generated_Source/PSoC5/CyLib.c **** * Parameters:
1547:./Generated_Source/PSoC5/CyLib.c **** *   setting: Valid range [0-7].  
1548:./Generated_Source/PSoC5/CyLib.c **** *   Refer to the TRM for details on the mapping of the setting value to 
1549:./Generated_Source/PSoC5/CyLib.c **** *   specific voltages.
1550:./Generated_Source/PSoC5/CyLib.c **** *
1551:./Generated_Source/PSoC5/CyLib.c **** *
1552:./Generated_Source/PSoC5/CyLib.c **** * Return:
1553:./Generated_Source/PSoC5/CyLib.c **** *   void.
1554:./Generated_Source/PSoC5/CyLib.c **** *
1555:./Generated_Source/PSoC5/CyLib.c **** * Side Effects and Restrictions:
1556:./Generated_Source/PSoC5/CyLib.c **** *   The feedback reference voltage must be greater than the watchdog 
1557:./Generated_Source/PSoC5/CyLib.c **** *   reference voltage.
1558:./Generated_Source/PSoC5/CyLib.c **** *
1559:./Generated_Source/PSoC5/CyLib.c **** *******************************************************************************/
1560:./Generated_Source/PSoC5/CyLib.c **** void CyXTAL_SetWdVoltage(uint8 setting) 
1561:./Generated_Source/PSoC5/CyLib.c **** {
1562:./Generated_Source/PSoC5/CyLib.c ****     /*
1563:./Generated_Source/PSoC5/CyLib.c ****     The register with this value has changed between ES2 and ES3 silicon.
1564:./Generated_Source/PSoC5/CyLib.c ****     This function should only be made available for ES3 silicon.
1565:./Generated_Source/PSoC5/CyLib.c ****     For ES2 there will not be an equivalent function and this register will 
1566:./Generated_Source/PSoC5/CyLib.c ****     -just be left at its default value.
1567:./Generated_Source/PSoC5/CyLib.c ****     */
1568:./Generated_Source/PSoC5/CyLib.c ****     FASTCLK_XMHZ_CFG1 = ((FASTCLK_XMHZ_CFG1 & ~FASTCLK_XMHZ_VREF_WD_MASK) | 
1569:./Generated_Source/PSoC5/CyLib.c ****                          ((setting << 4) & FASTCLK_XMHZ_VREF_WD_MASK));
1570:./Generated_Source/PSoC5/CyLib.c **** }
1571:./Generated_Source/PSoC5/CyLib.c **** 
1572:./Generated_Source/PSoC5/CyLib.c **** #endif /*CYLIB_PSOC3_ES3*/
1573:./Generated_Source/PSoC5/CyLib.c **** 
1574:./Generated_Source/PSoC5/CyLib.c **** /* CYLIB CLOCK funcs end */
1575:./Generated_Source/PSoC5/CyLib.c **** 
1576:./Generated_Source/PSoC5/CyLib.c **** 
1577:./Generated_Source/PSoC5/CyLib.c **** /* CYLIB SYSTEM funcs begin */
1578:./Generated_Source/PSoC5/CyLib.c **** 
1579:./Generated_Source/PSoC5/CyLib.c **** 
1580:./Generated_Source/PSoC5/CyLib.c **** /*******************************************************************************
1581:./Generated_Source/PSoC5/CyLib.c **** * Function Name: CyHalt
1582:./Generated_Source/PSoC5/CyLib.c **** ********************************************************************************
1583:./Generated_Source/PSoC5/CyLib.c **** * Summary:
1584:./Generated_Source/PSoC5/CyLib.c **** *  Halts the CPU
1585:./Generated_Source/PSoC5/CyLib.c **** *
1586:./Generated_Source/PSoC5/CyLib.c **** *
1587:./Generated_Source/PSoC5/CyLib.c **** * Parameters:
1588:./Generated_Source/PSoC5/CyLib.c **** *   reason: Value to be used during debugging.
1589:./Generated_Source/PSoC5/CyLib.c **** *
1590:./Generated_Source/PSoC5/CyLib.c **** *
1591:./Generated_Source/PSoC5/CyLib.c **** * Return: 
1592:./Generated_Source/PSoC5/CyLib.c **** *   void.
1593:./Generated_Source/PSoC5/CyLib.c **** *
1594:./Generated_Source/PSoC5/CyLib.c **** *
1595:./Generated_Source/PSoC5/CyLib.c **** *******************************************************************************/
1596:./Generated_Source/PSoC5/CyLib.c **** void CyHalt(uint8 reason)
1597:./Generated_Source/PSoC5/CyLib.c **** {
 2500              		.loc 1 1597 0
 2501              		.cfi_startproc
 2502              		@ args = 0, pretend = 0, frame = 8
 2503              		@ frame_needed = 1, uses_anonymous_args = 0
ARM GAS  C:\Users\CHARLI~1\AppData\Local\Temp\cc78mmP1.s 			page 73


 2504              		@ link register save eliminated.
 2505 0000 80B4     		push	{r7}
 2506              	.LCFI94:
 2507              		.cfi_def_cfa_offset 4
 2508 0002 83B0     		sub	sp, sp, #12
 2509              	.LCFI95:
 2510              		.cfi_def_cfa_offset 16
 2511 0004 00AF     		add	r7, sp, #0
 2512              		.cfi_offset 7, -4
 2513              	.LCFI96:
 2514              		.cfi_def_cfa_register 7
 2515 0006 0346     		mov	r3, r0
 2516 0008 FB71     		strb	r3, [r7, #7]
1598:./Generated_Source/PSoC5/CyLib.c ****     reason = reason;
1599:./Generated_Source/PSoC5/CyLib.c **** #if defined (__ARMCC_VERSION)
1600:./Generated_Source/PSoC5/CyLib.c ****     __breakpoint(0x0);
1601:./Generated_Source/PSoC5/CyLib.c **** #elif defined(__GNUC__)
1602:./Generated_Source/PSoC5/CyLib.c ****     __asm("    bkpt    1");
 2517              		.loc 1 1602 0
 2518              	@ 1602 "./Generated_Source/PSoC5/CyLib.c" 1
 2519 000a 01BE     		    bkpt    1
 2520              	@ 0 "" 2
1603:./Generated_Source/PSoC5/CyLib.c **** #elif defined(__C51__)
1604:./Generated_Source/PSoC5/CyLib.c ****     CYDEV_HALT_CPU;
1605:./Generated_Source/PSoC5/CyLib.c **** #endif
1606:./Generated_Source/PSoC5/CyLib.c **** }
 2521              		.loc 1 1606 0
 2522              		.thumb
 2523 000c 07F10C07 		add	r7, r7, #12
 2524 0010 BD46     		mov	sp, r7
 2525 0012 80BC     		pop	{r7}
 2526 0014 7047     		bx	lr
 2527              		.cfi_endproc
 2528              	.LFE37:
 2529              		.size	CyHalt, .-CyHalt
 2530 0016 00BF     		.section	.text.CySoftwareReset,"ax",%progbits
 2531              		.align	2
 2532              		.global	CySoftwareReset
 2533              		.thumb
 2534              		.thumb_func
 2535              		.type	CySoftwareReset, %function
 2536              	CySoftwareReset:
 2537              	.LFB38:
1607:./Generated_Source/PSoC5/CyLib.c **** 
1608:./Generated_Source/PSoC5/CyLib.c **** 
1609:./Generated_Source/PSoC5/CyLib.c **** /*******************************************************************************
1610:./Generated_Source/PSoC5/CyLib.c **** * Function Name: CySoftwareReset
1611:./Generated_Source/PSoC5/CyLib.c **** ********************************************************************************
1612:./Generated_Source/PSoC5/CyLib.c **** * Summary:
1613:./Generated_Source/PSoC5/CyLib.c **** *  Forces a software reset of the device.
1614:./Generated_Source/PSoC5/CyLib.c **** *
1615:./Generated_Source/PSoC5/CyLib.c **** *
1616:./Generated_Source/PSoC5/CyLib.c **** * Parameters:
1617:./Generated_Source/PSoC5/CyLib.c **** *   None.
1618:./Generated_Source/PSoC5/CyLib.c **** *
1619:./Generated_Source/PSoC5/CyLib.c **** *
1620:./Generated_Source/PSoC5/CyLib.c **** * Return: 
ARM GAS  C:\Users\CHARLI~1\AppData\Local\Temp\cc78mmP1.s 			page 74


1621:./Generated_Source/PSoC5/CyLib.c **** *   void.
1622:./Generated_Source/PSoC5/CyLib.c **** *
1623:./Generated_Source/PSoC5/CyLib.c **** *
1624:./Generated_Source/PSoC5/CyLib.c **** *******************************************************************************/
1625:./Generated_Source/PSoC5/CyLib.c **** void CySoftwareReset()
1626:./Generated_Source/PSoC5/CyLib.c **** {
 2538              		.loc 1 1626 0
 2539              		.cfi_startproc
 2540              		@ args = 0, pretend = 0, frame = 0
 2541              		@ frame_needed = 1, uses_anonymous_args = 0
 2542              		@ link register save eliminated.
 2543 0000 80B4     		push	{r7}
 2544              	.LCFI97:
 2545              		.cfi_def_cfa_offset 4
 2546 0002 00AF     		add	r7, sp, #0
 2547              		.cfi_offset 7, -4
 2548              	.LCFI98:
 2549              		.cfi_def_cfa_register 7
1627:./Generated_Source/PSoC5/CyLib.c ****     /* Perform a reset by writing the software reset bit in reset control register 2 */
1628:./Generated_Source/PSoC5/CyLib.c ****     *RESET_CR2 = 0x1;
 2550              		.loc 1 1628 0
 2551 0004 44F2F663 		movw	r3, #:lower16:1073759990
 2552 0008 C4F20003 		movt	r3, #:upper16:1073759990
 2553 000c 4FF00102 		mov	r2, #1
 2554 0010 1A70     		strb	r2, [r3, #0]
1629:./Generated_Source/PSoC5/CyLib.c **** }
 2555              		.loc 1 1629 0
 2556 0012 BD46     		mov	sp, r7
 2557 0014 80BC     		pop	{r7}
 2558 0016 7047     		bx	lr
 2559              		.cfi_endproc
 2560              	.LFE38:
 2561              		.size	CySoftwareReset, .-CySoftwareReset
 2562              		.global	cydelay_freq_hz
 2563              		.data
 2564              		.align	2
 2565              		.type	cydelay_freq_hz, %object
 2566              		.size	cydelay_freq_hz, 4
 2567              	cydelay_freq_hz:
 2568 0000 00366E01 		.word	24000000
 2569              		.global	cydelay_freq_khz
 2570              		.align	2
 2571              		.type	cydelay_freq_khz, %object
 2572              		.size	cydelay_freq_khz, 4
 2573              	cydelay_freq_khz:
 2574 0004 C05D0000 		.word	24000
 2575              		.global	cydelay_freq_mhz
 2576              		.type	cydelay_freq_mhz, %object
 2577              		.size	cydelay_freq_mhz, 1
 2578              	cydelay_freq_mhz:
 2579 0008 18       		.byte	24
 2580              		.global	cydelay_32k_ms
 2581 0009 000000   		.align	2
 2582              		.type	cydelay_32k_ms, %object
 2583              		.size	cydelay_32k_ms, 4
 2584              	cydelay_32k_ms:
 2585 000c 0000E02E 		.word	786432000
ARM GAS  C:\Users\CHARLI~1\AppData\Local\Temp\cc78mmP1.s 			page 75


 2586              		.section	.text.CyDelay,"ax",%progbits
 2587              		.align	2
 2588              		.global	CyDelay
 2589              		.thumb
 2590              		.thumb_func
 2591              		.type	CyDelay, %function
 2592              	CyDelay:
 2593              	.LFB39:
1630:./Generated_Source/PSoC5/CyLib.c **** 
1631:./Generated_Source/PSoC5/CyLib.c **** /* CYLIB SYSTEM funcs end */
1632:./Generated_Source/PSoC5/CyLib.c **** 
1633:./Generated_Source/PSoC5/CyLib.c **** 
1634:./Generated_Source/PSoC5/CyLib.c **** uint32 cydelay_freq_hz = BCLK__BUS_CLK__HZ;
1635:./Generated_Source/PSoC5/CyLib.c **** uint32 cydelay_freq_khz = (BCLK__BUS_CLK__HZ + 999u) / 1000u;
1636:./Generated_Source/PSoC5/CyLib.c **** uint8 cydelay_freq_mhz = (uint8)((BCLK__BUS_CLK__HZ + 999999u) / 1000000u);
1637:./Generated_Source/PSoC5/CyLib.c **** uint32 cydelay_32k_ms = 32768 * ((BCLK__BUS_CLK__HZ + 999u) / 1000u);
1638:./Generated_Source/PSoC5/CyLib.c **** 
1639:./Generated_Source/PSoC5/CyLib.c **** 
1640:./Generated_Source/PSoC5/CyLib.c **** /*******************************************************************************
1641:./Generated_Source/PSoC5/CyLib.c **** * Function Name: CyDelay
1642:./Generated_Source/PSoC5/CyLib.c **** ********************************************************************************
1643:./Generated_Source/PSoC5/CyLib.c **** * Summary:
1644:./Generated_Source/PSoC5/CyLib.c **** *   Blocks for milliseconds.
1645:./Generated_Source/PSoC5/CyLib.c **** *    Note: CyDelay has been implemented with the instruction cache assumed enabled. 
1646:./Generated_Source/PSoC5/CyLib.c **** *      When instruction cache is disabled on PSoC5, CyDelay will be two times 
1647:./Generated_Source/PSoC5/CyLib.c **** *      larger. Ex: With instruction cache disabled CyDelay(100) would result 
1648:./Generated_Source/PSoC5/CyLib.c **** *      in about 200ms delay instead of 100ms.
1649:./Generated_Source/PSoC5/CyLib.c **** *
1650:./Generated_Source/PSoC5/CyLib.c **** * Parameters:
1651:./Generated_Source/PSoC5/CyLib.c **** *   milliseconds: number of milliseconds to delay.
1652:./Generated_Source/PSoC5/CyLib.c **** *
1653:./Generated_Source/PSoC5/CyLib.c **** * Return:
1654:./Generated_Source/PSoC5/CyLib.c **** *   void.
1655:./Generated_Source/PSoC5/CyLib.c **** *
1656:./Generated_Source/PSoC5/CyLib.c **** *******************************************************************************/
1657:./Generated_Source/PSoC5/CyLib.c **** void CyDelay(uint32 milliseconds) CYREENTRANT
1658:./Generated_Source/PSoC5/CyLib.c **** {
 2594              		.loc 1 1658 0
 2595              		.cfi_startproc
 2596              		@ args = 0, pretend = 0, frame = 8
 2597              		@ frame_needed = 1, uses_anonymous_args = 0
 2598 0000 80B5     		push	{r7, lr}
 2599              	.LCFI99:
 2600              		.cfi_def_cfa_offset 8
 2601 0002 82B0     		sub	sp, sp, #8
 2602              	.LCFI100:
 2603              		.cfi_def_cfa_offset 16
 2604 0004 00AF     		add	r7, sp, #0
 2605              		.cfi_offset 14, -4
 2606              		.cfi_offset 7, -8
 2607              	.LCFI101:
 2608              		.cfi_def_cfa_register 7
 2609 0006 7860     		str	r0, [r7, #4]
1659:./Generated_Source/PSoC5/CyLib.c ****     while (milliseconds > 32768)
 2610              		.loc 1 1659 0
 2611 0008 0BE0     		b	.L162
 2612              	.L163:
ARM GAS  C:\Users\CHARLI~1\AppData\Local\Temp\cc78mmP1.s 			page 76


1660:./Generated_Source/PSoC5/CyLib.c ****     {
1661:./Generated_Source/PSoC5/CyLib.c ****         /* This loop prevents overflow.
1662:./Generated_Source/PSoC5/CyLib.c ****          * At 100MHz, milliseconds * delay_freq_khz overflows at about 42 seconds
1663:./Generated_Source/PSoC5/CyLib.c ****          */
1664:./Generated_Source/PSoC5/CyLib.c ****         CyDelayCycles(cydelay_32k_ms);
 2613              		.loc 1 1664 0
 2614 000a 40F20003 		movw	r3, #:lower16:cydelay_32k_ms
 2615 000e C0F20003 		movt	r3, #:upper16:cydelay_32k_ms
 2616 0012 1B68     		ldr	r3, [r3, #0]
 2617 0014 1846     		mov	r0, r3
 2618 0016 FFF7FEFF 		bl	CyDelayCycles
1665:./Generated_Source/PSoC5/CyLib.c ****         milliseconds -= 32768;
 2619              		.loc 1 1665 0
 2620 001a 7B68     		ldr	r3, [r7, #4]
 2621 001c A3F50043 		sub	r3, r3, #32768
 2622 0020 7B60     		str	r3, [r7, #4]
 2623              	.L162:
 2624              		.loc 1 1659 0
 2625 0022 7B68     		ldr	r3, [r7, #4]
 2626 0024 B3F5004F 		cmp	r3, #32768
 2627 0028 EFD8     		bhi	.L163
1666:./Generated_Source/PSoC5/CyLib.c ****     }
1667:./Generated_Source/PSoC5/CyLib.c **** 
1668:./Generated_Source/PSoC5/CyLib.c ****     CyDelayCycles(milliseconds * cydelay_freq_khz);
 2628              		.loc 1 1668 0
 2629 002a 40F20003 		movw	r3, #:lower16:cydelay_freq_khz
 2630 002e C0F20003 		movt	r3, #:upper16:cydelay_freq_khz
 2631 0032 1B68     		ldr	r3, [r3, #0]
 2632 0034 7A68     		ldr	r2, [r7, #4]
 2633 0036 02FB03F3 		mul	r3, r2, r3
 2634 003a 1846     		mov	r0, r3
 2635 003c FFF7FEFF 		bl	CyDelayCycles
1669:./Generated_Source/PSoC5/CyLib.c **** }
 2636              		.loc 1 1669 0
 2637 0040 07F10807 		add	r7, r7, #8
 2638 0044 BD46     		mov	sp, r7
 2639 0046 80BD     		pop	{r7, pc}
 2640              		.cfi_endproc
 2641              	.LFE39:
 2642              		.size	CyDelay, .-CyDelay
 2643              		.section	.text.CyDelayUs,"ax",%progbits
 2644              		.align	2
 2645              		.global	CyDelayUs
 2646              		.thumb
 2647              		.thumb_func
 2648              		.type	CyDelayUs, %function
 2649              	CyDelayUs:
 2650              	.LFB40:
1670:./Generated_Source/PSoC5/CyLib.c **** 
1671:./Generated_Source/PSoC5/CyLib.c **** 
1672:./Generated_Source/PSoC5/CyLib.c **** /*******************************************************************************
1673:./Generated_Source/PSoC5/CyLib.c **** * Function Name: CyDelayUs
1674:./Generated_Source/PSoC5/CyLib.c **** ********************************************************************************
1675:./Generated_Source/PSoC5/CyLib.c **** * Summary:
1676:./Generated_Source/PSoC5/CyLib.c **** *   Blocks for microseconds.
1677:./Generated_Source/PSoC5/CyLib.c **** *    Note: CyDelay has been implemented with the instruction cache assumed enabled. 
1678:./Generated_Source/PSoC5/CyLib.c **** *      When instruction cache is disabled on PSoC5, CyDelayUs will be two times 
ARM GAS  C:\Users\CHARLI~1\AppData\Local\Temp\cc78mmP1.s 			page 77


1679:./Generated_Source/PSoC5/CyLib.c **** *      larger. Ex: With instruction cache disabled CyDelayUs(100) would result 
1680:./Generated_Source/PSoC5/CyLib.c **** *      in about 200us delay instead of 100us.
1681:./Generated_Source/PSoC5/CyLib.c **** *
1682:./Generated_Source/PSoC5/CyLib.c **** * Parameters:
1683:./Generated_Source/PSoC5/CyLib.c **** *   microseconds: number of microseconds to delay.
1684:./Generated_Source/PSoC5/CyLib.c **** *
1685:./Generated_Source/PSoC5/CyLib.c **** * Return:
1686:./Generated_Source/PSoC5/CyLib.c **** *   void.
1687:./Generated_Source/PSoC5/CyLib.c **** *
1688:./Generated_Source/PSoC5/CyLib.c **** *******************************************************************************/
1689:./Generated_Source/PSoC5/CyLib.c **** #if defined(__ARMCC_VERSION)
1690:./Generated_Source/PSoC5/CyLib.c **** void CyDelayUs(uint16 microseconds) CYREENTRANT
1691:./Generated_Source/PSoC5/CyLib.c **** {
1692:./Generated_Source/PSoC5/CyLib.c ****     CyDelayCycles((uint32)microseconds * cydelay_freq_mhz);
1693:./Generated_Source/PSoC5/CyLib.c **** }
1694:./Generated_Source/PSoC5/CyLib.c **** #elif defined(__GNUC__)
1695:./Generated_Source/PSoC5/CyLib.c **** void CyDelayUs(uint16 microseconds) CYREENTRANT
1696:./Generated_Source/PSoC5/CyLib.c **** {
 2651              		.loc 1 1696 0
 2652              		.cfi_startproc
 2653              		@ args = 0, pretend = 0, frame = 8
 2654              		@ frame_needed = 1, uses_anonymous_args = 0
 2655 0000 80B5     		push	{r7, lr}
 2656              	.LCFI102:
 2657              		.cfi_def_cfa_offset 8
 2658 0002 82B0     		sub	sp, sp, #8
 2659              	.LCFI103:
 2660              		.cfi_def_cfa_offset 16
 2661 0004 00AF     		add	r7, sp, #0
 2662              		.cfi_offset 14, -4
 2663              		.cfi_offset 7, -8
 2664              	.LCFI104:
 2665              		.cfi_def_cfa_register 7
 2666 0006 0346     		mov	r3, r0
 2667 0008 FB80     		strh	r3, [r7, #6]	@ movhi
1697:./Generated_Source/PSoC5/CyLib.c ****     CyDelayCycles((uint32)microseconds * cydelay_freq_mhz);
 2668              		.loc 1 1697 0
 2669 000a FA88     		ldrh	r2, [r7, #6]
 2670 000c 40F20003 		movw	r3, #:lower16:cydelay_freq_mhz
 2671 0010 C0F20003 		movt	r3, #:upper16:cydelay_freq_mhz
 2672 0014 1B78     		ldrb	r3, [r3, #0]	@ zero_extendqisi2
 2673 0016 03FB02F3 		mul	r3, r3, r2
 2674 001a 1846     		mov	r0, r3
 2675 001c FFF7FEFF 		bl	CyDelayCycles
1698:./Generated_Source/PSoC5/CyLib.c **** }
 2676              		.loc 1 1698 0
 2677 0020 07F10807 		add	r7, r7, #8
 2678 0024 BD46     		mov	sp, r7
 2679 0026 80BD     		pop	{r7, pc}
 2680              		.cfi_endproc
 2681              	.LFE40:
 2682              		.size	CyDelayUs, .-CyDelayUs
 2683              		.section	.text.CyDelayFreq,"ax",%progbits
 2684              		.align	2
 2685              		.global	CyDelayFreq
 2686              		.thumb
 2687              		.thumb_func
ARM GAS  C:\Users\CHARLI~1\AppData\Local\Temp\cc78mmP1.s 			page 78


 2688              		.type	CyDelayFreq, %function
 2689              	CyDelayFreq:
 2690              	.LFB41:
1699:./Generated_Source/PSoC5/CyLib.c **** #endif
1700:./Generated_Source/PSoC5/CyLib.c **** 
1701:./Generated_Source/PSoC5/CyLib.c **** 
1702:./Generated_Source/PSoC5/CyLib.c **** /*******************************************************************************
1703:./Generated_Source/PSoC5/CyLib.c **** * Function Name: CyDelayFreq
1704:./Generated_Source/PSoC5/CyLib.c **** ********************************************************************************
1705:./Generated_Source/PSoC5/CyLib.c **** * Summary:
1706:./Generated_Source/PSoC5/CyLib.c **** *   Sets clock frequency for CyDelay.
1707:./Generated_Source/PSoC5/CyLib.c **** *
1708:./Generated_Source/PSoC5/CyLib.c **** * Parameters:
1709:./Generated_Source/PSoC5/CyLib.c **** *   freq: Frequency of bus clock in Hertz.
1710:./Generated_Source/PSoC5/CyLib.c **** *
1711:./Generated_Source/PSoC5/CyLib.c **** * Return:
1712:./Generated_Source/PSoC5/CyLib.c **** *   void.
1713:./Generated_Source/PSoC5/CyLib.c **** *
1714:./Generated_Source/PSoC5/CyLib.c **** *******************************************************************************/
1715:./Generated_Source/PSoC5/CyLib.c **** void CyDelayFreq(uint32 freq) CYREENTRANT
1716:./Generated_Source/PSoC5/CyLib.c **** {
 2691              		.loc 1 1716 0
 2692              		.cfi_startproc
 2693              		@ args = 0, pretend = 0, frame = 8
 2694              		@ frame_needed = 1, uses_anonymous_args = 0
 2695              		@ link register save eliminated.
 2696 0000 80B4     		push	{r7}
 2697              	.LCFI105:
 2698              		.cfi_def_cfa_offset 4
 2699 0002 83B0     		sub	sp, sp, #12
 2700              	.LCFI106:
 2701              		.cfi_def_cfa_offset 16
 2702 0004 00AF     		add	r7, sp, #0
 2703              		.cfi_offset 7, -4
 2704              	.LCFI107:
 2705              		.cfi_def_cfa_register 7
 2706 0006 7860     		str	r0, [r7, #4]
1717:./Generated_Source/PSoC5/CyLib.c ****     if (freq != 0u)
 2707              		.loc 1 1717 0
 2708 0008 7B68     		ldr	r3, [r7, #4]
 2709 000a 002B     		cmp	r3, #0
 2710 000c 06D0     		beq	.L168
1718:./Generated_Source/PSoC5/CyLib.c ****         cydelay_freq_hz = freq;
 2711              		.loc 1 1718 0
 2712 000e 40F20003 		movw	r3, #:lower16:cydelay_freq_hz
 2713 0012 C0F20003 		movt	r3, #:upper16:cydelay_freq_hz
 2714 0016 7A68     		ldr	r2, [r7, #4]
 2715 0018 1A60     		str	r2, [r3, #0]
 2716 001a 08E0     		b	.L169
 2717              	.L168:
1719:./Generated_Source/PSoC5/CyLib.c ****     else
1720:./Generated_Source/PSoC5/CyLib.c ****         cydelay_freq_hz = BCLK__BUS_CLK__HZ;
 2718              		.loc 1 1720 0
 2719 001c 40F20003 		movw	r3, #:lower16:cydelay_freq_hz
 2720 0020 C0F20003 		movt	r3, #:upper16:cydelay_freq_hz
 2721 0024 43F20062 		movw	r2, #:lower16:24000000
 2722 0028 C0F26E12 		movt	r2, #:upper16:24000000
ARM GAS  C:\Users\CHARLI~1\AppData\Local\Temp\cc78mmP1.s 			page 79


 2723 002c 1A60     		str	r2, [r3, #0]
 2724              	.L169:
1721:./Generated_Source/PSoC5/CyLib.c ****     cydelay_freq_mhz = (uint8)((cydelay_freq_hz + 999999u) / 1000000u);
 2725              		.loc 1 1721 0
 2726 002e 40F20003 		movw	r3, #:lower16:cydelay_freq_hz
 2727 0032 C0F20003 		movt	r3, #:upper16:cydelay_freq_hz
 2728 0036 1A68     		ldr	r2, [r3, #0]
 2729 0038 44F23F23 		movw	r3, #:lower16:999999
 2730 003c C0F20F03 		movt	r3, #:upper16:999999
 2731 0040 1344     		add	r3, r2, r3
 2732 0042 4DF68362 		movw	r2, #:lower16:1125899907
 2733 0046 C4F21B32 		movt	r2, #:upper16:1125899907
 2734 004a A2FB0313 		umull	r1, r3, r2, r3
 2735 004e 4FEA9343 		lsr	r3, r3, #18
 2736 0052 DAB2     		uxtb	r2, r3
 2737 0054 40F20003 		movw	r3, #:lower16:cydelay_freq_mhz
 2738 0058 C0F20003 		movt	r3, #:upper16:cydelay_freq_mhz
 2739 005c 1A70     		strb	r2, [r3, #0]
1722:./Generated_Source/PSoC5/CyLib.c ****     cydelay_freq_khz = (cydelay_freq_hz + 999u) / 1000u;
 2740              		.loc 1 1722 0
 2741 005e 40F20003 		movw	r3, #:lower16:cydelay_freq_hz
 2742 0062 C0F20003 		movt	r3, #:upper16:cydelay_freq_hz
 2743 0066 1B68     		ldr	r3, [r3, #0]
 2744 0068 03F57872 		add	r2, r3, #992
 2745 006c 02F10702 		add	r2, r2, #7
 2746 0070 44F6D353 		movw	r3, #:lower16:274877907
 2747 0074 C1F26203 		movt	r3, #:upper16:274877907
 2748 0078 A3FB0213 		umull	r1, r3, r3, r2
 2749 007c 4FEA9312 		lsr	r2, r3, #6
 2750 0080 40F20003 		movw	r3, #:lower16:cydelay_freq_khz
 2751 0084 C0F20003 		movt	r3, #:upper16:cydelay_freq_khz
 2752 0088 1A60     		str	r2, [r3, #0]
1723:./Generated_Source/PSoC5/CyLib.c ****     cydelay_32k_ms = 32768 * cydelay_freq_khz;
 2753              		.loc 1 1723 0
 2754 008a 40F20003 		movw	r3, #:lower16:cydelay_freq_khz
 2755 008e C0F20003 		movt	r3, #:upper16:cydelay_freq_khz
 2756 0092 1B68     		ldr	r3, [r3, #0]
 2757 0094 4FEAC332 		lsl	r2, r3, #15
 2758 0098 40F20003 		movw	r3, #:lower16:cydelay_32k_ms
 2759 009c C0F20003 		movt	r3, #:upper16:cydelay_32k_ms
 2760 00a0 1A60     		str	r2, [r3, #0]
1724:./Generated_Source/PSoC5/CyLib.c **** }
 2761              		.loc 1 1724 0
 2762 00a2 07F10C07 		add	r7, r7, #12
 2763 00a6 BD46     		mov	sp, r7
 2764 00a8 80BC     		pop	{r7}
 2765 00aa 7047     		bx	lr
 2766              		.cfi_endproc
 2767              	.LFE41:
 2768              		.size	CyDelayFreq, .-CyDelayFreq
 2769              		.section	.text.CyWdtStart,"ax",%progbits
 2770              		.align	2
 2771              		.global	CyWdtStart
 2772              		.thumb
 2773              		.thumb_func
 2774              		.type	CyWdtStart, %function
 2775              	CyWdtStart:
ARM GAS  C:\Users\CHARLI~1\AppData\Local\Temp\cc78mmP1.s 			page 80


 2776              	.LFB42:
1725:./Generated_Source/PSoC5/CyLib.c **** 
1726:./Generated_Source/PSoC5/CyLib.c **** /*******************************************************************************
1727:./Generated_Source/PSoC5/CyLib.c **** * Function Name: CyWdtStart
1728:./Generated_Source/PSoC5/CyLib.c **** ********************************************************************************
1729:./Generated_Source/PSoC5/CyLib.c **** * Summary:
1730:./Generated_Source/PSoC5/CyLib.c **** *  Enables the watchdog timer.  
1731:./Generated_Source/PSoC5/CyLib.c **** *  The timer is configured for the specified count interval, the central timewheel 
1732:./Generated_Source/PSoC5/CyLib.c **** *  is cleared, the setting for low power mode is configured and the watchdog 
1733:./Generated_Source/PSoC5/CyLib.c **** *  timer is enabled.  
1734:./Generated_Source/PSoC5/CyLib.c **** *  Once enabled the watchdog cannot be disabled.  
1735:./Generated_Source/PSoC5/CyLib.c **** *  The watchdog must be cleared using the CyWdtClear() function before 
1736:./Generated_Source/PSoC5/CyLib.c **** *  three ticks of the watchdog timer occur.
1737:./Generated_Source/PSoC5/CyLib.c **** *
1738:./Generated_Source/PSoC5/CyLib.c **** *
1739:./Generated_Source/PSoC5/CyLib.c **** * Parameters: 
1740:./Generated_Source/PSoC5/CyLib.c **** *   ticks: One of the four available timer periods.
1741:./Generated_Source/PSoC5/CyLib.c **** *         CYWDT_2_TICKS     -    2 CTW Ticks
1742:./Generated_Source/PSoC5/CyLib.c **** *         CYWDT_16_TICKS    -   16 CTW Ticks
1743:./Generated_Source/PSoC5/CyLib.c **** *         CYWDT_128_TICKS   -  128 CTW Ticks
1744:./Generated_Source/PSoC5/CyLib.c **** *         CYWDT_1024_TICKS  - 1024 CTW Ticks
1745:./Generated_Source/PSoC5/CyLib.c **** *   lpMode: Low power mode configuration
1746:./Generated_Source/PSoC5/CyLib.c **** *         CYWDT_LPMODE_NOCHANGE - No Change
1747:./Generated_Source/PSoC5/CyLib.c **** *         CYWDT_LPMODE_MAXINTER - Switch to longest timer mode during sleep/hibernate
1748:./Generated_Source/PSoC5/CyLib.c **** *         CYWDT_LPMODE_DISABLED - Disable WDT during sleep/hibernate
1749:./Generated_Source/PSoC5/CyLib.c **** * 
1750:./Generated_Source/PSoC5/CyLib.c **** * Return: 
1751:./Generated_Source/PSoC5/CyLib.c **** *  None.
1752:./Generated_Source/PSoC5/CyLib.c **** *
1753:./Generated_Source/PSoC5/CyLib.c **** *******************************************************************************/
1754:./Generated_Source/PSoC5/CyLib.c **** void CyWdtStart(uint8 ticks, uint8 lpMode)
1755:./Generated_Source/PSoC5/CyLib.c **** {
 2777              		.loc 1 1755 0
 2778              		.cfi_startproc
 2779              		@ args = 0, pretend = 0, frame = 8
 2780              		@ frame_needed = 1, uses_anonymous_args = 0
 2781              		@ link register save eliminated.
 2782 0000 80B4     		push	{r7}
 2783              	.LCFI108:
 2784              		.cfi_def_cfa_offset 4
 2785 0002 83B0     		sub	sp, sp, #12
 2786              	.LCFI109:
 2787              		.cfi_def_cfa_offset 16
 2788 0004 00AF     		add	r7, sp, #0
 2789              		.cfi_offset 7, -4
 2790              	.LCFI110:
 2791              		.cfi_def_cfa_register 7
 2792 0006 0246     		mov	r2, r0
 2793 0008 0B46     		mov	r3, r1
 2794 000a FA71     		strb	r2, [r7, #7]
 2795 000c BB71     		strb	r3, [r7, #6]
1756:./Generated_Source/PSoC5/CyLib.c ****     /* Set the number of ticks. */
1757:./Generated_Source/PSoC5/CyLib.c ****     *CYWDT_CFG = (ticks & CYWDT_TICKS_MASK) | (*CYWDT_CFG & ~CYWDT_TICKS_MASK);
 2796              		.loc 1 1757 0
 2797 000e 44F28333 		movw	r3, #:lower16:1073759107
 2798 0012 C4F20003 		movt	r3, #:upper16:1073759107
 2799 0016 FA79     		ldrb	r2, [r7, #7]	@ zero_extendqisi2
ARM GAS  C:\Users\CHARLI~1\AppData\Local\Temp\cc78mmP1.s 			page 81


 2800 0018 D1B2     		uxtb	r1, r2
 2801 001a 01F00301 		and	r1, r1, #3
 2802 001e 44F28332 		movw	r2, #:lower16:1073759107
 2803 0022 C4F20002 		movt	r2, #:upper16:1073759107
 2804 0026 1278     		ldrb	r2, [r2, #0]
 2805 0028 D2B2     		uxtb	r2, r2
 2806 002a D2B2     		uxtb	r2, r2
 2807 002c 02F0FC02 		and	r2, r2, #252
 2808 0030 41EA0202 		orr	r2, r1, r2
 2809 0034 D2B2     		uxtb	r2, r2
 2810 0036 D2B2     		uxtb	r2, r2
 2811 0038 1A70     		strb	r2, [r3, #0]
1758:./Generated_Source/PSoC5/CyLib.c ****     
1759:./Generated_Source/PSoC5/CyLib.c ****     /*Clear the central time wheel.*/
1760:./Generated_Source/PSoC5/CyLib.c ****     *CYWDT_CFG = CYWDT_RESET | *CYWDT_CFG;
 2812              		.loc 1 1760 0
 2813 003a 44F28333 		movw	r3, #:lower16:1073759107
 2814 003e C4F20003 		movt	r3, #:upper16:1073759107
 2815 0042 44F28332 		movw	r2, #:lower16:1073759107
 2816 0046 C4F20002 		movt	r2, #:upper16:1073759107
 2817 004a 1278     		ldrb	r2, [r2, #0]
 2818 004c D2B2     		uxtb	r2, r2
 2819 004e 6FEA4262 		mvn	r2, r2, lsl #25
 2820 0052 6FEA5262 		mvn	r2, r2, lsr #25
 2821 0056 D2B2     		uxtb	r2, r2
 2822 0058 1A70     		strb	r2, [r3, #0]
1761:./Generated_Source/PSoC5/CyLib.c ****     *CYWDT_CFG = ~CYWDT_RESET & *CYWDT_CFG;
 2823              		.loc 1 1761 0
 2824 005a 44F28333 		movw	r3, #:lower16:1073759107
 2825 005e C4F20003 		movt	r3, #:upper16:1073759107
 2826 0062 44F28332 		movw	r2, #:lower16:1073759107
 2827 0066 C4F20002 		movt	r2, #:upper16:1073759107
 2828 006a 1278     		ldrb	r2, [r2, #0]
 2829 006c D2B2     		uxtb	r2, r2
 2830 006e 02F07F02 		and	r2, r2, #127
 2831 0072 1A70     		strb	r2, [r3, #0]
1762:./Generated_Source/PSoC5/CyLib.c ****     
1763:./Generated_Source/PSoC5/CyLib.c ****     /*Setting the low power mode*/
1764:./Generated_Source/PSoC5/CyLib.c ****     *CYWDT_CFG = ((lpMode << CYWDT_LPMODE_SHIFT) & CYWDT_LPMODE_MASK) | (*CYWDT_CFG & ~CYWDT_LPMODE
 2832              		.loc 1 1764 0
 2833 0074 44F28333 		movw	r3, #:lower16:1073759107
 2834 0078 C4F20003 		movt	r3, #:upper16:1073759107
 2835 007c BA79     		ldrb	r2, [r7, #6]	@ zero_extendqisi2
 2836 007e 4FEA4212 		lsl	r2, r2, #5
 2837 0082 D2B2     		uxtb	r2, r2
 2838 0084 D1B2     		uxtb	r1, r2
 2839 0086 01F06001 		and	r1, r1, #96
 2840 008a 44F28332 		movw	r2, #:lower16:1073759107
 2841 008e C4F20002 		movt	r2, #:upper16:1073759107
 2842 0092 1278     		ldrb	r2, [r2, #0]
 2843 0094 D2B2     		uxtb	r2, r2
 2844 0096 D2B2     		uxtb	r2, r2
 2845 0098 02F09F02 		and	r2, r2, #159
 2846 009c 41EA0202 		orr	r2, r1, r2
 2847 00a0 D2B2     		uxtb	r2, r2
 2848 00a2 D2B2     		uxtb	r2, r2
 2849 00a4 1A70     		strb	r2, [r3, #0]
ARM GAS  C:\Users\CHARLI~1\AppData\Local\Temp\cc78mmP1.s 			page 82


1765:./Generated_Source/PSoC5/CyLib.c ****     
1766:./Generated_Source/PSoC5/CyLib.c ****     /* Enables the watchdog timer.*/
1767:./Generated_Source/PSoC5/CyLib.c ****     *CYWDT_CFG = CYWDT_ENABLE_BIT | *CYWDT_CFG;
 2850              		.loc 1 1767 0
 2851 00a6 44F28333 		movw	r3, #:lower16:1073759107
 2852 00aa C4F20003 		movt	r3, #:upper16:1073759107
 2853 00ae 44F28332 		movw	r2, #:lower16:1073759107
 2854 00b2 C4F20002 		movt	r2, #:upper16:1073759107
 2855 00b6 1278     		ldrb	r2, [r2, #0]
 2856 00b8 D2B2     		uxtb	r2, r2
 2857 00ba 42F01002 		orr	r2, r2, #16
 2858 00be D2B2     		uxtb	r2, r2
 2859 00c0 1A70     		strb	r2, [r3, #0]
1768:./Generated_Source/PSoC5/CyLib.c **** }
 2860              		.loc 1 1768 0
 2861 00c2 07F10C07 		add	r7, r7, #12
 2862 00c6 BD46     		mov	sp, r7
 2863 00c8 80BC     		pop	{r7}
 2864 00ca 7047     		bx	lr
 2865              		.cfi_endproc
 2866              	.LFE42:
 2867              		.size	CyWdtStart, .-CyWdtStart
 2868              		.section	.text.CyWdtClear,"ax",%progbits
 2869              		.align	2
 2870              		.global	CyWdtClear
 2871              		.thumb
 2872              		.thumb_func
 2873              		.type	CyWdtClear, %function
 2874              	CyWdtClear:
 2875              	.LFB43:
1769:./Generated_Source/PSoC5/CyLib.c **** 
1770:./Generated_Source/PSoC5/CyLib.c **** /*******************************************************************************
1771:./Generated_Source/PSoC5/CyLib.c **** * Function Name: CyWdtClear
1772:./Generated_Source/PSoC5/CyLib.c **** ********************************************************************************
1773:./Generated_Source/PSoC5/CyLib.c **** * Summary:
1774:./Generated_Source/PSoC5/CyLib.c **** *  Clears (feeds) the watchdog timer.
1775:./Generated_Source/PSoC5/CyLib.c **** *
1776:./Generated_Source/PSoC5/CyLib.c **** *
1777:./Generated_Source/PSoC5/CyLib.c **** * Parameters: 
1778:./Generated_Source/PSoC5/CyLib.c **** *  None.
1779:./Generated_Source/PSoC5/CyLib.c **** *
1780:./Generated_Source/PSoC5/CyLib.c **** *
1781:./Generated_Source/PSoC5/CyLib.c **** * Return: 
1782:./Generated_Source/PSoC5/CyLib.c **** *  None.
1783:./Generated_Source/PSoC5/CyLib.c **** *
1784:./Generated_Source/PSoC5/CyLib.c **** *******************************************************************************/
1785:./Generated_Source/PSoC5/CyLib.c **** void CyWdtClear(void)
1786:./Generated_Source/PSoC5/CyLib.c **** {
 2876              		.loc 1 1786 0
 2877              		.cfi_startproc
 2878              		@ args = 0, pretend = 0, frame = 8
 2879              		@ frame_needed = 1, uses_anonymous_args = 0
 2880              		@ link register save eliminated.
 2881 0000 80B4     		push	{r7}
 2882              	.LCFI111:
 2883              		.cfi_def_cfa_offset 4
 2884 0002 83B0     		sub	sp, sp, #12
ARM GAS  C:\Users\CHARLI~1\AppData\Local\Temp\cc78mmP1.s 			page 83


 2885              	.LCFI112:
 2886              		.cfi_def_cfa_offset 16
 2887 0004 00AF     		add	r7, sp, #0
 2888              		.cfi_offset 7, -4
 2889              	.LCFI113:
 2890              		.cfi_def_cfa_register 7
1787:./Generated_Source/PSoC5/CyLib.c ****     /* Clears the Watchdog timer. */
1788:./Generated_Source/PSoC5/CyLib.c **** #if (((CYDEV_CHIP_MEMBER_USED == CYDEV_CHIP_MEMBER_3A) && (CYDEV_CHIP_REVISION_USED == CYDEV_CHIP_R
1789:./Generated_Source/PSoC5/CyLib.c ****      ((CYDEV_CHIP_MEMBER_USED == CYDEV_CHIP_MEMBER_5A) && (CYDEV_CHIP_REVISION_USED == CYDEV_CHIP_R
1790:./Generated_Source/PSoC5/CyLib.c ****     /* PSoC3 ES2 and PSoC5 ES1 watchdog time clear requires workaround */
1791:./Generated_Source/PSoC5/CyLib.c ****     uint8 wdt_cfg_value = *CYWDT_CFG; 
 2891              		.loc 1 1791 0
 2892 0006 44F28333 		movw	r3, #:lower16:1073759107
 2893 000a C4F20003 		movt	r3, #:upper16:1073759107
 2894 000e 1B78     		ldrb	r3, [r3, #0]
 2895 0010 FB71     		strb	r3, [r7, #7]
1792:./Generated_Source/PSoC5/CyLib.c ****     *CYWDT_CR = 1; 
 2896              		.loc 1 1792 0
 2897 0012 44F28433 		movw	r3, #:lower16:1073759108
 2898 0016 C4F20003 		movt	r3, #:upper16:1073759108
 2899 001a 4FF00102 		mov	r2, #1
 2900 001e 1A70     		strb	r2, [r3, #0]
1793:./Generated_Source/PSoC5/CyLib.c ****     *CYWDT_CFG = 0; 
 2901              		.loc 1 1793 0
 2902 0020 44F28333 		movw	r3, #:lower16:1073759107
 2903 0024 C4F20003 		movt	r3, #:upper16:1073759107
 2904 0028 4FF00002 		mov	r2, #0
 2905 002c 1A70     		strb	r2, [r3, #0]
1794:./Generated_Source/PSoC5/CyLib.c ****     *CYWDT_CFG = wdt_cfg_value;
 2906              		.loc 1 1794 0
 2907 002e 44F28333 		movw	r3, #:lower16:1073759107
 2908 0032 C4F20003 		movt	r3, #:upper16:1073759107
 2909 0036 FA79     		ldrb	r2, [r7, #7]
 2910 0038 1A70     		strb	r2, [r3, #0]
1795:./Generated_Source/PSoC5/CyLib.c **** #else
1796:./Generated_Source/PSoC5/CyLib.c ****     *CYWDT_CR = 1;
1797:./Generated_Source/PSoC5/CyLib.c **** #endif 
1798:./Generated_Source/PSoC5/CyLib.c **** }
 2911              		.loc 1 1798 0
 2912 003a 07F10C07 		add	r7, r7, #12
 2913 003e BD46     		mov	sp, r7
 2914 0040 80BC     		pop	{r7}
 2915 0042 7047     		bx	lr
 2916              		.cfi_endproc
 2917              	.LFE43:
 2918              		.size	CyWdtClear, .-CyWdtClear
 2919              		.section	.text.CyDisableInts,"ax",%progbits
 2920              		.align	2
 2921              		.global	CyDisableInts
 2922              		.thumb
 2923              		.thumb_func
 2924              		.type	CyDisableInts, %function
 2925              	CyDisableInts:
 2926              	.LFB44:
1799:./Generated_Source/PSoC5/CyLib.c **** 
1800:./Generated_Source/PSoC5/CyLib.c **** /*******************************************************************************
1801:./Generated_Source/PSoC5/CyLib.c **** * Function Name: CyDisableInts
ARM GAS  C:\Users\CHARLI~1\AppData\Local\Temp\cc78mmP1.s 			page 84


1802:./Generated_Source/PSoC5/CyLib.c **** ********************************************************************************
1803:./Generated_Source/PSoC5/CyLib.c **** * Summary:
1804:./Generated_Source/PSoC5/CyLib.c **** *  Disables the interrupt enable for each interrupt.
1805:./Generated_Source/PSoC5/CyLib.c **** *
1806:./Generated_Source/PSoC5/CyLib.c **** *
1807:./Generated_Source/PSoC5/CyLib.c **** * Parameters: 
1808:./Generated_Source/PSoC5/CyLib.c **** *  None.
1809:./Generated_Source/PSoC5/CyLib.c **** *
1810:./Generated_Source/PSoC5/CyLib.c **** *
1811:./Generated_Source/PSoC5/CyLib.c **** * Return: 
1812:./Generated_Source/PSoC5/CyLib.c **** *  32 bit mask of previously enabled interrupts.
1813:./Generated_Source/PSoC5/CyLib.c **** *
1814:./Generated_Source/PSoC5/CyLib.c **** *******************************************************************************/
1815:./Generated_Source/PSoC5/CyLib.c **** uint32 CyDisableInts(void) 
1816:./Generated_Source/PSoC5/CyLib.c **** {
 2927              		.loc 1 1816 0
 2928              		.cfi_startproc
 2929              		@ args = 0, pretend = 0, frame = 8
 2930              		@ frame_needed = 1, uses_anonymous_args = 0
 2931              		@ link register save eliminated.
 2932 0000 80B4     		push	{r7}
 2933              	.LCFI114:
 2934              		.cfi_def_cfa_offset 4
 2935 0002 83B0     		sub	sp, sp, #12
 2936              	.LCFI115:
 2937              		.cfi_def_cfa_offset 16
 2938 0004 00AF     		add	r7, sp, #0
 2939              		.cfi_offset 7, -4
 2940              	.LCFI116:
 2941              		.cfi_def_cfa_register 7
1817:./Generated_Source/PSoC5/CyLib.c ****     uint32 intState;
1818:./Generated_Source/PSoC5/CyLib.c **** 
1819:./Generated_Source/PSoC5/CyLib.c **** 
1820:./Generated_Source/PSoC5/CyLib.c ****     /* Get the curreent interrutp state. */
1821:./Generated_Source/PSoC5/CyLib.c ****     intState = CY_GET_REG32(CYINT_CLEAR);
 2942              		.loc 1 1821 0
 2943 0006 4EF28013 		movw	r3, #:lower16:-536813184
 2944 000a CEF20003 		movt	r3, #:upper16:-536813184
 2945 000e 1B68     		ldr	r3, [r3, #0]
 2946 0010 7B60     		str	r3, [r7, #4]
1822:./Generated_Source/PSoC5/CyLib.c **** 
1823:./Generated_Source/PSoC5/CyLib.c ****     /* Disable all of the interrupts. */
1824:./Generated_Source/PSoC5/CyLib.c ****     CY_SET_REG32(CYINT_CLEAR, 0xFFFFFFFF);
 2947              		.loc 1 1824 0
 2948 0012 4EF28013 		movw	r3, #:lower16:-536813184
 2949 0016 CEF20003 		movt	r3, #:upper16:-536813184
 2950 001a 4FF0FF32 		mov	r2, #-1
 2951 001e 1A60     		str	r2, [r3, #0]
1825:./Generated_Source/PSoC5/CyLib.c **** 
1826:./Generated_Source/PSoC5/CyLib.c ****     return intState;
 2952              		.loc 1 1826 0
 2953 0020 7B68     		ldr	r3, [r7, #4]
1827:./Generated_Source/PSoC5/CyLib.c **** }
 2954              		.loc 1 1827 0
 2955 0022 1846     		mov	r0, r3
 2956 0024 07F10C07 		add	r7, r7, #12
 2957 0028 BD46     		mov	sp, r7
ARM GAS  C:\Users\CHARLI~1\AppData\Local\Temp\cc78mmP1.s 			page 85


 2958 002a 80BC     		pop	{r7}
 2959 002c 7047     		bx	lr
 2960              		.cfi_endproc
 2961              	.LFE44:
 2962              		.size	CyDisableInts, .-CyDisableInts
 2963 002e 00BF     		.section	.text.CyEnableInts,"ax",%progbits
 2964              		.align	2
 2965              		.global	CyEnableInts
 2966              		.thumb
 2967              		.thumb_func
 2968              		.type	CyEnableInts, %function
 2969              	CyEnableInts:
 2970              	.LFB45:
1828:./Generated_Source/PSoC5/CyLib.c **** 
1829:./Generated_Source/PSoC5/CyLib.c **** /*******************************************************************************
1830:./Generated_Source/PSoC5/CyLib.c **** * Function Name: CyEnableInts
1831:./Generated_Source/PSoC5/CyLib.c **** ********************************************************************************
1832:./Generated_Source/PSoC5/CyLib.c **** * Summary:
1833:./Generated_Source/PSoC5/CyLib.c **** *  Enables interrupts to a given state.
1834:./Generated_Source/PSoC5/CyLib.c **** *
1835:./Generated_Source/PSoC5/CyLib.c **** *
1836:./Generated_Source/PSoC5/CyLib.c **** * Parameters:
1837:./Generated_Source/PSoC5/CyLib.c **** *   mask, 32 bit mask of interrupts to enable.
1838:./Generated_Source/PSoC5/CyLib.c **** *
1839:./Generated_Source/PSoC5/CyLib.c **** *
1840:./Generated_Source/PSoC5/CyLib.c **** * Return: 
1841:./Generated_Source/PSoC5/CyLib.c **** *  void.
1842:./Generated_Source/PSoC5/CyLib.c **** *
1843:./Generated_Source/PSoC5/CyLib.c **** *******************************************************************************/
1844:./Generated_Source/PSoC5/CyLib.c **** void CyEnableInts(uint32 mask) 
1845:./Generated_Source/PSoC5/CyLib.c **** {
 2971              		.loc 1 1845 0
 2972              		.cfi_startproc
 2973              		@ args = 0, pretend = 0, frame = 8
 2974              		@ frame_needed = 1, uses_anonymous_args = 0
 2975              		@ link register save eliminated.
 2976 0000 80B4     		push	{r7}
 2977              	.LCFI117:
 2978              		.cfi_def_cfa_offset 4
 2979 0002 83B0     		sub	sp, sp, #12
 2980              	.LCFI118:
 2981              		.cfi_def_cfa_offset 16
 2982 0004 00AF     		add	r7, sp, #0
 2983              		.cfi_offset 7, -4
 2984              	.LCFI119:
 2985              		.cfi_def_cfa_register 7
 2986 0006 7860     		str	r0, [r7, #4]
1846:./Generated_Source/PSoC5/CyLib.c ****     /* Set interrupts as enabled. */
1847:./Generated_Source/PSoC5/CyLib.c ****     CY_SET_REG32(CYINT_ENABLE, mask);
 2987              		.loc 1 1847 0
 2988 0008 4EF20013 		movw	r3, #:lower16:-536813312
 2989 000c CEF20003 		movt	r3, #:upper16:-536813312
 2990 0010 7A68     		ldr	r2, [r7, #4]
 2991 0012 1A60     		str	r2, [r3, #0]
1848:./Generated_Source/PSoC5/CyLib.c **** }
 2992              		.loc 1 1848 0
 2993 0014 07F10C07 		add	r7, r7, #12
ARM GAS  C:\Users\CHARLI~1\AppData\Local\Temp\cc78mmP1.s 			page 86


 2994 0018 BD46     		mov	sp, r7
 2995 001a 80BC     		pop	{r7}
 2996 001c 7047     		bx	lr
 2997              		.cfi_endproc
 2998              	.LFE45:
 2999              		.size	CyEnableInts, .-CyEnableInts
 3000 001e 00BF     		.section	.text.CyFlushCache,"ax",%progbits
 3001              		.align	2
 3002              		.global	CyFlushCache
 3003              		.thumb
 3004              		.thumb_func
 3005              		.type	CyFlushCache, %function
 3006              	CyFlushCache:
 3007              	.LFB46:
1849:./Generated_Source/PSoC5/CyLib.c **** 
1850:./Generated_Source/PSoC5/CyLib.c **** 
1851:./Generated_Source/PSoC5/CyLib.c **** /*******************************************************************************
1852:./Generated_Source/PSoC5/CyLib.c **** * Function Name: CyFlushCache
1853:./Generated_Source/PSoC5/CyLib.c **** ********************************************************************************
1854:./Generated_Source/PSoC5/CyLib.c **** * Summary:
1855:./Generated_Source/PSoC5/CyLib.c **** *  Flushes the PSoC 5 cache by invalidating all entries.
1856:./Generated_Source/PSoC5/CyLib.c **** *
1857:./Generated_Source/PSoC5/CyLib.c **** *
1858:./Generated_Source/PSoC5/CyLib.c **** * Parameters:
1859:./Generated_Source/PSoC5/CyLib.c **** *  none
1860:./Generated_Source/PSoC5/CyLib.c **** *
1861:./Generated_Source/PSoC5/CyLib.c **** *
1862:./Generated_Source/PSoC5/CyLib.c **** * Return: Void.
1863:./Generated_Source/PSoC5/CyLib.c **** *
1864:./Generated_Source/PSoC5/CyLib.c **** *
1865:./Generated_Source/PSoC5/CyLib.c **** *******************************************************************************/
1866:./Generated_Source/PSoC5/CyLib.c **** void CyFlushCache() CYREENTRANT
1867:./Generated_Source/PSoC5/CyLib.c **** {
 3008              		.loc 1 1867 0
 3009              		.cfi_startproc
 3010              		@ args = 0, pretend = 0, frame = 8
 3011              		@ frame_needed = 1, uses_anonymous_args = 0
 3012              		@ link register save eliminated.
 3013 0000 80B4     		push	{r7}
 3014              	.LCFI120:
 3015              		.cfi_def_cfa_offset 4
 3016 0002 83B0     		sub	sp, sp, #12
 3017              	.LCFI121:
 3018              		.cfi_def_cfa_offset 16
 3019 0004 00AF     		add	r7, sp, #0
 3020              		.cfi_offset 7, -4
 3021              	.LCFI122:
 3022              		.cfi_def_cfa_register 7
1868:./Generated_Source/PSoC5/CyLib.c ****       /* read the register, set the flush bit, write back */
1869:./Generated_Source/PSoC5/CyLib.c ****     uint16 ctrlreg = *CACHE_CC_CTL;
 3023              		.loc 1 1869 0
 3024 0006 44F60003 		movw	r3, #:lower16:1073760256
 3025 000a C4F20003 		movt	r3, #:upper16:1073760256
 3026 000e 1B88     		ldrh	r3, [r3, #0]	@ movhi
 3027 0010 FB80     		strh	r3, [r7, #6]	@ movhi
1870:./Generated_Source/PSoC5/CyLib.c ****     ctrlreg |= 0x4; /* set bit 2 */
 3028              		.loc 1 1870 0
ARM GAS  C:\Users\CHARLI~1\AppData\Local\Temp\cc78mmP1.s 			page 87


 3029 0012 FB88     		ldrh	r3, [r7, #6]	@ movhi
 3030 0014 43F00403 		orr	r3, r3, #4
 3031 0018 FB80     		strh	r3, [r7, #6]	@ movhi
1871:./Generated_Source/PSoC5/CyLib.c ****     *CACHE_CC_CTL = ctrlreg;
 3032              		.loc 1 1871 0
 3033 001a 44F60003 		movw	r3, #:lower16:1073760256
 3034 001e C4F20003 		movt	r3, #:upper16:1073760256
 3035 0022 FA88     		ldrh	r2, [r7, #6]	@ movhi
 3036 0024 1A80     		strh	r2, [r3, #0]	@ movhi
1872:./Generated_Source/PSoC5/CyLib.c ****     /* cache is invalidated on next cycle */
1873:./Generated_Source/PSoC5/CyLib.c **** 
1874:./Generated_Source/PSoC5/CyLib.c ****       /* Execute a few NOPs to fill the ARM CM3 pipeline with instructions
1875:./Generated_Source/PSoC5/CyLib.c ****        so that instructions about to execute won't depend on data in the cache,
1876:./Generated_Source/PSoC5/CyLib.c ****        and will maintain data integrity. */
1877:./Generated_Source/PSoC5/CyLib.c ****     CY_NOP;
 3037              		.loc 1 1877 0
 3038              	@ 1877 "./Generated_Source/PSoC5/CyLib.c" 1
 3039 0026 00BF     		NOP
 3040              	
 3041              	@ 0 "" 2
1878:./Generated_Source/PSoC5/CyLib.c ****     CY_NOP;
 3042              		.loc 1 1878 0
 3043              	@ 1878 "./Generated_Source/PSoC5/CyLib.c" 1
 3044 0028 00BF     		NOP
 3045              	
 3046              	@ 0 "" 2
1879:./Generated_Source/PSoC5/CyLib.c ****     CY_NOP;
 3047              		.loc 1 1879 0
 3048              	@ 1879 "./Generated_Source/PSoC5/CyLib.c" 1
 3049 002a 00BF     		NOP
 3050              	
 3051              	@ 0 "" 2
1880:./Generated_Source/PSoC5/CyLib.c ****     CY_NOP;
 3052              		.loc 1 1880 0
 3053              	@ 1880 "./Generated_Source/PSoC5/CyLib.c" 1
 3054 002c 00BF     		NOP
 3055              	
 3056              	@ 0 "" 2
1881:./Generated_Source/PSoC5/CyLib.c **** }
 3057              		.loc 1 1881 0
 3058              		.thumb
 3059 002e 07F10C07 		add	r7, r7, #12
 3060 0032 BD46     		mov	sp, r7
 3061 0034 80BC     		pop	{r7}
 3062 0036 7047     		bx	lr
 3063              		.cfi_endproc
 3064              	.LFE46:
 3065              		.size	CyFlushCache, .-CyFlushCache
 3066              		.section	.text.CyIntSetSysVector,"ax",%progbits
 3067              		.align	2
 3068              		.global	CyIntSetSysVector
 3069              		.thumb
 3070              		.thumb_func
 3071              		.type	CyIntSetSysVector, %function
 3072              	CyIntSetSysVector:
 3073              	.LFB47:
1882:./Generated_Source/PSoC5/CyLib.c **** 
ARM GAS  C:\Users\CHARLI~1\AppData\Local\Temp\cc78mmP1.s 			page 88


1883:./Generated_Source/PSoC5/CyLib.c **** /*******************************************************************************
1884:./Generated_Source/PSoC5/CyLib.c **** * Function Name: CyIntSetSysVector
1885:./Generated_Source/PSoC5/CyLib.c **** ********************************************************************************
1886:./Generated_Source/PSoC5/CyLib.c **** * Summary:
1887:./Generated_Source/PSoC5/CyLib.c **** *   Sets the interrupt vector of the specified system interrupt number.  
1888:./Generated_Source/PSoC5/CyLib.c **** *   System interrupts are present only for the ARM platform.  
1889:./Generated_Source/PSoC5/CyLib.c **** *   These interrupts are for SysTick, PendSV and others.
1890:./Generated_Source/PSoC5/CyLib.c **** *
1891:./Generated_Source/PSoC5/CyLib.c **** * Parameters:
1892:./Generated_Source/PSoC5/CyLib.c **** *   number: Interrupt number, valid range [0-15].
1893:./Generated_Source/PSoC5/CyLib.c **** *
1894:./Generated_Source/PSoC5/CyLib.c **** *   address: Pointer to an interrupt service routine.
1895:./Generated_Source/PSoC5/CyLib.c **** *
1896:./Generated_Source/PSoC5/CyLib.c **** * Return:
1897:./Generated_Source/PSoC5/CyLib.c **** *   The old ISR vector at this location.
1898:./Generated_Source/PSoC5/CyLib.c **** *
1899:./Generated_Source/PSoC5/CyLib.c **** *******************************************************************************/
1900:./Generated_Source/PSoC5/CyLib.c **** cyisraddress CyIntSetSysVector(uint8 number, cyisraddress address) CYREENTRANT
1901:./Generated_Source/PSoC5/CyLib.c **** {
 3074              		.loc 1 1901 0
 3075              		.cfi_startproc
 3076              		@ args = 0, pretend = 0, frame = 16
 3077              		@ frame_needed = 1, uses_anonymous_args = 0
 3078              		@ link register save eliminated.
 3079 0000 80B4     		push	{r7}
 3080              	.LCFI123:
 3081              		.cfi_def_cfa_offset 4
 3082 0002 85B0     		sub	sp, sp, #20
 3083              	.LCFI124:
 3084              		.cfi_def_cfa_offset 24
 3085 0004 00AF     		add	r7, sp, #0
 3086              		.cfi_offset 7, -4
 3087              	.LCFI125:
 3088              		.cfi_def_cfa_register 7
 3089 0006 0346     		mov	r3, r0
 3090 0008 3960     		str	r1, [r7, #0]
 3091 000a FB71     		strb	r3, [r7, #7]
1902:./Generated_Source/PSoC5/CyLib.c ****     cyisraddress oldIsr;
1903:./Generated_Source/PSoC5/CyLib.c ****     cyisraddress *ramVectorTable = *CYINT_VECT_TABLE;
 3092              		.loc 1 1903 0
 3093 000c 4EF60853 		movw	r3, #:lower16:-536810232
 3094 0010 CEF20003 		movt	r3, #:upper16:-536810232
 3095 0014 1B68     		ldr	r3, [r3, #0]
 3096 0016 FB60     		str	r3, [r7, #12]
1904:./Generated_Source/PSoC5/CyLib.c **** 
1905:./Generated_Source/PSoC5/CyLib.c ****     /* Save old Interrupt service routine. */
1906:./Generated_Source/PSoC5/CyLib.c ****     oldIsr = ramVectorTable[number];
 3097              		.loc 1 1906 0
 3098 0018 FB79     		ldrb	r3, [r7, #7]	@ zero_extendqisi2
 3099 001a 4FEA8302 		lsl	r2, r3, #2
 3100 001e FB68     		ldr	r3, [r7, #12]
 3101 0020 1344     		add	r3, r2, r3
 3102 0022 1B68     		ldr	r3, [r3, #0]
 3103 0024 BB60     		str	r3, [r7, #8]
1907:./Generated_Source/PSoC5/CyLib.c **** 
1908:./Generated_Source/PSoC5/CyLib.c ****     /* Set new Interrupt service routine. */
1909:./Generated_Source/PSoC5/CyLib.c ****     ramVectorTable[number] = address;
ARM GAS  C:\Users\CHARLI~1\AppData\Local\Temp\cc78mmP1.s 			page 89


 3104              		.loc 1 1909 0
 3105 0026 FB79     		ldrb	r3, [r7, #7]	@ zero_extendqisi2
 3106 0028 4FEA8302 		lsl	r2, r3, #2
 3107 002c FB68     		ldr	r3, [r7, #12]
 3108 002e 1344     		add	r3, r2, r3
 3109 0030 3A68     		ldr	r2, [r7, #0]
 3110 0032 1A60     		str	r2, [r3, #0]
1910:./Generated_Source/PSoC5/CyLib.c **** 
1911:./Generated_Source/PSoC5/CyLib.c ****     return oldIsr;
 3111              		.loc 1 1911 0
 3112 0034 BB68     		ldr	r3, [r7, #8]
1912:./Generated_Source/PSoC5/CyLib.c **** }
 3113              		.loc 1 1912 0
 3114 0036 1846     		mov	r0, r3
 3115 0038 07F11407 		add	r7, r7, #20
 3116 003c BD46     		mov	sp, r7
 3117 003e 80BC     		pop	{r7}
 3118 0040 7047     		bx	lr
 3119              		.cfi_endproc
 3120              	.LFE47:
 3121              		.size	CyIntSetSysVector, .-CyIntSetSysVector
 3122 0042 00BF     		.section	.text.CyIntGetSysVector,"ax",%progbits
 3123              		.align	2
 3124              		.global	CyIntGetSysVector
 3125              		.thumb
 3126              		.thumb_func
 3127              		.type	CyIntGetSysVector, %function
 3128              	CyIntGetSysVector:
 3129              	.LFB48:
1913:./Generated_Source/PSoC5/CyLib.c **** 
1914:./Generated_Source/PSoC5/CyLib.c **** /*******************************************************************************
1915:./Generated_Source/PSoC5/CyLib.c **** * Function Name: CyIntGetSysVector
1916:./Generated_Source/PSoC5/CyLib.c **** ********************************************************************************
1917:./Generated_Source/PSoC5/CyLib.c **** * Summary:
1918:./Generated_Source/PSoC5/CyLib.c **** *   Gets the interrupt vector of the specified system interrupt number.  
1919:./Generated_Source/PSoC5/CyLib.c **** *   System interrupts are present only for the ARM platform.  
1920:./Generated_Source/PSoC5/CyLib.c **** *   These interrupts are for SysTick, PendSV and others.
1921:./Generated_Source/PSoC5/CyLib.c **** *
1922:./Generated_Source/PSoC5/CyLib.c **** *
1923:./Generated_Source/PSoC5/CyLib.c **** * Parameters:
1924:./Generated_Source/PSoC5/CyLib.c **** *   number: The interrupt number, valid range [0-15].
1925:./Generated_Source/PSoC5/CyLib.c **** *
1926:./Generated_Source/PSoC5/CyLib.c **** *
1927:./Generated_Source/PSoC5/CyLib.c **** * Return:
1928:./Generated_Source/PSoC5/CyLib.c **** *   Address of the ISR in the interrupt vector table.
1929:./Generated_Source/PSoC5/CyLib.c **** *
1930:./Generated_Source/PSoC5/CyLib.c **** *******************************************************************************/
1931:./Generated_Source/PSoC5/CyLib.c **** cyisraddress CyIntGetSysVector(uint8 number) CYREENTRANT
1932:./Generated_Source/PSoC5/CyLib.c **** {
 3130              		.loc 1 1932 0
 3131              		.cfi_startproc
 3132              		@ args = 0, pretend = 0, frame = 16
 3133              		@ frame_needed = 1, uses_anonymous_args = 0
 3134              		@ link register save eliminated.
 3135 0000 80B4     		push	{r7}
 3136              	.LCFI126:
 3137              		.cfi_def_cfa_offset 4
ARM GAS  C:\Users\CHARLI~1\AppData\Local\Temp\cc78mmP1.s 			page 90


 3138 0002 85B0     		sub	sp, sp, #20
 3139              	.LCFI127:
 3140              		.cfi_def_cfa_offset 24
 3141 0004 00AF     		add	r7, sp, #0
 3142              		.cfi_offset 7, -4
 3143              	.LCFI128:
 3144              		.cfi_def_cfa_register 7
 3145 0006 0346     		mov	r3, r0
 3146 0008 FB71     		strb	r3, [r7, #7]
1933:./Generated_Source/PSoC5/CyLib.c ****     cyisraddress *ramVectorTable = *CYINT_VECT_TABLE;
 3147              		.loc 1 1933 0
 3148 000a 4EF60853 		movw	r3, #:lower16:-536810232
 3149 000e CEF20003 		movt	r3, #:upper16:-536810232
 3150 0012 1B68     		ldr	r3, [r3, #0]
 3151 0014 FB60     		str	r3, [r7, #12]
1934:./Generated_Source/PSoC5/CyLib.c **** 
1935:./Generated_Source/PSoC5/CyLib.c ****     return ramVectorTable[number];
 3152              		.loc 1 1935 0
 3153 0016 FB79     		ldrb	r3, [r7, #7]	@ zero_extendqisi2
 3154 0018 4FEA8302 		lsl	r2, r3, #2
 3155 001c FB68     		ldr	r3, [r7, #12]
 3156 001e 1344     		add	r3, r2, r3
 3157 0020 1B68     		ldr	r3, [r3, #0]
1936:./Generated_Source/PSoC5/CyLib.c **** }
 3158              		.loc 1 1936 0
 3159 0022 1846     		mov	r0, r3
 3160 0024 07F11407 		add	r7, r7, #20
 3161 0028 BD46     		mov	sp, r7
 3162 002a 80BC     		pop	{r7}
 3163 002c 7047     		bx	lr
 3164              		.cfi_endproc
 3165              	.LFE48:
 3166              		.size	CyIntGetSysVector, .-CyIntGetSysVector
 3167 002e 00BF     		.section	.text.CyIntSetVector,"ax",%progbits
 3168              		.align	2
 3169              		.global	CyIntSetVector
 3170              		.thumb
 3171              		.thumb_func
 3172              		.type	CyIntSetVector, %function
 3173              	CyIntSetVector:
 3174              	.LFB49:
1937:./Generated_Source/PSoC5/CyLib.c **** 
1938:./Generated_Source/PSoC5/CyLib.c **** /*******************************************************************************
1939:./Generated_Source/PSoC5/CyLib.c **** * Function Name: CyIntSetVector
1940:./Generated_Source/PSoC5/CyLib.c **** ********************************************************************************
1941:./Generated_Source/PSoC5/CyLib.c **** * Summary:
1942:./Generated_Source/PSoC5/CyLib.c **** *   Sets the interrupt vector of the specified interrupt number.
1943:./Generated_Source/PSoC5/CyLib.c **** *
1944:./Generated_Source/PSoC5/CyLib.c **** *
1945:./Generated_Source/PSoC5/CyLib.c **** * Parameters:
1946:./Generated_Source/PSoC5/CyLib.c **** *   number: Valid range [0-31].  Interrupt number
1947:./Generated_Source/PSoC5/CyLib.c **** *
1948:./Generated_Source/PSoC5/CyLib.c **** *   address: Pointer to an interrupt service routine
1949:./Generated_Source/PSoC5/CyLib.c **** *
1950:./Generated_Source/PSoC5/CyLib.c **** * Return:
1951:./Generated_Source/PSoC5/CyLib.c **** *   Previous interrupt vector value.
1952:./Generated_Source/PSoC5/CyLib.c **** *
ARM GAS  C:\Users\CHARLI~1\AppData\Local\Temp\cc78mmP1.s 			page 91


1953:./Generated_Source/PSoC5/CyLib.c **** *******************************************************************************/
1954:./Generated_Source/PSoC5/CyLib.c **** cyisraddress CyIntSetVector(uint8 number, cyisraddress address) 
1955:./Generated_Source/PSoC5/CyLib.c **** {
 3175              		.loc 1 1955 0
 3176              		.cfi_startproc
 3177              		@ args = 0, pretend = 0, frame = 16
 3178              		@ frame_needed = 1, uses_anonymous_args = 0
 3179              		@ link register save eliminated.
 3180 0000 80B4     		push	{r7}
 3181              	.LCFI129:
 3182              		.cfi_def_cfa_offset 4
 3183 0002 85B0     		sub	sp, sp, #20
 3184              	.LCFI130:
 3185              		.cfi_def_cfa_offset 24
 3186 0004 00AF     		add	r7, sp, #0
 3187              		.cfi_offset 7, -4
 3188              	.LCFI131:
 3189              		.cfi_def_cfa_register 7
 3190 0006 0346     		mov	r3, r0
 3191 0008 3960     		str	r1, [r7, #0]
 3192 000a FB71     		strb	r3, [r7, #7]
1956:./Generated_Source/PSoC5/CyLib.c ****     cyisraddress oldIsr;
1957:./Generated_Source/PSoC5/CyLib.c ****     cyisraddress *ramVectorTable = *CYINT_VECT_TABLE;
 3193              		.loc 1 1957 0
 3194 000c 4EF60853 		movw	r3, #:lower16:-536810232
 3195 0010 CEF20003 		movt	r3, #:upper16:-536810232
 3196 0014 1B68     		ldr	r3, [r3, #0]
 3197 0016 FB60     		str	r3, [r7, #12]
1958:./Generated_Source/PSoC5/CyLib.c **** 
1959:./Generated_Source/PSoC5/CyLib.c ****     /* Save old Interrupt service routine. */
1960:./Generated_Source/PSoC5/CyLib.c ****     oldIsr = ramVectorTable[CYINT_IRQ_BASE + number];
 3198              		.loc 1 1960 0
 3199 0018 FB79     		ldrb	r3, [r7, #7]	@ zero_extendqisi2
 3200 001a 03F11003 		add	r3, r3, #16
 3201 001e 4FEA8302 		lsl	r2, r3, #2
 3202 0022 FB68     		ldr	r3, [r7, #12]
 3203 0024 1344     		add	r3, r2, r3
 3204 0026 1B68     		ldr	r3, [r3, #0]
 3205 0028 BB60     		str	r3, [r7, #8]
1961:./Generated_Source/PSoC5/CyLib.c **** 
1962:./Generated_Source/PSoC5/CyLib.c ****     /* Set new Interrupt service routine. */
1963:./Generated_Source/PSoC5/CyLib.c ****     ramVectorTable[CYINT_IRQ_BASE + number] = address;
 3206              		.loc 1 1963 0
 3207 002a FB79     		ldrb	r3, [r7, #7]	@ zero_extendqisi2
 3208 002c 03F11003 		add	r3, r3, #16
 3209 0030 4FEA8302 		lsl	r2, r3, #2
 3210 0034 FB68     		ldr	r3, [r7, #12]
 3211 0036 1344     		add	r3, r2, r3
 3212 0038 3A68     		ldr	r2, [r7, #0]
 3213 003a 1A60     		str	r2, [r3, #0]
1964:./Generated_Source/PSoC5/CyLib.c **** 
1965:./Generated_Source/PSoC5/CyLib.c ****     return oldIsr;
 3214              		.loc 1 1965 0
 3215 003c BB68     		ldr	r3, [r7, #8]
1966:./Generated_Source/PSoC5/CyLib.c **** }
 3216              		.loc 1 1966 0
 3217 003e 1846     		mov	r0, r3
ARM GAS  C:\Users\CHARLI~1\AppData\Local\Temp\cc78mmP1.s 			page 92


 3218 0040 07F11407 		add	r7, r7, #20
 3219 0044 BD46     		mov	sp, r7
 3220 0046 80BC     		pop	{r7}
 3221 0048 7047     		bx	lr
 3222              		.cfi_endproc
 3223              	.LFE49:
 3224              		.size	CyIntSetVector, .-CyIntSetVector
 3225 004a 00BF     		.section	.text.CyIntGetVector,"ax",%progbits
 3226              		.align	2
 3227              		.global	CyIntGetVector
 3228              		.thumb
 3229              		.thumb_func
 3230              		.type	CyIntGetVector, %function
 3231              	CyIntGetVector:
 3232              	.LFB50:
1967:./Generated_Source/PSoC5/CyLib.c **** 
1968:./Generated_Source/PSoC5/CyLib.c **** /*******************************************************************************
1969:./Generated_Source/PSoC5/CyLib.c **** * Function Name: CyIntGetVector
1970:./Generated_Source/PSoC5/CyLib.c **** ********************************************************************************
1971:./Generated_Source/PSoC5/CyLib.c **** * Summary:
1972:./Generated_Source/PSoC5/CyLib.c **** *   Gets the interrupt vector of the specified interrupt number.
1973:./Generated_Source/PSoC5/CyLib.c **** *
1974:./Generated_Source/PSoC5/CyLib.c **** *
1975:./Generated_Source/PSoC5/CyLib.c **** * Parameters:
1976:./Generated_Source/PSoC5/CyLib.c **** *   number: Valid range [0-31].  Interrupt number
1977:./Generated_Source/PSoC5/CyLib.c **** *
1978:./Generated_Source/PSoC5/CyLib.c **** *
1979:./Generated_Source/PSoC5/CyLib.c **** * Return:
1980:./Generated_Source/PSoC5/CyLib.c **** *   Address of the ISR in the interrupt vector table.
1981:./Generated_Source/PSoC5/CyLib.c **** *
1982:./Generated_Source/PSoC5/CyLib.c **** *******************************************************************************/
1983:./Generated_Source/PSoC5/CyLib.c **** cyisraddress CyIntGetVector(uint8 number) 
1984:./Generated_Source/PSoC5/CyLib.c **** {
 3233              		.loc 1 1984 0
 3234              		.cfi_startproc
 3235              		@ args = 0, pretend = 0, frame = 16
 3236              		@ frame_needed = 1, uses_anonymous_args = 0
 3237              		@ link register save eliminated.
 3238 0000 80B4     		push	{r7}
 3239              	.LCFI132:
 3240              		.cfi_def_cfa_offset 4
 3241 0002 85B0     		sub	sp, sp, #20
 3242              	.LCFI133:
 3243              		.cfi_def_cfa_offset 24
 3244 0004 00AF     		add	r7, sp, #0
 3245              		.cfi_offset 7, -4
 3246              	.LCFI134:
 3247              		.cfi_def_cfa_register 7
 3248 0006 0346     		mov	r3, r0
 3249 0008 FB71     		strb	r3, [r7, #7]
1985:./Generated_Source/PSoC5/CyLib.c ****     cyisraddress *ramVectorTable = *CYINT_VECT_TABLE;
 3250              		.loc 1 1985 0
 3251 000a 4EF60853 		movw	r3, #:lower16:-536810232
 3252 000e CEF20003 		movt	r3, #:upper16:-536810232
 3253 0012 1B68     		ldr	r3, [r3, #0]
 3254 0014 FB60     		str	r3, [r7, #12]
1986:./Generated_Source/PSoC5/CyLib.c **** 
ARM GAS  C:\Users\CHARLI~1\AppData\Local\Temp\cc78mmP1.s 			page 93


1987:./Generated_Source/PSoC5/CyLib.c ****     return ramVectorTable[CYINT_IRQ_BASE + number];
 3255              		.loc 1 1987 0
 3256 0016 FB79     		ldrb	r3, [r7, #7]	@ zero_extendqisi2
 3257 0018 03F11003 		add	r3, r3, #16
 3258 001c 4FEA8302 		lsl	r2, r3, #2
 3259 0020 FB68     		ldr	r3, [r7, #12]
 3260 0022 1344     		add	r3, r2, r3
 3261 0024 1B68     		ldr	r3, [r3, #0]
1988:./Generated_Source/PSoC5/CyLib.c **** }
 3262              		.loc 1 1988 0
 3263 0026 1846     		mov	r0, r3
 3264 0028 07F11407 		add	r7, r7, #20
 3265 002c BD46     		mov	sp, r7
 3266 002e 80BC     		pop	{r7}
 3267 0030 7047     		bx	lr
 3268              		.cfi_endproc
 3269              	.LFE50:
 3270              		.size	CyIntGetVector, .-CyIntGetVector
 3271 0032 00BF     		.section	.text.CyIntSetPriority,"ax",%progbits
 3272              		.align	2
 3273              		.global	CyIntSetPriority
 3274              		.thumb
 3275              		.thumb_func
 3276              		.type	CyIntSetPriority, %function
 3277              	CyIntSetPriority:
 3278              	.LFB51:
1989:./Generated_Source/PSoC5/CyLib.c **** 
1990:./Generated_Source/PSoC5/CyLib.c **** /*******************************************************************************
1991:./Generated_Source/PSoC5/CyLib.c **** * Function Name: CyIntSetPriority
1992:./Generated_Source/PSoC5/CyLib.c **** ********************************************************************************
1993:./Generated_Source/PSoC5/CyLib.c **** * Summary:
1994:./Generated_Source/PSoC5/CyLib.c **** *   Sets the Priority of the Interrupt.
1995:./Generated_Source/PSoC5/CyLib.c **** *
1996:./Generated_Source/PSoC5/CyLib.c **** *
1997:./Generated_Source/PSoC5/CyLib.c **** * Parameters:
1998:./Generated_Source/PSoC5/CyLib.c **** *   priority: Priority of the interrupt. 0 - 7, 0 being the highest.
1999:./Generated_Source/PSoC5/CyLib.c **** *
2000:./Generated_Source/PSoC5/CyLib.c **** *   number: The number of the interrupt, 0 - 31.
2001:./Generated_Source/PSoC5/CyLib.c **** *
2002:./Generated_Source/PSoC5/CyLib.c **** * Return:
2003:./Generated_Source/PSoC5/CyLib.c **** *   void.
2004:./Generated_Source/PSoC5/CyLib.c **** *
2005:./Generated_Source/PSoC5/CyLib.c **** *
2006:./Generated_Source/PSoC5/CyLib.c **** *******************************************************************************/
2007:./Generated_Source/PSoC5/CyLib.c **** void CyIntSetPriority(uint8 number, uint8 priority) 
2008:./Generated_Source/PSoC5/CyLib.c **** {
 3279              		.loc 1 2008 0
 3280              		.cfi_startproc
 3281              		@ args = 0, pretend = 0, frame = 8
 3282              		@ frame_needed = 1, uses_anonymous_args = 0
 3283 0000 80B5     		push	{r7, lr}
 3284              	.LCFI135:
 3285              		.cfi_def_cfa_offset 8
 3286 0002 82B0     		sub	sp, sp, #8
 3287              	.LCFI136:
 3288              		.cfi_def_cfa_offset 16
 3289 0004 00AF     		add	r7, sp, #0
ARM GAS  C:\Users\CHARLI~1\AppData\Local\Temp\cc78mmP1.s 			page 94


 3290              		.cfi_offset 14, -4
 3291              		.cfi_offset 7, -8
 3292              	.LCFI137:
 3293              		.cfi_def_cfa_register 7
 3294 0006 0246     		mov	r2, r0
 3295 0008 0B46     		mov	r3, r1
 3296 000a FA71     		strb	r2, [r7, #7]
 3297 000c BB71     		strb	r3, [r7, #6]
2009:./Generated_Source/PSoC5/CyLib.c ****     CYASSERT(priority <= 7);
 3298              		.loc 1 2009 0
 3299 000e BB79     		ldrb	r3, [r7, #6]	@ zero_extendqisi2
 3300 0010 072B     		cmp	r3, #7
 3301 0012 07D9     		bls	.L190
 3302 0014 BB79     		ldrb	r3, [r7, #6]	@ zero_extendqisi2
 3303 0016 072B     		cmp	r3, #7
 3304 0018 8CBF     		ite	hi
 3305 001a 0023     		movhi	r3, #0
 3306 001c 0123     		movls	r3, #1
 3307 001e 1846     		mov	r0, r3
 3308 0020 FFF7FEFF 		bl	CyHalt
 3309              	.L190:
2010:./Generated_Source/PSoC5/CyLib.c ****     CYASSERT(number <= 31);
 3310              		.loc 1 2010 0
 3311 0024 FB79     		ldrb	r3, [r7, #7]	@ zero_extendqisi2
 3312 0026 1F2B     		cmp	r3, #31
 3313 0028 07D9     		bls	.L191
 3314 002a FB79     		ldrb	r3, [r7, #7]	@ zero_extendqisi2
 3315 002c 1F2B     		cmp	r3, #31
 3316 002e 8CBF     		ite	hi
 3317 0030 0023     		movhi	r3, #0
 3318 0032 0123     		movls	r3, #1
 3319 0034 1846     		mov	r0, r3
 3320 0036 FFF7FEFF 		bl	CyHalt
 3321              	.L191:
2011:./Generated_Source/PSoC5/CyLib.c ****     CYINT_PRIORITY[number] = priority << 5;
 3322              		.loc 1 2011 0
 3323 003a FB79     		ldrb	r3, [r7, #7]	@ zero_extendqisi2
 3324 003c 03F16043 		add	r3, r3, #-536870912
 3325 0040 03F56443 		add	r3, r3, #58368
 3326 0044 BA79     		ldrb	r2, [r7, #6]
 3327 0046 4FEA4212 		lsl	r2, r2, #5
 3328 004a D2B2     		uxtb	r2, r2
 3329 004c 1A70     		strb	r2, [r3, #0]
2012:./Generated_Source/PSoC5/CyLib.c **** }
 3330              		.loc 1 2012 0
 3331 004e 07F10807 		add	r7, r7, #8
 3332 0052 BD46     		mov	sp, r7
 3333 0054 80BD     		pop	{r7, pc}
 3334              		.cfi_endproc
 3335              	.LFE51:
 3336              		.size	CyIntSetPriority, .-CyIntSetPriority
 3337 0056 00BF     		.section	.text.CyIntGetPriority,"ax",%progbits
 3338              		.align	2
 3339              		.global	CyIntGetPriority
 3340              		.thumb
 3341              		.thumb_func
 3342              		.type	CyIntGetPriority, %function
ARM GAS  C:\Users\CHARLI~1\AppData\Local\Temp\cc78mmP1.s 			page 95


 3343              	CyIntGetPriority:
 3344              	.LFB52:
2013:./Generated_Source/PSoC5/CyLib.c **** 
2014:./Generated_Source/PSoC5/CyLib.c **** /*******************************************************************************
2015:./Generated_Source/PSoC5/CyLib.c **** * Function Name: CyIntGetPriority
2016:./Generated_Source/PSoC5/CyLib.c **** ********************************************************************************
2017:./Generated_Source/PSoC5/CyLib.c **** * Summary:
2018:./Generated_Source/PSoC5/CyLib.c **** *   Gets the Priority of the Interrupt.
2019:./Generated_Source/PSoC5/CyLib.c **** *
2020:./Generated_Source/PSoC5/CyLib.c **** *
2021:./Generated_Source/PSoC5/CyLib.c **** * Parameters:
2022:./Generated_Source/PSoC5/CyLib.c **** *   number: The number of the interrupt, 0 - 31.
2023:./Generated_Source/PSoC5/CyLib.c **** *
2024:./Generated_Source/PSoC5/CyLib.c **** *
2025:./Generated_Source/PSoC5/CyLib.c **** * Return:
2026:./Generated_Source/PSoC5/CyLib.c **** *   Priority of the interrupt. 0 - 7, 0 being the highest.
2027:./Generated_Source/PSoC5/CyLib.c **** *
2028:./Generated_Source/PSoC5/CyLib.c **** *
2029:./Generated_Source/PSoC5/CyLib.c **** *******************************************************************************/
2030:./Generated_Source/PSoC5/CyLib.c **** uint8 CyIntGetPriority(uint8 number) 
2031:./Generated_Source/PSoC5/CyLib.c **** {
 3345              		.loc 1 2031 0
 3346              		.cfi_startproc
 3347              		@ args = 0, pretend = 0, frame = 16
 3348              		@ frame_needed = 1, uses_anonymous_args = 0
 3349              		@ link register save eliminated.
 3350 0000 80B4     		push	{r7}
 3351              	.LCFI138:
 3352              		.cfi_def_cfa_offset 4
 3353 0002 85B0     		sub	sp, sp, #20
 3354              	.LCFI139:
 3355              		.cfi_def_cfa_offset 24
 3356 0004 00AF     		add	r7, sp, #0
 3357              		.cfi_offset 7, -4
 3358              	.LCFI140:
 3359              		.cfi_def_cfa_register 7
 3360 0006 0346     		mov	r3, r0
 3361 0008 FB71     		strb	r3, [r7, #7]
2032:./Generated_Source/PSoC5/CyLib.c ****     uint8 priority;
2033:./Generated_Source/PSoC5/CyLib.c **** 
2034:./Generated_Source/PSoC5/CyLib.c **** 
2035:./Generated_Source/PSoC5/CyLib.c ****     priority = CYINT_PRIORITY[number] >> 5;
 3362              		.loc 1 2035 0
 3363 000a FB79     		ldrb	r3, [r7, #7]	@ zero_extendqisi2
 3364 000c 03F16043 		add	r3, r3, #-536870912
 3365 0010 03F56443 		add	r3, r3, #58368
 3366 0014 1B78     		ldrb	r3, [r3, #0]
 3367 0016 DBB2     		uxtb	r3, r3
 3368 0018 4FEA5313 		lsr	r3, r3, #5
 3369 001c FB73     		strb	r3, [r7, #15]
2036:./Generated_Source/PSoC5/CyLib.c **** 
2037:./Generated_Source/PSoC5/CyLib.c ****     return priority;
 3370              		.loc 1 2037 0
 3371 001e FB7B     		ldrb	r3, [r7, #15]	@ zero_extendqisi2
2038:./Generated_Source/PSoC5/CyLib.c **** }
 3372              		.loc 1 2038 0
 3373 0020 1846     		mov	r0, r3
ARM GAS  C:\Users\CHARLI~1\AppData\Local\Temp\cc78mmP1.s 			page 96


 3374 0022 07F11407 		add	r7, r7, #20
 3375 0026 BD46     		mov	sp, r7
 3376 0028 80BC     		pop	{r7}
 3377 002a 7047     		bx	lr
 3378              		.cfi_endproc
 3379              	.LFE52:
 3380              		.size	CyIntGetPriority, .-CyIntGetPriority
 3381              		.section	.text.CyIntEnable,"ax",%progbits
 3382              		.align	2
 3383              		.global	CyIntEnable
 3384              		.thumb
 3385              		.thumb_func
 3386              		.type	CyIntEnable, %function
 3387              	CyIntEnable:
 3388              	.LFB53:
2039:./Generated_Source/PSoC5/CyLib.c **** 
2040:./Generated_Source/PSoC5/CyLib.c **** /*******************************************************************************
2041:./Generated_Source/PSoC5/CyLib.c **** * Function Name: CyIntEnable
2042:./Generated_Source/PSoC5/CyLib.c **** ********************************************************************************
2043:./Generated_Source/PSoC5/CyLib.c **** * Summary:
2044:./Generated_Source/PSoC5/CyLib.c **** *   Enables the specified interrupt number.
2045:./Generated_Source/PSoC5/CyLib.c **** *
2046:./Generated_Source/PSoC5/CyLib.c **** *
2047:./Generated_Source/PSoC5/CyLib.c **** * Parameters:
2048:./Generated_Source/PSoC5/CyLib.c **** *   number: Valid range [0-31].  Interrupt number
2049:./Generated_Source/PSoC5/CyLib.c **** *
2050:./Generated_Source/PSoC5/CyLib.c **** *
2051:./Generated_Source/PSoC5/CyLib.c **** * Return:
2052:./Generated_Source/PSoC5/CyLib.c **** *   void.
2053:./Generated_Source/PSoC5/CyLib.c **** *
2054:./Generated_Source/PSoC5/CyLib.c **** *******************************************************************************/
2055:./Generated_Source/PSoC5/CyLib.c **** void CyIntEnable(uint8 number) 
2056:./Generated_Source/PSoC5/CyLib.c **** {
 3389              		.loc 1 2056 0
 3390              		.cfi_startproc
 3391              		@ args = 0, pretend = 0, frame = 16
 3392              		@ frame_needed = 1, uses_anonymous_args = 0
 3393              		@ link register save eliminated.
 3394 0000 80B4     		push	{r7}
 3395              	.LCFI141:
 3396              		.cfi_def_cfa_offset 4
 3397 0002 85B0     		sub	sp, sp, #20
 3398              	.LCFI142:
 3399              		.cfi_def_cfa_offset 24
 3400 0004 00AF     		add	r7, sp, #0
 3401              		.cfi_offset 7, -4
 3402              	.LCFI143:
 3403              		.cfi_def_cfa_register 7
 3404 0006 0346     		mov	r3, r0
 3405 0008 FB71     		strb	r3, [r7, #7]
2057:./Generated_Source/PSoC5/CyLib.c ****     reg32 * enableReg;
2058:./Generated_Source/PSoC5/CyLib.c **** 
2059:./Generated_Source/PSoC5/CyLib.c **** 
2060:./Generated_Source/PSoC5/CyLib.c ****     /* Get a pointer to the Interrupt enable register. */
2061:./Generated_Source/PSoC5/CyLib.c ****     enableReg = CYINT_ENABLE;
 3406              		.loc 1 2061 0
 3407 000a 4EF20013 		movw	r3, #:lower16:-536813312
ARM GAS  C:\Users\CHARLI~1\AppData\Local\Temp\cc78mmP1.s 			page 97


 3408 000e CEF20003 		movt	r3, #:upper16:-536813312
 3409 0012 FB60     		str	r3, [r7, #12]
2062:./Generated_Source/PSoC5/CyLib.c **** 
2063:./Generated_Source/PSoC5/CyLib.c ****     /* Enable the interrupt. */
2064:./Generated_Source/PSoC5/CyLib.c ****     *enableReg = 1 << (0x1F & number);
 3410              		.loc 1 2064 0
 3411 0014 FB79     		ldrb	r3, [r7, #7]	@ zero_extendqisi2
 3412 0016 03F01F03 		and	r3, r3, #31
 3413 001a 4FF00102 		mov	r2, #1
 3414 001e 02FA03F3 		lsl	r3, r2, r3
 3415 0022 1A46     		mov	r2, r3
 3416 0024 FB68     		ldr	r3, [r7, #12]
 3417 0026 1A60     		str	r2, [r3, #0]
2065:./Generated_Source/PSoC5/CyLib.c **** }
 3418              		.loc 1 2065 0
 3419 0028 07F11407 		add	r7, r7, #20
 3420 002c BD46     		mov	sp, r7
 3421 002e 80BC     		pop	{r7}
 3422 0030 7047     		bx	lr
 3423              		.cfi_endproc
 3424              	.LFE53:
 3425              		.size	CyIntEnable, .-CyIntEnable
 3426 0032 00BF     		.section	.text.CyIntGetState,"ax",%progbits
 3427              		.align	2
 3428              		.global	CyIntGetState
 3429              		.thumb
 3430              		.thumb_func
 3431              		.type	CyIntGetState, %function
 3432              	CyIntGetState:
 3433              	.LFB54:
2066:./Generated_Source/PSoC5/CyLib.c **** 
2067:./Generated_Source/PSoC5/CyLib.c **** /*******************************************************************************
2068:./Generated_Source/PSoC5/CyLib.c **** * Function Name: CyIntGetState
2069:./Generated_Source/PSoC5/CyLib.c **** ********************************************************************************
2070:./Generated_Source/PSoC5/CyLib.c **** * Summary:
2071:./Generated_Source/PSoC5/CyLib.c **** *   Gets the enable state of the specified interrupt number.
2072:./Generated_Source/PSoC5/CyLib.c **** *
2073:./Generated_Source/PSoC5/CyLib.c **** *
2074:./Generated_Source/PSoC5/CyLib.c **** * Parameters:
2075:./Generated_Source/PSoC5/CyLib.c **** *   number: Valid range [0-31].  Interrupt number.
2076:./Generated_Source/PSoC5/CyLib.c **** *
2077:./Generated_Source/PSoC5/CyLib.c **** *
2078:./Generated_Source/PSoC5/CyLib.c **** * Return:
2079:./Generated_Source/PSoC5/CyLib.c **** *   Enable status: 1 if enabled, 0 if disabled
2080:./Generated_Source/PSoC5/CyLib.c **** *
2081:./Generated_Source/PSoC5/CyLib.c **** *******************************************************************************/
2082:./Generated_Source/PSoC5/CyLib.c **** uint8 CyIntGetState(uint8 number) 
2083:./Generated_Source/PSoC5/CyLib.c **** {
 3434              		.loc 1 2083 0
 3435              		.cfi_startproc
 3436              		@ args = 0, pretend = 0, frame = 16
 3437              		@ frame_needed = 1, uses_anonymous_args = 0
 3438              		@ link register save eliminated.
 3439 0000 80B4     		push	{r7}
 3440              	.LCFI144:
 3441              		.cfi_def_cfa_offset 4
 3442 0002 85B0     		sub	sp, sp, #20
ARM GAS  C:\Users\CHARLI~1\AppData\Local\Temp\cc78mmP1.s 			page 98


 3443              	.LCFI145:
 3444              		.cfi_def_cfa_offset 24
 3445 0004 00AF     		add	r7, sp, #0
 3446              		.cfi_offset 7, -4
 3447              	.LCFI146:
 3448              		.cfi_def_cfa_register 7
 3449 0006 0346     		mov	r3, r0
 3450 0008 FB71     		strb	r3, [r7, #7]
2084:./Generated_Source/PSoC5/CyLib.c ****     reg32 * stateReg;
2085:./Generated_Source/PSoC5/CyLib.c **** 
2086:./Generated_Source/PSoC5/CyLib.c **** 
2087:./Generated_Source/PSoC5/CyLib.c ****     /* Get a pointer to the Interrupt enable register. */
2088:./Generated_Source/PSoC5/CyLib.c ****     stateReg = CYINT_ENABLE;
 3451              		.loc 1 2088 0
 3452 000a 4EF20013 		movw	r3, #:lower16:-536813312
 3453 000e CEF20003 		movt	r3, #:upper16:-536813312
 3454 0012 FB60     		str	r3, [r7, #12]
2089:./Generated_Source/PSoC5/CyLib.c **** 
2090:./Generated_Source/PSoC5/CyLib.c ****     /* Get the state of the interrupt. */
2091:./Generated_Source/PSoC5/CyLib.c ****     return (*stateReg & (1 << (0x1F & number))) ? 1:0;
 3455              		.loc 1 2091 0
 3456 0014 FB68     		ldr	r3, [r7, #12]
 3457 0016 1A68     		ldr	r2, [r3, #0]
 3458 0018 FB79     		ldrb	r3, [r7, #7]	@ zero_extendqisi2
 3459 001a 03F01F03 		and	r3, r3, #31
 3460 001e 4FF00101 		mov	r1, #1
 3461 0022 01FA03F3 		lsl	r3, r1, r3
 3462 0026 02EA0303 		and	r3, r2, r3
 3463 002a 002B     		cmp	r3, #0
 3464 002c 0CBF     		ite	eq
 3465 002e 0023     		moveq	r3, #0
 3466 0030 0123     		movne	r3, #1
2092:./Generated_Source/PSoC5/CyLib.c **** }
 3467              		.loc 1 2092 0
 3468 0032 1846     		mov	r0, r3
 3469 0034 07F11407 		add	r7, r7, #20
 3470 0038 BD46     		mov	sp, r7
 3471 003a 80BC     		pop	{r7}
 3472 003c 7047     		bx	lr
 3473              		.cfi_endproc
 3474              	.LFE54:
 3475              		.size	CyIntGetState, .-CyIntGetState
 3476 003e 00BF     		.section	.text.CyIntDisable,"ax",%progbits
 3477              		.align	2
 3478              		.global	CyIntDisable
 3479              		.thumb
 3480              		.thumb_func
 3481              		.type	CyIntDisable, %function
 3482              	CyIntDisable:
 3483              	.LFB55:
2093:./Generated_Source/PSoC5/CyLib.c **** 
2094:./Generated_Source/PSoC5/CyLib.c **** /*******************************************************************************
2095:./Generated_Source/PSoC5/CyLib.c **** * Function Name: CyIntDisable
2096:./Generated_Source/PSoC5/CyLib.c **** ********************************************************************************
2097:./Generated_Source/PSoC5/CyLib.c **** * Summary:
2098:./Generated_Source/PSoC5/CyLib.c **** *   Disables the specified interrupt number.
2099:./Generated_Source/PSoC5/CyLib.c **** *
ARM GAS  C:\Users\CHARLI~1\AppData\Local\Temp\cc78mmP1.s 			page 99


2100:./Generated_Source/PSoC5/CyLib.c **** *
2101:./Generated_Source/PSoC5/CyLib.c **** * Parameters:
2102:./Generated_Source/PSoC5/CyLib.c **** *   number: Valid range [0-31].  Interrupt number.
2103:./Generated_Source/PSoC5/CyLib.c **** *
2104:./Generated_Source/PSoC5/CyLib.c **** *
2105:./Generated_Source/PSoC5/CyLib.c **** * Return:
2106:./Generated_Source/PSoC5/CyLib.c **** *   void.
2107:./Generated_Source/PSoC5/CyLib.c **** *
2108:./Generated_Source/PSoC5/CyLib.c **** *
2109:./Generated_Source/PSoC5/CyLib.c **** *******************************************************************************/
2110:./Generated_Source/PSoC5/CyLib.c **** void CyIntDisable(uint8 number) 
2111:./Generated_Source/PSoC5/CyLib.c **** {
 3484              		.loc 1 2111 0
 3485              		.cfi_startproc
 3486              		@ args = 0, pretend = 0, frame = 16
 3487              		@ frame_needed = 1, uses_anonymous_args = 0
 3488              		@ link register save eliminated.
 3489 0000 80B4     		push	{r7}
 3490              	.LCFI147:
 3491              		.cfi_def_cfa_offset 4
 3492 0002 85B0     		sub	sp, sp, #20
 3493              	.LCFI148:
 3494              		.cfi_def_cfa_offset 24
 3495 0004 00AF     		add	r7, sp, #0
 3496              		.cfi_offset 7, -4
 3497              	.LCFI149:
 3498              		.cfi_def_cfa_register 7
 3499 0006 0346     		mov	r3, r0
 3500 0008 FB71     		strb	r3, [r7, #7]
2112:./Generated_Source/PSoC5/CyLib.c ****     reg32 * clearReg;
2113:./Generated_Source/PSoC5/CyLib.c **** 
2114:./Generated_Source/PSoC5/CyLib.c **** 
2115:./Generated_Source/PSoC5/CyLib.c ****     /* Get a pointer to the Interrupt enable register. */
2116:./Generated_Source/PSoC5/CyLib.c ****     clearReg = CYINT_CLEAR;
 3501              		.loc 1 2116 0
 3502 000a 4EF28013 		movw	r3, #:lower16:-536813184
 3503 000e CEF20003 		movt	r3, #:upper16:-536813184
 3504 0012 FB60     		str	r3, [r7, #12]
2117:./Generated_Source/PSoC5/CyLib.c **** 
2118:./Generated_Source/PSoC5/CyLib.c ****     /* Enable the interrupt. */
2119:./Generated_Source/PSoC5/CyLib.c ****     *clearReg = 1 << (0x1F & number);
 3505              		.loc 1 2119 0
 3506 0014 FB79     		ldrb	r3, [r7, #7]	@ zero_extendqisi2
 3507 0016 03F01F03 		and	r3, r3, #31
 3508 001a 4FF00102 		mov	r2, #1
 3509 001e 02FA03F3 		lsl	r3, r2, r3
 3510 0022 1A46     		mov	r2, r3
 3511 0024 FB68     		ldr	r3, [r7, #12]
 3512 0026 1A60     		str	r2, [r3, #0]
2120:./Generated_Source/PSoC5/CyLib.c **** }
 3513              		.loc 1 2120 0
 3514 0028 07F11407 		add	r7, r7, #20
 3515 002c BD46     		mov	sp, r7
 3516 002e 80BC     		pop	{r7}
 3517 0030 7047     		bx	lr
 3518              		.cfi_endproc
 3519              	.LFE55:
ARM GAS  C:\Users\CHARLI~1\AppData\Local\Temp\cc78mmP1.s 			page 100


 3520              		.size	CyIntDisable, .-CyIntDisable
 3521 0032 00BF     		.section	.text.CyIntSetPending,"ax",%progbits
 3522              		.align	2
 3523              		.global	CyIntSetPending
 3524              		.thumb
 3525              		.thumb_func
 3526              		.type	CyIntSetPending, %function
 3527              	CyIntSetPending:
 3528              	.LFB56:
2121:./Generated_Source/PSoC5/CyLib.c **** 
2122:./Generated_Source/PSoC5/CyLib.c **** /*******************************************************************************
2123:./Generated_Source/PSoC5/CyLib.c **** * Function Name: CyIntSetPending
2124:./Generated_Source/PSoC5/CyLib.c **** ********************************************************************************
2125:./Generated_Source/PSoC5/CyLib.c **** * Summary:
2126:./Generated_Source/PSoC5/CyLib.c **** *   Forces the specified interrupt number to be pending.
2127:./Generated_Source/PSoC5/CyLib.c **** *
2128:./Generated_Source/PSoC5/CyLib.c **** *
2129:./Generated_Source/PSoC5/CyLib.c **** * Parameters:
2130:./Generated_Source/PSoC5/CyLib.c **** *   number: Valid range [0-31].  Interrupt number.
2131:./Generated_Source/PSoC5/CyLib.c **** *
2132:./Generated_Source/PSoC5/CyLib.c **** *
2133:./Generated_Source/PSoC5/CyLib.c **** * Return:
2134:./Generated_Source/PSoC5/CyLib.c **** *   void.
2135:./Generated_Source/PSoC5/CyLib.c **** *
2136:./Generated_Source/PSoC5/CyLib.c **** *******************************************************************************/
2137:./Generated_Source/PSoC5/CyLib.c **** void CyIntSetPending(uint8 number) 
2138:./Generated_Source/PSoC5/CyLib.c **** {
 3529              		.loc 1 2138 0
 3530              		.cfi_startproc
 3531              		@ args = 0, pretend = 0, frame = 16
 3532              		@ frame_needed = 1, uses_anonymous_args = 0
 3533              		@ link register save eliminated.
 3534 0000 80B4     		push	{r7}
 3535              	.LCFI150:
 3536              		.cfi_def_cfa_offset 4
 3537 0002 85B0     		sub	sp, sp, #20
 3538              	.LCFI151:
 3539              		.cfi_def_cfa_offset 24
 3540 0004 00AF     		add	r7, sp, #0
 3541              		.cfi_offset 7, -4
 3542              	.LCFI152:
 3543              		.cfi_def_cfa_register 7
 3544 0006 0346     		mov	r3, r0
 3545 0008 FB71     		strb	r3, [r7, #7]
2139:./Generated_Source/PSoC5/CyLib.c ****     reg32 * pendReg;
2140:./Generated_Source/PSoC5/CyLib.c **** 
2141:./Generated_Source/PSoC5/CyLib.c **** 
2142:./Generated_Source/PSoC5/CyLib.c ****     /* Get a pointer to the Interrupt set pending register. */
2143:./Generated_Source/PSoC5/CyLib.c ****     pendReg = CYINT_SET_PEND;
 3546              		.loc 1 2143 0
 3547 000a 4EF20023 		movw	r3, #:lower16:-536813056
 3548 000e CEF20003 		movt	r3, #:upper16:-536813056
 3549 0012 FB60     		str	r3, [r7, #12]
2144:./Generated_Source/PSoC5/CyLib.c **** 
2145:./Generated_Source/PSoC5/CyLib.c ****     /* Pending the interrupt. */
2146:./Generated_Source/PSoC5/CyLib.c ****     *pendReg = 1 << (0x1F & number);
 3550              		.loc 1 2146 0
ARM GAS  C:\Users\CHARLI~1\AppData\Local\Temp\cc78mmP1.s 			page 101


 3551 0014 FB79     		ldrb	r3, [r7, #7]	@ zero_extendqisi2
 3552 0016 03F01F03 		and	r3, r3, #31
 3553 001a 4FF00102 		mov	r2, #1
 3554 001e 02FA03F3 		lsl	r3, r2, r3
 3555 0022 1A46     		mov	r2, r3
 3556 0024 FB68     		ldr	r3, [r7, #12]
 3557 0026 1A60     		str	r2, [r3, #0]
2147:./Generated_Source/PSoC5/CyLib.c **** }
 3558              		.loc 1 2147 0
 3559 0028 07F11407 		add	r7, r7, #20
 3560 002c BD46     		mov	sp, r7
 3561 002e 80BC     		pop	{r7}
 3562 0030 7047     		bx	lr
 3563              		.cfi_endproc
 3564              	.LFE56:
 3565              		.size	CyIntSetPending, .-CyIntSetPending
 3566 0032 00BF     		.section	.text.CyIntClearPending,"ax",%progbits
 3567              		.align	2
 3568              		.global	CyIntClearPending
 3569              		.thumb
 3570              		.thumb_func
 3571              		.type	CyIntClearPending, %function
 3572              	CyIntClearPending:
 3573              	.LFB57:
2148:./Generated_Source/PSoC5/CyLib.c **** 
2149:./Generated_Source/PSoC5/CyLib.c **** /*******************************************************************************
2150:./Generated_Source/PSoC5/CyLib.c **** * Function Name: CyIntClearPending
2151:./Generated_Source/PSoC5/CyLib.c **** ********************************************************************************
2152:./Generated_Source/PSoC5/CyLib.c **** * Summary:
2153:./Generated_Source/PSoC5/CyLib.c **** *   Clears any pending interrupt for the specified interrupt number.
2154:./Generated_Source/PSoC5/CyLib.c **** *
2155:./Generated_Source/PSoC5/CyLib.c **** * Parameters:
2156:./Generated_Source/PSoC5/CyLib.c **** *   number: Valid range [0-31].  Interrupt number.
2157:./Generated_Source/PSoC5/CyLib.c **** *
2158:./Generated_Source/PSoC5/CyLib.c **** *
2159:./Generated_Source/PSoC5/CyLib.c **** * Return:
2160:./Generated_Source/PSoC5/CyLib.c **** *   void.
2161:./Generated_Source/PSoC5/CyLib.c **** *
2162:./Generated_Source/PSoC5/CyLib.c **** *******************************************************************************/
2163:./Generated_Source/PSoC5/CyLib.c **** void CyIntClearPending(uint8 number) 
2164:./Generated_Source/PSoC5/CyLib.c **** {
 3574              		.loc 1 2164 0
 3575              		.cfi_startproc
 3576              		@ args = 0, pretend = 0, frame = 16
 3577              		@ frame_needed = 1, uses_anonymous_args = 0
 3578              		@ link register save eliminated.
 3579 0000 80B4     		push	{r7}
 3580              	.LCFI153:
 3581              		.cfi_def_cfa_offset 4
 3582 0002 85B0     		sub	sp, sp, #20
 3583              	.LCFI154:
 3584              		.cfi_def_cfa_offset 24
 3585 0004 00AF     		add	r7, sp, #0
 3586              		.cfi_offset 7, -4
 3587              	.LCFI155:
 3588              		.cfi_def_cfa_register 7
 3589 0006 0346     		mov	r3, r0
ARM GAS  C:\Users\CHARLI~1\AppData\Local\Temp\cc78mmP1.s 			page 102


 3590 0008 FB71     		strb	r3, [r7, #7]
2165:./Generated_Source/PSoC5/CyLib.c ****     reg32 * pendReg;
2166:./Generated_Source/PSoC5/CyLib.c **** 
2167:./Generated_Source/PSoC5/CyLib.c **** 
2168:./Generated_Source/PSoC5/CyLib.c ****     /* Get a pointer to the Interrupt clear pending register. */
2169:./Generated_Source/PSoC5/CyLib.c ****     pendReg = CYINT_CLR_PEND;
 3591              		.loc 1 2169 0
 3592 000a 4EF28023 		movw	r3, #:lower16:-536812928
 3593 000e CEF20003 		movt	r3, #:upper16:-536812928
 3594 0012 FB60     		str	r3, [r7, #12]
2170:./Generated_Source/PSoC5/CyLib.c **** 
2171:./Generated_Source/PSoC5/CyLib.c ****     /* Clear the pending interrupt. */
2172:./Generated_Source/PSoC5/CyLib.c ****     *pendReg = 1 << (0x1F & number);
 3595              		.loc 1 2172 0
 3596 0014 FB79     		ldrb	r3, [r7, #7]	@ zero_extendqisi2
 3597 0016 03F01F03 		and	r3, r3, #31
 3598 001a 4FF00102 		mov	r2, #1
 3599 001e 02FA03F3 		lsl	r3, r2, r3
 3600 0022 1A46     		mov	r2, r3
 3601 0024 FB68     		ldr	r3, [r7, #12]
 3602 0026 1A60     		str	r2, [r3, #0]
2173:./Generated_Source/PSoC5/CyLib.c **** }
 3603              		.loc 1 2173 0
 3604 0028 07F11407 		add	r7, r7, #20
 3605 002c BD46     		mov	sp, r7
 3606 002e 80BC     		pop	{r7}
 3607 0030 7047     		bx	lr
 3608              		.cfi_endproc
 3609              	.LFE57:
 3610              		.size	CyIntClearPending, .-CyIntClearPending
 3611 0032 00BF     		.text
 3612              	.Letext0:
 3613              		.section	.debug_loc,"",%progbits
 3614              	.Ldebug_loc0:
 3615              	.LLST0:
 3616 0000 00000000 		.4byte	.LFB0
 3617 0004 02000000 		.4byte	.LCFI0
 3618 0008 0100     		.2byte	0x1
 3619 000a 5D       		.byte	0x5d
 3620 000b 02000000 		.4byte	.LCFI0
 3621 000f 04000000 		.4byte	.LCFI1
 3622 0013 0200     		.2byte	0x2
 3623 0015 7D       		.byte	0x7d
 3624 0016 08       		.sleb128 8
 3625 0017 04000000 		.4byte	.LCFI1
 3626 001b 06000000 		.4byte	.LCFI2
 3627 001f 0200     		.2byte	0x2
 3628 0021 7D       		.byte	0x7d
 3629 0022 18       		.sleb128 24
 3630 0023 06000000 		.4byte	.LCFI2
 3631 0027 16010000 		.4byte	.LFE0
 3632 002b 0200     		.2byte	0x2
 3633 002d 77       		.byte	0x77
 3634 002e 18       		.sleb128 24
 3635 002f 00000000 		.4byte	0x0
 3636 0033 00000000 		.4byte	0x0
 3637              	.LLST1:
ARM GAS  C:\Users\CHARLI~1\AppData\Local\Temp\cc78mmP1.s 			page 103


 3638 0037 00000000 		.4byte	.LFB1
 3639 003b 02000000 		.4byte	.LCFI3
 3640 003f 0100     		.2byte	0x1
 3641 0041 5D       		.byte	0x5d
 3642 0042 02000000 		.4byte	.LCFI3
 3643 0046 04000000 		.4byte	.LCFI4
 3644 004a 0200     		.2byte	0x2
 3645 004c 7D       		.byte	0x7d
 3646 004d 04       		.sleb128 4
 3647 004e 04000000 		.4byte	.LCFI4
 3648 0052 24000000 		.4byte	.LFE1
 3649 0056 0200     		.2byte	0x2
 3650 0058 77       		.byte	0x77
 3651 0059 04       		.sleb128 4
 3652 005a 00000000 		.4byte	0x0
 3653 005e 00000000 		.4byte	0x0
 3654              	.LLST2:
 3655 0062 00000000 		.4byte	.LFB2
 3656 0066 02000000 		.4byte	.LCFI5
 3657 006a 0100     		.2byte	0x1
 3658 006c 5D       		.byte	0x5d
 3659 006d 02000000 		.4byte	.LCFI5
 3660 0071 04000000 		.4byte	.LCFI6
 3661 0075 0200     		.2byte	0x2
 3662 0077 7D       		.byte	0x7d
 3663 0078 08       		.sleb128 8
 3664 0079 04000000 		.4byte	.LCFI6
 3665 007d 06000000 		.4byte	.LCFI7
 3666 0081 0200     		.2byte	0x2
 3667 0083 7D       		.byte	0x7d
 3668 0084 10       		.sleb128 16
 3669 0085 06000000 		.4byte	.LCFI7
 3670 0089 A6000000 		.4byte	.LFE2
 3671 008d 0200     		.2byte	0x2
 3672 008f 77       		.byte	0x77
 3673 0090 10       		.sleb128 16
 3674 0091 00000000 		.4byte	0x0
 3675 0095 00000000 		.4byte	0x0
 3676              	.LLST3:
 3677 0099 00000000 		.4byte	.LFB3
 3678 009d 02000000 		.4byte	.LCFI8
 3679 00a1 0100     		.2byte	0x1
 3680 00a3 5D       		.byte	0x5d
 3681 00a4 02000000 		.4byte	.LCFI8
 3682 00a8 04000000 		.4byte	.LCFI9
 3683 00ac 0200     		.2byte	0x2
 3684 00ae 7D       		.byte	0x7d
 3685 00af 08       		.sleb128 8
 3686 00b0 04000000 		.4byte	.LCFI9
 3687 00b4 06000000 		.4byte	.LCFI10
 3688 00b8 0200     		.2byte	0x2
 3689 00ba 7D       		.byte	0x7d
 3690 00bb 10       		.sleb128 16
 3691 00bc 06000000 		.4byte	.LCFI10
 3692 00c0 70000000 		.4byte	.LFE3
 3693 00c4 0200     		.2byte	0x2
 3694 00c6 77       		.byte	0x77
ARM GAS  C:\Users\CHARLI~1\AppData\Local\Temp\cc78mmP1.s 			page 104


 3695 00c7 10       		.sleb128 16
 3696 00c8 00000000 		.4byte	0x0
 3697 00cc 00000000 		.4byte	0x0
 3698              	.LLST4:
 3699 00d0 00000000 		.4byte	.LFB4
 3700 00d4 02000000 		.4byte	.LCFI11
 3701 00d8 0100     		.2byte	0x1
 3702 00da 5D       		.byte	0x5d
 3703 00db 02000000 		.4byte	.LCFI11
 3704 00df 04000000 		.4byte	.LCFI12
 3705 00e3 0200     		.2byte	0x2
 3706 00e5 7D       		.byte	0x7d
 3707 00e6 08       		.sleb128 8
 3708 00e7 04000000 		.4byte	.LCFI12
 3709 00eb 06000000 		.4byte	.LCFI13
 3710 00ef 0200     		.2byte	0x2
 3711 00f1 7D       		.byte	0x7d
 3712 00f2 18       		.sleb128 24
 3713 00f3 06000000 		.4byte	.LCFI13
 3714 00f7 D0000000 		.4byte	.LFE4
 3715 00fb 0200     		.2byte	0x2
 3716 00fd 77       		.byte	0x77
 3717 00fe 18       		.sleb128 24
 3718 00ff 00000000 		.4byte	0x0
 3719 0103 00000000 		.4byte	0x0
 3720              	.LLST5:
 3721 0107 00000000 		.4byte	.LFB5
 3722 010b 02000000 		.4byte	.LCFI14
 3723 010f 0100     		.2byte	0x1
 3724 0111 5D       		.byte	0x5d
 3725 0112 02000000 		.4byte	.LCFI14
 3726 0116 04000000 		.4byte	.LCFI15
 3727 011a 0200     		.2byte	0x2
 3728 011c 7D       		.byte	0x7d
 3729 011d 04       		.sleb128 4
 3730 011e 04000000 		.4byte	.LCFI15
 3731 0122 24000000 		.4byte	.LFE5
 3732 0126 0200     		.2byte	0x2
 3733 0128 77       		.byte	0x77
 3734 0129 04       		.sleb128 4
 3735 012a 00000000 		.4byte	0x0
 3736 012e 00000000 		.4byte	0x0
 3737              	.LLST6:
 3738 0132 00000000 		.4byte	.LFB6
 3739 0136 02000000 		.4byte	.LCFI16
 3740 013a 0100     		.2byte	0x1
 3741 013c 5D       		.byte	0x5d
 3742 013d 02000000 		.4byte	.LCFI16
 3743 0141 04000000 		.4byte	.LCFI17
 3744 0145 0200     		.2byte	0x2
 3745 0147 7D       		.byte	0x7d
 3746 0148 08       		.sleb128 8
 3747 0149 04000000 		.4byte	.LCFI17
 3748 014d 06000000 		.4byte	.LCFI18
 3749 0151 0200     		.2byte	0x2
 3750 0153 7D       		.byte	0x7d
 3751 0154 10       		.sleb128 16
ARM GAS  C:\Users\CHARLI~1\AppData\Local\Temp\cc78mmP1.s 			page 105


 3752 0155 06000000 		.4byte	.LCFI18
 3753 0159 44010000 		.4byte	.LFE6
 3754 015d 0200     		.2byte	0x2
 3755 015f 77       		.byte	0x77
 3756 0160 10       		.sleb128 16
 3757 0161 00000000 		.4byte	0x0
 3758 0165 00000000 		.4byte	0x0
 3759              	.LLST7:
 3760 0169 00000000 		.4byte	.LFB7
 3761 016d 02000000 		.4byte	.LCFI19
 3762 0171 0100     		.2byte	0x1
 3763 0173 5D       		.byte	0x5d
 3764 0174 02000000 		.4byte	.LCFI19
 3765 0178 04000000 		.4byte	.LCFI20
 3766 017c 0200     		.2byte	0x2
 3767 017e 7D       		.byte	0x7d
 3768 017f 08       		.sleb128 8
 3769 0180 04000000 		.4byte	.LCFI20
 3770 0184 06000000 		.4byte	.LCFI21
 3771 0188 0200     		.2byte	0x2
 3772 018a 7D       		.byte	0x7d
 3773 018b 18       		.sleb128 24
 3774 018c 06000000 		.4byte	.LCFI21
 3775 0190 12020000 		.4byte	.LFE7
 3776 0194 0200     		.2byte	0x2
 3777 0196 77       		.byte	0x77
 3778 0197 18       		.sleb128 24
 3779 0198 00000000 		.4byte	0x0
 3780 019c 00000000 		.4byte	0x0
 3781              	.LLST8:
 3782 01a0 00000000 		.4byte	.LFB8
 3783 01a4 02000000 		.4byte	.LCFI22
 3784 01a8 0100     		.2byte	0x1
 3785 01aa 5D       		.byte	0x5d
 3786 01ab 02000000 		.4byte	.LCFI22
 3787 01af 04000000 		.4byte	.LCFI23
 3788 01b3 0200     		.2byte	0x2
 3789 01b5 7D       		.byte	0x7d
 3790 01b6 08       		.sleb128 8
 3791 01b7 04000000 		.4byte	.LCFI23
 3792 01bb 06000000 		.4byte	.LCFI24
 3793 01bf 0200     		.2byte	0x2
 3794 01c1 7D       		.byte	0x7d
 3795 01c2 10       		.sleb128 16
 3796 01c3 06000000 		.4byte	.LCFI24
 3797 01c7 B8000000 		.4byte	.LFE8
 3798 01cb 0200     		.2byte	0x2
 3799 01cd 77       		.byte	0x77
 3800 01ce 10       		.sleb128 16
 3801 01cf 00000000 		.4byte	0x0
 3802 01d3 00000000 		.4byte	0x0
 3803              	.LLST9:
 3804 01d7 00000000 		.4byte	.LFB9
 3805 01db 02000000 		.4byte	.LCFI25
 3806 01df 0100     		.2byte	0x1
 3807 01e1 5D       		.byte	0x5d
 3808 01e2 02000000 		.4byte	.LCFI25
ARM GAS  C:\Users\CHARLI~1\AppData\Local\Temp\cc78mmP1.s 			page 106


 3809 01e6 04000000 		.4byte	.LCFI26
 3810 01ea 0200     		.2byte	0x2
 3811 01ec 7D       		.byte	0x7d
 3812 01ed 04       		.sleb128 4
 3813 01ee 04000000 		.4byte	.LCFI26
 3814 01f2 26000000 		.4byte	.LFE9
 3815 01f6 0200     		.2byte	0x2
 3816 01f8 77       		.byte	0x77
 3817 01f9 04       		.sleb128 4
 3818 01fa 00000000 		.4byte	0x0
 3819 01fe 00000000 		.4byte	0x0
 3820              	.LLST10:
 3821 0202 00000000 		.4byte	.LFB10
 3822 0206 02000000 		.4byte	.LCFI27
 3823 020a 0100     		.2byte	0x1
 3824 020c 5D       		.byte	0x5d
 3825 020d 02000000 		.4byte	.LCFI27
 3826 0211 04000000 		.4byte	.LCFI28
 3827 0215 0200     		.2byte	0x2
 3828 0217 7D       		.byte	0x7d
 3829 0218 04       		.sleb128 4
 3830 0219 04000000 		.4byte	.LCFI28
 3831 021d 24000000 		.4byte	.LFE10
 3832 0221 0200     		.2byte	0x2
 3833 0223 77       		.byte	0x77
 3834 0224 04       		.sleb128 4
 3835 0225 00000000 		.4byte	0x0
 3836 0229 00000000 		.4byte	0x0
 3837              	.LLST11:
 3838 022d 00000000 		.4byte	.LFB11
 3839 0231 02000000 		.4byte	.LCFI29
 3840 0235 0100     		.2byte	0x1
 3841 0237 5D       		.byte	0x5d
 3842 0238 02000000 		.4byte	.LCFI29
 3843 023c 04000000 		.4byte	.LCFI30
 3844 0240 0200     		.2byte	0x2
 3845 0242 7D       		.byte	0x7d
 3846 0243 04       		.sleb128 4
 3847 0244 04000000 		.4byte	.LCFI30
 3848 0248 06000000 		.4byte	.LCFI31
 3849 024c 0200     		.2byte	0x2
 3850 024e 7D       		.byte	0x7d
 3851 024f 18       		.sleb128 24
 3852 0250 06000000 		.4byte	.LCFI31
 3853 0254 42000000 		.4byte	.LFE11
 3854 0258 0200     		.2byte	0x2
 3855 025a 77       		.byte	0x77
 3856 025b 18       		.sleb128 24
 3857 025c 00000000 		.4byte	0x0
 3858 0260 00000000 		.4byte	0x0
 3859              	.LLST12:
 3860 0264 00000000 		.4byte	.LFB12
 3861 0268 02000000 		.4byte	.LCFI32
 3862 026c 0100     		.2byte	0x1
 3863 026e 5D       		.byte	0x5d
 3864 026f 02000000 		.4byte	.LCFI32
 3865 0273 04000000 		.4byte	.LCFI33
ARM GAS  C:\Users\CHARLI~1\AppData\Local\Temp\cc78mmP1.s 			page 107


 3866 0277 0200     		.2byte	0x2
 3867 0279 7D       		.byte	0x7d
 3868 027a 04       		.sleb128 4
 3869 027b 04000000 		.4byte	.LCFI33
 3870 027f 06000000 		.4byte	.LCFI34
 3871 0283 0200     		.2byte	0x2
 3872 0285 7D       		.byte	0x7d
 3873 0286 10       		.sleb128 16
 3874 0287 06000000 		.4byte	.LCFI34
 3875 028b 20000000 		.4byte	.LFE12
 3876 028f 0200     		.2byte	0x2
 3877 0291 77       		.byte	0x77
 3878 0292 10       		.sleb128 16
 3879 0293 00000000 		.4byte	0x0
 3880 0297 00000000 		.4byte	0x0
 3881              	.LLST13:
 3882 029b 00000000 		.4byte	.LFB13
 3883 029f 02000000 		.4byte	.LCFI35
 3884 02a3 0100     		.2byte	0x1
 3885 02a5 5D       		.byte	0x5d
 3886 02a6 02000000 		.4byte	.LCFI35
 3887 02aa 04000000 		.4byte	.LCFI36
 3888 02ae 0200     		.2byte	0x2
 3889 02b0 7D       		.byte	0x7d
 3890 02b1 04       		.sleb128 4
 3891 02b2 04000000 		.4byte	.LCFI36
 3892 02b6 06000000 		.4byte	.LCFI37
 3893 02ba 0200     		.2byte	0x2
 3894 02bc 7D       		.byte	0x7d
 3895 02bd 10       		.sleb128 16
 3896 02be 06000000 		.4byte	.LCFI37
 3897 02c2 84000000 		.4byte	.LFE13
 3898 02c6 0200     		.2byte	0x2
 3899 02c8 77       		.byte	0x77
 3900 02c9 10       		.sleb128 16
 3901 02ca 00000000 		.4byte	0x0
 3902 02ce 00000000 		.4byte	0x0
 3903              	.LLST14:
 3904 02d2 00000000 		.4byte	.LFB14
 3905 02d6 02000000 		.4byte	.LCFI38
 3906 02da 0100     		.2byte	0x1
 3907 02dc 5D       		.byte	0x5d
 3908 02dd 02000000 		.4byte	.LCFI38
 3909 02e1 04000000 		.4byte	.LCFI39
 3910 02e5 0200     		.2byte	0x2
 3911 02e7 7D       		.byte	0x7d
 3912 02e8 08       		.sleb128 8
 3913 02e9 04000000 		.4byte	.LCFI39
 3914 02ed 06000000 		.4byte	.LCFI40
 3915 02f1 0200     		.2byte	0x2
 3916 02f3 7D       		.byte	0x7d
 3917 02f4 18       		.sleb128 24
 3918 02f5 06000000 		.4byte	.LCFI40
 3919 02f9 A4000000 		.4byte	.LFE14
 3920 02fd 0200     		.2byte	0x2
 3921 02ff 77       		.byte	0x77
 3922 0300 18       		.sleb128 24
ARM GAS  C:\Users\CHARLI~1\AppData\Local\Temp\cc78mmP1.s 			page 108


 3923 0301 00000000 		.4byte	0x0
 3924 0305 00000000 		.4byte	0x0
 3925              	.LLST15:
 3926 0309 00000000 		.4byte	.LFB15
 3927 030d 02000000 		.4byte	.LCFI41
 3928 0311 0100     		.2byte	0x1
 3929 0313 5D       		.byte	0x5d
 3930 0314 02000000 		.4byte	.LCFI41
 3931 0318 04000000 		.4byte	.LCFI42
 3932 031c 0200     		.2byte	0x2
 3933 031e 7D       		.byte	0x7d
 3934 031f 04       		.sleb128 4
 3935 0320 04000000 		.4byte	.LCFI42
 3936 0324 06000000 		.4byte	.LCFI43
 3937 0328 0200     		.2byte	0x2
 3938 032a 7D       		.byte	0x7d
 3939 032b 10       		.sleb128 16
 3940 032c 06000000 		.4byte	.LCFI43
 3941 0330 14000000 		.4byte	.LFE15
 3942 0334 0200     		.2byte	0x2
 3943 0336 77       		.byte	0x77
 3944 0337 10       		.sleb128 16
 3945 0338 00000000 		.4byte	0x0
 3946 033c 00000000 		.4byte	0x0
 3947              	.LLST16:
 3948 0340 00000000 		.4byte	.LFB16
 3949 0344 02000000 		.4byte	.LCFI44
 3950 0348 0100     		.2byte	0x1
 3951 034a 5D       		.byte	0x5d
 3952 034b 02000000 		.4byte	.LCFI44
 3953 034f 04000000 		.4byte	.LCFI45
 3954 0353 0200     		.2byte	0x2
 3955 0355 7D       		.byte	0x7d
 3956 0356 04       		.sleb128 4
 3957 0357 04000000 		.4byte	.LCFI45
 3958 035b 06000000 		.4byte	.LCFI46
 3959 035f 0200     		.2byte	0x2
 3960 0361 7D       		.byte	0x7d
 3961 0362 10       		.sleb128 16
 3962 0363 06000000 		.4byte	.LCFI46
 3963 0367 40000000 		.4byte	.LFE16
 3964 036b 0200     		.2byte	0x2
 3965 036d 77       		.byte	0x77
 3966 036e 10       		.sleb128 16
 3967 036f 00000000 		.4byte	0x0
 3968 0373 00000000 		.4byte	0x0
 3969              	.LLST17:
 3970 0377 00000000 		.4byte	.LFB17
 3971 037b 02000000 		.4byte	.LCFI47
 3972 037f 0100     		.2byte	0x1
 3973 0381 5D       		.byte	0x5d
 3974 0382 02000000 		.4byte	.LCFI47
 3975 0386 04000000 		.4byte	.LCFI48
 3976 038a 0200     		.2byte	0x2
 3977 038c 7D       		.byte	0x7d
 3978 038d 04       		.sleb128 4
 3979 038e 04000000 		.4byte	.LCFI48
ARM GAS  C:\Users\CHARLI~1\AppData\Local\Temp\cc78mmP1.s 			page 109


 3980 0392 26000000 		.4byte	.LFE17
 3981 0396 0200     		.2byte	0x2
 3982 0398 77       		.byte	0x77
 3983 0399 04       		.sleb128 4
 3984 039a 00000000 		.4byte	0x0
 3985 039e 00000000 		.4byte	0x0
 3986              	.LLST18:
 3987 03a2 00000000 		.4byte	.LFB18
 3988 03a6 02000000 		.4byte	.LCFI49
 3989 03aa 0100     		.2byte	0x1
 3990 03ac 5D       		.byte	0x5d
 3991 03ad 02000000 		.4byte	.LCFI49
 3992 03b1 04000000 		.4byte	.LCFI50
 3993 03b5 0200     		.2byte	0x2
 3994 03b7 7D       		.byte	0x7d
 3995 03b8 04       		.sleb128 4
 3996 03b9 04000000 		.4byte	.LCFI50
 3997 03bd 24000000 		.4byte	.LFE18
 3998 03c1 0200     		.2byte	0x2
 3999 03c3 77       		.byte	0x77
 4000 03c4 04       		.sleb128 4
 4001 03c5 00000000 		.4byte	0x0
 4002 03c9 00000000 		.4byte	0x0
 4003              	.LLST19:
 4004 03cd 00000000 		.4byte	.LFB19
 4005 03d1 02000000 		.4byte	.LCFI51
 4006 03d5 0100     		.2byte	0x1
 4007 03d7 5D       		.byte	0x5d
 4008 03d8 02000000 		.4byte	.LCFI51
 4009 03dc 04000000 		.4byte	.LCFI52
 4010 03e0 0200     		.2byte	0x2
 4011 03e2 7D       		.byte	0x7d
 4012 03e3 04       		.sleb128 4
 4013 03e4 04000000 		.4byte	.LCFI52
 4014 03e8 26000000 		.4byte	.LFE19
 4015 03ec 0200     		.2byte	0x2
 4016 03ee 77       		.byte	0x77
 4017 03ef 04       		.sleb128 4
 4018 03f0 00000000 		.4byte	0x0
 4019 03f4 00000000 		.4byte	0x0
 4020              	.LLST20:
 4021 03f8 00000000 		.4byte	.LFB20
 4022 03fc 02000000 		.4byte	.LCFI53
 4023 0400 0100     		.2byte	0x1
 4024 0402 5D       		.byte	0x5d
 4025 0403 02000000 		.4byte	.LCFI53
 4026 0407 04000000 		.4byte	.LCFI54
 4027 040b 0200     		.2byte	0x2
 4028 040d 7D       		.byte	0x7d
 4029 040e 04       		.sleb128 4
 4030 040f 04000000 		.4byte	.LCFI54
 4031 0413 24000000 		.4byte	.LFE20
 4032 0417 0200     		.2byte	0x2
 4033 0419 77       		.byte	0x77
 4034 041a 04       		.sleb128 4
 4035 041b 00000000 		.4byte	0x0
 4036 041f 00000000 		.4byte	0x0
ARM GAS  C:\Users\CHARLI~1\AppData\Local\Temp\cc78mmP1.s 			page 110


 4037              	.LLST21:
 4038 0423 00000000 		.4byte	.LFB21
 4039 0427 02000000 		.4byte	.LCFI55
 4040 042b 0100     		.2byte	0x1
 4041 042d 5D       		.byte	0x5d
 4042 042e 02000000 		.4byte	.LCFI55
 4043 0432 04000000 		.4byte	.LCFI56
 4044 0436 0200     		.2byte	0x2
 4045 0438 7D       		.byte	0x7d
 4046 0439 04       		.sleb128 4
 4047 043a 04000000 		.4byte	.LCFI56
 4048 043e 26000000 		.4byte	.LFE21
 4049 0442 0200     		.2byte	0x2
 4050 0444 77       		.byte	0x77
 4051 0445 04       		.sleb128 4
 4052 0446 00000000 		.4byte	0x0
 4053 044a 00000000 		.4byte	0x0
 4054              	.LLST22:
 4055 044e 00000000 		.4byte	.LFB22
 4056 0452 02000000 		.4byte	.LCFI57
 4057 0456 0100     		.2byte	0x1
 4058 0458 5D       		.byte	0x5d
 4059 0459 02000000 		.4byte	.LCFI57
 4060 045d 04000000 		.4byte	.LCFI58
 4061 0461 0200     		.2byte	0x2
 4062 0463 7D       		.byte	0x7d
 4063 0464 04       		.sleb128 4
 4064 0465 04000000 		.4byte	.LCFI58
 4065 0469 24000000 		.4byte	.LFE22
 4066 046d 0200     		.2byte	0x2
 4067 046f 77       		.byte	0x77
 4068 0470 04       		.sleb128 4
 4069 0471 00000000 		.4byte	0x0
 4070 0475 00000000 		.4byte	0x0
 4071              	.LLST23:
 4072 0479 00000000 		.4byte	.LFB23
 4073 047d 02000000 		.4byte	.LCFI59
 4074 0481 0100     		.2byte	0x1
 4075 0483 5D       		.byte	0x5d
 4076 0484 02000000 		.4byte	.LCFI59
 4077 0488 04000000 		.4byte	.LCFI60
 4078 048c 0200     		.2byte	0x2
 4079 048e 7D       		.byte	0x7d
 4080 048f 04       		.sleb128 4
 4081 0490 04000000 		.4byte	.LCFI60
 4082 0494 06000000 		.4byte	.LCFI61
 4083 0498 0200     		.2byte	0x2
 4084 049a 7D       		.byte	0x7d
 4085 049b 10       		.sleb128 16
 4086 049c 06000000 		.4byte	.LCFI61
 4087 04a0 42000000 		.4byte	.LFE23
 4088 04a4 0200     		.2byte	0x2
 4089 04a6 77       		.byte	0x77
 4090 04a7 10       		.sleb128 16
 4091 04a8 00000000 		.4byte	0x0
 4092 04ac 00000000 		.4byte	0x0
 4093              	.LLST24:
ARM GAS  C:\Users\CHARLI~1\AppData\Local\Temp\cc78mmP1.s 			page 111


 4094 04b0 00000000 		.4byte	.LFB24
 4095 04b4 02000000 		.4byte	.LCFI62
 4096 04b8 0100     		.2byte	0x1
 4097 04ba 5D       		.byte	0x5d
 4098 04bb 02000000 		.4byte	.LCFI62
 4099 04bf 04000000 		.4byte	.LCFI63
 4100 04c3 0200     		.2byte	0x2
 4101 04c5 7D       		.byte	0x7d
 4102 04c6 04       		.sleb128 4
 4103 04c7 04000000 		.4byte	.LCFI63
 4104 04cb 06000000 		.4byte	.LCFI64
 4105 04cf 0200     		.2byte	0x2
 4106 04d1 7D       		.byte	0x7d
 4107 04d2 18       		.sleb128 24
 4108 04d3 06000000 		.4byte	.LCFI64
 4109 04d7 58000000 		.4byte	.LFE24
 4110 04db 0200     		.2byte	0x2
 4111 04dd 77       		.byte	0x77
 4112 04de 18       		.sleb128 24
 4113 04df 00000000 		.4byte	0x0
 4114 04e3 00000000 		.4byte	0x0
 4115              	.LLST25:
 4116 04e7 00000000 		.4byte	.LFB25
 4117 04eb 02000000 		.4byte	.LCFI65
 4118 04ef 0100     		.2byte	0x1
 4119 04f1 5D       		.byte	0x5d
 4120 04f2 02000000 		.4byte	.LCFI65
 4121 04f6 04000000 		.4byte	.LCFI66
 4122 04fa 0200     		.2byte	0x2
 4123 04fc 7D       		.byte	0x7d
 4124 04fd 04       		.sleb128 4
 4125 04fe 04000000 		.4byte	.LCFI66
 4126 0502 06000000 		.4byte	.LCFI67
 4127 0506 0200     		.2byte	0x2
 4128 0508 7D       		.byte	0x7d
 4129 0509 10       		.sleb128 16
 4130 050a 06000000 		.4byte	.LCFI67
 4131 050e 7C000000 		.4byte	.LFE25
 4132 0512 0200     		.2byte	0x2
 4133 0514 77       		.byte	0x77
 4134 0515 10       		.sleb128 16
 4135 0516 00000000 		.4byte	0x0
 4136 051a 00000000 		.4byte	0x0
 4137              	.LLST26:
 4138 051e 00000000 		.4byte	.LFB26
 4139 0522 02000000 		.4byte	.LCFI68
 4140 0526 0100     		.2byte	0x1
 4141 0528 5D       		.byte	0x5d
 4142 0529 02000000 		.4byte	.LCFI68
 4143 052d 04000000 		.4byte	.LCFI69
 4144 0531 0200     		.2byte	0x2
 4145 0533 7D       		.byte	0x7d
 4146 0534 04       		.sleb128 4
 4147 0535 04000000 		.4byte	.LCFI69
 4148 0539 24000000 		.4byte	.LFE26
 4149 053d 0200     		.2byte	0x2
 4150 053f 77       		.byte	0x77
ARM GAS  C:\Users\CHARLI~1\AppData\Local\Temp\cc78mmP1.s 			page 112


 4151 0540 04       		.sleb128 4
 4152 0541 00000000 		.4byte	0x0
 4153 0545 00000000 		.4byte	0x0
 4154              	.LLST27:
 4155 0549 00000000 		.4byte	.LFB27
 4156 054d 02000000 		.4byte	.LCFI70
 4157 0551 0100     		.2byte	0x1
 4158 0553 5D       		.byte	0x5d
 4159 0554 02000000 		.4byte	.LCFI70
 4160 0558 04000000 		.4byte	.LCFI71
 4161 055c 0200     		.2byte	0x2
 4162 055e 7D       		.byte	0x7d
 4163 055f 04       		.sleb128 4
 4164 0560 04000000 		.4byte	.LCFI71
 4165 0564 06000000 		.4byte	.LCFI72
 4166 0568 0200     		.2byte	0x2
 4167 056a 7D       		.byte	0x7d
 4168 056b 10       		.sleb128 16
 4169 056c 06000000 		.4byte	.LCFI72
 4170 0570 24000000 		.4byte	.LFE27
 4171 0574 0200     		.2byte	0x2
 4172 0576 77       		.byte	0x77
 4173 0577 10       		.sleb128 16
 4174 0578 00000000 		.4byte	0x0
 4175 057c 00000000 		.4byte	0x0
 4176              	.LLST28:
 4177 0580 00000000 		.4byte	.LFB28
 4178 0584 02000000 		.4byte	.LCFI73
 4179 0588 0100     		.2byte	0x1
 4180 058a 5D       		.byte	0x5d
 4181 058b 02000000 		.4byte	.LCFI73
 4182 058f 04000000 		.4byte	.LCFI74
 4183 0593 0200     		.2byte	0x2
 4184 0595 7D       		.byte	0x7d
 4185 0596 04       		.sleb128 4
 4186 0597 04000000 		.4byte	.LCFI74
 4187 059b 06000000 		.4byte	.LCFI75
 4188 059f 0200     		.2byte	0x2
 4189 05a1 7D       		.byte	0x7d
 4190 05a2 18       		.sleb128 24
 4191 05a3 06000000 		.4byte	.LCFI75
 4192 05a7 58000000 		.4byte	.LFE28
 4193 05ab 0200     		.2byte	0x2
 4194 05ad 77       		.byte	0x77
 4195 05ae 18       		.sleb128 24
 4196 05af 00000000 		.4byte	0x0
 4197 05b3 00000000 		.4byte	0x0
 4198              	.LLST29:
 4199 05b7 00000000 		.4byte	.LFB29
 4200 05bb 02000000 		.4byte	.LCFI76
 4201 05bf 0100     		.2byte	0x1
 4202 05c1 5D       		.byte	0x5d
 4203 05c2 02000000 		.4byte	.LCFI76
 4204 05c6 04000000 		.4byte	.LCFI77
 4205 05ca 0200     		.2byte	0x2
 4206 05cc 7D       		.byte	0x7d
 4207 05cd 08       		.sleb128 8
ARM GAS  C:\Users\CHARLI~1\AppData\Local\Temp\cc78mmP1.s 			page 113


 4208 05ce 04000000 		.4byte	.LCFI77
 4209 05d2 06000000 		.4byte	.LCFI78
 4210 05d6 0200     		.2byte	0x2
 4211 05d8 7D       		.byte	0x7d
 4212 05d9 20       		.sleb128 32
 4213 05da 06000000 		.4byte	.LCFI78
 4214 05de 5C010000 		.4byte	.LFE29
 4215 05e2 0200     		.2byte	0x2
 4216 05e4 77       		.byte	0x77
 4217 05e5 20       		.sleb128 32
 4218 05e6 00000000 		.4byte	0x0
 4219 05ea 00000000 		.4byte	0x0
 4220              	.LLST30:
 4221 05ee 00000000 		.4byte	.LFB30
 4222 05f2 02000000 		.4byte	.LCFI79
 4223 05f6 0100     		.2byte	0x1
 4224 05f8 5D       		.byte	0x5d
 4225 05f9 02000000 		.4byte	.LCFI79
 4226 05fd 04000000 		.4byte	.LCFI80
 4227 0601 0200     		.2byte	0x2
 4228 0603 7D       		.byte	0x7d
 4229 0604 04       		.sleb128 4
 4230 0605 04000000 		.4byte	.LCFI80
 4231 0609 24000000 		.4byte	.LFE30
 4232 060d 0200     		.2byte	0x2
 4233 060f 77       		.byte	0x77
 4234 0610 04       		.sleb128 4
 4235 0611 00000000 		.4byte	0x0
 4236 0615 00000000 		.4byte	0x0
 4237              	.LLST31:
 4238 0619 00000000 		.4byte	.LFB31
 4239 061d 02000000 		.4byte	.LCFI81
 4240 0621 0100     		.2byte	0x1
 4241 0623 5D       		.byte	0x5d
 4242 0624 02000000 		.4byte	.LCFI81
 4243 0628 04000000 		.4byte	.LCFI82
 4244 062c 0200     		.2byte	0x2
 4245 062e 7D       		.byte	0x7d
 4246 062f 04       		.sleb128 4
 4247 0630 04000000 		.4byte	.LCFI82
 4248 0634 24000000 		.4byte	.LFE31
 4249 0638 0200     		.2byte	0x2
 4250 063a 77       		.byte	0x77
 4251 063b 04       		.sleb128 4
 4252 063c 00000000 		.4byte	0x0
 4253 0640 00000000 		.4byte	0x0
 4254              	.LLST32:
 4255 0644 00000000 		.4byte	.LFB32
 4256 0648 02000000 		.4byte	.LCFI83
 4257 064c 0100     		.2byte	0x1
 4258 064e 5D       		.byte	0x5d
 4259 064f 02000000 		.4byte	.LCFI83
 4260 0653 04000000 		.4byte	.LCFI84
 4261 0657 0200     		.2byte	0x2
 4262 0659 7D       		.byte	0x7d
 4263 065a 04       		.sleb128 4
 4264 065b 04000000 		.4byte	.LCFI84
ARM GAS  C:\Users\CHARLI~1\AppData\Local\Temp\cc78mmP1.s 			page 114


 4265 065f 26000000 		.4byte	.LFE32
 4266 0663 0200     		.2byte	0x2
 4267 0665 77       		.byte	0x77
 4268 0666 04       		.sleb128 4
 4269 0667 00000000 		.4byte	0x0
 4270 066b 00000000 		.4byte	0x0
 4271              	.LLST33:
 4272 066f 00000000 		.4byte	.LFB33
 4273 0673 02000000 		.4byte	.LCFI85
 4274 0677 0100     		.2byte	0x1
 4275 0679 5D       		.byte	0x5d
 4276 067a 02000000 		.4byte	.LCFI85
 4277 067e 04000000 		.4byte	.LCFI86
 4278 0682 0200     		.2byte	0x2
 4279 0684 7D       		.byte	0x7d
 4280 0685 04       		.sleb128 4
 4281 0686 04000000 		.4byte	.LCFI86
 4282 068a 1E000000 		.4byte	.LFE33
 4283 068e 0200     		.2byte	0x2
 4284 0690 77       		.byte	0x77
 4285 0691 04       		.sleb128 4
 4286 0692 00000000 		.4byte	0x0
 4287 0696 00000000 		.4byte	0x0
 4288              	.LLST34:
 4289 069a 00000000 		.4byte	.LFB34
 4290 069e 02000000 		.4byte	.LCFI87
 4291 06a2 0100     		.2byte	0x1
 4292 06a4 5D       		.byte	0x5d
 4293 06a5 02000000 		.4byte	.LCFI87
 4294 06a9 04000000 		.4byte	.LCFI88
 4295 06ad 0200     		.2byte	0x2
 4296 06af 7D       		.byte	0x7d
 4297 06b0 04       		.sleb128 4
 4298 06b1 04000000 		.4byte	.LCFI88
 4299 06b5 26000000 		.4byte	.LFE34
 4300 06b9 0200     		.2byte	0x2
 4301 06bb 77       		.byte	0x77
 4302 06bc 04       		.sleb128 4
 4303 06bd 00000000 		.4byte	0x0
 4304 06c1 00000000 		.4byte	0x0
 4305              	.LLST35:
 4306 06c5 00000000 		.4byte	.LFB35
 4307 06c9 02000000 		.4byte	.LCFI89
 4308 06cd 0100     		.2byte	0x1
 4309 06cf 5D       		.byte	0x5d
 4310 06d0 02000000 		.4byte	.LCFI89
 4311 06d4 04000000 		.4byte	.LCFI90
 4312 06d8 0200     		.2byte	0x2
 4313 06da 7D       		.byte	0x7d
 4314 06db 04       		.sleb128 4
 4315 06dc 04000000 		.4byte	.LCFI90
 4316 06e0 24000000 		.4byte	.LFE35
 4317 06e4 0200     		.2byte	0x2
 4318 06e6 77       		.byte	0x77
 4319 06e7 04       		.sleb128 4
 4320 06e8 00000000 		.4byte	0x0
 4321 06ec 00000000 		.4byte	0x0
ARM GAS  C:\Users\CHARLI~1\AppData\Local\Temp\cc78mmP1.s 			page 115


 4322              	.LLST36:
 4323 06f0 00000000 		.4byte	.LFB36
 4324 06f4 02000000 		.4byte	.LCFI91
 4325 06f8 0100     		.2byte	0x1
 4326 06fa 5D       		.byte	0x5d
 4327 06fb 02000000 		.4byte	.LCFI91
 4328 06ff 04000000 		.4byte	.LCFI92
 4329 0703 0200     		.2byte	0x2
 4330 0705 7D       		.byte	0x7d
 4331 0706 04       		.sleb128 4
 4332 0707 04000000 		.4byte	.LCFI92
 4333 070b 06000000 		.4byte	.LCFI93
 4334 070f 0200     		.2byte	0x2
 4335 0711 7D       		.byte	0x7d
 4336 0712 10       		.sleb128 16
 4337 0713 06000000 		.4byte	.LCFI93
 4338 0717 3C000000 		.4byte	.LFE36
 4339 071b 0200     		.2byte	0x2
 4340 071d 77       		.byte	0x77
 4341 071e 10       		.sleb128 16
 4342 071f 00000000 		.4byte	0x0
 4343 0723 00000000 		.4byte	0x0
 4344              	.LLST37:
 4345 0727 00000000 		.4byte	.LFB37
 4346 072b 02000000 		.4byte	.LCFI94
 4347 072f 0100     		.2byte	0x1
 4348 0731 5D       		.byte	0x5d
 4349 0732 02000000 		.4byte	.LCFI94
 4350 0736 04000000 		.4byte	.LCFI95
 4351 073a 0200     		.2byte	0x2
 4352 073c 7D       		.byte	0x7d
 4353 073d 04       		.sleb128 4
 4354 073e 04000000 		.4byte	.LCFI95
 4355 0742 06000000 		.4byte	.LCFI96
 4356 0746 0200     		.2byte	0x2
 4357 0748 7D       		.byte	0x7d
 4358 0749 10       		.sleb128 16
 4359 074a 06000000 		.4byte	.LCFI96
 4360 074e 16000000 		.4byte	.LFE37
 4361 0752 0200     		.2byte	0x2
 4362 0754 77       		.byte	0x77
 4363 0755 10       		.sleb128 16
 4364 0756 00000000 		.4byte	0x0
 4365 075a 00000000 		.4byte	0x0
 4366              	.LLST38:
 4367 075e 00000000 		.4byte	.LFB38
 4368 0762 02000000 		.4byte	.LCFI97
 4369 0766 0100     		.2byte	0x1
 4370 0768 5D       		.byte	0x5d
 4371 0769 02000000 		.4byte	.LCFI97
 4372 076d 04000000 		.4byte	.LCFI98
 4373 0771 0200     		.2byte	0x2
 4374 0773 7D       		.byte	0x7d
 4375 0774 04       		.sleb128 4
 4376 0775 04000000 		.4byte	.LCFI98
 4377 0779 18000000 		.4byte	.LFE38
 4378 077d 0200     		.2byte	0x2
ARM GAS  C:\Users\CHARLI~1\AppData\Local\Temp\cc78mmP1.s 			page 116


 4379 077f 77       		.byte	0x77
 4380 0780 04       		.sleb128 4
 4381 0781 00000000 		.4byte	0x0
 4382 0785 00000000 		.4byte	0x0
 4383              	.LLST39:
 4384 0789 00000000 		.4byte	.LFB39
 4385 078d 02000000 		.4byte	.LCFI99
 4386 0791 0100     		.2byte	0x1
 4387 0793 5D       		.byte	0x5d
 4388 0794 02000000 		.4byte	.LCFI99
 4389 0798 04000000 		.4byte	.LCFI100
 4390 079c 0200     		.2byte	0x2
 4391 079e 7D       		.byte	0x7d
 4392 079f 08       		.sleb128 8
 4393 07a0 04000000 		.4byte	.LCFI100
 4394 07a4 06000000 		.4byte	.LCFI101
 4395 07a8 0200     		.2byte	0x2
 4396 07aa 7D       		.byte	0x7d
 4397 07ab 10       		.sleb128 16
 4398 07ac 06000000 		.4byte	.LCFI101
 4399 07b0 48000000 		.4byte	.LFE39
 4400 07b4 0200     		.2byte	0x2
 4401 07b6 77       		.byte	0x77
 4402 07b7 10       		.sleb128 16
 4403 07b8 00000000 		.4byte	0x0
 4404 07bc 00000000 		.4byte	0x0
 4405              	.LLST40:
 4406 07c0 00000000 		.4byte	.LFB40
 4407 07c4 02000000 		.4byte	.LCFI102
 4408 07c8 0100     		.2byte	0x1
 4409 07ca 5D       		.byte	0x5d
 4410 07cb 02000000 		.4byte	.LCFI102
 4411 07cf 04000000 		.4byte	.LCFI103
 4412 07d3 0200     		.2byte	0x2
 4413 07d5 7D       		.byte	0x7d
 4414 07d6 08       		.sleb128 8
 4415 07d7 04000000 		.4byte	.LCFI103
 4416 07db 06000000 		.4byte	.LCFI104
 4417 07df 0200     		.2byte	0x2
 4418 07e1 7D       		.byte	0x7d
 4419 07e2 10       		.sleb128 16
 4420 07e3 06000000 		.4byte	.LCFI104
 4421 07e7 28000000 		.4byte	.LFE40
 4422 07eb 0200     		.2byte	0x2
 4423 07ed 77       		.byte	0x77
 4424 07ee 10       		.sleb128 16
 4425 07ef 00000000 		.4byte	0x0
 4426 07f3 00000000 		.4byte	0x0
 4427              	.LLST41:
 4428 07f7 00000000 		.4byte	.LFB41
 4429 07fb 02000000 		.4byte	.LCFI105
 4430 07ff 0100     		.2byte	0x1
 4431 0801 5D       		.byte	0x5d
 4432 0802 02000000 		.4byte	.LCFI105
 4433 0806 04000000 		.4byte	.LCFI106
 4434 080a 0200     		.2byte	0x2
 4435 080c 7D       		.byte	0x7d
ARM GAS  C:\Users\CHARLI~1\AppData\Local\Temp\cc78mmP1.s 			page 117


 4436 080d 04       		.sleb128 4
 4437 080e 04000000 		.4byte	.LCFI106
 4438 0812 06000000 		.4byte	.LCFI107
 4439 0816 0200     		.2byte	0x2
 4440 0818 7D       		.byte	0x7d
 4441 0819 10       		.sleb128 16
 4442 081a 06000000 		.4byte	.LCFI107
 4443 081e AC000000 		.4byte	.LFE41
 4444 0822 0200     		.2byte	0x2
 4445 0824 77       		.byte	0x77
 4446 0825 10       		.sleb128 16
 4447 0826 00000000 		.4byte	0x0
 4448 082a 00000000 		.4byte	0x0
 4449              	.LLST42:
 4450 082e 00000000 		.4byte	.LFB42
 4451 0832 02000000 		.4byte	.LCFI108
 4452 0836 0100     		.2byte	0x1
 4453 0838 5D       		.byte	0x5d
 4454 0839 02000000 		.4byte	.LCFI108
 4455 083d 04000000 		.4byte	.LCFI109
 4456 0841 0200     		.2byte	0x2
 4457 0843 7D       		.byte	0x7d
 4458 0844 04       		.sleb128 4
 4459 0845 04000000 		.4byte	.LCFI109
 4460 0849 06000000 		.4byte	.LCFI110
 4461 084d 0200     		.2byte	0x2
 4462 084f 7D       		.byte	0x7d
 4463 0850 10       		.sleb128 16
 4464 0851 06000000 		.4byte	.LCFI110
 4465 0855 CC000000 		.4byte	.LFE42
 4466 0859 0200     		.2byte	0x2
 4467 085b 77       		.byte	0x77
 4468 085c 10       		.sleb128 16
 4469 085d 00000000 		.4byte	0x0
 4470 0861 00000000 		.4byte	0x0
 4471              	.LLST43:
 4472 0865 00000000 		.4byte	.LFB43
 4473 0869 02000000 		.4byte	.LCFI111
 4474 086d 0100     		.2byte	0x1
 4475 086f 5D       		.byte	0x5d
 4476 0870 02000000 		.4byte	.LCFI111
 4477 0874 04000000 		.4byte	.LCFI112
 4478 0878 0200     		.2byte	0x2
 4479 087a 7D       		.byte	0x7d
 4480 087b 04       		.sleb128 4
 4481 087c 04000000 		.4byte	.LCFI112
 4482 0880 06000000 		.4byte	.LCFI113
 4483 0884 0200     		.2byte	0x2
 4484 0886 7D       		.byte	0x7d
 4485 0887 10       		.sleb128 16
 4486 0888 06000000 		.4byte	.LCFI113
 4487 088c 44000000 		.4byte	.LFE43
 4488 0890 0200     		.2byte	0x2
 4489 0892 77       		.byte	0x77
 4490 0893 10       		.sleb128 16
 4491 0894 00000000 		.4byte	0x0
 4492 0898 00000000 		.4byte	0x0
ARM GAS  C:\Users\CHARLI~1\AppData\Local\Temp\cc78mmP1.s 			page 118


 4493              	.LLST44:
 4494 089c 00000000 		.4byte	.LFB44
 4495 08a0 02000000 		.4byte	.LCFI114
 4496 08a4 0100     		.2byte	0x1
 4497 08a6 5D       		.byte	0x5d
 4498 08a7 02000000 		.4byte	.LCFI114
 4499 08ab 04000000 		.4byte	.LCFI115
 4500 08af 0200     		.2byte	0x2
 4501 08b1 7D       		.byte	0x7d
 4502 08b2 04       		.sleb128 4
 4503 08b3 04000000 		.4byte	.LCFI115
 4504 08b7 06000000 		.4byte	.LCFI116
 4505 08bb 0200     		.2byte	0x2
 4506 08bd 7D       		.byte	0x7d
 4507 08be 10       		.sleb128 16
 4508 08bf 06000000 		.4byte	.LCFI116
 4509 08c3 2E000000 		.4byte	.LFE44
 4510 08c7 0200     		.2byte	0x2
 4511 08c9 77       		.byte	0x77
 4512 08ca 10       		.sleb128 16
 4513 08cb 00000000 		.4byte	0x0
 4514 08cf 00000000 		.4byte	0x0
 4515              	.LLST45:
 4516 08d3 00000000 		.4byte	.LFB45
 4517 08d7 02000000 		.4byte	.LCFI117
 4518 08db 0100     		.2byte	0x1
 4519 08dd 5D       		.byte	0x5d
 4520 08de 02000000 		.4byte	.LCFI117
 4521 08e2 04000000 		.4byte	.LCFI118
 4522 08e6 0200     		.2byte	0x2
 4523 08e8 7D       		.byte	0x7d
 4524 08e9 04       		.sleb128 4
 4525 08ea 04000000 		.4byte	.LCFI118
 4526 08ee 06000000 		.4byte	.LCFI119
 4527 08f2 0200     		.2byte	0x2
 4528 08f4 7D       		.byte	0x7d
 4529 08f5 10       		.sleb128 16
 4530 08f6 06000000 		.4byte	.LCFI119
 4531 08fa 1E000000 		.4byte	.LFE45
 4532 08fe 0200     		.2byte	0x2
 4533 0900 77       		.byte	0x77
 4534 0901 10       		.sleb128 16
 4535 0902 00000000 		.4byte	0x0
 4536 0906 00000000 		.4byte	0x0
 4537              	.LLST46:
 4538 090a 00000000 		.4byte	.LFB46
 4539 090e 02000000 		.4byte	.LCFI120
 4540 0912 0100     		.2byte	0x1
 4541 0914 5D       		.byte	0x5d
 4542 0915 02000000 		.4byte	.LCFI120
 4543 0919 04000000 		.4byte	.LCFI121
 4544 091d 0200     		.2byte	0x2
 4545 091f 7D       		.byte	0x7d
 4546 0920 04       		.sleb128 4
 4547 0921 04000000 		.4byte	.LCFI121
 4548 0925 06000000 		.4byte	.LCFI122
 4549 0929 0200     		.2byte	0x2
ARM GAS  C:\Users\CHARLI~1\AppData\Local\Temp\cc78mmP1.s 			page 119


 4550 092b 7D       		.byte	0x7d
 4551 092c 10       		.sleb128 16
 4552 092d 06000000 		.4byte	.LCFI122
 4553 0931 38000000 		.4byte	.LFE46
 4554 0935 0200     		.2byte	0x2
 4555 0937 77       		.byte	0x77
 4556 0938 10       		.sleb128 16
 4557 0939 00000000 		.4byte	0x0
 4558 093d 00000000 		.4byte	0x0
 4559              	.LLST47:
 4560 0941 00000000 		.4byte	.LFB47
 4561 0945 02000000 		.4byte	.LCFI123
 4562 0949 0100     		.2byte	0x1
 4563 094b 5D       		.byte	0x5d
 4564 094c 02000000 		.4byte	.LCFI123
 4565 0950 04000000 		.4byte	.LCFI124
 4566 0954 0200     		.2byte	0x2
 4567 0956 7D       		.byte	0x7d
 4568 0957 04       		.sleb128 4
 4569 0958 04000000 		.4byte	.LCFI124
 4570 095c 06000000 		.4byte	.LCFI125
 4571 0960 0200     		.2byte	0x2
 4572 0962 7D       		.byte	0x7d
 4573 0963 18       		.sleb128 24
 4574 0964 06000000 		.4byte	.LCFI125
 4575 0968 42000000 		.4byte	.LFE47
 4576 096c 0200     		.2byte	0x2
 4577 096e 77       		.byte	0x77
 4578 096f 18       		.sleb128 24
 4579 0970 00000000 		.4byte	0x0
 4580 0974 00000000 		.4byte	0x0
 4581              	.LLST48:
 4582 0978 00000000 		.4byte	.LFB48
 4583 097c 02000000 		.4byte	.LCFI126
 4584 0980 0100     		.2byte	0x1
 4585 0982 5D       		.byte	0x5d
 4586 0983 02000000 		.4byte	.LCFI126
 4587 0987 04000000 		.4byte	.LCFI127
 4588 098b 0200     		.2byte	0x2
 4589 098d 7D       		.byte	0x7d
 4590 098e 04       		.sleb128 4
 4591 098f 04000000 		.4byte	.LCFI127
 4592 0993 06000000 		.4byte	.LCFI128
 4593 0997 0200     		.2byte	0x2
 4594 0999 7D       		.byte	0x7d
 4595 099a 18       		.sleb128 24
 4596 099b 06000000 		.4byte	.LCFI128
 4597 099f 2E000000 		.4byte	.LFE48
 4598 09a3 0200     		.2byte	0x2
 4599 09a5 77       		.byte	0x77
 4600 09a6 18       		.sleb128 24
 4601 09a7 00000000 		.4byte	0x0
 4602 09ab 00000000 		.4byte	0x0
 4603              	.LLST49:
 4604 09af 00000000 		.4byte	.LFB49
 4605 09b3 02000000 		.4byte	.LCFI129
 4606 09b7 0100     		.2byte	0x1
ARM GAS  C:\Users\CHARLI~1\AppData\Local\Temp\cc78mmP1.s 			page 120


 4607 09b9 5D       		.byte	0x5d
 4608 09ba 02000000 		.4byte	.LCFI129
 4609 09be 04000000 		.4byte	.LCFI130
 4610 09c2 0200     		.2byte	0x2
 4611 09c4 7D       		.byte	0x7d
 4612 09c5 04       		.sleb128 4
 4613 09c6 04000000 		.4byte	.LCFI130
 4614 09ca 06000000 		.4byte	.LCFI131
 4615 09ce 0200     		.2byte	0x2
 4616 09d0 7D       		.byte	0x7d
 4617 09d1 18       		.sleb128 24
 4618 09d2 06000000 		.4byte	.LCFI131
 4619 09d6 4A000000 		.4byte	.LFE49
 4620 09da 0200     		.2byte	0x2
 4621 09dc 77       		.byte	0x77
 4622 09dd 18       		.sleb128 24
 4623 09de 00000000 		.4byte	0x0
 4624 09e2 00000000 		.4byte	0x0
 4625              	.LLST50:
 4626 09e6 00000000 		.4byte	.LFB50
 4627 09ea 02000000 		.4byte	.LCFI132
 4628 09ee 0100     		.2byte	0x1
 4629 09f0 5D       		.byte	0x5d
 4630 09f1 02000000 		.4byte	.LCFI132
 4631 09f5 04000000 		.4byte	.LCFI133
 4632 09f9 0200     		.2byte	0x2
 4633 09fb 7D       		.byte	0x7d
 4634 09fc 04       		.sleb128 4
 4635 09fd 04000000 		.4byte	.LCFI133
 4636 0a01 06000000 		.4byte	.LCFI134
 4637 0a05 0200     		.2byte	0x2
 4638 0a07 7D       		.byte	0x7d
 4639 0a08 18       		.sleb128 24
 4640 0a09 06000000 		.4byte	.LCFI134
 4641 0a0d 32000000 		.4byte	.LFE50
 4642 0a11 0200     		.2byte	0x2
 4643 0a13 77       		.byte	0x77
 4644 0a14 18       		.sleb128 24
 4645 0a15 00000000 		.4byte	0x0
 4646 0a19 00000000 		.4byte	0x0
 4647              	.LLST51:
 4648 0a1d 00000000 		.4byte	.LFB51
 4649 0a21 02000000 		.4byte	.LCFI135
 4650 0a25 0100     		.2byte	0x1
 4651 0a27 5D       		.byte	0x5d
 4652 0a28 02000000 		.4byte	.LCFI135
 4653 0a2c 04000000 		.4byte	.LCFI136
 4654 0a30 0200     		.2byte	0x2
 4655 0a32 7D       		.byte	0x7d
 4656 0a33 08       		.sleb128 8
 4657 0a34 04000000 		.4byte	.LCFI136
 4658 0a38 06000000 		.4byte	.LCFI137
 4659 0a3c 0200     		.2byte	0x2
 4660 0a3e 7D       		.byte	0x7d
 4661 0a3f 10       		.sleb128 16
 4662 0a40 06000000 		.4byte	.LCFI137
 4663 0a44 56000000 		.4byte	.LFE51
ARM GAS  C:\Users\CHARLI~1\AppData\Local\Temp\cc78mmP1.s 			page 121


 4664 0a48 0200     		.2byte	0x2
 4665 0a4a 77       		.byte	0x77
 4666 0a4b 10       		.sleb128 16
 4667 0a4c 00000000 		.4byte	0x0
 4668 0a50 00000000 		.4byte	0x0
 4669              	.LLST52:
 4670 0a54 00000000 		.4byte	.LFB52
 4671 0a58 02000000 		.4byte	.LCFI138
 4672 0a5c 0100     		.2byte	0x1
 4673 0a5e 5D       		.byte	0x5d
 4674 0a5f 02000000 		.4byte	.LCFI138
 4675 0a63 04000000 		.4byte	.LCFI139
 4676 0a67 0200     		.2byte	0x2
 4677 0a69 7D       		.byte	0x7d
 4678 0a6a 04       		.sleb128 4
 4679 0a6b 04000000 		.4byte	.LCFI139
 4680 0a6f 06000000 		.4byte	.LCFI140
 4681 0a73 0200     		.2byte	0x2
 4682 0a75 7D       		.byte	0x7d
 4683 0a76 18       		.sleb128 24
 4684 0a77 06000000 		.4byte	.LCFI140
 4685 0a7b 2C000000 		.4byte	.LFE52
 4686 0a7f 0200     		.2byte	0x2
 4687 0a81 77       		.byte	0x77
 4688 0a82 18       		.sleb128 24
 4689 0a83 00000000 		.4byte	0x0
 4690 0a87 00000000 		.4byte	0x0
 4691              	.LLST53:
 4692 0a8b 00000000 		.4byte	.LFB53
 4693 0a8f 02000000 		.4byte	.LCFI141
 4694 0a93 0100     		.2byte	0x1
 4695 0a95 5D       		.byte	0x5d
 4696 0a96 02000000 		.4byte	.LCFI141
 4697 0a9a 04000000 		.4byte	.LCFI142
 4698 0a9e 0200     		.2byte	0x2
 4699 0aa0 7D       		.byte	0x7d
 4700 0aa1 04       		.sleb128 4
 4701 0aa2 04000000 		.4byte	.LCFI142
 4702 0aa6 06000000 		.4byte	.LCFI143
 4703 0aaa 0200     		.2byte	0x2
 4704 0aac 7D       		.byte	0x7d
 4705 0aad 18       		.sleb128 24
 4706 0aae 06000000 		.4byte	.LCFI143
 4707 0ab2 32000000 		.4byte	.LFE53
 4708 0ab6 0200     		.2byte	0x2
 4709 0ab8 77       		.byte	0x77
 4710 0ab9 18       		.sleb128 24
 4711 0aba 00000000 		.4byte	0x0
 4712 0abe 00000000 		.4byte	0x0
 4713              	.LLST54:
 4714 0ac2 00000000 		.4byte	.LFB54
 4715 0ac6 02000000 		.4byte	.LCFI144
 4716 0aca 0100     		.2byte	0x1
 4717 0acc 5D       		.byte	0x5d
 4718 0acd 02000000 		.4byte	.LCFI144
 4719 0ad1 04000000 		.4byte	.LCFI145
 4720 0ad5 0200     		.2byte	0x2
ARM GAS  C:\Users\CHARLI~1\AppData\Local\Temp\cc78mmP1.s 			page 122


 4721 0ad7 7D       		.byte	0x7d
 4722 0ad8 04       		.sleb128 4
 4723 0ad9 04000000 		.4byte	.LCFI145
 4724 0add 06000000 		.4byte	.LCFI146
 4725 0ae1 0200     		.2byte	0x2
 4726 0ae3 7D       		.byte	0x7d
 4727 0ae4 18       		.sleb128 24
 4728 0ae5 06000000 		.4byte	.LCFI146
 4729 0ae9 3E000000 		.4byte	.LFE54
 4730 0aed 0200     		.2byte	0x2
 4731 0aef 77       		.byte	0x77
 4732 0af0 18       		.sleb128 24
 4733 0af1 00000000 		.4byte	0x0
 4734 0af5 00000000 		.4byte	0x0
 4735              	.LLST55:
 4736 0af9 00000000 		.4byte	.LFB55
 4737 0afd 02000000 		.4byte	.LCFI147
 4738 0b01 0100     		.2byte	0x1
 4739 0b03 5D       		.byte	0x5d
 4740 0b04 02000000 		.4byte	.LCFI147
 4741 0b08 04000000 		.4byte	.LCFI148
 4742 0b0c 0200     		.2byte	0x2
 4743 0b0e 7D       		.byte	0x7d
 4744 0b0f 04       		.sleb128 4
 4745 0b10 04000000 		.4byte	.LCFI148
 4746 0b14 06000000 		.4byte	.LCFI149
 4747 0b18 0200     		.2byte	0x2
 4748 0b1a 7D       		.byte	0x7d
 4749 0b1b 18       		.sleb128 24
 4750 0b1c 06000000 		.4byte	.LCFI149
 4751 0b20 32000000 		.4byte	.LFE55
 4752 0b24 0200     		.2byte	0x2
 4753 0b26 77       		.byte	0x77
 4754 0b27 18       		.sleb128 24
 4755 0b28 00000000 		.4byte	0x0
 4756 0b2c 00000000 		.4byte	0x0
 4757              	.LLST56:
 4758 0b30 00000000 		.4byte	.LFB56
 4759 0b34 02000000 		.4byte	.LCFI150
 4760 0b38 0100     		.2byte	0x1
 4761 0b3a 5D       		.byte	0x5d
 4762 0b3b 02000000 		.4byte	.LCFI150
 4763 0b3f 04000000 		.4byte	.LCFI151
 4764 0b43 0200     		.2byte	0x2
 4765 0b45 7D       		.byte	0x7d
 4766 0b46 04       		.sleb128 4
 4767 0b47 04000000 		.4byte	.LCFI151
 4768 0b4b 06000000 		.4byte	.LCFI152
 4769 0b4f 0200     		.2byte	0x2
 4770 0b51 7D       		.byte	0x7d
 4771 0b52 18       		.sleb128 24
 4772 0b53 06000000 		.4byte	.LCFI152
 4773 0b57 32000000 		.4byte	.LFE56
 4774 0b5b 0200     		.2byte	0x2
 4775 0b5d 77       		.byte	0x77
 4776 0b5e 18       		.sleb128 24
 4777 0b5f 00000000 		.4byte	0x0
ARM GAS  C:\Users\CHARLI~1\AppData\Local\Temp\cc78mmP1.s 			page 123


 4778 0b63 00000000 		.4byte	0x0
 4779              	.LLST57:
 4780 0b67 00000000 		.4byte	.LFB57
 4781 0b6b 02000000 		.4byte	.LCFI153
 4782 0b6f 0100     		.2byte	0x1
 4783 0b71 5D       		.byte	0x5d
 4784 0b72 02000000 		.4byte	.LCFI153
 4785 0b76 04000000 		.4byte	.LCFI154
 4786 0b7a 0200     		.2byte	0x2
 4787 0b7c 7D       		.byte	0x7d
 4788 0b7d 04       		.sleb128 4
 4789 0b7e 04000000 		.4byte	.LCFI154
 4790 0b82 06000000 		.4byte	.LCFI155
 4791 0b86 0200     		.2byte	0x2
 4792 0b88 7D       		.byte	0x7d
 4793 0b89 18       		.sleb128 24
 4794 0b8a 06000000 		.4byte	.LCFI155
 4795 0b8e 32000000 		.4byte	.LFE57
 4796 0b92 0200     		.2byte	0x2
 4797 0b94 77       		.byte	0x77
 4798 0b95 18       		.sleb128 24
 4799 0b96 00000000 		.4byte	0x0
 4800 0b9a 00000000 		.4byte	0x0
 4801              		.file 2 "./Generated_Source/PSoC5/cytypes.h"
 4802              		.section	.debug_info
 4803 0000 B80B0000 		.4byte	0xbb8
 4804 0004 0200     		.2byte	0x2
 4805 0006 00000000 		.4byte	.Ldebug_abbrev0
 4806 000a 04       		.byte	0x4
 4807 000b 01       		.uleb128 0x1
 4808 000c C0000000 		.4byte	.LASF116
 4809 0010 01       		.byte	0x1
 4810 0011 50060000 		.4byte	.LASF117
 4811 0015 7E060000 		.4byte	.LASF118
 4812 0019 00000000 		.4byte	0x0
 4813 001d 00000000 		.4byte	0x0
 4814 0021 00000000 		.4byte	.Ldebug_ranges0+0x0
 4815 0025 00000000 		.4byte	.Ldebug_line0
 4816 0029 02       		.uleb128 0x2
 4817 002a 01       		.byte	0x1
 4818 002b 06       		.byte	0x6
 4819 002c 13010000 		.4byte	.LASF0
 4820 0030 02       		.uleb128 0x2
 4821 0031 01       		.byte	0x1
 4822 0032 08       		.byte	0x8
 4823 0033 99040000 		.4byte	.LASF1
 4824 0037 02       		.uleb128 0x2
 4825 0038 02       		.byte	0x2
 4826 0039 05       		.byte	0x5
 4827 003a A7040000 		.4byte	.LASF2
 4828 003e 02       		.uleb128 0x2
 4829 003f 02       		.byte	0x2
 4830 0040 07       		.byte	0x7
 4831 0041 99020000 		.4byte	.LASF3
 4832 0045 03       		.uleb128 0x3
 4833 0046 04       		.byte	0x4
 4834 0047 05       		.byte	0x5
ARM GAS  C:\Users\CHARLI~1\AppData\Local\Temp\cc78mmP1.s 			page 124


 4835 0048 696E7400 		.ascii	"int\000"
 4836 004c 02       		.uleb128 0x2
 4837 004d 04       		.byte	0x4
 4838 004e 07       		.byte	0x7
 4839 004f 22020000 		.4byte	.LASF4
 4840 0053 02       		.uleb128 0x2
 4841 0054 08       		.byte	0x8
 4842 0055 05       		.byte	0x5
 4843 0056 05010000 		.4byte	.LASF5
 4844 005a 02       		.uleb128 0x2
 4845 005b 08       		.byte	0x8
 4846 005c 07       		.byte	0x7
 4847 005d A9000000 		.4byte	.LASF6
 4848 0061 02       		.uleb128 0x2
 4849 0062 04       		.byte	0x4
 4850 0063 05       		.byte	0x5
 4851 0064 49010000 		.4byte	.LASF7
 4852 0068 04       		.uleb128 0x4
 4853 0069 04       		.byte	0x4
 4854 006a 07       		.byte	0x7
 4855 006b 02       		.uleb128 0x2
 4856 006c 04       		.byte	0x4
 4857 006d 07       		.byte	0x7
 4858 006e 3F020000 		.4byte	.LASF8
 4859 0072 05       		.uleb128 0x5
 4860 0073 01       		.byte	0x1
 4861 0074 06       		.uleb128 0x6
 4862 0075 04       		.byte	0x4
 4863 0076 72000000 		.4byte	0x72
 4864 007a 02       		.uleb128 0x2
 4865 007b 01       		.byte	0x1
 4866 007c 08       		.byte	0x8
 4867 007d 48050000 		.4byte	.LASF9
 4868 0081 07       		.uleb128 0x7
 4869 0082 93010000 		.4byte	.LASF10
 4870 0086 02       		.byte	0x2
 4871 0087 2A       		.byte	0x2a
 4872 0088 30000000 		.4byte	0x30
 4873 008c 07       		.uleb128 0x7
 4874 008d 15000000 		.4byte	.LASF11
 4875 0091 02       		.byte	0x2
 4876 0092 2B       		.byte	0x2b
 4877 0093 3E000000 		.4byte	0x3e
 4878 0097 07       		.uleb128 0x7
 4879 0098 CC010000 		.4byte	.LASF12
 4880 009c 02       		.byte	0x2
 4881 009d 2C       		.byte	0x2c
 4882 009e 6B000000 		.4byte	0x6b
 4883 00a2 07       		.uleb128 0x7
 4884 00a3 52050000 		.4byte	.LASF13
 4885 00a7 02       		.byte	0x2
 4886 00a8 E1       		.byte	0xe1
 4887 00a9 74000000 		.4byte	0x74
 4888 00ad 07       		.uleb128 0x7
 4889 00ae 37060000 		.4byte	.LASF14
 4890 00b2 02       		.byte	0x2
 4891 00b3 E4       		.byte	0xe4
ARM GAS  C:\Users\CHARLI~1\AppData\Local\Temp\cc78mmP1.s 			page 125


 4892 00b4 6B000000 		.4byte	0x6b
 4893 00b8 08       		.uleb128 0x8
 4894 00b9 81000000 		.4byte	0x81
 4895 00bd 08       		.uleb128 0x8
 4896 00be 97000000 		.4byte	0x97
 4897 00c2 09       		.uleb128 0x9
 4898 00c3 01       		.byte	0x1
 4899 00c4 5F050000 		.4byte	.LASF52
 4900 00c8 01       		.byte	0x1
 4901 00c9 39       		.byte	0x39
 4902 00ca 01       		.byte	0x1
 4903 00cb AD000000 		.4byte	0xad
 4904 00cf 00000000 		.4byte	.LFB0
 4905 00d3 16010000 		.4byte	.LFE0
 4906 00d7 00000000 		.4byte	.LLST0
 4907 00db 26010000 		.4byte	0x126
 4908 00df 0A       		.uleb128 0xa
 4909 00e0 3E010000 		.4byte	.LASF19
 4910 00e4 01       		.byte	0x1
 4911 00e5 39       		.byte	0x39
 4912 00e6 81000000 		.4byte	0x81
 4913 00ea 02       		.byte	0x2
 4914 00eb 91       		.byte	0x91
 4915 00ec 6F       		.sleb128 -17
 4916 00ed 0B       		.uleb128 0xb
 4917 00ee D9050000 		.4byte	.LASF15
 4918 00f2 01       		.byte	0x1
 4919 00f3 3B       		.byte	0x3b
 4920 00f4 AD000000 		.4byte	0xad
 4921 00f8 02       		.byte	0x2
 4922 00f9 91       		.byte	0x91
 4923 00fa 70       		.sleb128 -16
 4924 00fb 0B       		.uleb128 0xb
 4925 00fc AC050000 		.4byte	.LASF16
 4926 0100 01       		.byte	0x1
 4927 0101 3C       		.byte	0x3c
 4928 0102 81000000 		.4byte	0x81
 4929 0106 02       		.byte	0x2
 4930 0107 91       		.byte	0x91
 4931 0108 75       		.sleb128 -11
 4932 0109 0B       		.uleb128 0xb
 4933 010a 8F050000 		.4byte	.LASF17
 4934 010e 01       		.byte	0x1
 4935 010f 3D       		.byte	0x3d
 4936 0110 81000000 		.4byte	0x81
 4937 0114 02       		.byte	0x2
 4938 0115 91       		.byte	0x91
 4939 0116 76       		.sleb128 -10
 4940 0117 0B       		.uleb128 0xb
 4941 0118 40060000 		.4byte	.LASF18
 4942 011c 01       		.byte	0x1
 4943 011d 3E       		.byte	0x3e
 4944 011e 81000000 		.4byte	0x81
 4945 0122 02       		.byte	0x2
 4946 0123 91       		.byte	0x91
 4947 0124 77       		.sleb128 -9
 4948 0125 00       		.byte	0x0
ARM GAS  C:\Users\CHARLI~1\AppData\Local\Temp\cc78mmP1.s 			page 126


 4949 0126 0C       		.uleb128 0xc
 4950 0127 01       		.byte	0x1
 4951 0128 F5030000 		.4byte	.LASF25
 4952 012c 01       		.byte	0x1
 4953 012d 85       		.byte	0x85
 4954 012e 01       		.byte	0x1
 4955 012f 00000000 		.4byte	.LFB1
 4956 0133 24000000 		.4byte	.LFE1
 4957 0137 37000000 		.4byte	.LLST1
 4958 013b 0D       		.uleb128 0xd
 4959 013c 01       		.byte	0x1
 4960 013d 25030000 		.4byte	.LASF21
 4961 0141 01       		.byte	0x1
 4962 0142 A1       		.byte	0xa1
 4963 0143 01       		.byte	0x1
 4964 0144 00000000 		.4byte	.LFB2
 4965 0148 A6000000 		.4byte	.LFE2
 4966 014c 62000000 		.4byte	.LLST2
 4967 0150 7B010000 		.4byte	0x17b
 4968 0154 0E       		.uleb128 0xe
 4969 0155 5000     		.ascii	"P\000"
 4970 0157 01       		.byte	0x1
 4971 0158 A1       		.byte	0xa1
 4972 0159 81000000 		.4byte	0x81
 4973 015d 02       		.byte	0x2
 4974 015e 91       		.byte	0x91
 4975 015f 77       		.sleb128 -9
 4976 0160 0E       		.uleb128 0xe
 4977 0161 5100     		.ascii	"Q\000"
 4978 0163 01       		.byte	0x1
 4979 0164 A1       		.byte	0xa1
 4980 0165 81000000 		.4byte	0x81
 4981 0169 02       		.byte	0x2
 4982 016a 91       		.byte	0x91
 4983 016b 76       		.sleb128 -10
 4984 016c 0A       		.uleb128 0xa
 4985 016d 1B040000 		.4byte	.LASF20
 4986 0171 01       		.byte	0x1
 4987 0172 A1       		.byte	0xa1
 4988 0173 81000000 		.4byte	0x81
 4989 0177 02       		.byte	0x2
 4990 0178 91       		.byte	0x91
 4991 0179 75       		.sleb128 -11
 4992 017a 00       		.byte	0x0
 4993 017b 0D       		.uleb128 0xd
 4994 017c 01       		.byte	0x1
 4995 017d 5F010000 		.4byte	.LASF22
 4996 0181 01       		.byte	0x1
 4997 0182 D0       		.byte	0xd0
 4998 0183 01       		.byte	0x1
 4999 0184 00000000 		.4byte	.LFB3
 5000 0188 70000000 		.4byte	.LFE3
 5001 018c 99000000 		.4byte	.LLST3
 5002 0190 A3010000 		.4byte	0x1a3
 5003 0194 0A       		.uleb128 0xa
 5004 0195 89030000 		.4byte	.LASF23
 5005 0199 01       		.byte	0x1
ARM GAS  C:\Users\CHARLI~1\AppData\Local\Temp\cc78mmP1.s 			page 127


 5006 019a D0       		.byte	0xd0
 5007 019b 81000000 		.4byte	0x81
 5008 019f 02       		.byte	0x2
 5009 01a0 91       		.byte	0x91
 5010 01a1 77       		.sleb128 -9
 5011 01a2 00       		.byte	0x0
 5012 01a3 0D       		.uleb128 0xd
 5013 01a4 01       		.byte	0x1
 5014 01a5 3C000000 		.4byte	.LASF24
 5015 01a9 01       		.byte	0x1
 5016 01aa FC       		.byte	0xfc
 5017 01ab 01       		.byte	0x1
 5018 01ac 00000000 		.4byte	.LFB4
 5019 01b0 D0000000 		.4byte	.LFE4
 5020 01b4 D0000000 		.4byte	.LLST4
 5021 01b8 F6010000 		.4byte	0x1f6
 5022 01bc 0A       		.uleb128 0xa
 5023 01bd 3E010000 		.4byte	.LASF19
 5024 01c1 01       		.byte	0x1
 5025 01c2 FC       		.byte	0xfc
 5026 01c3 81000000 		.4byte	0x81
 5027 01c7 02       		.byte	0x2
 5028 01c8 91       		.byte	0x91
 5029 01c9 6F       		.sleb128 -17
 5030 01ca 0B       		.uleb128 0xb
 5031 01cb AC050000 		.4byte	.LASF16
 5032 01cf 01       		.byte	0x1
 5033 01d0 FE       		.byte	0xfe
 5034 01d1 81000000 		.4byte	0x81
 5035 01d5 02       		.byte	0x2
 5036 01d6 91       		.byte	0x91
 5037 01d7 75       		.sleb128 -11
 5038 01d8 0B       		.uleb128 0xb
 5039 01d9 8F050000 		.4byte	.LASF17
 5040 01dd 01       		.byte	0x1
 5041 01de FF       		.byte	0xff
 5042 01df 81000000 		.4byte	0x81
 5043 01e3 02       		.byte	0x2
 5044 01e4 91       		.byte	0x91
 5045 01e5 76       		.sleb128 -10
 5046 01e6 0F       		.uleb128 0xf
 5047 01e7 40060000 		.4byte	.LASF18
 5048 01eb 01       		.byte	0x1
 5049 01ec 0001     		.2byte	0x100
 5050 01ee 81000000 		.4byte	0x81
 5051 01f2 02       		.byte	0x2
 5052 01f3 91       		.byte	0x91
 5053 01f4 77       		.sleb128 -9
 5054 01f5 00       		.byte	0x0
 5055 01f6 10       		.uleb128 0x10
 5056 01f7 01       		.byte	0x1
 5057 01f8 8E020000 		.4byte	.LASF26
 5058 01fc 01       		.byte	0x1
 5059 01fd 3C01     		.2byte	0x13c
 5060 01ff 01       		.byte	0x1
 5061 0200 00000000 		.4byte	.LFB5
 5062 0204 24000000 		.4byte	.LFE5
ARM GAS  C:\Users\CHARLI~1\AppData\Local\Temp\cc78mmP1.s 			page 128


 5063 0208 07010000 		.4byte	.LLST5
 5064 020c 11       		.uleb128 0x11
 5065 020d 01       		.byte	0x1
 5066 020e 24060000 		.4byte	.LASF27
 5067 0212 01       		.byte	0x1
 5068 0213 5101     		.2byte	0x151
 5069 0215 01       		.byte	0x1
 5070 0216 00000000 		.4byte	.LFB6
 5071 021a 44010000 		.4byte	.LFE6
 5072 021e 32010000 		.4byte	.LLST6
 5073 0222 36020000 		.4byte	0x236
 5074 0226 12       		.uleb128 0x12
 5075 0227 1F010000 		.4byte	.LASF28
 5076 022b 01       		.byte	0x1
 5077 022c 5101     		.2byte	0x151
 5078 022e 81000000 		.4byte	0x81
 5079 0232 02       		.byte	0x2
 5080 0233 91       		.byte	0x91
 5081 0234 77       		.sleb128 -9
 5082 0235 00       		.byte	0x0
 5083 0236 11       		.uleb128 0x11
 5084 0237 01       		.byte	0x1
 5085 0238 F0050000 		.4byte	.LASF29
 5086 023c 01       		.byte	0x1
 5087 023d 9F01     		.2byte	0x19f
 5088 023f 01       		.byte	0x1
 5089 0240 00000000 		.4byte	.LFB7
 5090 0244 12020000 		.4byte	.LFE7
 5091 0248 69010000 		.4byte	.LLST7
 5092 024c 7E020000 		.4byte	0x27e
 5093 0250 12       		.uleb128 0x12
 5094 0251 1F010000 		.4byte	.LASF28
 5095 0255 01       		.byte	0x1
 5096 0256 9F01     		.2byte	0x19f
 5097 0258 81000000 		.4byte	0x81
 5098 025c 02       		.byte	0x2
 5099 025d 91       		.byte	0x91
 5100 025e 6F       		.sleb128 -17
 5101 025f 0F       		.uleb128 0xf
 5102 0260 15020000 		.4byte	.LASF30
 5103 0264 01       		.byte	0x1
 5104 0265 A101     		.2byte	0x1a1
 5105 0267 81000000 		.4byte	0x81
 5106 026b 02       		.byte	0x2
 5107 026c 91       		.byte	0x91
 5108 026d 76       		.sleb128 -10
 5109 026e 0F       		.uleb128 0xf
 5110 026f B8060000 		.4byte	.LASF31
 5111 0273 01       		.byte	0x1
 5112 0274 A201     		.2byte	0x1a2
 5113 0276 81000000 		.4byte	0x81
 5114 027a 02       		.byte	0x2
 5115 027b 91       		.byte	0x91
 5116 027c 77       		.sleb128 -9
 5117 027d 00       		.byte	0x0
 5118 027e 11       		.uleb128 0x11
 5119 027f 01       		.byte	0x1
ARM GAS  C:\Users\CHARLI~1\AppData\Local\Temp\cc78mmP1.s 			page 129


 5120 0280 2F020000 		.4byte	.LASF32
 5121 0284 01       		.byte	0x1
 5122 0285 2602     		.2byte	0x226
 5123 0287 01       		.byte	0x1
 5124 0288 00000000 		.4byte	.LFB8
 5125 028c B8000000 		.4byte	.LFE8
 5126 0290 A0010000 		.4byte	.LLST8
 5127 0294 A8020000 		.4byte	0x2a8
 5128 0298 12       		.uleb128 0x12
 5129 0299 89030000 		.4byte	.LASF23
 5130 029d 01       		.byte	0x1
 5131 029e 2602     		.2byte	0x226
 5132 02a0 81000000 		.4byte	0x81
 5133 02a4 02       		.byte	0x2
 5134 02a5 91       		.byte	0x91
 5135 02a6 77       		.sleb128 -9
 5136 02a7 00       		.byte	0x0
 5137 02a8 10       		.uleb128 0x10
 5138 02a9 01       		.byte	0x1
 5139 02aa 57000000 		.4byte	.LASF33
 5140 02ae 01       		.byte	0x1
 5141 02af 6102     		.2byte	0x261
 5142 02b1 01       		.byte	0x1
 5143 02b2 00000000 		.4byte	.LFB9
 5144 02b6 26000000 		.4byte	.LFE9
 5145 02ba D7010000 		.4byte	.LLST9
 5146 02be 10       		.uleb128 0x10
 5147 02bf 01       		.byte	0x1
 5148 02c0 A8030000 		.4byte	.LASF34
 5149 02c4 01       		.byte	0x1
 5150 02c5 7702     		.2byte	0x277
 5151 02c7 01       		.byte	0x1
 5152 02c8 00000000 		.4byte	.LFB10
 5153 02cc 24000000 		.4byte	.LFE10
 5154 02d0 02020000 		.4byte	.LLST10
 5155 02d4 11       		.uleb128 0x11
 5156 02d5 01       		.byte	0x1
 5157 02d6 D3020000 		.4byte	.LASF35
 5158 02da 01       		.byte	0x1
 5159 02db 9502     		.2byte	0x295
 5160 02dd 01       		.byte	0x1
 5161 02de 00000000 		.4byte	.LFB11
 5162 02e2 42000000 		.4byte	.LFE11
 5163 02e6 2D020000 		.4byte	.LLST11
 5164 02ea 0D030000 		.4byte	0x30d
 5165 02ee 12       		.uleb128 0x12
 5166 02ef 89030000 		.4byte	.LASF23
 5167 02f3 01       		.byte	0x1
 5168 02f4 9502     		.2byte	0x295
 5169 02f6 81000000 		.4byte	0x81
 5170 02fa 02       		.byte	0x2
 5171 02fb 91       		.byte	0x91
 5172 02fc 6F       		.sleb128 -17
 5173 02fd 0F       		.uleb128 0xf
 5174 02fe C6020000 		.4byte	.LASF36
 5175 0302 01       		.byte	0x1
 5176 0303 A702     		.2byte	0x2a7
ARM GAS  C:\Users\CHARLI~1\AppData\Local\Temp\cc78mmP1.s 			page 130


 5177 0305 81000000 		.4byte	0x81
 5178 0309 02       		.byte	0x2
 5179 030a 91       		.byte	0x91
 5180 030b 77       		.sleb128 -9
 5181 030c 00       		.byte	0x0
 5182 030d 11       		.uleb128 0x11
 5183 030e 01       		.byte	0x1
 5184 030f 04040000 		.4byte	.LASF37
 5185 0313 01       		.byte	0x1
 5186 0314 D602     		.2byte	0x2d6
 5187 0316 01       		.byte	0x1
 5188 0317 00000000 		.4byte	.LFB12
 5189 031b 20000000 		.4byte	.LFE12
 5190 031f 64020000 		.4byte	.LLST12
 5191 0323 37030000 		.4byte	0x337
 5192 0327 12       		.uleb128 0x12
 5193 0328 1C000000 		.4byte	.LASF38
 5194 032c 01       		.byte	0x1
 5195 032d D602     		.2byte	0x2d6
 5196 032f 81000000 		.4byte	0x81
 5197 0333 02       		.byte	0x2
 5198 0334 91       		.byte	0x91
 5199 0335 77       		.sleb128 -9
 5200 0336 00       		.byte	0x0
 5201 0337 11       		.uleb128 0x11
 5202 0338 01       		.byte	0x1
 5203 0339 79000000 		.4byte	.LASF39
 5204 033d 01       		.byte	0x1
 5205 033e EF02     		.2byte	0x2ef
 5206 0340 01       		.byte	0x1
 5207 0341 00000000 		.4byte	.LFB13
 5208 0345 84000000 		.4byte	.LFE13
 5209 0349 9B020000 		.4byte	.LLST13
 5210 034d 61030000 		.4byte	0x361
 5211 0351 12       		.uleb128 0x12
 5212 0352 1C000000 		.4byte	.LASF38
 5213 0356 01       		.byte	0x1
 5214 0357 EF02     		.2byte	0x2ef
 5215 0359 8C000000 		.4byte	0x8c
 5216 035d 02       		.byte	0x2
 5217 035e 91       		.byte	0x91
 5218 035f 76       		.sleb128 -10
 5219 0360 00       		.byte	0x0
 5220 0361 11       		.uleb128 0x11
 5221 0362 01       		.byte	0x1
 5222 0363 C5050000 		.4byte	.LASF40
 5223 0367 01       		.byte	0x1
 5224 0368 1603     		.2byte	0x316
 5225 036a 01       		.byte	0x1
 5226 036b 00000000 		.4byte	.LFB14
 5227 036f A4000000 		.4byte	.LFE14
 5228 0373 D2020000 		.4byte	.LLST14
 5229 0377 A9030000 		.4byte	0x3a9
 5230 037b 12       		.uleb128 0x12
 5231 037c 1C000000 		.4byte	.LASF38
 5232 0380 01       		.byte	0x1
 5233 0381 1603     		.2byte	0x316
ARM GAS  C:\Users\CHARLI~1\AppData\Local\Temp\cc78mmP1.s 			page 131


 5234 0383 8C000000 		.4byte	0x8c
 5235 0387 02       		.byte	0x2
 5236 0388 91       		.byte	0x91
 5237 0389 6E       		.sleb128 -18
 5238 038a 0F       		.uleb128 0xf
 5239 038b 7C010000 		.4byte	.LASF41
 5240 038f 01       		.byte	0x1
 5241 0390 1803     		.2byte	0x318
 5242 0392 8C000000 		.4byte	0x8c
 5243 0396 02       		.byte	0x2
 5244 0397 91       		.byte	0x91
 5245 0398 74       		.sleb128 -12
 5246 0399 0F       		.uleb128 0xf
 5247 039a E9010000 		.4byte	.LASF42
 5248 039e 01       		.byte	0x1
 5249 039f 1903     		.2byte	0x319
 5250 03a1 81000000 		.4byte	0x81
 5251 03a5 02       		.byte	0x2
 5252 03a6 91       		.byte	0x91
 5253 03a7 77       		.sleb128 -9
 5254 03a8 00       		.byte	0x0
 5255 03a9 11       		.uleb128 0x11
 5256 03aa 01       		.byte	0x1
 5257 03ab B1040000 		.4byte	.LASF43
 5258 03af 01       		.byte	0x1
 5259 03b0 5303     		.2byte	0x353
 5260 03b2 01       		.byte	0x1
 5261 03b3 00000000 		.4byte	.LFB15
 5262 03b7 14000000 		.4byte	.LFE15
 5263 03bb 09030000 		.4byte	.LLST15
 5264 03bf D3030000 		.4byte	0x3d3
 5265 03c3 12       		.uleb128 0x12
 5266 03c4 1C000000 		.4byte	.LASF38
 5267 03c8 01       		.byte	0x1
 5268 03c9 5303     		.2byte	0x353
 5269 03cb 81000000 		.4byte	0x81
 5270 03cf 02       		.byte	0x2
 5271 03d0 91       		.byte	0x91
 5272 03d1 77       		.sleb128 -9
 5273 03d2 00       		.byte	0x0
 5274 03d3 11       		.uleb128 0x11
 5275 03d4 01       		.byte	0x1
 5276 03d5 7C050000 		.4byte	.LASF44
 5277 03d9 01       		.byte	0x1
 5278 03da 7003     		.2byte	0x370
 5279 03dc 01       		.byte	0x1
 5280 03dd 00000000 		.4byte	.LFB16
 5281 03e1 40000000 		.4byte	.LFE16
 5282 03e5 40030000 		.4byte	.LLST16
 5283 03e9 FD030000 		.4byte	0x3fd
 5284 03ed 12       		.uleb128 0x12
 5285 03ee 89030000 		.4byte	.LASF23
 5286 03f2 01       		.byte	0x1
 5287 03f3 7003     		.2byte	0x370
 5288 03f5 81000000 		.4byte	0x81
 5289 03f9 02       		.byte	0x2
 5290 03fa 91       		.byte	0x91
ARM GAS  C:\Users\CHARLI~1\AppData\Local\Temp\cc78mmP1.s 			page 132


 5291 03fb 77       		.sleb128 -9
 5292 03fc 00       		.byte	0x0
 5293 03fd 10       		.uleb128 0x10
 5294 03fe 01       		.byte	0x1
 5295 03ff 30010000 		.4byte	.LASF45
 5296 0403 01       		.byte	0x1
 5297 0404 8603     		.2byte	0x386
 5298 0406 01       		.byte	0x1
 5299 0407 00000000 		.4byte	.LFB17
 5300 040b 26000000 		.4byte	.LFE17
 5301 040f 77030000 		.4byte	.LLST17
 5302 0413 10       		.uleb128 0x10
 5303 0414 01       		.byte	0x1
 5304 0415 B4010000 		.4byte	.LASF46
 5305 0419 01       		.byte	0x1
 5306 041a 9C03     		.2byte	0x39c
 5307 041c 01       		.byte	0x1
 5308 041d 00000000 		.4byte	.LFB18
 5309 0421 24000000 		.4byte	.LFE18
 5310 0425 A2030000 		.4byte	.LLST18
 5311 0429 10       		.uleb128 0x10
 5312 042a 01       		.byte	0x1
 5313 042b CF030000 		.4byte	.LASF47
 5314 042f 01       		.byte	0x1
 5315 0430 B203     		.2byte	0x3b2
 5316 0432 01       		.byte	0x1
 5317 0433 00000000 		.4byte	.LFB19
 5318 0437 26000000 		.4byte	.LFE19
 5319 043b CD030000 		.4byte	.LLST19
 5320 043f 10       		.uleb128 0x10
 5321 0440 01       		.byte	0x1
 5322 0441 48000000 		.4byte	.LASF48
 5323 0445 01       		.byte	0x1
 5324 0446 C803     		.2byte	0x3c8
 5325 0448 01       		.byte	0x1
 5326 0449 00000000 		.4byte	.LFB20
 5327 044d 24000000 		.4byte	.LFE20
 5328 0451 F8030000 		.4byte	.LLST20
 5329 0455 10       		.uleb128 0x10
 5330 0456 01       		.byte	0x1
 5331 0457 3D040000 		.4byte	.LASF49
 5332 045b 01       		.byte	0x1
 5333 045c E003     		.2byte	0x3e0
 5334 045e 01       		.byte	0x1
 5335 045f 00000000 		.4byte	.LFB21
 5336 0463 26000000 		.4byte	.LFE21
 5337 0467 23040000 		.4byte	.LLST21
 5338 046b 10       		.uleb128 0x10
 5339 046c 01       		.byte	0x1
 5340 046d 71040000 		.4byte	.LASF50
 5341 0471 01       		.byte	0x1
 5342 0472 F803     		.2byte	0x3f8
 5343 0474 01       		.byte	0x1
 5344 0475 00000000 		.4byte	.LFB22
 5345 0479 24000000 		.4byte	.LFE22
 5346 047d 4E040000 		.4byte	.LLST22
 5347 0481 11       		.uleb128 0x11
ARM GAS  C:\Users\CHARLI~1\AppData\Local\Temp\cc78mmP1.s 			page 133


 5348 0482 01       		.byte	0x1
 5349 0483 E0050000 		.4byte	.LASF51
 5350 0487 01       		.byte	0x1
 5351 0488 1204     		.2byte	0x412
 5352 048a 01       		.byte	0x1
 5353 048b 00000000 		.4byte	.LFB23
 5354 048f 42000000 		.4byte	.LFE23
 5355 0493 79040000 		.4byte	.LLST23
 5356 0497 AB040000 		.4byte	0x4ab
 5357 049b 12       		.uleb128 0x12
 5358 049c 89030000 		.4byte	.LASF23
 5359 04a0 01       		.byte	0x1
 5360 04a1 1204     		.2byte	0x412
 5361 04a3 81000000 		.4byte	0x81
 5362 04a7 02       		.byte	0x2
 5363 04a8 91       		.byte	0x91
 5364 04a9 77       		.sleb128 -9
 5365 04aa 00       		.byte	0x0
 5366 04ab 13       		.uleb128 0x13
 5367 04ac 01       		.byte	0x1
 5368 04ad 7B020000 		.4byte	.LASF53
 5369 04b1 01       		.byte	0x1
 5370 04b2 2A04     		.2byte	0x42a
 5371 04b4 01       		.byte	0x1
 5372 04b5 81000000 		.4byte	0x81
 5373 04b9 00000000 		.4byte	.LFB24
 5374 04bd 58000000 		.4byte	.LFE24
 5375 04c1 B0040000 		.4byte	.LLST24
 5376 04c5 E8040000 		.4byte	0x4e8
 5377 04c9 12       		.uleb128 0x12
 5378 04ca 4D050000 		.4byte	.LASF54
 5379 04ce 01       		.byte	0x1
 5380 04cf 2A04     		.2byte	0x42a
 5381 04d1 81000000 		.4byte	0x81
 5382 04d5 02       		.byte	0x2
 5383 04d6 91       		.byte	0x91
 5384 04d7 6F       		.sleb128 -17
 5385 04d8 0F       		.uleb128 0xf
 5386 04d9 43010000 		.4byte	.LASF55
 5387 04dd 01       		.byte	0x1
 5388 04de 2C04     		.2byte	0x42c
 5389 04e0 81000000 		.4byte	0x81
 5390 04e4 02       		.byte	0x2
 5391 04e5 91       		.byte	0x91
 5392 04e6 77       		.sleb128 -9
 5393 04e7 00       		.byte	0x0
 5394 04e8 11       		.uleb128 0x11
 5395 04e9 01       		.byte	0x1
 5396 04ea 96000000 		.4byte	.LASF56
 5397 04ee 01       		.byte	0x1
 5398 04ef 4F04     		.2byte	0x44f
 5399 04f1 01       		.byte	0x1
 5400 04f2 00000000 		.4byte	.LFB25
 5401 04f6 7C000000 		.4byte	.LFE25
 5402 04fa E7040000 		.4byte	.LLST25
 5403 04fe 21050000 		.4byte	0x521
 5404 0502 0F       		.uleb128 0xf
ARM GAS  C:\Users\CHARLI~1\AppData\Local\Temp\cc78mmP1.s 			page 134


 5405 0503 51020000 		.4byte	.LASF57
 5406 0507 01       		.byte	0x1
 5407 0508 5104     		.2byte	0x451
 5408 050a BD000000 		.4byte	0xbd
 5409 050e 02       		.byte	0x2
 5410 050f 91       		.byte	0x91
 5411 0510 70       		.sleb128 -16
 5412 0511 0F       		.uleb128 0xf
 5413 0512 99010000 		.4byte	.LASF58
 5414 0516 01       		.byte	0x1
 5415 0517 5204     		.2byte	0x452
 5416 0519 21050000 		.4byte	0x521
 5417 051d 02       		.byte	0x2
 5418 051e 91       		.byte	0x91
 5419 051f 74       		.sleb128 -12
 5420 0520 00       		.byte	0x0
 5421 0521 06       		.uleb128 0x6
 5422 0522 04       		.byte	0x4
 5423 0523 BD000000 		.4byte	0xbd
 5424 0527 10       		.uleb128 0x10
 5425 0528 01       		.byte	0x1
 5426 0529 69020000 		.4byte	.LASF59
 5427 052d 01       		.byte	0x1
 5428 052e 7804     		.2byte	0x478
 5429 0530 01       		.byte	0x1
 5430 0531 00000000 		.4byte	.LFB26
 5431 0535 24000000 		.4byte	.LFE26
 5432 0539 1E050000 		.4byte	.LLST26
 5433 053d 13       		.uleb128 0x13
 5434 053e 01       		.byte	0x1
 5435 053f FE050000 		.4byte	.LASF60
 5436 0543 01       		.byte	0x1
 5437 0544 9504     		.2byte	0x495
 5438 0546 01       		.byte	0x1
 5439 0547 81000000 		.4byte	0x81
 5440 054b 00000000 		.4byte	.LFB27
 5441 054f 24000000 		.4byte	.LFE27
 5442 0553 49050000 		.4byte	.LLST27
 5443 0557 6B050000 		.4byte	0x56b
 5444 055b 0F       		.uleb128 0xf
 5445 055c D9050000 		.4byte	.LASF15
 5446 0560 01       		.byte	0x1
 5447 0561 9704     		.2byte	0x497
 5448 0563 81000000 		.4byte	0x81
 5449 0567 02       		.byte	0x2
 5450 0568 91       		.byte	0x91
 5451 0569 77       		.sleb128 -9
 5452 056a 00       		.byte	0x0
 5453 056b 13       		.uleb128 0x13
 5454 056c 01       		.byte	0x1
 5455 056d 23040000 		.4byte	.LASF61
 5456 0571 01       		.byte	0x1
 5457 0572 B204     		.2byte	0x4b2
 5458 0574 01       		.byte	0x1
 5459 0575 81000000 		.4byte	0x81
 5460 0579 00000000 		.4byte	.LFB28
 5461 057d 58000000 		.4byte	.LFE28
ARM GAS  C:\Users\CHARLI~1\AppData\Local\Temp\cc78mmP1.s 			page 135


 5462 0581 80050000 		.4byte	.LLST28
 5463 0585 A8050000 		.4byte	0x5a8
 5464 0589 12       		.uleb128 0x12
 5465 058a 4D050000 		.4byte	.LASF54
 5466 058e 01       		.byte	0x1
 5467 058f B204     		.2byte	0x4b2
 5468 0591 81000000 		.4byte	0x81
 5469 0595 02       		.byte	0x2
 5470 0596 91       		.byte	0x91
 5471 0597 6F       		.sleb128 -17
 5472 0598 0F       		.uleb128 0xf
 5473 0599 43010000 		.4byte	.LASF55
 5474 059d 01       		.byte	0x1
 5475 059e B404     		.2byte	0x4b4
 5476 05a0 81000000 		.4byte	0x81
 5477 05a4 02       		.byte	0x2
 5478 05a5 91       		.byte	0x91
 5479 05a6 77       		.sleb128 -9
 5480 05a7 00       		.byte	0x0
 5481 05a8 13       		.uleb128 0x13
 5482 05a9 01       		.byte	0x1
 5483 05aa 59030000 		.4byte	.LASF62
 5484 05ae 01       		.byte	0x1
 5485 05af EB04     		.2byte	0x4eb
 5486 05b1 01       		.byte	0x1
 5487 05b2 AD000000 		.4byte	0xad
 5488 05b6 00000000 		.4byte	.LFB29
 5489 05ba 5C010000 		.4byte	.LFE29
 5490 05be B7050000 		.4byte	.LLST29
 5491 05c2 30060000 		.4byte	0x630
 5492 05c6 12       		.uleb128 0x12
 5493 05c7 3E010000 		.4byte	.LASF19
 5494 05cb 01       		.byte	0x1
 5495 05cc EB04     		.2byte	0x4eb
 5496 05ce 81000000 		.4byte	0x81
 5497 05d2 02       		.byte	0x2
 5498 05d3 91       		.byte	0x91
 5499 05d4 67       		.sleb128 -25
 5500 05d5 0F       		.uleb128 0xf
 5501 05d6 D9050000 		.4byte	.LASF15
 5502 05da 01       		.byte	0x1
 5503 05db ED04     		.2byte	0x4ed
 5504 05dd AD000000 		.4byte	0xad
 5505 05e1 02       		.byte	0x2
 5506 05e2 91       		.byte	0x91
 5507 05e3 70       		.sleb128 -16
 5508 05e4 0F       		.uleb128 0xf
 5509 05e5 AC050000 		.4byte	.LASF16
 5510 05e9 01       		.byte	0x1
 5511 05ea EE04     		.2byte	0x4ee
 5512 05ec 81000000 		.4byte	0x81
 5513 05f0 02       		.byte	0x2
 5514 05f1 91       		.byte	0x91
 5515 05f2 75       		.sleb128 -11
 5516 05f3 0F       		.uleb128 0xf
 5517 05f4 8F050000 		.4byte	.LASF17
 5518 05f8 01       		.byte	0x1
ARM GAS  C:\Users\CHARLI~1\AppData\Local\Temp\cc78mmP1.s 			page 136


 5519 05f9 EF04     		.2byte	0x4ef
 5520 05fb 81000000 		.4byte	0x81
 5521 05ff 02       		.byte	0x2
 5522 0600 91       		.byte	0x91
 5523 0601 76       		.sleb128 -10
 5524 0602 0F       		.uleb128 0xf
 5525 0603 40060000 		.4byte	.LASF18
 5526 0607 01       		.byte	0x1
 5527 0608 F004     		.2byte	0x4f0
 5528 060a 81000000 		.4byte	0x81
 5529 060e 02       		.byte	0x2
 5530 060f 91       		.byte	0x91
 5531 0610 77       		.sleb128 -9
 5532 0611 0F       		.uleb128 0xf
 5533 0612 0F000000 		.4byte	.LASF63
 5534 0616 01       		.byte	0x1
 5535 0617 F104     		.2byte	0x4f1
 5536 0619 B8000000 		.4byte	0xb8
 5537 061d 02       		.byte	0x2
 5538 061e 91       		.byte	0x91
 5539 061f 6F       		.sleb128 -17
 5540 0620 0F       		.uleb128 0xf
 5541 0621 C5030000 		.4byte	.LASF64
 5542 0625 01       		.byte	0x1
 5543 0626 F204     		.2byte	0x4f2
 5544 0628 B8000000 		.4byte	0xb8
 5545 062c 02       		.byte	0x2
 5546 062d 91       		.byte	0x91
 5547 062e 6E       		.sleb128 -18
 5548 062f 00       		.byte	0x0
 5549 0630 10       		.uleb128 0x10
 5550 0631 01       		.byte	0x1
 5551 0632 A0050000 		.4byte	.LASF65
 5552 0636 01       		.byte	0x1
 5553 0637 4505     		.2byte	0x545
 5554 0639 01       		.byte	0x1
 5555 063a 00000000 		.4byte	.LFB30
 5556 063e 24000000 		.4byte	.LFE30
 5557 0642 EE050000 		.4byte	.LLST30
 5558 0646 10       		.uleb128 0x10
 5559 0647 01       		.byte	0x1
 5560 0648 CD040000 		.4byte	.LASF66
 5561 064c 01       		.byte	0x1
 5562 064d 5B05     		.2byte	0x55b
 5563 064f 01       		.byte	0x1
 5564 0650 00000000 		.4byte	.LFB31
 5565 0654 24000000 		.4byte	.LFE31
 5566 0658 19060000 		.4byte	.LLST31
 5567 065c 10       		.uleb128 0x10
 5568 065d 01       		.byte	0x1
 5569 065e 24000000 		.4byte	.LASF67
 5570 0662 01       		.byte	0x1
 5571 0663 7105     		.2byte	0x571
 5572 0665 01       		.byte	0x1
 5573 0666 00000000 		.4byte	.LFB32
 5574 066a 26000000 		.4byte	.LFE32
 5575 066e 44060000 		.4byte	.LLST32
ARM GAS  C:\Users\CHARLI~1\AppData\Local\Temp\cc78mmP1.s 			page 137


 5576 0672 14       		.uleb128 0x14
 5577 0673 01       		.byte	0x1
 5578 0674 66030000 		.4byte	.LASF119
 5579 0678 01       		.byte	0x1
 5580 0679 8A05     		.2byte	0x58a
 5581 067b 01       		.byte	0x1
 5582 067c 81000000 		.4byte	0x81
 5583 0680 00000000 		.4byte	.LFB33
 5584 0684 1E000000 		.4byte	.LFE33
 5585 0688 6F060000 		.4byte	.LLST33
 5586 068c 10       		.uleb128 0x10
 5587 068d 01       		.byte	0x1
 5588 068e F9020000 		.4byte	.LASF68
 5589 0692 01       		.byte	0x1
 5590 0693 A705     		.2byte	0x5a7
 5591 0695 01       		.byte	0x1
 5592 0696 00000000 		.4byte	.LFB34
 5593 069a 26000000 		.4byte	.LFE34
 5594 069e 9A060000 		.4byte	.LLST34
 5595 06a2 10       		.uleb128 0x10
 5596 06a3 01       		.byte	0x1
 5597 06a4 06050000 		.4byte	.LASF69
 5598 06a8 01       		.byte	0x1
 5599 06a9 BF05     		.2byte	0x5bf
 5600 06ab 01       		.byte	0x1
 5601 06ac 00000000 		.4byte	.LFB35
 5602 06b0 24000000 		.4byte	.LFE35
 5603 06b4 C5060000 		.4byte	.LLST35
 5604 06b8 11       		.uleb128 0x11
 5605 06b9 01       		.byte	0x1
 5606 06ba 90030000 		.4byte	.LASF70
 5607 06be 01       		.byte	0x1
 5608 06bf D805     		.2byte	0x5d8
 5609 06c1 01       		.byte	0x1
 5610 06c2 00000000 		.4byte	.LFB36
 5611 06c6 3C000000 		.4byte	.LFE36
 5612 06ca F0060000 		.4byte	.LLST36
 5613 06ce E2060000 		.4byte	0x6e2
 5614 06d2 12       		.uleb128 0x12
 5615 06d3 4D040000 		.4byte	.LASF71
 5616 06d7 01       		.byte	0x1
 5617 06d8 D805     		.2byte	0x5d8
 5618 06da 81000000 		.4byte	0x81
 5619 06de 02       		.byte	0x2
 5620 06df 91       		.byte	0x91
 5621 06e0 77       		.sleb128 -9
 5622 06e1 00       		.byte	0x0
 5623 06e2 11       		.uleb128 0x11
 5624 06e3 01       		.byte	0x1
 5625 06e4 92040000 		.4byte	.LASF72
 5626 06e8 01       		.byte	0x1
 5627 06e9 3C06     		.2byte	0x63c
 5628 06eb 01       		.byte	0x1
 5629 06ec 00000000 		.4byte	.LFB37
 5630 06f0 16000000 		.4byte	.LFE37
 5631 06f4 27070000 		.4byte	.LLST37
 5632 06f8 0C070000 		.4byte	0x70c
ARM GAS  C:\Users\CHARLI~1\AppData\Local\Temp\cc78mmP1.s 			page 138


 5633 06fc 12       		.uleb128 0x12
 5634 06fd 22050000 		.4byte	.LASF73
 5635 0701 01       		.byte	0x1
 5636 0702 3C06     		.2byte	0x63c
 5637 0704 81000000 		.4byte	0x81
 5638 0708 02       		.byte	0x2
 5639 0709 91       		.byte	0x91
 5640 070a 77       		.sleb128 -9
 5641 070b 00       		.byte	0x0
 5642 070c 10       		.uleb128 0x10
 5643 070d 01       		.byte	0x1
 5644 070e D6000000 		.4byte	.LASF74
 5645 0712 01       		.byte	0x1
 5646 0713 5906     		.2byte	0x659
 5647 0715 01       		.byte	0x1
 5648 0716 00000000 		.4byte	.LFB38
 5649 071a 18000000 		.4byte	.LFE38
 5650 071e 5E070000 		.4byte	.LLST38
 5651 0722 11       		.uleb128 0x11
 5652 0723 01       		.byte	0x1
 5653 0724 BD050000 		.4byte	.LASF75
 5654 0728 01       		.byte	0x1
 5655 0729 7906     		.2byte	0x679
 5656 072b 01       		.byte	0x1
 5657 072c 00000000 		.4byte	.LFB39
 5658 0730 48000000 		.4byte	.LFE39
 5659 0734 89070000 		.4byte	.LLST39
 5660 0738 4C070000 		.4byte	0x74c
 5661 073c 12       		.uleb128 0x12
 5662 073d 64040000 		.4byte	.LASF76
 5663 0741 01       		.byte	0x1
 5664 0742 7906     		.2byte	0x679
 5665 0744 97000000 		.4byte	0x97
 5666 0748 02       		.byte	0x2
 5667 0749 91       		.byte	0x91
 5668 074a 74       		.sleb128 -12
 5669 074b 00       		.byte	0x0
 5670 074c 11       		.uleb128 0x11
 5671 074d 01       		.byte	0x1
 5672 074e A3010000 		.4byte	.LASF77
 5673 0752 01       		.byte	0x1
 5674 0753 9F06     		.2byte	0x69f
 5675 0755 01       		.byte	0x1
 5676 0756 00000000 		.4byte	.LFB40
 5677 075a 28000000 		.4byte	.LFE40
 5678 075e C0070000 		.4byte	.LLST40
 5679 0762 76070000 		.4byte	0x776
 5680 0766 12       		.uleb128 0x12
 5681 0767 71060000 		.4byte	.LASF78
 5682 076b 01       		.byte	0x1
 5683 076c 9F06     		.2byte	0x69f
 5684 076e 8C000000 		.4byte	0x8c
 5685 0772 02       		.byte	0x2
 5686 0773 91       		.byte	0x91
 5687 0774 76       		.sleb128 -10
 5688 0775 00       		.byte	0x0
 5689 0776 11       		.uleb128 0x11
ARM GAS  C:\Users\CHARLI~1\AppData\Local\Temp\cc78mmP1.s 			page 139


 5690 0777 01       		.byte	0x1
 5691 0778 24010000 		.4byte	.LASF79
 5692 077c 01       		.byte	0x1
 5693 077d B306     		.2byte	0x6b3
 5694 077f 01       		.byte	0x1
 5695 0780 00000000 		.4byte	.LFB41
 5696 0784 AC000000 		.4byte	.LFE41
 5697 0788 F7070000 		.4byte	.LLST41
 5698 078c A0070000 		.4byte	0x7a0
 5699 0790 12       		.uleb128 0x12
 5700 0791 1F010000 		.4byte	.LASF28
 5701 0795 01       		.byte	0x1
 5702 0796 B306     		.2byte	0x6b3
 5703 0798 97000000 		.4byte	0x97
 5704 079c 02       		.byte	0x2
 5705 079d 91       		.byte	0x91
 5706 079e 74       		.sleb128 -12
 5707 079f 00       		.byte	0x0
 5708 07a0 11       		.uleb128 0x11
 5709 07a1 01       		.byte	0x1
 5710 07a2 AC020000 		.4byte	.LASF80
 5711 07a6 01       		.byte	0x1
 5712 07a7 DA06     		.2byte	0x6da
 5713 07a9 01       		.byte	0x1
 5714 07aa 00000000 		.4byte	.LFB42
 5715 07ae CC000000 		.4byte	.LFE42
 5716 07b2 2E080000 		.4byte	.LLST42
 5717 07b6 D9070000 		.4byte	0x7d9
 5718 07ba 12       		.uleb128 0x12
 5719 07bb A2030000 		.4byte	.LASF81
 5720 07bf 01       		.byte	0x1
 5721 07c0 DA06     		.2byte	0x6da
 5722 07c2 81000000 		.4byte	0x81
 5723 07c6 02       		.byte	0x2
 5724 07c7 91       		.byte	0x91
 5725 07c8 77       		.sleb128 -9
 5726 07c9 12       		.uleb128 0x12
 5727 07ca 41050000 		.4byte	.LASF82
 5728 07ce 01       		.byte	0x1
 5729 07cf DA06     		.2byte	0x6da
 5730 07d1 81000000 		.4byte	0x81
 5731 07d5 02       		.byte	0x2
 5732 07d6 91       		.byte	0x91
 5733 07d7 76       		.sleb128 -10
 5734 07d8 00       		.byte	0x0
 5735 07d9 11       		.uleb128 0x11
 5736 07da 01       		.byte	0x1
 5737 07db C1010000 		.4byte	.LASF83
 5738 07df 01       		.byte	0x1
 5739 07e0 F906     		.2byte	0x6f9
 5740 07e2 01       		.byte	0x1
 5741 07e3 00000000 		.4byte	.LFB43
 5742 07e7 44000000 		.4byte	.LFE43
 5743 07eb 65080000 		.4byte	.LLST43
 5744 07ef 03080000 		.4byte	0x803
 5745 07f3 0F       		.uleb128 0xf
 5746 07f4 16060000 		.4byte	.LASF84
ARM GAS  C:\Users\CHARLI~1\AppData\Local\Temp\cc78mmP1.s 			page 140


 5747 07f8 01       		.byte	0x1
 5748 07f9 FF06     		.2byte	0x6ff
 5749 07fb 81000000 		.4byte	0x81
 5750 07ff 02       		.byte	0x2
 5751 0800 91       		.byte	0x91
 5752 0801 77       		.sleb128 -9
 5753 0802 00       		.byte	0x0
 5754 0803 13       		.uleb128 0x13
 5755 0804 01       		.byte	0x1
 5756 0805 6B000000 		.4byte	.LASF85
 5757 0809 01       		.byte	0x1
 5758 080a 1707     		.2byte	0x717
 5759 080c 01       		.byte	0x1
 5760 080d 97000000 		.4byte	0x97
 5761 0811 00000000 		.4byte	.LFB44
 5762 0815 2E000000 		.4byte	.LFE44
 5763 0819 9C080000 		.4byte	.LLST44
 5764 081d 31080000 		.4byte	0x831
 5765 0821 0F       		.uleb128 0xf
 5766 0822 29050000 		.4byte	.LASF86
 5767 0826 01       		.byte	0x1
 5768 0827 1907     		.2byte	0x719
 5769 0829 97000000 		.4byte	0x97
 5770 082d 02       		.byte	0x2
 5771 082e 91       		.byte	0x91
 5772 082f 74       		.sleb128 -12
 5773 0830 00       		.byte	0x0
 5774 0831 11       		.uleb128 0x11
 5775 0832 01       		.byte	0x1
 5776 0833 6F050000 		.4byte	.LASF87
 5777 0837 01       		.byte	0x1
 5778 0838 3407     		.2byte	0x734
 5779 083a 01       		.byte	0x1
 5780 083b 00000000 		.4byte	.LFB45
 5781 083f 1E000000 		.4byte	.LFE45
 5782 0843 D3080000 		.4byte	.LLST45
 5783 0847 5B080000 		.4byte	0x85b
 5784 084b 12       		.uleb128 0x12
 5785 084c D3010000 		.4byte	.LASF88
 5786 0850 01       		.byte	0x1
 5787 0851 3407     		.2byte	0x734
 5788 0853 97000000 		.4byte	0x97
 5789 0857 02       		.byte	0x2
 5790 0858 91       		.byte	0x91
 5791 0859 74       		.sleb128 -12
 5792 085a 00       		.byte	0x0
 5793 085b 11       		.uleb128 0x11
 5794 085c 01       		.byte	0x1
 5795 085d F0040000 		.4byte	.LASF89
 5796 0861 01       		.byte	0x1
 5797 0862 4A07     		.2byte	0x74a
 5798 0864 01       		.byte	0x1
 5799 0865 00000000 		.4byte	.LFB46
 5800 0869 38000000 		.4byte	.LFE46
 5801 086d 0A090000 		.4byte	.LLST46
 5802 0871 85080000 		.4byte	0x885
 5803 0875 0F       		.uleb128 0xf
ARM GAS  C:\Users\CHARLI~1\AppData\Local\Temp\cc78mmP1.s 			page 141


 5804 0876 DF030000 		.4byte	.LASF90
 5805 087a 01       		.byte	0x1
 5806 087b 4D07     		.2byte	0x74d
 5807 087d 8C000000 		.4byte	0x8c
 5808 0881 02       		.byte	0x2
 5809 0882 91       		.byte	0x91
 5810 0883 76       		.sleb128 -10
 5811 0884 00       		.byte	0x0
 5812 0885 13       		.uleb128 0x13
 5813 0886 01       		.byte	0x1
 5814 0887 47030000 		.4byte	.LASF91
 5815 088b 01       		.byte	0x1
 5816 088c 6C07     		.2byte	0x76c
 5817 088e 01       		.byte	0x1
 5818 088f A2000000 		.4byte	0xa2
 5819 0893 00000000 		.4byte	.LFB47
 5820 0897 42000000 		.4byte	.LFE47
 5821 089b 41090000 		.4byte	.LLST47
 5822 089f E0080000 		.4byte	0x8e0
 5823 08a3 12       		.uleb128 0x12
 5824 08a4 E9020000 		.4byte	.LASF92
 5825 08a8 01       		.byte	0x1
 5826 08a9 6C07     		.2byte	0x76c
 5827 08ab 81000000 		.4byte	0x81
 5828 08af 02       		.byte	0x2
 5829 08b0 91       		.byte	0x91
 5830 08b1 6F       		.sleb128 -17
 5831 08b2 12       		.uleb128 0x12
 5832 08b3 BD030000 		.4byte	.LASF93
 5833 08b7 01       		.byte	0x1
 5834 08b8 6C07     		.2byte	0x76c
 5835 08ba A2000000 		.4byte	0xa2
 5836 08be 02       		.byte	0x2
 5837 08bf 91       		.byte	0x91
 5838 08c0 68       		.sleb128 -24
 5839 08c1 0F       		.uleb128 0xf
 5840 08c2 AD010000 		.4byte	.LASF94
 5841 08c6 01       		.byte	0x1
 5842 08c7 6E07     		.2byte	0x76e
 5843 08c9 A2000000 		.4byte	0xa2
 5844 08cd 02       		.byte	0x2
 5845 08ce 91       		.byte	0x91
 5846 08cf 70       		.sleb128 -16
 5847 08d0 0F       		.uleb128 0xf
 5848 08d1 00000000 		.4byte	.LASF95
 5849 08d5 01       		.byte	0x1
 5850 08d6 6F07     		.2byte	0x76f
 5851 08d8 E0080000 		.4byte	0x8e0
 5852 08dc 02       		.byte	0x2
 5853 08dd 91       		.byte	0x91
 5854 08de 74       		.sleb128 -12
 5855 08df 00       		.byte	0x0
 5856 08e0 06       		.uleb128 0x6
 5857 08e1 04       		.byte	0x4
 5858 08e2 A2000000 		.4byte	0xa2
 5859 08e6 13       		.uleb128 0x13
 5860 08e7 01       		.byte	0x1
ARM GAS  C:\Users\CHARLI~1\AppData\Local\Temp\cc78mmP1.s 			page 142


 5861 08e8 03020000 		.4byte	.LASF96
 5862 08ec 01       		.byte	0x1
 5863 08ed 8B07     		.2byte	0x78b
 5864 08ef 01       		.byte	0x1
 5865 08f0 A2000000 		.4byte	0xa2
 5866 08f4 00000000 		.4byte	.LFB48
 5867 08f8 2E000000 		.4byte	.LFE48
 5868 08fc 78090000 		.4byte	.LLST48
 5869 0900 23090000 		.4byte	0x923
 5870 0904 12       		.uleb128 0x12
 5871 0905 E9020000 		.4byte	.LASF92
 5872 0909 01       		.byte	0x1
 5873 090a 8B07     		.2byte	0x78b
 5874 090c 81000000 		.4byte	0x81
 5875 0910 02       		.byte	0x2
 5876 0911 91       		.byte	0x91
 5877 0912 6F       		.sleb128 -17
 5878 0913 0F       		.uleb128 0xf
 5879 0914 00000000 		.4byte	.LASF95
 5880 0918 01       		.byte	0x1
 5881 0919 8D07     		.2byte	0x78d
 5882 091b E0080000 		.4byte	0x8e0
 5883 091f 02       		.byte	0x2
 5884 0920 91       		.byte	0x91
 5885 0921 74       		.sleb128 -12
 5886 0922 00       		.byte	0x0
 5887 0923 13       		.uleb128 0x13
 5888 0924 01       		.byte	0x1
 5889 0925 B7020000 		.4byte	.LASF97
 5890 0929 01       		.byte	0x1
 5891 092a A207     		.2byte	0x7a2
 5892 092c 01       		.byte	0x1
 5893 092d A2000000 		.4byte	0xa2
 5894 0931 00000000 		.4byte	.LFB49
 5895 0935 4A000000 		.4byte	.LFE49
 5896 0939 AF090000 		.4byte	.LLST49
 5897 093d 7E090000 		.4byte	0x97e
 5898 0941 12       		.uleb128 0x12
 5899 0942 E9020000 		.4byte	.LASF92
 5900 0946 01       		.byte	0x1
 5901 0947 A207     		.2byte	0x7a2
 5902 0949 81000000 		.4byte	0x81
 5903 094d 02       		.byte	0x2
 5904 094e 91       		.byte	0x91
 5905 094f 6F       		.sleb128 -17
 5906 0950 12       		.uleb128 0x12
 5907 0951 BD030000 		.4byte	.LASF93
 5908 0955 01       		.byte	0x1
 5909 0956 A207     		.2byte	0x7a2
 5910 0958 A2000000 		.4byte	0xa2
 5911 095c 02       		.byte	0x2
 5912 095d 91       		.byte	0x91
 5913 095e 68       		.sleb128 -24
 5914 095f 0F       		.uleb128 0xf
 5915 0960 AD010000 		.4byte	.LASF94
 5916 0964 01       		.byte	0x1
 5917 0965 A407     		.2byte	0x7a4
ARM GAS  C:\Users\CHARLI~1\AppData\Local\Temp\cc78mmP1.s 			page 143


 5918 0967 A2000000 		.4byte	0xa2
 5919 096b 02       		.byte	0x2
 5920 096c 91       		.byte	0x91
 5921 096d 70       		.sleb128 -16
 5922 096e 0F       		.uleb128 0xf
 5923 096f 00000000 		.4byte	.LASF95
 5924 0973 01       		.byte	0x1
 5925 0974 A507     		.2byte	0x7a5
 5926 0976 E0080000 		.4byte	0x8e0
 5927 097a 02       		.byte	0x2
 5928 097b 91       		.byte	0x91
 5929 097c 74       		.sleb128 -12
 5930 097d 00       		.byte	0x0
 5931 097e 13       		.uleb128 0x13
 5932 097f 01       		.byte	0x1
 5933 0980 55040000 		.4byte	.LASF98
 5934 0984 01       		.byte	0x1
 5935 0985 BF07     		.2byte	0x7bf
 5936 0987 01       		.byte	0x1
 5937 0988 A2000000 		.4byte	0xa2
 5938 098c 00000000 		.4byte	.LFB50
 5939 0990 32000000 		.4byte	.LFE50
 5940 0994 E6090000 		.4byte	.LLST50
 5941 0998 BB090000 		.4byte	0x9bb
 5942 099c 12       		.uleb128 0x12
 5943 099d E9020000 		.4byte	.LASF92
 5944 09a1 01       		.byte	0x1
 5945 09a2 BF07     		.2byte	0x7bf
 5946 09a4 81000000 		.4byte	0x81
 5947 09a8 02       		.byte	0x2
 5948 09a9 91       		.byte	0x91
 5949 09aa 6F       		.sleb128 -17
 5950 09ab 0F       		.uleb128 0xf
 5951 09ac 00000000 		.4byte	.LASF95
 5952 09b0 01       		.byte	0x1
 5953 09b1 C107     		.2byte	0x7c1
 5954 09b3 E0080000 		.4byte	0x8e0
 5955 09b7 02       		.byte	0x2
 5956 09b8 91       		.byte	0x91
 5957 09b9 74       		.sleb128 -12
 5958 09ba 00       		.byte	0x0
 5959 09bb 11       		.uleb128 0x11
 5960 09bc 01       		.byte	0x1
 5961 09bd 14030000 		.4byte	.LASF99
 5962 09c1 01       		.byte	0x1
 5963 09c2 D707     		.2byte	0x7d7
 5964 09c4 01       		.byte	0x1
 5965 09c5 00000000 		.4byte	.LFB51
 5966 09c9 56000000 		.4byte	.LFE51
 5967 09cd 1D0A0000 		.4byte	.LLST51
 5968 09d1 F4090000 		.4byte	0x9f4
 5969 09d5 12       		.uleb128 0x12
 5970 09d6 E9020000 		.4byte	.LASF92
 5971 09da 01       		.byte	0x1
 5972 09db D707     		.2byte	0x7d7
 5973 09dd 81000000 		.4byte	0x81
 5974 09e1 02       		.byte	0x2
ARM GAS  C:\Users\CHARLI~1\AppData\Local\Temp\cc78mmP1.s 			page 144


 5975 09e2 91       		.byte	0x91
 5976 09e3 77       		.sleb128 -9
 5977 09e4 12       		.uleb128 0x12
 5978 09e5 F0020000 		.4byte	.LASF100
 5979 09e9 01       		.byte	0x1
 5980 09ea D707     		.2byte	0x7d7
 5981 09ec 81000000 		.4byte	0x81
 5982 09f0 02       		.byte	0x2
 5983 09f1 91       		.byte	0x91
 5984 09f2 76       		.sleb128 -10
 5985 09f3 00       		.byte	0x0
 5986 09f4 13       		.uleb128 0x13
 5987 09f5 01       		.byte	0x1
 5988 09f6 D8010000 		.4byte	.LASF101
 5989 09fa 01       		.byte	0x1
 5990 09fb EE07     		.2byte	0x7ee
 5991 09fd 01       		.byte	0x1
 5992 09fe 81000000 		.4byte	0x81
 5993 0a02 00000000 		.4byte	.LFB52
 5994 0a06 2C000000 		.4byte	.LFE52
 5995 0a0a 540A0000 		.4byte	.LLST52
 5996 0a0e 310A0000 		.4byte	0xa31
 5997 0a12 12       		.uleb128 0x12
 5998 0a13 E9020000 		.4byte	.LASF92
 5999 0a17 01       		.byte	0x1
 6000 0a18 EE07     		.2byte	0x7ee
 6001 0a1a 81000000 		.4byte	0x81
 6002 0a1e 02       		.byte	0x2
 6003 0a1f 91       		.byte	0x91
 6004 0a20 6F       		.sleb128 -17
 6005 0a21 0F       		.uleb128 0xf
 6006 0a22 F0020000 		.4byte	.LASF100
 6007 0a26 01       		.byte	0x1
 6008 0a27 F007     		.2byte	0x7f0
 6009 0a29 81000000 		.4byte	0x81
 6010 0a2d 02       		.byte	0x2
 6011 0a2e 91       		.byte	0x91
 6012 0a2f 77       		.sleb128 -9
 6013 0a30 00       		.byte	0x0
 6014 0a31 11       		.uleb128 0x11
 6015 0a32 01       		.byte	0x1
 6016 0a33 E4040000 		.4byte	.LASF102
 6017 0a37 01       		.byte	0x1
 6018 0a38 0708     		.2byte	0x807
 6019 0a3a 01       		.byte	0x1
 6020 0a3b 00000000 		.4byte	.LFB53
 6021 0a3f 32000000 		.4byte	.LFE53
 6022 0a43 8B0A0000 		.4byte	.LLST53
 6023 0a47 6A0A0000 		.4byte	0xa6a
 6024 0a4b 12       		.uleb128 0x12
 6025 0a4c E9020000 		.4byte	.LASF92
 6026 0a50 01       		.byte	0x1
 6027 0a51 0708     		.2byte	0x807
 6028 0a53 81000000 		.4byte	0x81
 6029 0a57 02       		.byte	0x2
 6030 0a58 91       		.byte	0x91
 6031 0a59 6F       		.sleb128 -17
ARM GAS  C:\Users\CHARLI~1\AppData\Local\Temp\cc78mmP1.s 			page 145


 6032 0a5a 0F       		.uleb128 0xf
 6033 0a5b CC000000 		.4byte	.LASF103
 6034 0a5f 01       		.byte	0x1
 6035 0a60 0908     		.2byte	0x809
 6036 0a62 6A0A0000 		.4byte	0xa6a
 6037 0a66 02       		.byte	0x2
 6038 0a67 91       		.byte	0x91
 6039 0a68 74       		.sleb128 -12
 6040 0a69 00       		.byte	0x0
 6041 0a6a 06       		.uleb128 0x6
 6042 0a6b 04       		.byte	0x4
 6043 0a6c 700A0000 		.4byte	0xa70
 6044 0a70 08       		.uleb128 0x8
 6045 0a71 6B000000 		.4byte	0x6b
 6046 0a75 13       		.uleb128 0x13
 6047 0a76 01       		.byte	0x1
 6048 0a77 F7000000 		.4byte	.LASF104
 6049 0a7b 01       		.byte	0x1
 6050 0a7c 2208     		.2byte	0x822
 6051 0a7e 01       		.byte	0x1
 6052 0a7f 81000000 		.4byte	0x81
 6053 0a83 00000000 		.4byte	.LFB54
 6054 0a87 3E000000 		.4byte	.LFE54
 6055 0a8b C20A0000 		.4byte	.LLST54
 6056 0a8f B20A0000 		.4byte	0xab2
 6057 0a93 12       		.uleb128 0x12
 6058 0a94 E9020000 		.4byte	.LASF92
 6059 0a98 01       		.byte	0x1
 6060 0a99 2208     		.2byte	0x822
 6061 0a9b 81000000 		.4byte	0x81
 6062 0a9f 02       		.byte	0x2
 6063 0aa0 91       		.byte	0x91
 6064 0aa1 6F       		.sleb128 -17
 6065 0aa2 0F       		.uleb128 0xf
 6066 0aa3 FD040000 		.4byte	.LASF105
 6067 0aa7 01       		.byte	0x1
 6068 0aa8 2408     		.2byte	0x824
 6069 0aaa 6A0A0000 		.4byte	0xa6a
 6070 0aae 02       		.byte	0x2
 6071 0aaf 91       		.byte	0x91
 6072 0ab0 74       		.sleb128 -12
 6073 0ab1 00       		.byte	0x0
 6074 0ab2 11       		.uleb128 0x11
 6075 0ab3 01       		.byte	0x1
 6076 0ab4 52010000 		.4byte	.LASF106
 6077 0ab8 01       		.byte	0x1
 6078 0ab9 3E08     		.2byte	0x83e
 6079 0abb 01       		.byte	0x1
 6080 0abc 00000000 		.4byte	.LFB55
 6081 0ac0 32000000 		.4byte	.LFE55
 6082 0ac4 F90A0000 		.4byte	.LLST55
 6083 0ac8 EB0A0000 		.4byte	0xaeb
 6084 0acc 12       		.uleb128 0x12
 6085 0acd E9020000 		.4byte	.LASF92
 6086 0ad1 01       		.byte	0x1
 6087 0ad2 3E08     		.2byte	0x83e
 6088 0ad4 81000000 		.4byte	0x81
ARM GAS  C:\Users\CHARLI~1\AppData\Local\Temp\cc78mmP1.s 			page 146


 6089 0ad8 02       		.byte	0x2
 6090 0ad9 91       		.byte	0x91
 6091 0ada 6F       		.sleb128 -17
 6092 0adb 0F       		.uleb128 0xf
 6093 0adc 73010000 		.4byte	.LASF107
 6094 0ae0 01       		.byte	0x1
 6095 0ae1 4008     		.2byte	0x840
 6096 0ae3 6A0A0000 		.4byte	0xa6a
 6097 0ae7 02       		.byte	0x2
 6098 0ae8 91       		.byte	0x91
 6099 0ae9 74       		.sleb128 -12
 6100 0aea 00       		.byte	0x0
 6101 0aeb 11       		.uleb128 0x11
 6102 0aec 01       		.byte	0x1
 6103 0aed 59020000 		.4byte	.LASF108
 6104 0af1 01       		.byte	0x1
 6105 0af2 5908     		.2byte	0x859
 6106 0af4 01       		.byte	0x1
 6107 0af5 00000000 		.4byte	.LFB56
 6108 0af9 32000000 		.4byte	.LFE56
 6109 0afd 300B0000 		.4byte	.LLST56
 6110 0b01 240B0000 		.4byte	0xb24
 6111 0b05 12       		.uleb128 0x12
 6112 0b06 E9020000 		.4byte	.LASF92
 6113 0b0a 01       		.byte	0x1
 6114 0b0b 5908     		.2byte	0x859
 6115 0b0d 81000000 		.4byte	0x81
 6116 0b11 02       		.byte	0x2
 6117 0b12 91       		.byte	0x91
 6118 0b13 6F       		.sleb128 -17
 6119 0b14 0F       		.uleb128 0xf
 6120 0b15 C5040000 		.4byte	.LASF109
 6121 0b19 01       		.byte	0x1
 6122 0b1a 5B08     		.2byte	0x85b
 6123 0b1c 6A0A0000 		.4byte	0xa6a
 6124 0b20 02       		.byte	0x2
 6125 0b21 91       		.byte	0x91
 6126 0b22 74       		.sleb128 -12
 6127 0b23 00       		.byte	0x0
 6128 0b24 11       		.uleb128 0x11
 6129 0b25 01       		.byte	0x1
 6130 0b26 35030000 		.4byte	.LASF110
 6131 0b2a 01       		.byte	0x1
 6132 0b2b 7308     		.2byte	0x873
 6133 0b2d 01       		.byte	0x1
 6134 0b2e 00000000 		.4byte	.LFB57
 6135 0b32 32000000 		.4byte	.LFE57
 6136 0b36 670B0000 		.4byte	.LLST57
 6137 0b3a 5D0B0000 		.4byte	0xb5d
 6138 0b3e 12       		.uleb128 0x12
 6139 0b3f E9020000 		.4byte	.LASF92
 6140 0b43 01       		.byte	0x1
 6141 0b44 7308     		.2byte	0x873
 6142 0b46 81000000 		.4byte	0x81
 6143 0b4a 02       		.byte	0x2
 6144 0b4b 91       		.byte	0x91
 6145 0b4c 6F       		.sleb128 -17
ARM GAS  C:\Users\CHARLI~1\AppData\Local\Temp\cc78mmP1.s 			page 147


 6146 0b4d 0F       		.uleb128 0xf
 6147 0b4e C5040000 		.4byte	.LASF109
 6148 0b52 01       		.byte	0x1
 6149 0b53 7508     		.2byte	0x875
 6150 0b55 6A0A0000 		.4byte	0xa6a
 6151 0b59 02       		.byte	0x2
 6152 0b5a 91       		.byte	0x91
 6153 0b5b 74       		.sleb128 -12
 6154 0b5c 00       		.byte	0x0
 6155 0b5d 15       		.uleb128 0x15
 6156 0b5e E7030000 		.4byte	.LASF111
 6157 0b62 01       		.byte	0x1
 6158 0b63 1E       		.byte	0x1e
 6159 0b64 81000000 		.4byte	0x81
 6160 0b68 01       		.byte	0x1
 6161 0b69 05       		.byte	0x5
 6162 0b6a 03       		.byte	0x3
 6163 0b6b 00000000 		.4byte	CyResetStatus
 6164 0b6f 16       		.uleb128 0x16
 6165 0b70 82040000 		.4byte	.LASF112
 6166 0b74 01       		.byte	0x1
 6167 0b75 6206     		.2byte	0x662
 6168 0b77 97000000 		.4byte	0x97
 6169 0b7b 01       		.byte	0x1
 6170 0b7c 05       		.byte	0x5
 6171 0b7d 03       		.byte	0x3
 6172 0b7e 00000000 		.4byte	cydelay_freq_hz
 6173 0b82 16       		.uleb128 0x16
 6174 0b83 78030000 		.4byte	.LASF113
 6175 0b87 01       		.byte	0x1
 6176 0b88 6306     		.2byte	0x663
 6177 0b8a 97000000 		.4byte	0x97
 6178 0b8e 01       		.byte	0x1
 6179 0b8f 05       		.byte	0x5
 6180 0b90 03       		.byte	0x3
 6181 0b91 00000000 		.4byte	cydelay_freq_khz
 6182 0b95 16       		.uleb128 0x16
 6183 0b96 E6000000 		.4byte	.LASF114
 6184 0b9a 01       		.byte	0x1
 6185 0b9b 6406     		.2byte	0x664
 6186 0b9d 81000000 		.4byte	0x81
 6187 0ba1 01       		.byte	0x1
 6188 0ba2 05       		.byte	0x5
 6189 0ba3 03       		.byte	0x3
 6190 0ba4 00000000 		.4byte	cydelay_freq_mhz
 6191 0ba8 16       		.uleb128 0x16
 6192 0ba9 32050000 		.4byte	.LASF115
 6193 0bad 01       		.byte	0x1
 6194 0bae 6506     		.2byte	0x665
 6195 0bb0 97000000 		.4byte	0x97
 6196 0bb4 01       		.byte	0x1
 6197 0bb5 05       		.byte	0x5
 6198 0bb6 03       		.byte	0x3
 6199 0bb7 00000000 		.4byte	cydelay_32k_ms
 6200 0bbb 00       		.byte	0x0
 6201              		.section	.debug_abbrev
 6202 0000 01       		.uleb128 0x1
ARM GAS  C:\Users\CHARLI~1\AppData\Local\Temp\cc78mmP1.s 			page 148


 6203 0001 11       		.uleb128 0x11
 6204 0002 01       		.byte	0x1
 6205 0003 25       		.uleb128 0x25
 6206 0004 0E       		.uleb128 0xe
 6207 0005 13       		.uleb128 0x13
 6208 0006 0B       		.uleb128 0xb
 6209 0007 03       		.uleb128 0x3
 6210 0008 0E       		.uleb128 0xe
 6211 0009 1B       		.uleb128 0x1b
 6212 000a 0E       		.uleb128 0xe
 6213 000b 11       		.uleb128 0x11
 6214 000c 01       		.uleb128 0x1
 6215 000d 52       		.uleb128 0x52
 6216 000e 01       		.uleb128 0x1
 6217 000f 55       		.uleb128 0x55
 6218 0010 06       		.uleb128 0x6
 6219 0011 10       		.uleb128 0x10
 6220 0012 06       		.uleb128 0x6
 6221 0013 00       		.byte	0x0
 6222 0014 00       		.byte	0x0
 6223 0015 02       		.uleb128 0x2
 6224 0016 24       		.uleb128 0x24
 6225 0017 00       		.byte	0x0
 6226 0018 0B       		.uleb128 0xb
 6227 0019 0B       		.uleb128 0xb
 6228 001a 3E       		.uleb128 0x3e
 6229 001b 0B       		.uleb128 0xb
 6230 001c 03       		.uleb128 0x3
 6231 001d 0E       		.uleb128 0xe
 6232 001e 00       		.byte	0x0
 6233 001f 00       		.byte	0x0
 6234 0020 03       		.uleb128 0x3
 6235 0021 24       		.uleb128 0x24
 6236 0022 00       		.byte	0x0
 6237 0023 0B       		.uleb128 0xb
 6238 0024 0B       		.uleb128 0xb
 6239 0025 3E       		.uleb128 0x3e
 6240 0026 0B       		.uleb128 0xb
 6241 0027 03       		.uleb128 0x3
 6242 0028 08       		.uleb128 0x8
 6243 0029 00       		.byte	0x0
 6244 002a 00       		.byte	0x0
 6245 002b 04       		.uleb128 0x4
 6246 002c 24       		.uleb128 0x24
 6247 002d 00       		.byte	0x0
 6248 002e 0B       		.uleb128 0xb
 6249 002f 0B       		.uleb128 0xb
 6250 0030 3E       		.uleb128 0x3e
 6251 0031 0B       		.uleb128 0xb
 6252 0032 00       		.byte	0x0
 6253 0033 00       		.byte	0x0
 6254 0034 05       		.uleb128 0x5
 6255 0035 15       		.uleb128 0x15
 6256 0036 00       		.byte	0x0
 6257 0037 27       		.uleb128 0x27
 6258 0038 0C       		.uleb128 0xc
 6259 0039 00       		.byte	0x0
ARM GAS  C:\Users\CHARLI~1\AppData\Local\Temp\cc78mmP1.s 			page 149


 6260 003a 00       		.byte	0x0
 6261 003b 06       		.uleb128 0x6
 6262 003c 0F       		.uleb128 0xf
 6263 003d 00       		.byte	0x0
 6264 003e 0B       		.uleb128 0xb
 6265 003f 0B       		.uleb128 0xb
 6266 0040 49       		.uleb128 0x49
 6267 0041 13       		.uleb128 0x13
 6268 0042 00       		.byte	0x0
 6269 0043 00       		.byte	0x0
 6270 0044 07       		.uleb128 0x7
 6271 0045 16       		.uleb128 0x16
 6272 0046 00       		.byte	0x0
 6273 0047 03       		.uleb128 0x3
 6274 0048 0E       		.uleb128 0xe
 6275 0049 3A       		.uleb128 0x3a
 6276 004a 0B       		.uleb128 0xb
 6277 004b 3B       		.uleb128 0x3b
 6278 004c 0B       		.uleb128 0xb
 6279 004d 49       		.uleb128 0x49
 6280 004e 13       		.uleb128 0x13
 6281 004f 00       		.byte	0x0
 6282 0050 00       		.byte	0x0
 6283 0051 08       		.uleb128 0x8
 6284 0052 35       		.uleb128 0x35
 6285 0053 00       		.byte	0x0
 6286 0054 49       		.uleb128 0x49
 6287 0055 13       		.uleb128 0x13
 6288 0056 00       		.byte	0x0
 6289 0057 00       		.byte	0x0
 6290 0058 09       		.uleb128 0x9
 6291 0059 2E       		.uleb128 0x2e
 6292 005a 01       		.byte	0x1
 6293 005b 3F       		.uleb128 0x3f
 6294 005c 0C       		.uleb128 0xc
 6295 005d 03       		.uleb128 0x3
 6296 005e 0E       		.uleb128 0xe
 6297 005f 3A       		.uleb128 0x3a
 6298 0060 0B       		.uleb128 0xb
 6299 0061 3B       		.uleb128 0x3b
 6300 0062 0B       		.uleb128 0xb
 6301 0063 27       		.uleb128 0x27
 6302 0064 0C       		.uleb128 0xc
 6303 0065 49       		.uleb128 0x49
 6304 0066 13       		.uleb128 0x13
 6305 0067 11       		.uleb128 0x11
 6306 0068 01       		.uleb128 0x1
 6307 0069 12       		.uleb128 0x12
 6308 006a 01       		.uleb128 0x1
 6309 006b 40       		.uleb128 0x40
 6310 006c 06       		.uleb128 0x6
 6311 006d 01       		.uleb128 0x1
 6312 006e 13       		.uleb128 0x13
 6313 006f 00       		.byte	0x0
 6314 0070 00       		.byte	0x0
 6315 0071 0A       		.uleb128 0xa
 6316 0072 05       		.uleb128 0x5
ARM GAS  C:\Users\CHARLI~1\AppData\Local\Temp\cc78mmP1.s 			page 150


 6317 0073 00       		.byte	0x0
 6318 0074 03       		.uleb128 0x3
 6319 0075 0E       		.uleb128 0xe
 6320 0076 3A       		.uleb128 0x3a
 6321 0077 0B       		.uleb128 0xb
 6322 0078 3B       		.uleb128 0x3b
 6323 0079 0B       		.uleb128 0xb
 6324 007a 49       		.uleb128 0x49
 6325 007b 13       		.uleb128 0x13
 6326 007c 02       		.uleb128 0x2
 6327 007d 0A       		.uleb128 0xa
 6328 007e 00       		.byte	0x0
 6329 007f 00       		.byte	0x0
 6330 0080 0B       		.uleb128 0xb
 6331 0081 34       		.uleb128 0x34
 6332 0082 00       		.byte	0x0
 6333 0083 03       		.uleb128 0x3
 6334 0084 0E       		.uleb128 0xe
 6335 0085 3A       		.uleb128 0x3a
 6336 0086 0B       		.uleb128 0xb
 6337 0087 3B       		.uleb128 0x3b
 6338 0088 0B       		.uleb128 0xb
 6339 0089 49       		.uleb128 0x49
 6340 008a 13       		.uleb128 0x13
 6341 008b 02       		.uleb128 0x2
 6342 008c 0A       		.uleb128 0xa
 6343 008d 00       		.byte	0x0
 6344 008e 00       		.byte	0x0
 6345 008f 0C       		.uleb128 0xc
 6346 0090 2E       		.uleb128 0x2e
 6347 0091 00       		.byte	0x0
 6348 0092 3F       		.uleb128 0x3f
 6349 0093 0C       		.uleb128 0xc
 6350 0094 03       		.uleb128 0x3
 6351 0095 0E       		.uleb128 0xe
 6352 0096 3A       		.uleb128 0x3a
 6353 0097 0B       		.uleb128 0xb
 6354 0098 3B       		.uleb128 0x3b
 6355 0099 0B       		.uleb128 0xb
 6356 009a 27       		.uleb128 0x27
 6357 009b 0C       		.uleb128 0xc
 6358 009c 11       		.uleb128 0x11
 6359 009d 01       		.uleb128 0x1
 6360 009e 12       		.uleb128 0x12
 6361 009f 01       		.uleb128 0x1
 6362 00a0 40       		.uleb128 0x40
 6363 00a1 06       		.uleb128 0x6
 6364 00a2 00       		.byte	0x0
 6365 00a3 00       		.byte	0x0
 6366 00a4 0D       		.uleb128 0xd
 6367 00a5 2E       		.uleb128 0x2e
 6368 00a6 01       		.byte	0x1
 6369 00a7 3F       		.uleb128 0x3f
 6370 00a8 0C       		.uleb128 0xc
 6371 00a9 03       		.uleb128 0x3
 6372 00aa 0E       		.uleb128 0xe
 6373 00ab 3A       		.uleb128 0x3a
ARM GAS  C:\Users\CHARLI~1\AppData\Local\Temp\cc78mmP1.s 			page 151


 6374 00ac 0B       		.uleb128 0xb
 6375 00ad 3B       		.uleb128 0x3b
 6376 00ae 0B       		.uleb128 0xb
 6377 00af 27       		.uleb128 0x27
 6378 00b0 0C       		.uleb128 0xc
 6379 00b1 11       		.uleb128 0x11
 6380 00b2 01       		.uleb128 0x1
 6381 00b3 12       		.uleb128 0x12
 6382 00b4 01       		.uleb128 0x1
 6383 00b5 40       		.uleb128 0x40
 6384 00b6 06       		.uleb128 0x6
 6385 00b7 01       		.uleb128 0x1
 6386 00b8 13       		.uleb128 0x13
 6387 00b9 00       		.byte	0x0
 6388 00ba 00       		.byte	0x0
 6389 00bb 0E       		.uleb128 0xe
 6390 00bc 05       		.uleb128 0x5
 6391 00bd 00       		.byte	0x0
 6392 00be 03       		.uleb128 0x3
 6393 00bf 08       		.uleb128 0x8
 6394 00c0 3A       		.uleb128 0x3a
 6395 00c1 0B       		.uleb128 0xb
 6396 00c2 3B       		.uleb128 0x3b
 6397 00c3 0B       		.uleb128 0xb
 6398 00c4 49       		.uleb128 0x49
 6399 00c5 13       		.uleb128 0x13
 6400 00c6 02       		.uleb128 0x2
 6401 00c7 0A       		.uleb128 0xa
 6402 00c8 00       		.byte	0x0
 6403 00c9 00       		.byte	0x0
 6404 00ca 0F       		.uleb128 0xf
 6405 00cb 34       		.uleb128 0x34
 6406 00cc 00       		.byte	0x0
 6407 00cd 03       		.uleb128 0x3
 6408 00ce 0E       		.uleb128 0xe
 6409 00cf 3A       		.uleb128 0x3a
 6410 00d0 0B       		.uleb128 0xb
 6411 00d1 3B       		.uleb128 0x3b
 6412 00d2 05       		.uleb128 0x5
 6413 00d3 49       		.uleb128 0x49
 6414 00d4 13       		.uleb128 0x13
 6415 00d5 02       		.uleb128 0x2
 6416 00d6 0A       		.uleb128 0xa
 6417 00d7 00       		.byte	0x0
 6418 00d8 00       		.byte	0x0
 6419 00d9 10       		.uleb128 0x10
 6420 00da 2E       		.uleb128 0x2e
 6421 00db 00       		.byte	0x0
 6422 00dc 3F       		.uleb128 0x3f
 6423 00dd 0C       		.uleb128 0xc
 6424 00de 03       		.uleb128 0x3
 6425 00df 0E       		.uleb128 0xe
 6426 00e0 3A       		.uleb128 0x3a
 6427 00e1 0B       		.uleb128 0xb
 6428 00e2 3B       		.uleb128 0x3b
 6429 00e3 05       		.uleb128 0x5
 6430 00e4 27       		.uleb128 0x27
ARM GAS  C:\Users\CHARLI~1\AppData\Local\Temp\cc78mmP1.s 			page 152


 6431 00e5 0C       		.uleb128 0xc
 6432 00e6 11       		.uleb128 0x11
 6433 00e7 01       		.uleb128 0x1
 6434 00e8 12       		.uleb128 0x12
 6435 00e9 01       		.uleb128 0x1
 6436 00ea 40       		.uleb128 0x40
 6437 00eb 06       		.uleb128 0x6
 6438 00ec 00       		.byte	0x0
 6439 00ed 00       		.byte	0x0
 6440 00ee 11       		.uleb128 0x11
 6441 00ef 2E       		.uleb128 0x2e
 6442 00f0 01       		.byte	0x1
 6443 00f1 3F       		.uleb128 0x3f
 6444 00f2 0C       		.uleb128 0xc
 6445 00f3 03       		.uleb128 0x3
 6446 00f4 0E       		.uleb128 0xe
 6447 00f5 3A       		.uleb128 0x3a
 6448 00f6 0B       		.uleb128 0xb
 6449 00f7 3B       		.uleb128 0x3b
 6450 00f8 05       		.uleb128 0x5
 6451 00f9 27       		.uleb128 0x27
 6452 00fa 0C       		.uleb128 0xc
 6453 00fb 11       		.uleb128 0x11
 6454 00fc 01       		.uleb128 0x1
 6455 00fd 12       		.uleb128 0x12
 6456 00fe 01       		.uleb128 0x1
 6457 00ff 40       		.uleb128 0x40
 6458 0100 06       		.uleb128 0x6
 6459 0101 01       		.uleb128 0x1
 6460 0102 13       		.uleb128 0x13
 6461 0103 00       		.byte	0x0
 6462 0104 00       		.byte	0x0
 6463 0105 12       		.uleb128 0x12
 6464 0106 05       		.uleb128 0x5
 6465 0107 00       		.byte	0x0
 6466 0108 03       		.uleb128 0x3
 6467 0109 0E       		.uleb128 0xe
 6468 010a 3A       		.uleb128 0x3a
 6469 010b 0B       		.uleb128 0xb
 6470 010c 3B       		.uleb128 0x3b
 6471 010d 05       		.uleb128 0x5
 6472 010e 49       		.uleb128 0x49
 6473 010f 13       		.uleb128 0x13
 6474 0110 02       		.uleb128 0x2
 6475 0111 0A       		.uleb128 0xa
 6476 0112 00       		.byte	0x0
 6477 0113 00       		.byte	0x0
 6478 0114 13       		.uleb128 0x13
 6479 0115 2E       		.uleb128 0x2e
 6480 0116 01       		.byte	0x1
 6481 0117 3F       		.uleb128 0x3f
 6482 0118 0C       		.uleb128 0xc
 6483 0119 03       		.uleb128 0x3
 6484 011a 0E       		.uleb128 0xe
 6485 011b 3A       		.uleb128 0x3a
 6486 011c 0B       		.uleb128 0xb
 6487 011d 3B       		.uleb128 0x3b
ARM GAS  C:\Users\CHARLI~1\AppData\Local\Temp\cc78mmP1.s 			page 153


 6488 011e 05       		.uleb128 0x5
 6489 011f 27       		.uleb128 0x27
 6490 0120 0C       		.uleb128 0xc
 6491 0121 49       		.uleb128 0x49
 6492 0122 13       		.uleb128 0x13
 6493 0123 11       		.uleb128 0x11
 6494 0124 01       		.uleb128 0x1
 6495 0125 12       		.uleb128 0x12
 6496 0126 01       		.uleb128 0x1
 6497 0127 40       		.uleb128 0x40
 6498 0128 06       		.uleb128 0x6
 6499 0129 01       		.uleb128 0x1
 6500 012a 13       		.uleb128 0x13
 6501 012b 00       		.byte	0x0
 6502 012c 00       		.byte	0x0
 6503 012d 14       		.uleb128 0x14
 6504 012e 2E       		.uleb128 0x2e
 6505 012f 00       		.byte	0x0
 6506 0130 3F       		.uleb128 0x3f
 6507 0131 0C       		.uleb128 0xc
 6508 0132 03       		.uleb128 0x3
 6509 0133 0E       		.uleb128 0xe
 6510 0134 3A       		.uleb128 0x3a
 6511 0135 0B       		.uleb128 0xb
 6512 0136 3B       		.uleb128 0x3b
 6513 0137 05       		.uleb128 0x5
 6514 0138 27       		.uleb128 0x27
 6515 0139 0C       		.uleb128 0xc
 6516 013a 49       		.uleb128 0x49
 6517 013b 13       		.uleb128 0x13
 6518 013c 11       		.uleb128 0x11
 6519 013d 01       		.uleb128 0x1
 6520 013e 12       		.uleb128 0x12
 6521 013f 01       		.uleb128 0x1
 6522 0140 40       		.uleb128 0x40
 6523 0141 06       		.uleb128 0x6
 6524 0142 00       		.byte	0x0
 6525 0143 00       		.byte	0x0
 6526 0144 15       		.uleb128 0x15
 6527 0145 34       		.uleb128 0x34
 6528 0146 00       		.byte	0x0
 6529 0147 03       		.uleb128 0x3
 6530 0148 0E       		.uleb128 0xe
 6531 0149 3A       		.uleb128 0x3a
 6532 014a 0B       		.uleb128 0xb
 6533 014b 3B       		.uleb128 0x3b
 6534 014c 0B       		.uleb128 0xb
 6535 014d 49       		.uleb128 0x49
 6536 014e 13       		.uleb128 0x13
 6537 014f 3F       		.uleb128 0x3f
 6538 0150 0C       		.uleb128 0xc
 6539 0151 02       		.uleb128 0x2
 6540 0152 0A       		.uleb128 0xa
 6541 0153 00       		.byte	0x0
 6542 0154 00       		.byte	0x0
 6543 0155 16       		.uleb128 0x16
 6544 0156 34       		.uleb128 0x34
ARM GAS  C:\Users\CHARLI~1\AppData\Local\Temp\cc78mmP1.s 			page 154


 6545 0157 00       		.byte	0x0
 6546 0158 03       		.uleb128 0x3
 6547 0159 0E       		.uleb128 0xe
 6548 015a 3A       		.uleb128 0x3a
 6549 015b 0B       		.uleb128 0xb
 6550 015c 3B       		.uleb128 0x3b
 6551 015d 05       		.uleb128 0x5
 6552 015e 49       		.uleb128 0x49
 6553 015f 13       		.uleb128 0x13
 6554 0160 3F       		.uleb128 0x3f
 6555 0161 0C       		.uleb128 0xc
 6556 0162 02       		.uleb128 0x2
 6557 0163 0A       		.uleb128 0xa
 6558 0164 00       		.byte	0x0
 6559 0165 00       		.byte	0x0
 6560 0166 00       		.byte	0x0
 6561              		.section	.debug_pubnames,"",%progbits
 6562 0000 2A050000 		.4byte	0x52a
 6563 0004 0200     		.2byte	0x2
 6564 0006 00000000 		.4byte	.Ldebug_info0
 6565 000a BC0B0000 		.4byte	0xbbc
 6566 000e C2000000 		.4byte	0xc2
 6567 0012 4379504C 		.ascii	"CyPLL_OUT_Start\000"
 6567      4C5F4F55 
 6567      545F5374 
 6567      61727400 
 6568 0022 26010000 		.4byte	0x126
 6569 0026 4379504C 		.ascii	"CyPLL_OUT_Stop\000"
 6569      4C5F4F55 
 6569      545F5374 
 6569      6F7000
 6570 0035 3B010000 		.4byte	0x13b
 6571 0039 4379504C 		.ascii	"CyPLL_OUT_SetPQ\000"
 6571      4C5F4F55 
 6571      545F5365 
 6571      74505100 
 6572 0049 7B010000 		.4byte	0x17b
 6573 004d 4379504C 		.ascii	"CyPLL_OUT_SetSource\000"
 6573      4C5F4F55 
 6573      545F5365 
 6573      74536F75 
 6573      72636500 
 6574 0061 A3010000 		.4byte	0x1a3
 6575 0065 4379494D 		.ascii	"CyIMO_Start\000"
 6575      4F5F5374 
 6575      61727400 
 6576 0071 F6010000 		.4byte	0x1f6
 6577 0075 4379494D 		.ascii	"CyIMO_Stop\000"
 6577      4F5F5374 
 6577      6F7000
 6578 0080 0C020000 		.4byte	0x20c
 6579 0084 4379494D 		.ascii	"CyIMO_SetTrimValue\000"
 6579      4F5F5365 
 6579      74547269 
 6579      6D56616C 
 6579      756500
 6580 0097 36020000 		.4byte	0x236
ARM GAS  C:\Users\CHARLI~1\AppData\Local\Temp\cc78mmP1.s 			page 155


 6581 009b 4379494D 		.ascii	"CyIMO_SetFreq\000"
 6581      4F5F5365 
 6581      74467265 
 6581      7100
 6582 00a9 7E020000 		.4byte	0x27e
 6583 00ad 4379494D 		.ascii	"CyIMO_SetSource\000"
 6583      4F5F5365 
 6583      74536F75 
 6583      72636500 
 6584 00bd A8020000 		.4byte	0x2a8
 6585 00c1 4379494D 		.ascii	"CyIMO_EnableDoubler\000"
 6585      4F5F456E 
 6585      61626C65 
 6585      446F7562 
 6585      6C657200 
 6586 00d5 BE020000 		.4byte	0x2be
 6587 00d9 4379494D 		.ascii	"CyIMO_DisableDoubler\000"
 6587      4F5F4469 
 6587      7361626C 
 6587      65446F75 
 6587      626C6572 
 6588 00ee D4020000 		.4byte	0x2d4
 6589 00f2 43794D61 		.ascii	"CyMasterClk_SetSource\000"
 6589      73746572 
 6589      436C6B5F 
 6589      53657453 
 6589      6F757263 
 6590 0108 0D030000 		.4byte	0x30d
 6591 010c 43794D61 		.ascii	"CyMasterClk_SetDivider\000"
 6591      73746572 
 6591      436C6B5F 
 6591      53657444 
 6591      69766964 
 6592 0123 37030000 		.4byte	0x337
 6593 0127 43794275 		.ascii	"CyBusClk_Internal_SetDivider\000"
 6593      73436C6B 
 6593      5F496E74 
 6593      65726E61 
 6593      6C5F5365 
 6594 0144 61030000 		.4byte	0x361
 6595 0148 43794275 		.ascii	"CyBusClk_SetDivider\000"
 6595      73436C6B 
 6595      5F536574 
 6595      44697669 
 6595      64657200 
 6596 015c A9030000 		.4byte	0x3a9
 6597 0160 43794370 		.ascii	"CyCpuClk_SetDivider\000"
 6597      75436C6B 
 6597      5F536574 
 6597      44697669 
 6597      64657200 
 6598 0174 D3030000 		.4byte	0x3d3
 6599 0178 43795573 		.ascii	"CyUsbClk_SetSource\000"
 6599      62436C6B 
 6599      5F536574 
 6599      536F7572 
 6599      636500
ARM GAS  C:\Users\CHARLI~1\AppData\Local\Temp\cc78mmP1.s 			page 156


 6600 018b FD030000 		.4byte	0x3fd
 6601 018f 4379494C 		.ascii	"CyILO_Start1K\000"
 6601      4F5F5374 
 6601      61727431 
 6601      4B00
 6602 019d 13040000 		.4byte	0x413
 6603 01a1 4379494C 		.ascii	"CyILO_Stop1K\000"
 6603      4F5F5374 
 6603      6F70314B 
 6603      00
 6604 01ae 29040000 		.4byte	0x429
 6605 01b2 4379494C 		.ascii	"CyILO_Start100K\000"
 6605      4F5F5374 
 6605      61727431 
 6605      30304B00 
 6606 01c2 3F040000 		.4byte	0x43f
 6607 01c6 4379494C 		.ascii	"CyILO_Stop100K\000"
 6607      4F5F5374 
 6607      6F703130 
 6607      304B00
 6608 01d5 55040000 		.4byte	0x455
 6609 01d9 4379494C 		.ascii	"CyILO_Enable33K\000"
 6609      4F5F456E 
 6609      61626C65 
 6609      33334B00 
 6610 01e9 6B040000 		.4byte	0x46b
 6611 01ed 4379494C 		.ascii	"CyILO_Disable33K\000"
 6611      4F5F4469 
 6611      7361626C 
 6611      6533334B 
 6611      00
 6612 01fe 81040000 		.4byte	0x481
 6613 0202 4379494C 		.ascii	"CyILO_SetSource\000"
 6613      4F5F5365 
 6613      74536F75 
 6613      72636500 
 6614 0212 AB040000 		.4byte	0x4ab
 6615 0216 4379494C 		.ascii	"CyILO_SetPowerMode\000"
 6615      4F5F5365 
 6615      74506F77 
 6615      65724D6F 
 6615      646500
 6616 0229 E8040000 		.4byte	0x4e8
 6617 022d 43795854 		.ascii	"CyXTAL_32KHZ_Start\000"
 6617      414C5F33 
 6617      324B485A 
 6617      5F537461 
 6617      727400
 6618 0240 27050000 		.4byte	0x527
 6619 0244 43795854 		.ascii	"CyXTAL_32KHZ_Stop\000"
 6619      414C5F33 
 6619      324B485A 
 6619      5F53746F 
 6619      7000
 6620 0256 3D050000 		.4byte	0x53d
 6621 025a 43795854 		.ascii	"CyXTAL_32KHZ_ReadStatus\000"
 6621      414C5F33 
ARM GAS  C:\Users\CHARLI~1\AppData\Local\Temp\cc78mmP1.s 			page 157


 6621      324B485A 
 6621      5F526561 
 6621      64537461 
 6622 0272 6B050000 		.4byte	0x56b
 6623 0276 43795854 		.ascii	"CyXTAL_32KHZ_SetPowerMode\000"
 6623      414C5F33 
 6623      324B485A 
 6623      5F536574 
 6623      506F7765 
 6624 0290 A8050000 		.4byte	0x5a8
 6625 0294 43795854 		.ascii	"CyXTAL_Start\000"
 6625      414C5F53 
 6625      74617274 
 6625      00
 6626 02a1 30060000 		.4byte	0x630
 6627 02a5 43795854 		.ascii	"CyXTAL_Stop\000"
 6627      414C5F53 
 6627      746F7000 
 6628 02b1 46060000 		.4byte	0x646
 6629 02b5 43795854 		.ascii	"CyXTAL_EnableErrStatus\000"
 6629      414C5F45 
 6629      6E61626C 
 6629      65457272 
 6629      53746174 
 6630 02cc 5C060000 		.4byte	0x65c
 6631 02d0 43795854 		.ascii	"CyXTAL_DisableErrStatus\000"
 6631      414C5F44 
 6631      69736162 
 6631      6C654572 
 6631      72537461 
 6632 02e8 72060000 		.4byte	0x672
 6633 02ec 43795854 		.ascii	"CyXTAL_ReadStatus\000"
 6633      414C5F52 
 6633      65616453 
 6633      74617475 
 6633      7300
 6634 02fe 8C060000 		.4byte	0x68c
 6635 0302 43795854 		.ascii	"CyXTAL_EnableFaultRecovery\000"
 6635      414C5F45 
 6635      6E61626C 
 6635      65466175 
 6635      6C745265 
 6636 031d A2060000 		.4byte	0x6a2
 6637 0321 43795854 		.ascii	"CyXTAL_DisableFaultRecovery\000"
 6637      414C5F44 
 6637      69736162 
 6637      6C654661 
 6637      756C7452 
 6638 033d B8060000 		.4byte	0x6b8
 6639 0341 43795854 		.ascii	"CyXTAL_SetStartup\000"
 6639      414C5F53 
 6639      65745374 
 6639      61727475 
 6639      7000
 6640 0353 E2060000 		.4byte	0x6e2
 6641 0357 43794861 		.ascii	"CyHalt\000"
 6641      6C7400
ARM GAS  C:\Users\CHARLI~1\AppData\Local\Temp\cc78mmP1.s 			page 158


 6642 035e 0C070000 		.4byte	0x70c
 6643 0362 4379536F 		.ascii	"CySoftwareReset\000"
 6643      66747761 
 6643      72655265 
 6643      73657400 
 6644 0372 22070000 		.4byte	0x722
 6645 0376 43794465 		.ascii	"CyDelay\000"
 6645      6C617900 
 6646 037e 4C070000 		.4byte	0x74c
 6647 0382 43794465 		.ascii	"CyDelayUs\000"
 6647      6C617955 
 6647      7300
 6648 038c 76070000 		.4byte	0x776
 6649 0390 43794465 		.ascii	"CyDelayFreq\000"
 6649      6C617946 
 6649      72657100 
 6650 039c A0070000 		.4byte	0x7a0
 6651 03a0 43795764 		.ascii	"CyWdtStart\000"
 6651      74537461 
 6651      727400
 6652 03ab D9070000 		.4byte	0x7d9
 6653 03af 43795764 		.ascii	"CyWdtClear\000"
 6653      74436C65 
 6653      617200
 6654 03ba 03080000 		.4byte	0x803
 6655 03be 43794469 		.ascii	"CyDisableInts\000"
 6655      7361626C 
 6655      65496E74 
 6655      7300
 6656 03cc 31080000 		.4byte	0x831
 6657 03d0 4379456E 		.ascii	"CyEnableInts\000"
 6657      61626C65 
 6657      496E7473 
 6657      00
 6658 03dd 5B080000 		.4byte	0x85b
 6659 03e1 4379466C 		.ascii	"CyFlushCache\000"
 6659      75736843 
 6659      61636865 
 6659      00
 6660 03ee 85080000 		.4byte	0x885
 6661 03f2 4379496E 		.ascii	"CyIntSetSysVector\000"
 6661      74536574 
 6661      53797356 
 6661      6563746F 
 6661      7200
 6662 0404 E6080000 		.4byte	0x8e6
 6663 0408 4379496E 		.ascii	"CyIntGetSysVector\000"
 6663      74476574 
 6663      53797356 
 6663      6563746F 
 6663      7200
 6664 041a 23090000 		.4byte	0x923
 6665 041e 4379496E 		.ascii	"CyIntSetVector\000"
 6665      74536574 
 6665      56656374 
 6665      6F7200
 6666 042d 7E090000 		.4byte	0x97e
ARM GAS  C:\Users\CHARLI~1\AppData\Local\Temp\cc78mmP1.s 			page 159


 6667 0431 4379496E 		.ascii	"CyIntGetVector\000"
 6667      74476574 
 6667      56656374 
 6667      6F7200
 6668 0440 BB090000 		.4byte	0x9bb
 6669 0444 4379496E 		.ascii	"CyIntSetPriority\000"
 6669      74536574 
 6669      5072696F 
 6669      72697479 
 6669      00
 6670 0455 F4090000 		.4byte	0x9f4
 6671 0459 4379496E 		.ascii	"CyIntGetPriority\000"
 6671      74476574 
 6671      5072696F 
 6671      72697479 
 6671      00
 6672 046a 310A0000 		.4byte	0xa31
 6673 046e 4379496E 		.ascii	"CyIntEnable\000"
 6673      74456E61 
 6673      626C6500 
 6674 047a 750A0000 		.4byte	0xa75
 6675 047e 4379496E 		.ascii	"CyIntGetState\000"
 6675      74476574 
 6675      53746174 
 6675      6500
 6676 048c B20A0000 		.4byte	0xab2
 6677 0490 4379496E 		.ascii	"CyIntDisable\000"
 6677      74446973 
 6677      61626C65 
 6677      00
 6678 049d EB0A0000 		.4byte	0xaeb
 6679 04a1 4379496E 		.ascii	"CyIntSetPending\000"
 6679      74536574 
 6679      50656E64 
 6679      696E6700 
 6680 04b1 240B0000 		.4byte	0xb24
 6681 04b5 4379496E 		.ascii	"CyIntClearPending\000"
 6681      74436C65 
 6681      61725065 
 6681      6E64696E 
 6681      6700
 6682 04c7 5D0B0000 		.4byte	0xb5d
 6683 04cb 43795265 		.ascii	"CyResetStatus\000"
 6683      73657453 
 6683      74617475 
 6683      7300
 6684 04d9 6F0B0000 		.4byte	0xb6f
 6685 04dd 63796465 		.ascii	"cydelay_freq_hz\000"
 6685      6C61795F 
 6685      66726571 
 6685      5F687A00 
 6686 04ed 820B0000 		.4byte	0xb82
 6687 04f1 63796465 		.ascii	"cydelay_freq_khz\000"
 6687      6C61795F 
 6687      66726571 
 6687      5F6B687A 
 6687      00
ARM GAS  C:\Users\CHARLI~1\AppData\Local\Temp\cc78mmP1.s 			page 160


 6688 0502 950B0000 		.4byte	0xb95
 6689 0506 63796465 		.ascii	"cydelay_freq_mhz\000"
 6689      6C61795F 
 6689      66726571 
 6689      5F6D687A 
 6689      00
 6690 0517 A80B0000 		.4byte	0xba8
 6691 051b 63796465 		.ascii	"cydelay_32k_ms\000"
 6691      6C61795F 
 6691      33326B5F 
 6691      6D7300
 6692 052a 00000000 		.4byte	0x0
 6693              		.section	.debug_aranges,"",%progbits
 6694 0000 E4010000 		.4byte	0x1e4
 6695 0004 0200     		.2byte	0x2
 6696 0006 00000000 		.4byte	.Ldebug_info0
 6697 000a 04       		.byte	0x4
 6698 000b 00       		.byte	0x0
 6699 000c 0000     		.2byte	0x0
 6700 000e 0000     		.2byte	0x0
 6701 0010 00000000 		.4byte	.LFB0
 6702 0014 16010000 		.4byte	.LFE0-.LFB0
 6703 0018 00000000 		.4byte	.LFB1
 6704 001c 24000000 		.4byte	.LFE1-.LFB1
 6705 0020 00000000 		.4byte	.LFB2
 6706 0024 A6000000 		.4byte	.LFE2-.LFB2
 6707 0028 00000000 		.4byte	.LFB3
 6708 002c 70000000 		.4byte	.LFE3-.LFB3
 6709 0030 00000000 		.4byte	.LFB4
 6710 0034 D0000000 		.4byte	.LFE4-.LFB4
 6711 0038 00000000 		.4byte	.LFB5
 6712 003c 24000000 		.4byte	.LFE5-.LFB5
 6713 0040 00000000 		.4byte	.LFB6
 6714 0044 44010000 		.4byte	.LFE6-.LFB6
 6715 0048 00000000 		.4byte	.LFB7
 6716 004c 12020000 		.4byte	.LFE7-.LFB7
 6717 0050 00000000 		.4byte	.LFB8
 6718 0054 B8000000 		.4byte	.LFE8-.LFB8
 6719 0058 00000000 		.4byte	.LFB9
 6720 005c 26000000 		.4byte	.LFE9-.LFB9
 6721 0060 00000000 		.4byte	.LFB10
 6722 0064 24000000 		.4byte	.LFE10-.LFB10
 6723 0068 00000000 		.4byte	.LFB11
 6724 006c 42000000 		.4byte	.LFE11-.LFB11
 6725 0070 00000000 		.4byte	.LFB12
 6726 0074 20000000 		.4byte	.LFE12-.LFB12
 6727 0078 00000000 		.4byte	.LFB13
 6728 007c 84000000 		.4byte	.LFE13-.LFB13
 6729 0080 00000000 		.4byte	.LFB14
 6730 0084 A4000000 		.4byte	.LFE14-.LFB14
 6731 0088 00000000 		.4byte	.LFB15
 6732 008c 14000000 		.4byte	.LFE15-.LFB15
 6733 0090 00000000 		.4byte	.LFB16
 6734 0094 40000000 		.4byte	.LFE16-.LFB16
 6735 0098 00000000 		.4byte	.LFB17
 6736 009c 26000000 		.4byte	.LFE17-.LFB17
 6737 00a0 00000000 		.4byte	.LFB18
ARM GAS  C:\Users\CHARLI~1\AppData\Local\Temp\cc78mmP1.s 			page 161


 6738 00a4 24000000 		.4byte	.LFE18-.LFB18
 6739 00a8 00000000 		.4byte	.LFB19
 6740 00ac 26000000 		.4byte	.LFE19-.LFB19
 6741 00b0 00000000 		.4byte	.LFB20
 6742 00b4 24000000 		.4byte	.LFE20-.LFB20
 6743 00b8 00000000 		.4byte	.LFB21
 6744 00bc 26000000 		.4byte	.LFE21-.LFB21
 6745 00c0 00000000 		.4byte	.LFB22
 6746 00c4 24000000 		.4byte	.LFE22-.LFB22
 6747 00c8 00000000 		.4byte	.LFB23
 6748 00cc 42000000 		.4byte	.LFE23-.LFB23
 6749 00d0 00000000 		.4byte	.LFB24
 6750 00d4 58000000 		.4byte	.LFE24-.LFB24
 6751 00d8 00000000 		.4byte	.LFB25
 6752 00dc 7C000000 		.4byte	.LFE25-.LFB25
 6753 00e0 00000000 		.4byte	.LFB26
 6754 00e4 24000000 		.4byte	.LFE26-.LFB26
 6755 00e8 00000000 		.4byte	.LFB27
 6756 00ec 24000000 		.4byte	.LFE27-.LFB27
 6757 00f0 00000000 		.4byte	.LFB28
 6758 00f4 58000000 		.4byte	.LFE28-.LFB28
 6759 00f8 00000000 		.4byte	.LFB29
 6760 00fc 5C010000 		.4byte	.LFE29-.LFB29
 6761 0100 00000000 		.4byte	.LFB30
 6762 0104 24000000 		.4byte	.LFE30-.LFB30
 6763 0108 00000000 		.4byte	.LFB31
 6764 010c 24000000 		.4byte	.LFE31-.LFB31
 6765 0110 00000000 		.4byte	.LFB32
 6766 0114 26000000 		.4byte	.LFE32-.LFB32
 6767 0118 00000000 		.4byte	.LFB33
 6768 011c 1E000000 		.4byte	.LFE33-.LFB33
 6769 0120 00000000 		.4byte	.LFB34
 6770 0124 26000000 		.4byte	.LFE34-.LFB34
 6771 0128 00000000 		.4byte	.LFB35
 6772 012c 24000000 		.4byte	.LFE35-.LFB35
 6773 0130 00000000 		.4byte	.LFB36
 6774 0134 3C000000 		.4byte	.LFE36-.LFB36
 6775 0138 00000000 		.4byte	.LFB37
 6776 013c 16000000 		.4byte	.LFE37-.LFB37
 6777 0140 00000000 		.4byte	.LFB38
 6778 0144 18000000 		.4byte	.LFE38-.LFB38
 6779 0148 00000000 		.4byte	.LFB39
 6780 014c 48000000 		.4byte	.LFE39-.LFB39
 6781 0150 00000000 		.4byte	.LFB40
 6782 0154 28000000 		.4byte	.LFE40-.LFB40
 6783 0158 00000000 		.4byte	.LFB41
 6784 015c AC000000 		.4byte	.LFE41-.LFB41
 6785 0160 00000000 		.4byte	.LFB42
 6786 0164 CC000000 		.4byte	.LFE42-.LFB42
 6787 0168 00000000 		.4byte	.LFB43
 6788 016c 44000000 		.4byte	.LFE43-.LFB43
 6789 0170 00000000 		.4byte	.LFB44
 6790 0174 2E000000 		.4byte	.LFE44-.LFB44
 6791 0178 00000000 		.4byte	.LFB45
 6792 017c 1E000000 		.4byte	.LFE45-.LFB45
 6793 0180 00000000 		.4byte	.LFB46
 6794 0184 38000000 		.4byte	.LFE46-.LFB46
ARM GAS  C:\Users\CHARLI~1\AppData\Local\Temp\cc78mmP1.s 			page 162


 6795 0188 00000000 		.4byte	.LFB47
 6796 018c 42000000 		.4byte	.LFE47-.LFB47
 6797 0190 00000000 		.4byte	.LFB48
 6798 0194 2E000000 		.4byte	.LFE48-.LFB48
 6799 0198 00000000 		.4byte	.LFB49
 6800 019c 4A000000 		.4byte	.LFE49-.LFB49
 6801 01a0 00000000 		.4byte	.LFB50
 6802 01a4 32000000 		.4byte	.LFE50-.LFB50
 6803 01a8 00000000 		.4byte	.LFB51
 6804 01ac 56000000 		.4byte	.LFE51-.LFB51
 6805 01b0 00000000 		.4byte	.LFB52
 6806 01b4 2C000000 		.4byte	.LFE52-.LFB52
 6807 01b8 00000000 		.4byte	.LFB53
 6808 01bc 32000000 		.4byte	.LFE53-.LFB53
 6809 01c0 00000000 		.4byte	.LFB54
 6810 01c4 3E000000 		.4byte	.LFE54-.LFB54
 6811 01c8 00000000 		.4byte	.LFB55
 6812 01cc 32000000 		.4byte	.LFE55-.LFB55
 6813 01d0 00000000 		.4byte	.LFB56
 6814 01d4 32000000 		.4byte	.LFE56-.LFB56
 6815 01d8 00000000 		.4byte	.LFB57
 6816 01dc 32000000 		.4byte	.LFE57-.LFB57
 6817 01e0 00000000 		.4byte	0x0
 6818 01e4 00000000 		.4byte	0x0
 6819              		.section	.debug_ranges,"",%progbits
 6820              	.Ldebug_ranges0:
 6821 0000 00000000 		.4byte	.Ltext0
 6822 0004 00000000 		.4byte	.Letext0
 6823 0008 00000000 		.4byte	.LFB0
 6824 000c 16010000 		.4byte	.LFE0
 6825 0010 00000000 		.4byte	.LFB1
 6826 0014 24000000 		.4byte	.LFE1
 6827 0018 00000000 		.4byte	.LFB2
 6828 001c A6000000 		.4byte	.LFE2
 6829 0020 00000000 		.4byte	.LFB3
 6830 0024 70000000 		.4byte	.LFE3
 6831 0028 00000000 		.4byte	.LFB4
 6832 002c D0000000 		.4byte	.LFE4
 6833 0030 00000000 		.4byte	.LFB5
 6834 0034 24000000 		.4byte	.LFE5
 6835 0038 00000000 		.4byte	.LFB6
 6836 003c 44010000 		.4byte	.LFE6
 6837 0040 00000000 		.4byte	.LFB7
 6838 0044 12020000 		.4byte	.LFE7
 6839 0048 00000000 		.4byte	.LFB8
 6840 004c B8000000 		.4byte	.LFE8
 6841 0050 00000000 		.4byte	.LFB9
 6842 0054 26000000 		.4byte	.LFE9
 6843 0058 00000000 		.4byte	.LFB10
 6844 005c 24000000 		.4byte	.LFE10
 6845 0060 00000000 		.4byte	.LFB11
 6846 0064 42000000 		.4byte	.LFE11
 6847 0068 00000000 		.4byte	.LFB12
 6848 006c 20000000 		.4byte	.LFE12
 6849 0070 00000000 		.4byte	.LFB13
 6850 0074 84000000 		.4byte	.LFE13
 6851 0078 00000000 		.4byte	.LFB14
ARM GAS  C:\Users\CHARLI~1\AppData\Local\Temp\cc78mmP1.s 			page 163


 6852 007c A4000000 		.4byte	.LFE14
 6853 0080 00000000 		.4byte	.LFB15
 6854 0084 14000000 		.4byte	.LFE15
 6855 0088 00000000 		.4byte	.LFB16
 6856 008c 40000000 		.4byte	.LFE16
 6857 0090 00000000 		.4byte	.LFB17
 6858 0094 26000000 		.4byte	.LFE17
 6859 0098 00000000 		.4byte	.LFB18
 6860 009c 24000000 		.4byte	.LFE18
 6861 00a0 00000000 		.4byte	.LFB19
 6862 00a4 26000000 		.4byte	.LFE19
 6863 00a8 00000000 		.4byte	.LFB20
 6864 00ac 24000000 		.4byte	.LFE20
 6865 00b0 00000000 		.4byte	.LFB21
 6866 00b4 26000000 		.4byte	.LFE21
 6867 00b8 00000000 		.4byte	.LFB22
 6868 00bc 24000000 		.4byte	.LFE22
 6869 00c0 00000000 		.4byte	.LFB23
 6870 00c4 42000000 		.4byte	.LFE23
 6871 00c8 00000000 		.4byte	.LFB24
 6872 00cc 58000000 		.4byte	.LFE24
 6873 00d0 00000000 		.4byte	.LFB25
 6874 00d4 7C000000 		.4byte	.LFE25
 6875 00d8 00000000 		.4byte	.LFB26
 6876 00dc 24000000 		.4byte	.LFE26
 6877 00e0 00000000 		.4byte	.LFB27
 6878 00e4 24000000 		.4byte	.LFE27
 6879 00e8 00000000 		.4byte	.LFB28
 6880 00ec 58000000 		.4byte	.LFE28
 6881 00f0 00000000 		.4byte	.LFB29
 6882 00f4 5C010000 		.4byte	.LFE29
 6883 00f8 00000000 		.4byte	.LFB30
 6884 00fc 24000000 		.4byte	.LFE30
 6885 0100 00000000 		.4byte	.LFB31
 6886 0104 24000000 		.4byte	.LFE31
 6887 0108 00000000 		.4byte	.LFB32
 6888 010c 26000000 		.4byte	.LFE32
 6889 0110 00000000 		.4byte	.LFB33
 6890 0114 1E000000 		.4byte	.LFE33
 6891 0118 00000000 		.4byte	.LFB34
 6892 011c 26000000 		.4byte	.LFE34
 6893 0120 00000000 		.4byte	.LFB35
 6894 0124 24000000 		.4byte	.LFE35
 6895 0128 00000000 		.4byte	.LFB36
 6896 012c 3C000000 		.4byte	.LFE36
 6897 0130 00000000 		.4byte	.LFB37
 6898 0134 16000000 		.4byte	.LFE37
 6899 0138 00000000 		.4byte	.LFB38
 6900 013c 18000000 		.4byte	.LFE38
 6901 0140 00000000 		.4byte	.LFB39
 6902 0144 48000000 		.4byte	.LFE39
 6903 0148 00000000 		.4byte	.LFB40
 6904 014c 28000000 		.4byte	.LFE40
 6905 0150 00000000 		.4byte	.LFB41
 6906 0154 AC000000 		.4byte	.LFE41
 6907 0158 00000000 		.4byte	.LFB42
 6908 015c CC000000 		.4byte	.LFE42
ARM GAS  C:\Users\CHARLI~1\AppData\Local\Temp\cc78mmP1.s 			page 164


 6909 0160 00000000 		.4byte	.LFB43
 6910 0164 44000000 		.4byte	.LFE43
 6911 0168 00000000 		.4byte	.LFB44
 6912 016c 2E000000 		.4byte	.LFE44
 6913 0170 00000000 		.4byte	.LFB45
 6914 0174 1E000000 		.4byte	.LFE45
 6915 0178 00000000 		.4byte	.LFB46
 6916 017c 38000000 		.4byte	.LFE46
 6917 0180 00000000 		.4byte	.LFB47
 6918 0184 42000000 		.4byte	.LFE47
 6919 0188 00000000 		.4byte	.LFB48
 6920 018c 2E000000 		.4byte	.LFE48
 6921 0190 00000000 		.4byte	.LFB49
 6922 0194 4A000000 		.4byte	.LFE49
 6923 0198 00000000 		.4byte	.LFB50
 6924 019c 32000000 		.4byte	.LFE50
 6925 01a0 00000000 		.4byte	.LFB51
 6926 01a4 56000000 		.4byte	.LFE51
 6927 01a8 00000000 		.4byte	.LFB52
 6928 01ac 2C000000 		.4byte	.LFE52
 6929 01b0 00000000 		.4byte	.LFB53
 6930 01b4 32000000 		.4byte	.LFE53
 6931 01b8 00000000 		.4byte	.LFB54
 6932 01bc 3E000000 		.4byte	.LFE54
 6933 01c0 00000000 		.4byte	.LFB55
 6934 01c4 32000000 		.4byte	.LFE55
 6935 01c8 00000000 		.4byte	.LFB56
 6936 01cc 32000000 		.4byte	.LFE56
 6937 01d0 00000000 		.4byte	.LFB57
 6938 01d4 32000000 		.4byte	.LFE57
 6939 01d8 00000000 		.4byte	0x0
 6940 01dc 00000000 		.4byte	0x0
 6941              		.section	.debug_str,"MS",%progbits,1
 6942              	.LASF95:
 6943 0000 72616D56 		.ascii	"ramVectorTable\000"
 6943      6563746F 
 6943      72546162 
 6943      6C6500
 6944              	.LASF63:
 6945 000f 636F756E 		.ascii	"count\000"
 6945      7400
 6946              	.LASF11:
 6947 0015 75696E74 		.ascii	"uint16\000"
 6947      313600
 6948              	.LASF38:
 6949 001c 64697669 		.ascii	"divider\000"
 6949      64657200 
 6950              	.LASF67:
 6951 0024 43795854 		.ascii	"CyXTAL_DisableErrStatus\000"
 6951      414C5F44 
 6951      69736162 
 6951      6C654572 
 6951      72537461 
 6952              	.LASF24:
 6953 003c 4379494D 		.ascii	"CyIMO_Start\000"
 6953      4F5F5374 
 6953      61727400 
ARM GAS  C:\Users\CHARLI~1\AppData\Local\Temp\cc78mmP1.s 			page 165


 6954              	.LASF48:
 6955 0048 4379494C 		.ascii	"CyILO_Stop100K\000"
 6955      4F5F5374 
 6955      6F703130 
 6955      304B00
 6956              	.LASF33:
 6957 0057 4379494D 		.ascii	"CyIMO_EnableDoubler\000"
 6957      4F5F456E 
 6957      61626C65 
 6957      446F7562 
 6957      6C657200 
 6958              	.LASF85:
 6959 006b 43794469 		.ascii	"CyDisableInts\000"
 6959      7361626C 
 6959      65496E74 
 6959      7300
 6960              	.LASF39:
 6961 0079 43794275 		.ascii	"CyBusClk_Internal_SetDivider\000"
 6961      73436C6B 
 6961      5F496E74 
 6961      65726E61 
 6961      6C5F5365 
 6962              	.LASF56:
 6963 0096 43795854 		.ascii	"CyXTAL_32KHZ_Start\000"
 6963      414C5F33 
 6963      324B485A 
 6963      5F537461 
 6963      727400
 6964              	.LASF6:
 6965 00a9 6C6F6E67 		.ascii	"long long unsigned int\000"
 6965      206C6F6E 
 6965      6720756E 
 6965      7369676E 
 6965      65642069 
 6966              	.LASF116:
 6967 00c0 474E5520 		.ascii	"GNU C 4.4.1\000"
 6967      4320342E 
 6967      342E3100 
 6968              	.LASF103:
 6969 00cc 656E6162 		.ascii	"enableReg\000"
 6969      6C655265 
 6969      6700
 6970              	.LASF74:
 6971 00d6 4379536F 		.ascii	"CySoftwareReset\000"
 6971      66747761 
 6971      72655265 
 6971      73657400 
 6972              	.LASF114:
 6973 00e6 63796465 		.ascii	"cydelay_freq_mhz\000"
 6973      6C61795F 
 6973      66726571 
 6973      5F6D687A 
 6973      00
 6974              	.LASF104:
 6975 00f7 4379496E 		.ascii	"CyIntGetState\000"
 6975      74476574 
 6975      53746174 
ARM GAS  C:\Users\CHARLI~1\AppData\Local\Temp\cc78mmP1.s 			page 166


 6975      6500
 6976              	.LASF5:
 6977 0105 6C6F6E67 		.ascii	"long long int\000"
 6977      206C6F6E 
 6977      6720696E 
 6977      7400
 6978              	.LASF0:
 6979 0113 7369676E 		.ascii	"signed char\000"
 6979      65642063 
 6979      68617200 
 6980              	.LASF28:
 6981 011f 66726571 		.ascii	"freq\000"
 6981      00
 6982              	.LASF79:
 6983 0124 43794465 		.ascii	"CyDelayFreq\000"
 6983      6C617946 
 6983      72657100 
 6984              	.LASF45:
 6985 0130 4379494C 		.ascii	"CyILO_Start1K\000"
 6985      4F5F5374 
 6985      61727431 
 6985      4B00
 6986              	.LASF19:
 6987 013e 77616974 		.ascii	"wait\000"
 6987      00
 6988              	.LASF55:
 6989 0143 73746174 		.ascii	"state\000"
 6989      6500
 6990              	.LASF7:
 6991 0149 6C6F6E67 		.ascii	"long int\000"
 6991      20696E74 
 6991      00
 6992              	.LASF106:
 6993 0152 4379496E 		.ascii	"CyIntDisable\000"
 6993      74446973 
 6993      61626C65 
 6993      00
 6994              	.LASF22:
 6995 015f 4379504C 		.ascii	"CyPLL_OUT_SetSource\000"
 6995      4C5F4F55 
 6995      545F5365 
 6995      74536F75 
 6995      72636500 
 6996              	.LASF107:
 6997 0173 636C6561 		.ascii	"clearReg\000"
 6997      72526567 
 6997      00
 6998              	.LASF41:
 6999 017c 63757272 		.ascii	"current_busclk_divider\000"
 6999      656E745F 
 6999      62757363 
 6999      6C6B5F64 
 6999      69766964 
 7000              	.LASF10:
 7001 0193 75696E74 		.ascii	"uint8\000"
 7001      3800
 7002              	.LASF58:
ARM GAS  C:\Users\CHARLI~1\AppData\Local\Temp\cc78mmP1.s 			page 167


 7003 0199 74696D65 		.ascii	"timeout_p\000"
 7003      6F75745F 
 7003      7000
 7004              	.LASF77:
 7005 01a3 43794465 		.ascii	"CyDelayUs\000"
 7005      6C617955 
 7005      7300
 7006              	.LASF94:
 7007 01ad 6F6C6449 		.ascii	"oldIsr\000"
 7007      737200
 7008              	.LASF46:
 7009 01b4 4379494C 		.ascii	"CyILO_Stop1K\000"
 7009      4F5F5374 
 7009      6F70314B 
 7009      00
 7010              	.LASF83:
 7011 01c1 43795764 		.ascii	"CyWdtClear\000"
 7011      74436C65 
 7011      617200
 7012              	.LASF12:
 7013 01cc 75696E74 		.ascii	"uint32\000"
 7013      333200
 7014              	.LASF88:
 7015 01d3 6D61736B 		.ascii	"mask\000"
 7015      00
 7016              	.LASF101:
 7017 01d8 4379496E 		.ascii	"CyIntGetPriority\000"
 7017      74476574 
 7017      5072696F 
 7017      72697479 
 7017      00
 7018              	.LASF42:
 7019 01e9 63757272 		.ascii	"current_masterclk_divider\000"
 7019      656E745F 
 7019      6D617374 
 7019      6572636C 
 7019      6B5F6469 
 7020              	.LASF96:
 7021 0203 4379496E 		.ascii	"CyIntGetSysVector\000"
 7021      74476574 
 7021      53797356 
 7021      6563746F 
 7021      7200
 7022              	.LASF30:
 7023 0215 63757272 		.ascii	"current_freq\000"
 7023      656E745F 
 7023      66726571 
 7023      00
 7024              	.LASF4:
 7025 0222 756E7369 		.ascii	"unsigned int\000"
 7025      676E6564 
 7025      20696E74 
 7025      00
 7026              	.LASF32:
 7027 022f 4379494D 		.ascii	"CyIMO_SetSource\000"
 7027      4F5F5365 
 7027      74536F75 
ARM GAS  C:\Users\CHARLI~1\AppData\Local\Temp\cc78mmP1.s 			page 168


 7027      72636500 
 7028              	.LASF8:
 7029 023f 6C6F6E67 		.ascii	"long unsigned int\000"
 7029      20756E73 
 7029      69676E65 
 7029      6420696E 
 7029      7400
 7030              	.LASF57:
 7031 0251 74696D65 		.ascii	"timeout\000"
 7031      6F757400 
 7032              	.LASF108:
 7033 0259 4379496E 		.ascii	"CyIntSetPending\000"
 7033      74536574 
 7033      50656E64 
 7033      696E6700 
 7034              	.LASF59:
 7035 0269 43795854 		.ascii	"CyXTAL_32KHZ_Stop\000"
 7035      414C5F33 
 7035      324B485A 
 7035      5F53746F 
 7035      7000
 7036              	.LASF53:
 7037 027b 4379494C 		.ascii	"CyILO_SetPowerMode\000"
 7037      4F5F5365 
 7037      74506F77 
 7037      65724D6F 
 7037      646500
 7038              	.LASF26:
 7039 028e 4379494D 		.ascii	"CyIMO_Stop\000"
 7039      4F5F5374 
 7039      6F7000
 7040              	.LASF3:
 7041 0299 73686F72 		.ascii	"short unsigned int\000"
 7041      7420756E 
 7041      7369676E 
 7041      65642069 
 7041      6E7400
 7042              	.LASF80:
 7043 02ac 43795764 		.ascii	"CyWdtStart\000"
 7043      74537461 
 7043      727400
 7044              	.LASF97:
 7045 02b7 4379496E 		.ascii	"CyIntSetVector\000"
 7045      74536574 
 7045      56656374 
 7045      6F7200
 7046              	.LASF36:
 7047 02c6 6D617374 		.ascii	"master_reg_1\000"
 7047      65725F72 
 7047      65675F31 
 7047      00
 7048              	.LASF35:
 7049 02d3 43794D61 		.ascii	"CyMasterClk_SetSource\000"
 7049      73746572 
 7049      436C6B5F 
 7049      53657453 
 7049      6F757263 
ARM GAS  C:\Users\CHARLI~1\AppData\Local\Temp\cc78mmP1.s 			page 169


 7050              	.LASF92:
 7051 02e9 6E756D62 		.ascii	"number\000"
 7051      657200
 7052              	.LASF100:
 7053 02f0 7072696F 		.ascii	"priority\000"
 7053      72697479 
 7053      00
 7054              	.LASF68:
 7055 02f9 43795854 		.ascii	"CyXTAL_EnableFaultRecovery\000"
 7055      414C5F45 
 7055      6E61626C 
 7055      65466175 
 7055      6C745265 
 7056              	.LASF99:
 7057 0314 4379496E 		.ascii	"CyIntSetPriority\000"
 7057      74536574 
 7057      5072696F 
 7057      72697479 
 7057      00
 7058              	.LASF21:
 7059 0325 4379504C 		.ascii	"CyPLL_OUT_SetPQ\000"
 7059      4C5F4F55 
 7059      545F5365 
 7059      74505100 
 7060              	.LASF110:
 7061 0335 4379496E 		.ascii	"CyIntClearPending\000"
 7061      74436C65 
 7061      61725065 
 7061      6E64696E 
 7061      6700
 7062              	.LASF91:
 7063 0347 4379496E 		.ascii	"CyIntSetSysVector\000"
 7063      74536574 
 7063      53797356 
 7063      6563746F 
 7063      7200
 7064              	.LASF62:
 7065 0359 43795854 		.ascii	"CyXTAL_Start\000"
 7065      414C5F53 
 7065      74617274 
 7065      00
 7066              	.LASF119:
 7067 0366 43795854 		.ascii	"CyXTAL_ReadStatus\000"
 7067      414C5F52 
 7067      65616453 
 7067      74617475 
 7067      7300
 7068              	.LASF113:
 7069 0378 63796465 		.ascii	"cydelay_freq_khz\000"
 7069      6C61795F 
 7069      66726571 
 7069      5F6B687A 
 7069      00
 7070              	.LASF23:
 7071 0389 736F7572 		.ascii	"source\000"
 7071      636500
 7072              	.LASF70:
ARM GAS  C:\Users\CHARLI~1\AppData\Local\Temp\cc78mmP1.s 			page 170


 7073 0390 43795854 		.ascii	"CyXTAL_SetStartup\000"
 7073      414C5F53 
 7073      65745374 
 7073      61727475 
 7073      7000
 7074              	.LASF81:
 7075 03a2 7469636B 		.ascii	"ticks\000"
 7075      7300
 7076              	.LASF34:
 7077 03a8 4379494D 		.ascii	"CyIMO_DisableDoubler\000"
 7077      4F5F4469 
 7077      7361626C 
 7077      65446F75 
 7077      626C6572 
 7078              	.LASF93:
 7079 03bd 61646472 		.ascii	"address\000"
 7079      65737300 
 7080              	.LASF64:
 7081 03c5 77616974 		.ascii	"wait_msec\000"
 7081      5F6D7365 
 7081      6300
 7082              	.LASF47:
 7083 03cf 4379494C 		.ascii	"CyILO_Start100K\000"
 7083      4F5F5374 
 7083      61727431 
 7083      30304B00 
 7084              	.LASF90:
 7085 03df 6374726C 		.ascii	"ctrlreg\000"
 7085      72656700 
 7086              	.LASF111:
 7087 03e7 43795265 		.ascii	"CyResetStatus\000"
 7087      73657453 
 7087      74617475 
 7087      7300
 7088              	.LASF25:
 7089 03f5 4379504C 		.ascii	"CyPLL_OUT_Stop\000"
 7089      4C5F4F55 
 7089      545F5374 
 7089      6F7000
 7090              	.LASF37:
 7091 0404 43794D61 		.ascii	"CyMasterClk_SetDivider\000"
 7091      73746572 
 7091      436C6B5F 
 7091      53657444 
 7091      69766964 
 7092              	.LASF20:
 7093 041b 63757272 		.ascii	"current\000"
 7093      656E7400 
 7094              	.LASF61:
 7095 0423 43795854 		.ascii	"CyXTAL_32KHZ_SetPowerMode\000"
 7095      414C5F33 
 7095      324B485A 
 7095      5F536574 
 7095      506F7765 
 7096              	.LASF49:
 7097 043d 4379494C 		.ascii	"CyILO_Enable33K\000"
 7097      4F5F456E 
ARM GAS  C:\Users\CHARLI~1\AppData\Local\Temp\cc78mmP1.s 			page 171


 7097      61626C65 
 7097      33334B00 
 7098              	.LASF71:
 7099 044d 73657474 		.ascii	"setting\000"
 7099      696E6700 
 7100              	.LASF98:
 7101 0455 4379496E 		.ascii	"CyIntGetVector\000"
 7101      74476574 
 7101      56656374 
 7101      6F7200
 7102              	.LASF76:
 7103 0464 6D696C6C 		.ascii	"milliseconds\000"
 7103      69736563 
 7103      6F6E6473 
 7103      00
 7104              	.LASF50:
 7105 0471 4379494C 		.ascii	"CyILO_Disable33K\000"
 7105      4F5F4469 
 7105      7361626C 
 7105      6533334B 
 7105      00
 7106              	.LASF112:
 7107 0482 63796465 		.ascii	"cydelay_freq_hz\000"
 7107      6C61795F 
 7107      66726571 
 7107      5F687A00 
 7108              	.LASF72:
 7109 0492 43794861 		.ascii	"CyHalt\000"
 7109      6C7400
 7110              	.LASF1:
 7111 0499 756E7369 		.ascii	"unsigned char\000"
 7111      676E6564 
 7111      20636861 
 7111      7200
 7112              	.LASF2:
 7113 04a7 73686F72 		.ascii	"short int\000"
 7113      7420696E 
 7113      7400
 7114              	.LASF43:
 7115 04b1 43794370 		.ascii	"CyCpuClk_SetDivider\000"
 7115      75436C6B 
 7115      5F536574 
 7115      44697669 
 7115      64657200 
 7116              	.LASF109:
 7117 04c5 70656E64 		.ascii	"pendReg\000"
 7117      52656700 
 7118              	.LASF66:
 7119 04cd 43795854 		.ascii	"CyXTAL_EnableErrStatus\000"
 7119      414C5F45 
 7119      6E61626C 
 7119      65457272 
 7119      53746174 
 7120              	.LASF102:
 7121 04e4 4379496E 		.ascii	"CyIntEnable\000"
 7121      74456E61 
 7121      626C6500 
ARM GAS  C:\Users\CHARLI~1\AppData\Local\Temp\cc78mmP1.s 			page 172


 7122              	.LASF89:
 7123 04f0 4379466C 		.ascii	"CyFlushCache\000"
 7123      75736843 
 7123      61636865 
 7123      00
 7124              	.LASF105:
 7125 04fd 73746174 		.ascii	"stateReg\000"
 7125      65526567 
 7125      00
 7126              	.LASF69:
 7127 0506 43795854 		.ascii	"CyXTAL_DisableFaultRecovery\000"
 7127      414C5F44 
 7127      69736162 
 7127      6C654661 
 7127      756C7452 
 7128              	.LASF73:
 7129 0522 72656173 		.ascii	"reason\000"
 7129      6F6E00
 7130              	.LASF86:
 7131 0529 696E7453 		.ascii	"intState\000"
 7131      74617465 
 7131      00
 7132              	.LASF115:
 7133 0532 63796465 		.ascii	"cydelay_32k_ms\000"
 7133      6C61795F 
 7133      33326B5F 
 7133      6D7300
 7134              	.LASF82:
 7135 0541 6C704D6F 		.ascii	"lpMode\000"
 7135      646500
 7136              	.LASF9:
 7137 0548 63686172 		.ascii	"char\000"
 7137      00
 7138              	.LASF54:
 7139 054d 6D6F6465 		.ascii	"mode\000"
 7139      00
 7140              	.LASF13:
 7141 0552 63796973 		.ascii	"cyisraddress\000"
 7141      72616464 
 7141      72657373 
 7141      00
 7142              	.LASF52:
 7143 055f 4379504C 		.ascii	"CyPLL_OUT_Start\000"
 7143      4C5F4F55 
 7143      545F5374 
 7143      61727400 
 7144              	.LASF87:
 7145 056f 4379456E 		.ascii	"CyEnableInts\000"
 7145      61626C65 
 7145      496E7473 
 7145      00
 7146              	.LASF44:
 7147 057c 43795573 		.ascii	"CyUsbClk_SetSource\000"
 7147      62436C6B 
 7147      5F536574 
 7147      536F7572 
 7147      636500
ARM GAS  C:\Users\CHARLI~1\AppData\Local\Temp\cc78mmP1.s 			page 173


 7148              	.LASF17:
 7149 058f 706D5F74 		.ascii	"pm_tw_cfg0_state\000"
 7149      775F6366 
 7149      67305F73 
 7149      74617465 
 7149      00
 7150              	.LASF65:
 7151 05a0 43795854 		.ascii	"CyXTAL_Stop\000"
 7151      414C5F53 
 7151      746F7000 
 7152              	.LASF16:
 7153 05ac 706D5F74 		.ascii	"pm_tw_cfg2_state\000"
 7153      775F6366 
 7153      67325F73 
 7153      74617465 
 7153      00
 7154              	.LASF75:
 7155 05bd 43794465 		.ascii	"CyDelay\000"
 7155      6C617900 
 7156              	.LASF40:
 7157 05c5 43794275 		.ascii	"CyBusClk_SetDivider\000"
 7157      73436C6B 
 7157      5F536574 
 7157      44697669 
 7157      64657200 
 7158              	.LASF15:
 7159 05d9 73746174 		.ascii	"status\000"
 7159      757300
 7160              	.LASF51:
 7161 05e0 4379494C 		.ascii	"CyILO_SetSource\000"
 7161      4F5F5365 
 7161      74536F75 
 7161      72636500 
 7162              	.LASF29:
 7163 05f0 4379494D 		.ascii	"CyIMO_SetFreq\000"
 7163      4F5F5365 
 7163      74467265 
 7163      7100
 7164              	.LASF60:
 7165 05fe 43795854 		.ascii	"CyXTAL_32KHZ_ReadStatus\000"
 7165      414C5F33 
 7165      324B485A 
 7165      5F526561 
 7165      64537461 
 7166              	.LASF84:
 7167 0616 7764745F 		.ascii	"wdt_cfg_value\000"
 7167      6366675F 
 7167      76616C75 
 7167      6500
 7168              	.LASF27:
 7169 0624 4379494D 		.ascii	"CyIMO_SetTrimValue\000"
 7169      4F5F5365 
 7169      74547269 
 7169      6D56616C 
 7169      756500
 7170              	.LASF14:
 7171 0637 63797374 		.ascii	"cystatus\000"
ARM GAS  C:\Users\CHARLI~1\AppData\Local\Temp\cc78mmP1.s 			page 174


 7171      61747573 
 7171      00
 7172              	.LASF18:
 7173 0640 696C6F5F 		.ascii	"ilo_clock_state\000"
 7173      636C6F63 
 7173      6B5F7374 
 7173      61746500 
 7174              	.LASF117:
 7175 0650 2E2F4765 		.ascii	"./Generated_Source/PSoC5/CyLib.c\000"
 7175      6E657261 
 7175      7465645F 
 7175      536F7572 
 7175      63652F50 
 7176              	.LASF78:
 7177 0671 6D696372 		.ascii	"microseconds\000"
 7177      6F736563 
 7177      6F6E6473 
 7177      00
 7178              	.LASF118:
 7179 067e 453A5C43 		.ascii	"E:\\ControllerKinect\\capController\\Receiver\\Rece"
 7179      6F6E7472 
 7179      6F6C6C65 
 7179      724B696E 
 7179      6563745C 
 7180 06ad 69766572 		.ascii	"iver.cydsn\000"
 7180      2E637964 
 7180      736E00
 7181              	.LASF31:
 7182 06b8 6E657874 		.ascii	"next_freq\000"
 7182      5F667265 
 7182      7100
 7183              		.ident	"GCC: (Sourcery G++ Lite 2010q1-188) 4.4.1"
