ARM GAS  C:\Users\CHARLI~1\AppData\Local\Temp\cc5KUbDa.s 			page 1


   1              		.syntax unified
   2              		.cpu cortex-m3
   3              		.fpu softvfp
   4              		.eabi_attribute 20, 1
   5              		.eabi_attribute 21, 1
   6              		.eabi_attribute 23, 3
   7              		.eabi_attribute 24, 1
   8              		.eabi_attribute 25, 1
   9              		.eabi_attribute 26, 1
  10              		.eabi_attribute 30, 6
  11              		.eabi_attribute 18, 4
  12              		.thumb
  13              		.file	"main.c"
  20 0000 8B010000 		.text
  20      02005300 
  20      00000201 
  20      FB0E0D00 
  20      01010101 
  21              	.Ltext0:
  22              		.cfi_sections	.debug_frame
  23              		.global	red
  24              		.bss
  25              		.align	1
  26              		.type	red, %object
  27              		.size	red, 2
  28              	red:
  29 0000 0000     		.space	2
  30              		.global	green
  31              		.align	1
  32              		.type	green, %object
  33              		.size	green, 2
  34              	green:
  35 0002 0000     		.space	2
  36              		.global	blue
  37              		.align	1
  38              		.type	blue, %object
  39              		.size	blue, 2
  40              	blue:
  41 0004 0000     		.space	2
  42              		.global	oldRed
  43              		.align	1
  44              		.type	oldRed, %object
  45              		.size	oldRed, 2
  46              	oldRed:
  47 0006 0000     		.space	2
  48              		.global	oldGreen
  49              		.align	1
  50              		.type	oldGreen, %object
  51              		.size	oldGreen, 2
  52              	oldGreen:
  53 0008 0000     		.space	2
ARM GAS  C:\Users\CHARLI~1\AppData\Local\Temp\cc5KUbDa.s 			page 2


  54              		.global	oldBlue
  55              		.align	1
  56              		.type	oldBlue, %object
  57              		.size	oldBlue, 2
  58              	oldBlue:
  59 000a 0000     		.space	2
  60              		.global	newData
  61              		.align	1
  62              		.type	newData, %object
  63              		.size	newData, 2
  64              	newData:
  65 000c 0000     		.space	2
  66              		.section	.rodata
  67              		.align	2
  68              	.LC0:
  69 0000 525800   		.ascii	"RX\000"
  70 0003 00       		.align	2
  71              	.LC1:
  72 0004 5300     		.ascii	"S\000"
  73              		.section	.text.main,"ax",%progbits
  74              		.align	2
  75              		.global	main
  76              		.thumb
  77              		.thumb_func
  78              		.type	main, %function
  79              	main:
  80              	.LFB29:
  81              		.file 1 "./main.c"
   1:./main.c      **** /* ========================================
   2:./main.c      ****  *
   3:./main.c      ****  * Copyright YOUR COMPANY, THE YEAR
   4:./main.c      ****  * All Rights Reserved
   5:./main.c      ****  * UNPUBLISHED, LICENSED SOFTWARE.
   6:./main.c      ****  *
   7:./main.c      ****  * CONFIDENTIAL AND PROPRIETARY INFORMATION
   8:./main.c      ****  * WHICH IS THE PROPERTY OF your company.
   9:./main.c      ****  *
  10:./main.c      ****  * ========================================
  11:./main.c      **** */
  12:./main.c      **** #include <device.h>
  13:./main.c      **** #include <lpregs.h>
  14:./main.c      **** 
  15:./main.c      **** void radioWrite(uint16,uint16);
  16:./main.c      **** uint16 radioRead(uint16);
  17:./main.c      **** void radioInit();
  18:./main.c      **** void radioStartReceive();
  19:./main.c      **** uint8 radioGetState();
  20:./main.c      **** uint8 radioEndReceive(uint8);
  21:./main.c      **** uint16 radioReadBuf(uint16);
  22:./main.c      **** void sendSerial();
  23:./main.c      **** 
  24:./main.c      **** uint16 red=0;
  25:./main.c      **** uint16 green=0;
  26:./main.c      **** uint16 blue=0;
  27:./main.c      **** uint16 oldRed=0;
  28:./main.c      **** uint16 oldGreen=0;
  29:./main.c      **** uint16 oldBlue=0;
ARM GAS  C:\Users\CHARLI~1\AppData\Local\Temp\cc5KUbDa.s 			page 3


  30:./main.c      **** uint16 newData=0;
  31:./main.c      **** 
  32:./main.c      **** void main()
  33:./main.c      **** {
  82              		.loc 1 33 0
  83              		.cfi_startproc
  84              		@ args = 0, pretend = 0, frame = 8
  85              		@ frame_needed = 1, uses_anonymous_args = 0
  86 0000 80B5     		push	{r7, lr}
  87              	.LCFI0:
  88              		.cfi_def_cfa_offset 8
  89 0002 82B0     		sub	sp, sp, #8
  90              	.LCFI1:
  91              		.cfi_def_cfa_offset 16
  92 0004 00AF     		add	r7, sp, #0
  93              		.cfi_offset 14, -4
  94              		.cfi_offset 7, -8
  95              	.LCFI2:
  96              		.cfi_def_cfa_register 7
  34:./main.c      ****     CYGlobalIntEnable;  /* Uncomment this line to enable global interrupts. */
  97              		.loc 1 34 0
  98              	@ 34 "./main.c" 1
  99 0006 62B6     		CPSIE   i
 100              	@ 0 "" 2
  35:./main.c      **** 	uint16 rxState=0x00;	
 101              		.loc 1 35 0
 102              		.thumb
 103 0008 4FF00003 		mov	r3, #0
 104 000c 7B80     		strh	r3, [r7, #2]	@ movhi
  36:./main.c      **** 	uint16 val=0x00;
 105              		.loc 1 36 0
 106 000e 4FF00003 		mov	r3, #0
 107 0012 BB80     		strh	r3, [r7, #4]	@ movhi
  37:./main.c      **** 	uint16 i=0x00;
 108              		.loc 1 37 0
 109 0014 4FF00003 		mov	r3, #0
 110 0018 FB80     		strh	r3, [r7, #6]	@ movhi
  38:./main.c      **** 		
  39:./main.c      **** 	 LCD_Start();
 111              		.loc 1 39 0
 112 001a FFF7FEFF 		bl	LCD_Start
  40:./main.c      **** 	 LCD_ClearDisplay();
 113              		.loc 1 40 0
 114 001e 4FF00100 		mov	r0, #1
 115 0022 FFF7FEFF 		bl	LCD_WriteControl
  41:./main.c      **** 	 LCD_Position(0,0);
 116              		.loc 1 41 0
 117 0026 4FF00000 		mov	r0, #0
 118 002a 4FF00001 		mov	r1, #0
 119 002e FFF7FEFF 		bl	LCD_Position
  42:./main.c      **** 	 LCD_PrintString("RX");
 120              		.loc 1 42 0
 121 0032 40F20000 		movw	r0, #:lower16:.LC0
 122 0036 C0F20000 		movt	r0, #:upper16:.LC0
 123 003a FFF7FEFF 		bl	LCD_PrintString
  43:./main.c      **** 	 
  44:./main.c      **** 	 SPIM_Start();
ARM GAS  C:\Users\CHARLI~1\AppData\Local\Temp\cc5KUbDa.s 			page 4


 124              		.loc 1 44 0
 125 003e FFF7FEFF 		bl	SPIM_Start
  45:./main.c      **** 	 SPIM_ClearRxBuffer();
 126              		.loc 1 45 0
 127 0042 FFF7FEFF 		bl	SPIM_ClearRxBuffer
  46:./main.c      **** 	 SPIM_ClearTxBuffer();
 128              		.loc 1 46 0
 129 0046 FFF7FEFF 		bl	SPIM_ClearTxBuffer
  47:./main.c      **** 	 SPIM_ClearFIFO();
 130              		.loc 1 47 0
 131 004a FFF7FEFF 		bl	SPIM_ClearFIFO
  48:./main.c      **** 	
  49:./main.c      **** 	 UART_Start();
 132              		.loc 1 49 0
 133 004e FFF7FEFF 		bl	UART_Start
  50:./main.c      **** 	 
  51:./main.c      **** 	radioInit();
 134              		.loc 1 51 0
 135 0052 FFF7FEFF 		bl	radioInit
  52:./main.c      **** 	
  53:./main.c      **** 	radioWrite(0x01,0x02);
 136              		.loc 1 53 0
 137 0056 4FF00100 		mov	r0, #1
 138 005a 4FF00201 		mov	r1, #2
 139 005e FFF7FEFF 		bl	radioWrite
  54:./main.c      **** 	val=radioRead(0x01);
 140              		.loc 1 54 0
 141 0062 4FF00100 		mov	r0, #1
 142 0066 FFF7FEFF 		bl	radioRead
 143 006a 0346     		mov	r3, r0
 144 006c BB80     		strh	r3, [r7, #4]	@ movhi
  55:./main.c      **** 	if (val==0x02){
 145              		.loc 1 55 0
 146 006e BB88     		ldrh	r3, [r7, #4]
 147 0070 022B     		cmp	r3, #2
 148 0072 0BD1     		bne	.L2
  56:./main.c      **** 	LCD_Position(1,0);
 149              		.loc 1 56 0
 150 0074 4FF00100 		mov	r0, #1
 151 0078 4FF00001 		mov	r1, #0
 152 007c FFF7FEFF 		bl	LCD_Position
  57:./main.c      **** 	LCD_PrintString("S");
 153              		.loc 1 57 0
 154 0080 40F20000 		movw	r0, #:lower16:.LC1
 155 0084 C0F20000 		movt	r0, #:upper16:.LC1
 156 0088 FFF7FEFF 		bl	LCD_PrintString
 157              	.L2:
  58:./main.c      **** 	}
  59:./main.c      **** 		
  60:./main.c      **** 		
  61:./main.c      **** 	radioStartReceive();
 158              		.loc 1 61 0
 159 008c FFF7FEFF 		bl	radioStartReceive
 160 0090 00E0     		b	.L6
 161              	.L8:
  62:./main.c      **** 	
  63:./main.c      **** 	while (1){
ARM GAS  C:\Users\CHARLI~1\AppData\Local\Temp\cc5KUbDa.s 			page 5


  64:./main.c      **** 	
  65:./main.c      **** 	rxState=radioGetState();
  66:./main.c      **** 	   // store the packet onto a local buffer if
  67:./main.c      **** 	   LCD_Position(1,5);
  68:./main.c      **** 	   LCD_PrintInt8(rxState);
  69:./main.c      **** 	   if (rxState==0x08) radioEndReceive(rxState);
  70:./main.c      **** 	   
  71:./main.c      ****    //receive operation complete
  72:./main.c      ****    if (rxState & RXC_IRQ)
  73:./main.c      ****     {
  74:./main.c      ****    if (radioEndReceive(rxState))
  75:./main.c      ****     {
  76:./main.c      ****     val=radioReadBuf(RX_BUFFER_ADR);
  77:./main.c      **** 	//retrieved data displayed on the LCD screen
  78:./main.c      **** 	sendSerial();
  79:./main.c      ****     LCD_Position(0,3);
  80:./main.c      **** 	LCD_PrintInt8(val);
  81:./main.c      ****     //generate a small delay before receiving the next data
  82:./main.c      **** 	//CyDelay(100);
  83:./main.c      **** 	}
  84:./main.c      **** 	//restart the receive operation
  85:./main.c      **** 	radioStartReceive();
  86:./main.c      **** 	i++;
  87:./main.c      **** 	 // store the packet onto a local buffer if
  88:./main.c      **** 	LCD_Position(0,14);
  89:./main.c      **** 	LCD_PrintInt8(i);
  90:./main.c      **** 	}
  91:./main.c      ****     }
 162              		.loc 1 91 0
 163 0092 00BF     		nop
 164              	.L6:
 165              		.loc 1 65 0
 166 0094 FFF7FEFF 		bl	radioGetState
 167 0098 0346     		mov	r3, r0
 168 009a 7B80     		strh	r3, [r7, #2]	@ movhi
 169              		.loc 1 67 0
 170 009c 4FF00100 		mov	r0, #1
 171 00a0 4FF00501 		mov	r1, #5
 172 00a4 FFF7FEFF 		bl	LCD_Position
 173              		.loc 1 68 0
 174 00a8 7B88     		ldrh	r3, [r7, #2]	@ movhi
 175 00aa DBB2     		uxtb	r3, r3
 176 00ac 1846     		mov	r0, r3
 177 00ae FFF7FEFF 		bl	LCD_PrintHexUint8
 178              		.loc 1 69 0
 179 00b2 7B88     		ldrh	r3, [r7, #2]
 180 00b4 082B     		cmp	r3, #8
 181 00b6 04D1     		bne	.L3
 182 00b8 7B88     		ldrh	r3, [r7, #2]	@ movhi
 183 00ba DBB2     		uxtb	r3, r3
 184 00bc 1846     		mov	r0, r3
 185 00be FFF7FEFF 		bl	radioEndReceive
 186              	.L3:
 187              		.loc 1 72 0
 188 00c2 7B88     		ldrh	r3, [r7, #2]
 189 00c4 03F00203 		and	r3, r3, #2
 190 00c8 002B     		cmp	r3, #0
ARM GAS  C:\Users\CHARLI~1\AppData\Local\Temp\cc5KUbDa.s 			page 6


 191 00ca E2D0     		beq	.L8
 192              		.loc 1 74 0
 193 00cc 7B88     		ldrh	r3, [r7, #2]	@ movhi
 194 00ce DBB2     		uxtb	r3, r3
 195 00d0 1846     		mov	r0, r3
 196 00d2 FFF7FEFF 		bl	radioEndReceive
 197 00d6 0346     		mov	r3, r0
 198 00d8 002B     		cmp	r3, #0
 199 00da 12D0     		beq	.L5
 200              		.loc 1 76 0
 201 00dc 4FF02100 		mov	r0, #33
 202 00e0 FFF7FEFF 		bl	radioReadBuf
 203 00e4 0346     		mov	r3, r0
 204 00e6 BB80     		strh	r3, [r7, #4]	@ movhi
 205              		.loc 1 78 0
 206 00e8 FFF7FEFF 		bl	sendSerial
 207              		.loc 1 79 0
 208 00ec 4FF00000 		mov	r0, #0
 209 00f0 4FF00301 		mov	r1, #3
 210 00f4 FFF7FEFF 		bl	LCD_Position
 211              		.loc 1 80 0
 212 00f8 BB88     		ldrh	r3, [r7, #4]	@ movhi
 213 00fa DBB2     		uxtb	r3, r3
 214 00fc 1846     		mov	r0, r3
 215 00fe FFF7FEFF 		bl	LCD_PrintHexUint8
 216              	.L5:
 217              		.loc 1 85 0
 218 0102 FFF7FEFF 		bl	radioStartReceive
 219              		.loc 1 86 0
 220 0106 FB88     		ldrh	r3, [r7, #6]	@ movhi
 221 0108 03F10103 		add	r3, r3, #1
 222 010c FB80     		strh	r3, [r7, #6]	@ movhi
 223              		.loc 1 88 0
 224 010e 4FF00000 		mov	r0, #0
 225 0112 4FF00E01 		mov	r1, #14
 226 0116 FFF7FEFF 		bl	LCD_Position
 227              		.loc 1 89 0
 228 011a FB88     		ldrh	r3, [r7, #6]	@ movhi
 229 011c DBB2     		uxtb	r3, r3
 230 011e 1846     		mov	r0, r3
 231 0120 FFF7FEFF 		bl	LCD_PrintHexUint8
 232              		.loc 1 91 0
 233 0124 B6E7     		b	.L6
 234              		.cfi_endproc
 235              	.LFE29:
 236              		.size	main, .-main
 237 0126 00BF     		.section	.text.radioWrite,"ax",%progbits
 238              		.align	2
 239              		.global	radioWrite
 240              		.thumb
 241              		.thumb_func
 242              		.type	radioWrite, %function
 243              	radioWrite:
 244              	.LFB30:
  92:./main.c      **** }
  93:./main.c      **** 
  94:./main.c      **** 	
ARM GAS  C:\Users\CHARLI~1\AppData\Local\Temp\cc5KUbDa.s 			page 7


  95:./main.c      **** 
  96:./main.c      **** 
  97:./main.c      **** void radioWrite(uint16 addr,uint16 dat){
 245              		.loc 1 97 0
 246              		.cfi_startproc
 247              		@ args = 0, pretend = 0, frame = 8
 248              		@ frame_needed = 1, uses_anonymous_args = 0
 249 0000 80B5     		push	{r7, lr}
 250              	.LCFI3:
 251              		.cfi_def_cfa_offset 8
 252 0002 82B0     		sub	sp, sp, #8
 253              	.LCFI4:
 254              		.cfi_def_cfa_offset 16
 255 0004 00AF     		add	r7, sp, #0
 256              		.cfi_offset 14, -4
 257              		.cfi_offset 7, -8
 258              	.LCFI5:
 259              		.cfi_def_cfa_register 7
 260 0006 0246     		mov	r2, r0
 261 0008 0B46     		mov	r3, r1
 262 000a FA80     		strh	r2, [r7, #6]	@ movhi
 263 000c BB80     		strh	r3, [r7, #4]	@ movhi
  98:./main.c      **** 	SPIM_ClearRxBuffer();
 264              		.loc 1 98 0
 265 000e FFF7FEFF 		bl	SPIM_ClearRxBuffer
  99:./main.c      **** 	SPIM_ClearTxBuffer();
 266              		.loc 1 99 0
 267 0012 FFF7FEFF 		bl	SPIM_ClearTxBuffer
 100:./main.c      **** 	
 101:./main.c      **** 	SPIM_WriteTxData(0x80+addr);
 268              		.loc 1 101 0
 269 0016 FB88     		ldrh	r3, [r7, #6]	@ movhi
 270 0018 DBB2     		uxtb	r3, r3
 271 001a A3F18003 		sub	r3, r3, #128
 272 001e DBB2     		uxtb	r3, r3
 273 0020 1846     		mov	r0, r3
 274 0022 FFF7FEFF 		bl	SPIM_WriteTxData
 102:./main.c      **** 	SPIM_WriteTxData(dat);
 275              		.loc 1 102 0
 276 0026 BB88     		ldrh	r3, [r7, #4]	@ movhi
 277 0028 DBB2     		uxtb	r3, r3
 278 002a 1846     		mov	r0, r3
 279 002c FFF7FEFF 		bl	SPIM_WriteTxData
 280              	.L10:
 103:./main.c      **** 	while(!SPIM_ReadTxStatus() & SPIM_STS_SPI_DONE);
 281              		.loc 1 103 0
 282 0030 FFF7FEFF 		bl	SPIM_ReadTxStatus
 283 0034 0346     		mov	r3, r0
 284 0036 002B     		cmp	r3, #0
 285 0038 FAD0     		beq	.L10
 104:./main.c      **** }
 286              		.loc 1 104 0
 287 003a 07F10807 		add	r7, r7, #8
 288 003e BD46     		mov	sp, r7
 289 0040 80BD     		pop	{r7, pc}
 290              		.cfi_endproc
 291              	.LFE30:
ARM GAS  C:\Users\CHARLI~1\AppData\Local\Temp\cc5KUbDa.s 			page 8


 292              		.size	radioWrite, .-radioWrite
 293 0042 00BF     		.section	.text.radioReadBuf,"ax",%progbits
 294              		.align	2
 295              		.global	radioReadBuf
 296              		.thumb
 297              		.thumb_func
 298              		.type	radioReadBuf, %function
 299              	radioReadBuf:
 300              	.LFB31:
 105:./main.c      **** 
 106:./main.c      **** uint16 radioReadBuf(uint16 addr){
 301              		.loc 1 106 0
 302              		.cfi_startproc
 303              		@ args = 0, pretend = 0, frame = 16
 304              		@ frame_needed = 1, uses_anonymous_args = 0
 305 0000 80B5     		push	{r7, lr}
 306              	.LCFI6:
 307              		.cfi_def_cfa_offset 8
 308 0002 84B0     		sub	sp, sp, #16
 309              	.LCFI7:
 310              		.cfi_def_cfa_offset 24
 311 0004 00AF     		add	r7, sp, #0
 312              		.cfi_offset 14, -4
 313              		.cfi_offset 7, -8
 314              	.LCFI8:
 315              		.cfi_def_cfa_register 7
 316 0006 0346     		mov	r3, r0
 317 0008 FB80     		strh	r3, [r7, #6]	@ movhi
 107:./main.c      **** 	uint16 val=0x00;
 318              		.loc 1 107 0
 319 000a 4FF00003 		mov	r3, #0
 320 000e BB81     		strh	r3, [r7, #12]	@ movhi
 108:./main.c      **** 	uint16 i=0;
 321              		.loc 1 108 0
 322 0010 4FF00003 		mov	r3, #0
 323 0014 FB81     		strh	r3, [r7, #14]	@ movhi
 109:./main.c      **** 	SPIM_ClearRxBuffer();
 324              		.loc 1 109 0
 325 0016 FFF7FEFF 		bl	SPIM_ClearRxBuffer
 110:./main.c      **** 	SPIM_ClearTxBuffer();
 326              		.loc 1 110 0
 327 001a FFF7FEFF 		bl	SPIM_ClearTxBuffer
 111:./main.c      **** 	
 112:./main.c      **** 	SPIM_WriteTxData(addr);
 328              		.loc 1 112 0
 329 001e FB88     		ldrh	r3, [r7, #6]	@ movhi
 330 0020 DBB2     		uxtb	r3, r3
 331 0022 1846     		mov	r0, r3
 332 0024 FFF7FEFF 		bl	SPIM_WriteTxData
 113:./main.c      **** 	SPIM_WriteTxData(0x00);
 333              		.loc 1 113 0
 334 0028 4FF00000 		mov	r0, #0
 335 002c FFF7FEFF 		bl	SPIM_WriteTxData
 114:./main.c      **** 	SPIM_WriteTxData(0x00);
 336              		.loc 1 114 0
 337 0030 4FF00000 		mov	r0, #0
 338 0034 FFF7FEFF 		bl	SPIM_WriteTxData
ARM GAS  C:\Users\CHARLI~1\AppData\Local\Temp\cc5KUbDa.s 			page 9


 115:./main.c      **** 	SPIM_WriteTxData(0x00);
 339              		.loc 1 115 0
 340 0038 4FF00000 		mov	r0, #0
 341 003c FFF7FEFF 		bl	SPIM_WriteTxData
 342              	.L13:
 116:./main.c      **** 
 117:./main.c      **** 	while(!SPIM_ReadTxStatus() & SPIM_STS_SPI_DONE);
 343              		.loc 1 117 0
 344 0040 FFF7FEFF 		bl	SPIM_ReadTxStatus
 345 0044 0346     		mov	r3, r0
 346 0046 002B     		cmp	r3, #0
 347 0048 FAD0     		beq	.L13
 118:./main.c      **** 	
 119:./main.c      **** 	//for (i=0;i<4;i++){
 120:./main.c      **** 			val=SPIM_ReadRxData();
 348              		.loc 1 120 0
 349 004a FFF7FEFF 		bl	SPIM_ReadRxData
 350 004e 0346     		mov	r3, r0
 351 0050 BB81     		strh	r3, [r7, #12]	@ movhi
 121:./main.c      **** 			LCD_Position(0,5);
 352              		.loc 1 121 0
 353 0052 4FF00000 		mov	r0, #0
 354 0056 4FF00501 		mov	r1, #5
 355 005a FFF7FEFF 		bl	LCD_Position
 122:./main.c      **** 			LCD_PrintInt8(val);
 356              		.loc 1 122 0
 357 005e BB89     		ldrh	r3, [r7, #12]	@ movhi
 358 0060 DBB2     		uxtb	r3, r3
 359 0062 1846     		mov	r0, r3
 360 0064 FFF7FEFF 		bl	LCD_PrintHexUint8
 123:./main.c      **** 			red=SPIM_ReadRxData();
 361              		.loc 1 123 0
 362 0068 FFF7FEFF 		bl	SPIM_ReadRxData
 363 006c 0346     		mov	r3, r0
 364 006e 1A46     		mov	r2, r3
 365 0070 40F20003 		movw	r3, #:lower16:red
 366 0074 C0F20003 		movt	r3, #:upper16:red
 367 0078 1A80     		strh	r2, [r3, #0]	@ movhi
 124:./main.c      **** 			LCD_Position(0,7);
 368              		.loc 1 124 0
 369 007a 4FF00000 		mov	r0, #0
 370 007e 4FF00701 		mov	r1, #7
 371 0082 FFF7FEFF 		bl	LCD_Position
 125:./main.c      **** 			LCD_PrintInt8(red);
 372              		.loc 1 125 0
 373 0086 40F20003 		movw	r3, #:lower16:red
 374 008a C0F20003 		movt	r3, #:upper16:red
 375 008e 1B88     		ldrh	r3, [r3, #0]
 376 0090 DBB2     		uxtb	r3, r3
 377 0092 1846     		mov	r0, r3
 378 0094 FFF7FEFF 		bl	LCD_PrintHexUint8
 126:./main.c      **** 			green=SPIM_ReadRxData();
 379              		.loc 1 126 0
 380 0098 FFF7FEFF 		bl	SPIM_ReadRxData
 381 009c 0346     		mov	r3, r0
 382 009e 1A46     		mov	r2, r3
 383 00a0 40F20003 		movw	r3, #:lower16:green
ARM GAS  C:\Users\CHARLI~1\AppData\Local\Temp\cc5KUbDa.s 			page 10


 384 00a4 C0F20003 		movt	r3, #:upper16:green
 385 00a8 1A80     		strh	r2, [r3, #0]	@ movhi
 127:./main.c      **** 			LCD_Position(0,9);
 386              		.loc 1 127 0
 387 00aa 4FF00000 		mov	r0, #0
 388 00ae 4FF00901 		mov	r1, #9
 389 00b2 FFF7FEFF 		bl	LCD_Position
 128:./main.c      **** 			LCD_PrintInt8(green);
 390              		.loc 1 128 0
 391 00b6 40F20003 		movw	r3, #:lower16:green
 392 00ba C0F20003 		movt	r3, #:upper16:green
 393 00be 1B88     		ldrh	r3, [r3, #0]
 394 00c0 DBB2     		uxtb	r3, r3
 395 00c2 1846     		mov	r0, r3
 396 00c4 FFF7FEFF 		bl	LCD_PrintHexUint8
 129:./main.c      **** 			blue=SPIM_ReadRxData();
 397              		.loc 1 129 0
 398 00c8 FFF7FEFF 		bl	SPIM_ReadRxData
 399 00cc 0346     		mov	r3, r0
 400 00ce 1A46     		mov	r2, r3
 401 00d0 40F20003 		movw	r3, #:lower16:blue
 402 00d4 C0F20003 		movt	r3, #:upper16:blue
 403 00d8 1A80     		strh	r2, [r3, #0]	@ movhi
 130:./main.c      **** 			LCD_Position(0,11);
 404              		.loc 1 130 0
 405 00da 4FF00000 		mov	r0, #0
 406 00de 4FF00B01 		mov	r1, #11
 407 00e2 FFF7FEFF 		bl	LCD_Position
 131:./main.c      **** 			LCD_PrintInt8(blue);
 408              		.loc 1 131 0
 409 00e6 40F20003 		movw	r3, #:lower16:blue
 410 00ea C0F20003 		movt	r3, #:upper16:blue
 411 00ee 1B88     		ldrh	r3, [r3, #0]
 412 00f0 DBB2     		uxtb	r3, r3
 413 00f2 1846     		mov	r0, r3
 414 00f4 FFF7FEFF 		bl	LCD_PrintHexUint8
 132:./main.c      **** 	
 133:./main.c      **** 	if (oldRed!=red || oldGreen!=green || oldBlue!=blue) {
 415              		.loc 1 133 0
 416 00f8 40F20003 		movw	r3, #:lower16:oldRed
 417 00fc C0F20003 		movt	r3, #:upper16:oldRed
 418 0100 1A88     		ldrh	r2, [r3, #0]
 419 0102 40F20003 		movw	r3, #:lower16:red
 420 0106 C0F20003 		movt	r3, #:upper16:red
 421 010a 1B88     		ldrh	r3, [r3, #0]
 422 010c 9A42     		cmp	r2, r3
 423 010e 17D1     		bne	.L14
 424 0110 40F20003 		movw	r3, #:lower16:oldGreen
 425 0114 C0F20003 		movt	r3, #:upper16:oldGreen
 426 0118 1A88     		ldrh	r2, [r3, #0]
 427 011a 40F20003 		movw	r3, #:lower16:green
 428 011e C0F20003 		movt	r3, #:upper16:green
 429 0122 1B88     		ldrh	r3, [r3, #0]
 430 0124 9A42     		cmp	r2, r3
 431 0126 0BD1     		bne	.L14
 432 0128 40F20003 		movw	r3, #:lower16:oldBlue
 433 012c C0F20003 		movt	r3, #:upper16:oldBlue
ARM GAS  C:\Users\CHARLI~1\AppData\Local\Temp\cc5KUbDa.s 			page 11


 434 0130 1A88     		ldrh	r2, [r3, #0]
 435 0132 40F20003 		movw	r3, #:lower16:blue
 436 0136 C0F20003 		movt	r3, #:upper16:blue
 437 013a 1B88     		ldrh	r3, [r3, #0]
 438 013c 9A42     		cmp	r2, r3
 439 013e 25D0     		beq	.L15
 440              	.L14:
 134:./main.c      **** 		newData=1;
 441              		.loc 1 134 0
 442 0140 40F20003 		movw	r3, #:lower16:newData
 443 0144 C0F20003 		movt	r3, #:upper16:newData
 444 0148 4FF00102 		mov	r2, #1
 445 014c 1A80     		strh	r2, [r3, #0]	@ movhi
 135:./main.c      **** 		oldRed=red;
 446              		.loc 1 135 0
 447 014e 40F20003 		movw	r3, #:lower16:red
 448 0152 C0F20003 		movt	r3, #:upper16:red
 449 0156 1A88     		ldrh	r2, [r3, #0]
 450 0158 40F20003 		movw	r3, #:lower16:oldRed
 451 015c C0F20003 		movt	r3, #:upper16:oldRed
 452 0160 1A80     		strh	r2, [r3, #0]	@ movhi
 136:./main.c      **** 		oldGreen=green;
 453              		.loc 1 136 0
 454 0162 40F20003 		movw	r3, #:lower16:green
 455 0166 C0F20003 		movt	r3, #:upper16:green
 456 016a 1A88     		ldrh	r2, [r3, #0]
 457 016c 40F20003 		movw	r3, #:lower16:oldGreen
 458 0170 C0F20003 		movt	r3, #:upper16:oldGreen
 459 0174 1A80     		strh	r2, [r3, #0]	@ movhi
 137:./main.c      **** 		oldBlue=blue;	
 460              		.loc 1 137 0
 461 0176 40F20003 		movw	r3, #:lower16:blue
 462 017a C0F20003 		movt	r3, #:upper16:blue
 463 017e 1A88     		ldrh	r2, [r3, #0]
 464 0180 40F20003 		movw	r3, #:lower16:oldBlue
 465 0184 C0F20003 		movt	r3, #:upper16:oldBlue
 466 0188 1A80     		strh	r2, [r3, #0]	@ movhi
 467              		.loc 1 133 0
 468 018a 06E0     		b	.L16
 469              	.L15:
 138:./main.c      **** 	}
 139:./main.c      **** 	else {newData=0;}
 470              		.loc 1 139 0
 471 018c 40F20003 		movw	r3, #:lower16:newData
 472 0190 C0F20003 		movt	r3, #:upper16:newData
 473 0194 4FF00002 		mov	r2, #0
 474 0198 1A80     		strh	r2, [r3, #0]	@ movhi
 475              	.L16:
 140:./main.c      **** 	
 141:./main.c      **** 	return i;
 476              		.loc 1 141 0
 477 019a FB89     		ldrh	r3, [r7, #14]
 142:./main.c      **** }
 478              		.loc 1 142 0
 479 019c 1846     		mov	r0, r3
 480 019e 07F11007 		add	r7, r7, #16
 481 01a2 BD46     		mov	sp, r7
ARM GAS  C:\Users\CHARLI~1\AppData\Local\Temp\cc5KUbDa.s 			page 12


 482 01a4 80BD     		pop	{r7, pc}
 483              		.cfi_endproc
 484              	.LFE31:
 485              		.size	radioReadBuf, .-radioReadBuf
 486 01a6 00BF     		.section	.rodata
 487 0006 0000     		.align	2
 488              	.LC2:
 489 0008 25303375 		.ascii	"%03u\000"
 489      00
 490 000d 000000   		.align	2
 491              	.LC3:
 492 0010 25303275 		.ascii	"%02u\000"
 492      00
 493              		.section	.text.sendSerial,"ax",%progbits
 494              		.align	2
 495              		.global	sendSerial
 496              		.thumb
 497              		.thumb_func
 498              		.type	sendSerial, %function
 499              	sendSerial:
 500              	.LFB32:
 143:./main.c      **** 
 144:./main.c      **** void sendSerial(){
 501              		.loc 1 144 0
 502              		.cfi_startproc
 503              		@ args = 0, pretend = 0, frame = 16
 504              		@ frame_needed = 1, uses_anonymous_args = 0
 505 0000 80B5     		push	{r7, lr}
 506              	.LCFI9:
 507              		.cfi_def_cfa_offset 8
 508 0002 84B0     		sub	sp, sp, #16
 509              	.LCFI10:
 510              		.cfi_def_cfa_offset 24
 511 0004 00AF     		add	r7, sp, #0
 512              		.cfi_offset 14, -4
 513              		.cfi_offset 7, -8
 514              	.LCFI11:
 515              		.cfi_def_cfa_register 7
 145:./main.c      **** uint8 i=red;
 516              		.loc 1 145 0
 517 0006 40F20003 		movw	r3, #:lower16:red
 518 000a C0F20003 		movt	r3, #:upper16:red
 519 000e 1B88     		ldrh	r3, [r3, #0]
 520 0010 3B73     		strb	r3, [r7, #12]
 146:./main.c      **** uint8 j=blue;
 521              		.loc 1 146 0
 522 0012 40F20003 		movw	r3, #:lower16:blue
 523 0016 C0F20003 		movt	r3, #:upper16:blue
 524 001a 1B88     		ldrh	r3, [r3, #0]
 525 001c 7B73     		strb	r3, [r7, #13]
 147:./main.c      **** uint8 k=green;
 526              		.loc 1 147 0
 527 001e 40F20003 		movw	r3, #:lower16:green
 528 0022 C0F20003 		movt	r3, #:upper16:green
 529 0026 1B88     		ldrh	r3, [r3, #0]
 530 0028 BB73     		strb	r3, [r7, #14]
 148:./main.c      **** uint8 val=0;
ARM GAS  C:\Users\CHARLI~1\AppData\Local\Temp\cc5KUbDa.s 			page 13


 531              		.loc 1 148 0
 532 002a 4FF00003 		mov	r3, #0
 533 002e FB73     		strb	r3, [r7, #15]
 149:./main.c      **** char ch[3];
 150:./main.c      **** char rgbData[7];
 151:./main.c      **** 
 152:./main.c      **** if (newData==1){
 534              		.loc 1 152 0
 535 0030 40F20003 		movw	r3, #:lower16:newData
 536 0034 C0F20003 		movt	r3, #:upper16:newData
 537 0038 1B88     		ldrh	r3, [r3, #0]
 538 003a 012B     		cmp	r3, #1
 539 003c 3DD1     		bne	.L20
 153:./main.c      **** 		sprintf(ch,"%03u",i);//conversion from number to string so it is easier to print with 3 digits an
 540              		.loc 1 153 0
 541 003e 3B7B     		ldrb	r3, [r7, #12]	@ zero_extendqisi2
 542 0040 07F10802 		add	r2, r7, #8
 543 0044 1046     		mov	r0, r2
 544 0046 40F20001 		movw	r1, #:lower16:.LC2
 545 004a C0F20001 		movt	r1, #:upper16:.LC2
 546 004e 1A46     		mov	r2, r3
 547 0050 FFF7FEFF 		bl	sprintf
 154:./main.c      **** 		rgbData[0]=ch[0];
 548              		.loc 1 154 0
 549 0054 3B7A     		ldrb	r3, [r7, #8]	@ zero_extendqisi2
 550 0056 3B70     		strb	r3, [r7, #0]
 155:./main.c      **** 		rgbData[1]=ch[1];
 551              		.loc 1 155 0
 552 0058 7B7A     		ldrb	r3, [r7, #9]	@ zero_extendqisi2
 553 005a 7B70     		strb	r3, [r7, #1]
 156:./main.c      **** 		rgbData[2]=ch[2];
 554              		.loc 1 156 0
 555 005c BB7A     		ldrb	r3, [r7, #10]	@ zero_extendqisi2
 556 005e BB70     		strb	r3, [r7, #2]
 157:./main.c      **** 		sprintf(ch,"%03u",j);
 557              		.loc 1 157 0
 558 0060 7B7B     		ldrb	r3, [r7, #13]	@ zero_extendqisi2
 559 0062 07F10802 		add	r2, r7, #8
 560 0066 1046     		mov	r0, r2
 561 0068 40F20001 		movw	r1, #:lower16:.LC2
 562 006c C0F20001 		movt	r1, #:upper16:.LC2
 563 0070 1A46     		mov	r2, r3
 564 0072 FFF7FEFF 		bl	sprintf
 158:./main.c      **** 		rgbData[3]=ch[0];
 565              		.loc 1 158 0
 566 0076 3B7A     		ldrb	r3, [r7, #8]	@ zero_extendqisi2
 567 0078 FB70     		strb	r3, [r7, #3]
 159:./main.c      **** 		rgbData[4]=ch[1];
 568              		.loc 1 159 0
 569 007a 7B7A     		ldrb	r3, [r7, #9]	@ zero_extendqisi2
 570 007c 3B71     		strb	r3, [r7, #4]
 160:./main.c      **** 		rgbData[5]=ch[2];
 571              		.loc 1 160 0
 572 007e BB7A     		ldrb	r3, [r7, #10]	@ zero_extendqisi2
 573 0080 7B71     		strb	r3, [r7, #5]
 161:./main.c      **** 		sprintf(ch,"%02u",k);
 574              		.loc 1 161 0
ARM GAS  C:\Users\CHARLI~1\AppData\Local\Temp\cc5KUbDa.s 			page 14


 575 0082 BB7B     		ldrb	r3, [r7, #14]	@ zero_extendqisi2
 576 0084 07F10802 		add	r2, r7, #8
 577 0088 1046     		mov	r0, r2
 578 008a 40F20001 		movw	r1, #:lower16:.LC3
 579 008e C0F20001 		movt	r1, #:upper16:.LC3
 580 0092 1A46     		mov	r2, r3
 581 0094 FFF7FEFF 		bl	sprintf
 162:./main.c      **** 		rgbData[6]=ch[0];
 582              		.loc 1 162 0
 583 0098 3B7A     		ldrb	r3, [r7, #8]	@ zero_extendqisi2
 584 009a BB71     		strb	r3, [r7, #6]
 163:./main.c      **** 		rgbData[7]=ch[1];
 585              		.loc 1 163 0
 586 009c 7B7A     		ldrb	r3, [r7, #9]	@ zero_extendqisi2
 587 009e FB71     		strb	r3, [r7, #7]
 164:./main.c      **** 		rgbData[8]=ch[2];
 588              		.loc 1 164 0
 589 00a0 BB7A     		ldrb	r3, [r7, #10]	@ zero_extendqisi2
 590 00a2 3B72     		strb	r3, [r7, #8]
 165:./main.c      **** 		UART_PutString(rgbData);
 591              		.loc 1 165 0
 592 00a4 3B46     		mov	r3, r7
 593 00a6 1846     		mov	r0, r3
 594 00a8 FFF7FEFF 		bl	UART_PutString
 166:./main.c      **** 		newData=0;
 595              		.loc 1 166 0
 596 00ac 40F20003 		movw	r3, #:lower16:newData
 597 00b0 C0F20003 		movt	r3, #:upper16:newData
 598 00b4 4FF00002 		mov	r2, #0
 599 00b8 1A80     		strh	r2, [r3, #0]	@ movhi
 600              	.L20:
 167:./main.c      **** }
 168:./main.c      **** }
 601              		.loc 1 168 0
 602 00ba 07F11007 		add	r7, r7, #16
 603 00be BD46     		mov	sp, r7
 604 00c0 80BD     		pop	{r7, pc}
 605              		.cfi_endproc
 606              	.LFE32:
 607              		.size	sendSerial, .-sendSerial
 608 00c2 00BF     		.section	.text.radioRead,"ax",%progbits
 609              		.align	2
 610              		.global	radioRead
 611              		.thumb
 612              		.thumb_func
 613              		.type	radioRead, %function
 614              	radioRead:
 615              	.LFB33:
 169:./main.c      **** 
 170:./main.c      **** 
 171:./main.c      **** 
 172:./main.c      **** uint16 radioRead(uint16 addr){
 616              		.loc 1 172 0
 617              		.cfi_startproc
 618              		@ args = 0, pretend = 0, frame = 16
 619              		@ frame_needed = 1, uses_anonymous_args = 0
 620 0000 80B5     		push	{r7, lr}
ARM GAS  C:\Users\CHARLI~1\AppData\Local\Temp\cc5KUbDa.s 			page 15


 621              	.LCFI12:
 622              		.cfi_def_cfa_offset 8
 623 0002 84B0     		sub	sp, sp, #16
 624              	.LCFI13:
 625              		.cfi_def_cfa_offset 24
 626 0004 00AF     		add	r7, sp, #0
 627              		.cfi_offset 14, -4
 628              		.cfi_offset 7, -8
 629              	.LCFI14:
 630              		.cfi_def_cfa_register 7
 631 0006 0346     		mov	r3, r0
 632 0008 FB80     		strh	r3, [r7, #6]	@ movhi
 173:./main.c      **** 	uint16 val=0x00;
 633              		.loc 1 173 0
 634 000a 4FF00003 		mov	r3, #0
 635 000e BB81     		strh	r3, [r7, #12]	@ movhi
 174:./main.c      **** 	uint16 i=0;
 636              		.loc 1 174 0
 637 0010 4FF00003 		mov	r3, #0
 638 0014 FB81     		strh	r3, [r7, #14]	@ movhi
 175:./main.c      **** 	SPIM_ClearRxBuffer();
 639              		.loc 1 175 0
 640 0016 FFF7FEFF 		bl	SPIM_ClearRxBuffer
 176:./main.c      **** 	SPIM_ClearTxBuffer();
 641              		.loc 1 176 0
 642 001a FFF7FEFF 		bl	SPIM_ClearTxBuffer
 177:./main.c      **** 	
 178:./main.c      **** 	SPIM_WriteTxData(addr);
 643              		.loc 1 178 0
 644 001e FB88     		ldrh	r3, [r7, #6]	@ movhi
 645 0020 DBB2     		uxtb	r3, r3
 646 0022 1846     		mov	r0, r3
 647 0024 FFF7FEFF 		bl	SPIM_WriteTxData
 179:./main.c      **** 	SPIM_WriteTxData(0x00);
 648              		.loc 1 179 0
 649 0028 4FF00000 		mov	r0, #0
 650 002c FFF7FEFF 		bl	SPIM_WriteTxData
 180:./main.c      **** 	SPIM_WriteTxData(0x00);
 651              		.loc 1 180 0
 652 0030 4FF00000 		mov	r0, #0
 653 0034 FFF7FEFF 		bl	SPIM_WriteTxData
 181:./main.c      **** 	SPIM_WriteTxData(0x00);
 654              		.loc 1 181 0
 655 0038 4FF00000 		mov	r0, #0
 656 003c FFF7FEFF 		bl	SPIM_WriteTxData
 657              	.L22:
 182:./main.c      **** 
 183:./main.c      **** 	while(!SPIM_ReadTxStatus() & SPIM_STS_SPI_DONE);
 658              		.loc 1 183 0
 659 0040 FFF7FEFF 		bl	SPIM_ReadTxStatus
 660 0044 0346     		mov	r3, r0
 661 0046 002B     		cmp	r3, #0
 662 0048 FAD0     		beq	.L22
 184:./main.c      **** 	
 185:./main.c      **** 	for (i=0;i<2;i++){
 663              		.loc 1 185 0
 664 004a 4FF00003 		mov	r3, #0
ARM GAS  C:\Users\CHARLI~1\AppData\Local\Temp\cc5KUbDa.s 			page 16


 665 004e FB81     		strh	r3, [r7, #14]	@ movhi
 666 0050 12E0     		b	.L23
 667              	.L24:
 186:./main.c      **** 			val=SPIM_ReadRxData();
 668              		.loc 1 186 0
 669 0052 FFF7FEFF 		bl	SPIM_ReadRxData
 670 0056 0346     		mov	r3, r0
 671 0058 BB81     		strh	r3, [r7, #12]	@ movhi
 187:./main.c      **** 			LCD_Position(1,14);
 672              		.loc 1 187 0
 673 005a 4FF00100 		mov	r0, #1
 674 005e 4FF00E01 		mov	r1, #14
 675 0062 FFF7FEFF 		bl	LCD_Position
 188:./main.c      **** 			LCD_PrintInt8(val);
 676              		.loc 1 188 0
 677 0066 BB89     		ldrh	r3, [r7, #12]	@ movhi
 678 0068 DBB2     		uxtb	r3, r3
 679 006a 1846     		mov	r0, r3
 680 006c FFF7FEFF 		bl	LCD_PrintHexUint8
 681              		.loc 1 185 0
 682 0070 FB89     		ldrh	r3, [r7, #14]	@ movhi
 683 0072 03F10103 		add	r3, r3, #1
 684 0076 FB81     		strh	r3, [r7, #14]	@ movhi
 685              	.L23:
 686 0078 FB89     		ldrh	r3, [r7, #14]
 687 007a 012B     		cmp	r3, #1
 688 007c E9D9     		bls	.L24
 189:./main.c      **** 		//	CyDelay(1000);
 190:./main.c      **** 		}
 191:./main.c      **** 	return val;
 689              		.loc 1 191 0
 690 007e BB89     		ldrh	r3, [r7, #12]
 192:./main.c      **** }
 691              		.loc 1 192 0
 692 0080 1846     		mov	r0, r3
 693 0082 07F11007 		add	r7, r7, #16
 694 0086 BD46     		mov	sp, r7
 695 0088 80BD     		pop	{r7, pc}
 696              		.cfi_endproc
 697              	.LFE33:
 698              		.size	radioRead, .-radioRead
 699 008a 00BF     		.section	.text.radioInit,"ax",%progbits
 700              		.align	2
 701              		.global	radioInit
 702              		.thumb
 703              		.thumb_func
 704              		.type	radioInit, %function
 705              	radioInit:
 706              	.LFB34:
 193:./main.c      **** 
 194:./main.c      **** void radioInit(){
 707              		.loc 1 194 0
 708              		.cfi_startproc
 709              		@ args = 0, pretend = 0, frame = 0
 710              		@ frame_needed = 1, uses_anonymous_args = 0
 711 0000 80B5     		push	{r7, lr}
 712              	.LCFI15:
ARM GAS  C:\Users\CHARLI~1\AppData\Local\Temp\cc5KUbDa.s 			page 17


 713              		.cfi_def_cfa_offset 8
 714 0002 00AF     		add	r7, sp, #0
 715              		.cfi_offset 14, -4
 716              		.cfi_offset 7, -8
 717              	.LCFI16:
 718              		.cfi_def_cfa_register 7
 195:./main.c      ****  
 196:./main.c      **** 	 /* Reset the LP through the SPI (soft reset). */
 197:./main.c      **** 	radioWrite(MODE_OVERRIDE_ADR, RST);
 719              		.loc 1 197 0
 720 0004 4FF01D00 		mov	r0, #29
 721 0008 4FF00101 		mov	r1, #1
 722 000c FFF7FEFF 		bl	radioWrite
 198:./main.c      **** 
 199:./main.c      ****     /* Set up to use auto-cal for VCO. */
 200:./main.c      ****    radioWrite(AUTO_CAL_TIME_ADR, AUTO_CAL_TIME_MAX); /* Extend autoCal time to max. */
 723              		.loc 1 200 0
 724 0010 4FF03200 		mov	r0, #50
 725 0014 4FF03C01 		mov	r1, #60
 726 0018 FFF7FEFF 		bl	radioWrite
 201:./main.c      **** 
 202:./main.c      ****     radioWrite(AUTO_CAL_OFFSET_ADR, AUTO_CAL_OFFSET_MINUS_4); /* AutoCal offset to -4. */
 727              		.loc 1 202 0
 728 001c 4FF03500 		mov	r0, #53
 729 0020 4FF01401 		mov	r1, #20
 730 0024 FFF7FEFF 		bl	radioWrite
 203:./main.c      **** 
 204:./main.c      ****     /* Set IRQ polarity to positive. */
 205:./main.c      ****     radioWrite(IO_CFG_ADR, IRQ_POL);
 731              		.loc 1 205 0
 732 0028 4FF00D00 		mov	r0, #13
 733 002c 4FF04001 		mov	r1, #64
 734 0030 FFF7FEFF 		bl	radioWrite
 206:./main.c      **** 
 207:./main.c      ****     /* Set the XTAL Startup delay to 150uSec to handle warm restarts of the XTAL. */
 208:./main.c      ****    radioWrite(XTAL_CFG_ADR, 0x08);
 735              		.loc 1 208 0
 736 0034 4FF02600 		mov	r0, #38
 737 0038 4FF00801 		mov	r1, #8
 738 003c FFF7FEFF 		bl	radioWrite
 209:./main.c      ****    radioWrite(XACT_CFG_ADR, 0x90);
 739              		.loc 1 209 0
 740 0040 4FF00F00 		mov	r0, #15
 741 0044 4FF09001 		mov	r1, #144
 742 0048 FFF7FEFF 		bl	radioWrite
 210:./main.c      **** 	
 211:./main.c      **** 	/*
 212:./main.c      ****      * Enable HiLo for quick-turn-around. Use low side injection for receive 
 213:./main.c      ****      * this should result in non-inverted data, so no need to hit the invert
 214:./main.c      ****      * bit. Turn off AGC and force the LNA on.
 215:./main.c      ****      */
 216:./main.c      ****    radioWrite(RX_CFG_ADR,
 743              		.loc 1 216 0
 744 004c 4FF00600 		mov	r0, #6
 745 0050 4FF04801 		mov	r1, #72
 746 0054 FFF7FEFF 		bl	radioWrite
 217:./main.c      ****                  ((RX_CFG_RST | FASTTURN_EN | LNA_EN ) & ~( HI | RXOW_EN | AUTO_AGC_EN)));
ARM GAS  C:\Users\CHARLI~1\AppData\Local\Temp\cc5KUbDa.s 			page 18


 218:./main.c      **** 
 219:./main.c      ****     /*
 220:./main.c      ****      * Set the TX Offset to +1MHz.
 221:./main.c      ****      * THIS MEANS THE ACTUAL TRANSMIT CARRIER WILL BE 1MHz ABOVE THE PLL
 222:./main.c      ****      * FREQUENCY PROGRAMMED IN THE CHANNEL OR A & N REGISTERS.
 223:./main.c      ****      * RadioSetFrequency COMPENSATES FOR THIS OFFSET.
 224:./main.c      ****      */
 225:./main.c      ****     radioWrite(TX_OFFSET_LSB_ADR, 0x55);
 747              		.loc 1 225 0
 748 0058 4FF01B00 		mov	r0, #27
 749 005c 4FF05501 		mov	r1, #85
 750 0060 FFF7FEFF 		bl	radioWrite
 226:./main.c      ****     radioWrite(TX_OFFSET_MSB_ADR, 0x05);
 751              		.loc 1 226 0
 752 0064 4FF01C00 		mov	r0, #28
 753 0068 4FF00501 		mov	r1, #5
 754 006c FFF7FEFF 		bl	radioWrite
 227:./main.c      **** 	radioWrite(DATA32_THOLD_ADR,0x05);
 755              		.loc 1 227 0
 756 0070 4FF01100 		mov	r0, #17
 757 0074 4FF00501 		mov	r1, #5
 758 0078 FFF7FEFF 		bl	radioWrite
 228:./main.c      **** 	radioWrite(FRAMING_CFG_ADR,0xA4);
 759              		.loc 1 228 0
 760 007c 4FF01000 		mov	r0, #16
 761 0080 4FF0A401 		mov	r1, #164
 762 0084 FFF7FEFF 		bl	radioWrite
 229:./main.c      **** 	
 230:./main.c      ****     /* Set Data Mode to 250kbps */
 231:./main.c      ****    radioWrite(TX_CFG_ADR, TX_CFG_RST | DATMODE_8DR);
 763              		.loc 1 231 0
 764 0088 4FF00300 		mov	r0, #3
 765 008c 4FF00D01 		mov	r1, #13
 766 0090 FFF7FEFF 		bl	radioWrite
 232:./main.c      **** }
 767              		.loc 1 232 0
 768 0094 80BD     		pop	{r7, pc}
 769              		.cfi_endproc
 770              	.LFE34:
 771              		.size	radioInit, .-radioInit
 772 0096 00BF     		.section	.text.radioStartReceive,"ax",%progbits
 773              		.align	2
 774              		.global	radioStartReceive
 775              		.thumb
 776              		.thumb_func
 777              		.type	radioStartReceive, %function
 778              	radioStartReceive:
 779              	.LFB35:
 233:./main.c      **** 
 234:./main.c      **** void radioStartReceive(){
 780              		.loc 1 234 0
 781              		.cfi_startproc
 782              		@ args = 0, pretend = 0, frame = 8
 783              		@ frame_needed = 1, uses_anonymous_args = 0
 784 0000 80B5     		push	{r7, lr}
 785              	.LCFI17:
 786              		.cfi_def_cfa_offset 8
ARM GAS  C:\Users\CHARLI~1\AppData\Local\Temp\cc5KUbDa.s 			page 19


 787 0002 82B0     		sub	sp, sp, #8
 788              	.LCFI18:
 789              		.cfi_def_cfa_offset 16
 790 0004 00AF     		add	r7, sp, #0
 791              		.cfi_offset 14, -4
 792              		.cfi_offset 7, -8
 793              	.LCFI19:
 794              		.cfi_def_cfa_register 7
 235:./main.c      **** 	uint16 val=0x00;
 795              		.loc 1 235 0
 796 0006 4FF00003 		mov	r3, #0
 797 000a FB80     		strh	r3, [r7, #6]	@ movhi
 236:./main.c      ****     radioWrite(RX_CTRL_ADR, (RX_GO | RXC_IRQ | RXE_IRQ));
 798              		.loc 1 236 0
 799 000c 4FF00500 		mov	r0, #5
 800 0010 4FF08301 		mov	r1, #131
 801 0014 FFF7FEFF 		bl	radioWrite
 237:./main.c      ****     /* Clear RSSI */
 238:./main.c      ****     radioRead(RSSI_ADR);
 802              		.loc 1 238 0
 803 0018 4FF01300 		mov	r0, #19
 804 001c FFF7FEFF 		bl	radioRead
 239:./main.c      **** 	val=radioRead(RX_CTRL_ADR);
 805              		.loc 1 239 0
 806 0020 4FF00500 		mov	r0, #5
 807 0024 FFF7FEFF 		bl	radioRead
 808 0028 0346     		mov	r3, r0
 809 002a FB80     		strh	r3, [r7, #6]	@ movhi
 240:./main.c      **** 	LCD_Position(1,2);
 810              		.loc 1 240 0
 811 002c 4FF00100 		mov	r0, #1
 812 0030 4FF00201 		mov	r1, #2
 813 0034 FFF7FEFF 		bl	LCD_Position
 241:./main.c      **** 	LCD_PrintInt8(val);
 814              		.loc 1 241 0
 815 0038 FB88     		ldrh	r3, [r7, #6]	@ movhi
 816 003a DBB2     		uxtb	r3, r3
 817 003c 1846     		mov	r0, r3
 818 003e FFF7FEFF 		bl	LCD_PrintHexUint8
 242:./main.c      **** }
 819              		.loc 1 242 0
 820 0042 07F10807 		add	r7, r7, #8
 821 0046 BD46     		mov	sp, r7
 822 0048 80BD     		pop	{r7, pc}
 823              		.cfi_endproc
 824              	.LFE35:
 825              		.size	radioStartReceive, .-radioStartReceive
 826 004a 00BF     		.section	.rodata
 827 0015 000000   		.align	2
 828              	.LC4:
 829 0018 4900     		.ascii	"I\000"
 830              		.section	.text.radioGetState,"ax",%progbits
 831              		.align	2
 832              		.global	radioGetState
 833              		.thumb
 834              		.thumb_func
 835              		.type	radioGetState, %function
ARM GAS  C:\Users\CHARLI~1\AppData\Local\Temp\cc5KUbDa.s 			page 20


 836              	radioGetState:
 837              	.LFB36:
 243:./main.c      **** 
 244:./main.c      **** uint8 radioGetState()
 245:./main.c      **** {
 838              		.loc 1 245 0
 839              		.cfi_startproc
 840              		@ args = 0, pretend = 0, frame = 8
 841              		@ frame_needed = 1, uses_anonymous_args = 0
 842 0000 80B5     		push	{r7, lr}
 843              	.LCFI20:
 844              		.cfi_def_cfa_offset 8
 845 0002 82B0     		sub	sp, sp, #8
 846              	.LCFI21:
 847              		.cfi_def_cfa_offset 16
 848 0004 00AF     		add	r7, sp, #0
 849              		.cfi_offset 14, -4
 850              		.cfi_offset 7, -8
 851              	.LCFI22:
 852              		.cfi_def_cfa_register 7
 246:./main.c      ****     uint8 Status = 0;
 853              		.loc 1 246 0
 854 0006 4FF00003 		mov	r3, #0
 855 000a FB71     		strb	r3, [r7, #7]
 247:./main.c      ****    
 248:./main.c      **** 	/* This register needs to be debounced. */
 249:./main.c      ****      Status  = radioRead(RX_IRQ_STATUS_ADR);
 856              		.loc 1 249 0
 857 000c 4FF00700 		mov	r0, #7
 858 0010 FFF7FEFF 		bl	radioRead
 859 0014 0346     		mov	r3, r0
 860 0016 FB71     		strb	r3, [r7, #7]
 250:./main.c      ****      Status |= radioRead(RX_IRQ_STATUS_ADR);
 861              		.loc 1 250 0
 862 0018 4FF00700 		mov	r0, #7
 863 001c FFF7FEFF 		bl	radioRead
 864 0020 0346     		mov	r3, r0
 865 0022 DAB2     		uxtb	r2, r3
 866 0024 FB79     		ldrb	r3, [r7, #7]
 867 0026 42EA0303 		orr	r3, r2, r3
 868 002a FB71     		strb	r3, [r7, #7]
 251:./main.c      ****      if (Status & (RXBERR_IRQ | RXE_IRQ))
 869              		.loc 1 251 0
 870 002c FB79     		ldrb	r3, [r7, #7]	@ zero_extendqisi2
 871 002e 03F00503 		and	r3, r3, #5
 872 0032 002B     		cmp	r3, #0
 873 0034 03D0     		beq	.L31
 252:./main.c      ****         {
 253:./main.c      ****              /* If overflow, set the completion bit to force the end of packet. */
 254:./main.c      ****             Status |= (RXC_IRQ | RXE_IRQ);
 874              		.loc 1 254 0
 875 0036 FB79     		ldrb	r3, [r7, #7]
 876 0038 43F00303 		orr	r3, r3, #3
 877 003c FB71     		strb	r3, [r7, #7]
 878              	.L31:
 255:./main.c      ****         }
 256:./main.c      ****     LCD_Position(0,0);
ARM GAS  C:\Users\CHARLI~1\AppData\Local\Temp\cc5KUbDa.s 			page 21


 879              		.loc 1 256 0
 880 003e 4FF00000 		mov	r0, #0
 881 0042 4FF00001 		mov	r1, #0
 882 0046 FFF7FEFF 		bl	LCD_Position
 257:./main.c      **** 	LCD_PrintString("I");
 883              		.loc 1 257 0
 884 004a 40F20000 		movw	r0, #:lower16:.LC4
 885 004e C0F20000 		movt	r0, #:upper16:.LC4
 886 0052 FFF7FEFF 		bl	LCD_PrintString
 258:./main.c      ****     return Status;
 887              		.loc 1 258 0
 888 0056 FB79     		ldrb	r3, [r7, #7]	@ zero_extendqisi2
 259:./main.c      **** }	
 889              		.loc 1 259 0
 890 0058 1846     		mov	r0, r3
 891 005a 07F10807 		add	r7, r7, #8
 892 005e BD46     		mov	sp, r7
 893 0060 80BD     		pop	{r7, pc}
 894              		.cfi_endproc
 895              	.LFE36:
 896              		.size	radioGetState, .-radioGetState
 897 0062 00BF     		.section	.rodata
 898 001a 0000     		.align	2
 899              	.LC5:
 900 001c 4500     		.ascii	"E\000"
 901 001e 0000     		.section	.text.radioEndReceive,"ax",%progbits
 902              		.align	2
 903              		.global	radioEndReceive
 904              		.thumb
 905              		.thumb_func
 906              		.type	radioEndReceive, %function
 907              	radioEndReceive:
 908              	.LFB37:
 260:./main.c      **** 
 261:./main.c      **** uint8 radioEndReceive(uint8 RadioState)
 262:./main.c      **** {
 909              		.loc 1 262 0
 910              		.cfi_startproc
 911              		@ args = 0, pretend = 0, frame = 16
 912              		@ frame_needed = 1, uses_anonymous_args = 0
 913 0000 80B5     		push	{r7, lr}
 914              	.LCFI23:
 915              		.cfi_def_cfa_offset 8
 916 0002 84B0     		sub	sp, sp, #16
 917              	.LCFI24:
 918              		.cfi_def_cfa_offset 24
 919 0004 00AF     		add	r7, sp, #0
 920              		.cfi_offset 14, -4
 921              		.cfi_offset 7, -8
 922              	.LCFI25:
 923              		.cfi_def_cfa_register 7
 924 0006 0346     		mov	r3, r0
 925 0008 FB71     		strb	r3, [r7, #7]
 263:./main.c      ****     uint8 Count;
 264:./main.c      **** 	uint8 val=0x00;
 926              		.loc 1 264 0
 927 000a 4FF00003 		mov	r3, #0
ARM GAS  C:\Users\CHARLI~1\AppData\Local\Temp\cc5KUbDa.s 			page 22


 928 000e BB73     		strb	r3, [r7, #14]
 265:./main.c      ****     Count = radioRead(RX_LENGTH_ADR);
 929              		.loc 1 265 0
 930 0010 4FF00A00 		mov	r0, #10
 931 0014 FFF7FEFF 		bl	radioRead
 932 0018 0346     		mov	r3, r0
 933 001a 7B73     		strb	r3, [r7, #13]
 266:./main.c      **** 	LCD_Position(1,11);
 934              		.loc 1 266 0
 935 001c 4FF00100 		mov	r0, #1
 936 0020 4FF00B01 		mov	r1, #11
 937 0024 FFF7FEFF 		bl	LCD_Position
 267:./main.c      **** 	LCD_PrintInt8(Count);
 938              		.loc 1 267 0
 939 0028 7B7B     		ldrb	r3, [r7, #13]	@ zero_extendqisi2
 940 002a 1846     		mov	r0, r3
 941 002c FFF7FEFF 		bl	LCD_PrintHexUint8
 268:./main.c      ****     	
 269:./main.c      **** 	if ((RadioState & RXE_IRQ))
 942              		.loc 1 269 0
 943 0030 FB79     		ldrb	r3, [r7, #7]	@ zero_extendqisi2
 944 0032 03F00103 		and	r3, r3, #1
 945 0036 DBB2     		uxtb	r3, r3
 946 0038 002B     		cmp	r3, #0
 947 003a 11D0     		beq	.L34
 948              	.LBB2:
 270:./main.c      ****     {
 271:./main.c      ****         uint8 index;
 272:./main.c      **** 
 273:./main.c      ****         /* burp the buffer */
 274:./main.c      ****         for (index = 15; index; --index)
 949              		.loc 1 274 0
 950 003c 4FF00F03 		mov	r3, #15
 951 0040 FB73     		strb	r3, [r7, #15]
 952 0042 07E0     		b	.L35
 953              	.L36:
 275:./main.c      ****         {
 276:./main.c      ****             radioRead(RX_BUFFER_ADR);
 954              		.loc 1 276 0
 955 0044 4FF02100 		mov	r0, #33
 956 0048 FFF7FEFF 		bl	radioRead
 957              		.loc 1 274 0
 958 004c FB7B     		ldrb	r3, [r7, #15]
 959 004e 03F1FF33 		add	r3, r3, #-1
 960 0052 FB73     		strb	r3, [r7, #15]
 961              	.L35:
 962 0054 FB7B     		ldrb	r3, [r7, #15]	@ zero_extendqisi2
 963 0056 002B     		cmp	r3, #0
 964 0058 F4D1     		bne	.L36
 277:./main.c      ****         }
 278:./main.c      ****         /* Packet was bad. */
 279:./main.c      ****         Count = 0;
 965              		.loc 1 279 0
 966 005a 4FF00003 		mov	r3, #0
 967 005e 7B73     		strb	r3, [r7, #13]
 968              	.L34:
 969              	.LBE2:
ARM GAS  C:\Users\CHARLI~1\AppData\Local\Temp\cc5KUbDa.s 			page 23


 280:./main.c      ****     }
 281:./main.c      ****     /* Abort by writing the FRC_END_STATE bit in the XACT_CFG register. */
 282:./main.c      ****    radioWrite(XACT_CFG_ADR, radioRead(XACT_CFG_ADR) | FRC_END_STATE);
 970              		.loc 1 282 0
 971 0060 4FF00F00 		mov	r0, #15
 972 0064 FFF7FEFF 		bl	radioRead
 973 0068 0346     		mov	r3, r0
 974 006a 43F02003 		orr	r3, r3, #32
 975 006e 9BB2     		uxth	r3, r3
 976 0070 4FF00F00 		mov	r0, #15
 977 0074 1946     		mov	r1, r3
 978 0076 FFF7FEFF 		bl	radioWrite
 283:./main.c      ****     /*
 284:./main.c      ****      * Wait for the FRC_END_STATE bit in the XACT_CFG register to clear
 285:./main.c      ****      * indicating the force has completed.
 286:./main.c      ****      */
 287:./main.c      **** 	LCD_Position(0,0);
 979              		.loc 1 287 0
 980 007a 4FF00000 		mov	r0, #0
 981 007e 4FF00001 		mov	r1, #0
 982 0082 FFF7FEFF 		bl	LCD_Position
 288:./main.c      **** 	LCD_PrintString("E");
 983              		.loc 1 288 0
 984 0086 40F20000 		movw	r0, #:lower16:.LC5
 985 008a C0F20000 		movt	r0, #:upper16:.LC5
 986 008e FFF7FEFF 		bl	LCD_PrintString
 987              	.L37:
 289:./main.c      ****     
 290:./main.c      **** 	while(radioRead( XACT_CFG_ADR) &  FRC_END_STATE) {};
 988              		.loc 1 290 0
 989 0092 4FF00F00 		mov	r0, #15
 990 0096 FFF7FEFF 		bl	radioRead
 991 009a 0346     		mov	r3, r0
 992 009c 03F02003 		and	r3, r3, #32
 993 00a0 002B     		cmp	r3, #0
 994 00a2 F6D1     		bne	.L37
 291:./main.c      **** 	
 292:./main.c      **** 	val=radioRead(RX_STATUS_ADR);
 995              		.loc 1 292 0
 996 00a4 4FF00800 		mov	r0, #8
 997 00a8 FFF7FEFF 		bl	radioRead
 998 00ac 0346     		mov	r3, r0
 999 00ae BB73     		strb	r3, [r7, #14]
 293:./main.c      **** 	LCD_Position(1,8);
 1000              		.loc 1 293 0
 1001 00b0 4FF00100 		mov	r0, #1
 1002 00b4 4FF00801 		mov	r1, #8
 1003 00b8 FFF7FEFF 		bl	LCD_Position
 294:./main.c      **** 	LCD_PrintInt8(val);
 1004              		.loc 1 294 0
 1005 00bc BB7B     		ldrb	r3, [r7, #14]	@ zero_extendqisi2
 1006 00be 1846     		mov	r0, r3
 1007 00c0 FFF7FEFF 		bl	LCD_PrintHexUint8
 295:./main.c      **** 	
 296:./main.c      **** 	
 297:./main.c      **** 	
 298:./main.c      ****     return Count;
ARM GAS  C:\Users\CHARLI~1\AppData\Local\Temp\cc5KUbDa.s 			page 24


 1008              		.loc 1 298 0
 1009 00c4 7B7B     		ldrb	r3, [r7, #13]	@ zero_extendqisi2
 299:./main.c      **** }
 1010              		.loc 1 299 0
 1011 00c6 1846     		mov	r0, r3
 1012 00c8 07F11007 		add	r7, r7, #16
 1013 00cc BD46     		mov	sp, r7
 1014 00ce 80BD     		pop	{r7, pc}
 1015              		.cfi_endproc
 1016              	.LFE37:
 1017              		.size	radioEndReceive, .-radioEndReceive
 1018              		.text
 1019              	.Letext0: