ARM GAS  C:\Users\CHARLI~1\AppData\Local\Temp\ccl7kX1M.s 			page 1


   1              		.syntax unified
   2              		.cpu cortex-m3
   3              		.fpu softvfp
   4              		.eabi_attribute 20, 1
   5              		.eabi_attribute 21, 1
   6              		.eabi_attribute 23, 3
   7              		.eabi_attribute 24, 1
   8              		.eabi_attribute 25, 1
   9              		.eabi_attribute 26, 1
  10              		.eabi_attribute 30, 6
  11              		.eabi_attribute 18, 4
  12              		.thumb
  13              		.file	"UART.c"
  20 0000 BE010000 		.text
  20      02004300 
  20      00000201 
  20      FB0E0D00 
  20      01010101 
  21              	.Ltext0:
  22              		.cfi_sections	.debug_frame
  23              		.global	UART_initVar
  24              		.bss
  25              		.type	UART_initVar, %object
  26              		.size	UART_initVar, 1
  27              	UART_initVar:
  28 0000 00       		.space	1
  29              		.section	.text.UART_Start,"ax",%progbits
  30              		.align	2
  31              		.global	UART_Start
  32              		.thumb
  33              		.thumb_func
  34              		.type	UART_Start, %function
  35              	UART_Start:
  36              	.LFB0:
  37              		.file 1 "./Generated_Source/PSoC5/UART.c"
   1:./Generated_Source/PSoC5/UART.c **** /*******************************************************************************
   2:./Generated_Source/PSoC5/UART.c **** * File Name: UART.c
   3:./Generated_Source/PSoC5/UART.c **** * Version 2.0
   4:./Generated_Source/PSoC5/UART.c **** *
   5:./Generated_Source/PSoC5/UART.c **** * Description:
   6:./Generated_Source/PSoC5/UART.c **** *  This file provides all API functionality of the UART component
   7:./Generated_Source/PSoC5/UART.c **** *
   8:./Generated_Source/PSoC5/UART.c **** * Note:
   9:./Generated_Source/PSoC5/UART.c **** *
  10:./Generated_Source/PSoC5/UART.c **** *******************************************************************************
  11:./Generated_Source/PSoC5/UART.c **** * Copyright 2008-2010, Cypress Semiconductor Corporation.  All rights reserved.
  12:./Generated_Source/PSoC5/UART.c **** * You may use this file only in accordance with the license, terms, conditions,
  13:./Generated_Source/PSoC5/UART.c **** * disclaimers, and limitations in the end user license agreement accompanying
  14:./Generated_Source/PSoC5/UART.c **** * the software package with which this file was provided.
  15:./Generated_Source/PSoC5/UART.c **** ********************************************************************************/
  16:./Generated_Source/PSoC5/UART.c **** 
ARM GAS  C:\Users\CHARLI~1\AppData\Local\Temp\ccl7kX1M.s 			page 2


  17:./Generated_Source/PSoC5/UART.c **** 
  18:./Generated_Source/PSoC5/UART.c **** #include "UART.h"
  19:./Generated_Source/PSoC5/UART.c **** #include "CyLib.h"
  20:./Generated_Source/PSoC5/UART.c **** 
  21:./Generated_Source/PSoC5/UART.c **** 
  22:./Generated_Source/PSoC5/UART.c **** /***************************************
  23:./Generated_Source/PSoC5/UART.c **** * Global data allocation
  24:./Generated_Source/PSoC5/UART.c **** ***************************************/
  25:./Generated_Source/PSoC5/UART.c **** 
  26:./Generated_Source/PSoC5/UART.c **** #if( UART_TX_ENABLED && (UART_TXBUFFERSIZE > UART_FIFO_LENGTH))
  27:./Generated_Source/PSoC5/UART.c ****     volatile uint8 UART_txBuffer[UART_TXBUFFERSIZE];
  28:./Generated_Source/PSoC5/UART.c ****     volatile uint8 UART_txBufferRead = 0u;
  29:./Generated_Source/PSoC5/UART.c ****     uint8 UART_txBufferWrite = 0u;
  30:./Generated_Source/PSoC5/UART.c **** #endif /* End UART_TX_ENABLED */
  31:./Generated_Source/PSoC5/UART.c **** #if( ( UART_RX_ENABLED || UART_HD_ENABLED ) && \
  32:./Generated_Source/PSoC5/UART.c ****      (UART_RXBUFFERSIZE > UART_FIFO_LENGTH) )
  33:./Generated_Source/PSoC5/UART.c ****     volatile uint8 UART_rxBuffer[UART_RXBUFFERSIZE];
  34:./Generated_Source/PSoC5/UART.c ****     volatile uint8 UART_rxBufferRead = 0u;
  35:./Generated_Source/PSoC5/UART.c ****     volatile uint8 UART_rxBufferWrite = 0u;
  36:./Generated_Source/PSoC5/UART.c ****     volatile uint8 UART_rxBufferLoopDetect = 0u;
  37:./Generated_Source/PSoC5/UART.c ****     volatile uint8 UART_rxBufferOverflow = 0u;
  38:./Generated_Source/PSoC5/UART.c **** #endif /* End UART_RX_ENABLED */
  39:./Generated_Source/PSoC5/UART.c **** 
  40:./Generated_Source/PSoC5/UART.c **** 
  41:./Generated_Source/PSoC5/UART.c **** /***************************************
  42:./Generated_Source/PSoC5/UART.c **** * Local data allocation
  43:./Generated_Source/PSoC5/UART.c **** ***************************************/
  44:./Generated_Source/PSoC5/UART.c **** 
  45:./Generated_Source/PSoC5/UART.c **** uint8 UART_initVar = 0u;
  46:./Generated_Source/PSoC5/UART.c **** 
  47:./Generated_Source/PSoC5/UART.c **** 
  48:./Generated_Source/PSoC5/UART.c **** /*******************************************************************************
  49:./Generated_Source/PSoC5/UART.c **** * Function Name: UART_Start
  50:./Generated_Source/PSoC5/UART.c **** ********************************************************************************
  51:./Generated_Source/PSoC5/UART.c **** *
  52:./Generated_Source/PSoC5/UART.c **** * Summary:
  53:./Generated_Source/PSoC5/UART.c **** *  Initialize and Enable the UART component.
  54:./Generated_Source/PSoC5/UART.c **** *  Enable the clock input to enable operation.
  55:./Generated_Source/PSoC5/UART.c **** *
  56:./Generated_Source/PSoC5/UART.c **** * Parameters:
  57:./Generated_Source/PSoC5/UART.c **** *  None.
  58:./Generated_Source/PSoC5/UART.c **** *
  59:./Generated_Source/PSoC5/UART.c **** * Return:
  60:./Generated_Source/PSoC5/UART.c **** *  None.
  61:./Generated_Source/PSoC5/UART.c **** *
  62:./Generated_Source/PSoC5/UART.c **** * Global variables:
  63:./Generated_Source/PSoC5/UART.c **** *  The UART_intiVar variable is used to indicate initial 
  64:./Generated_Source/PSoC5/UART.c **** *  configuration of this component. The variable is initialized to zero (0u) 
  65:./Generated_Source/PSoC5/UART.c **** *  and set to one (1u) the first time UART_Start() is called. This allows for 
  66:./Generated_Source/PSoC5/UART.c **** *  component initialization without re-initialization in all subsequent calls 
  67:./Generated_Source/PSoC5/UART.c **** *  to the UART_Start() routine. 
  68:./Generated_Source/PSoC5/UART.c **** *
  69:./Generated_Source/PSoC5/UART.c **** * Reentrant:
  70:./Generated_Source/PSoC5/UART.c **** *  No.
  71:./Generated_Source/PSoC5/UART.c **** *
  72:./Generated_Source/PSoC5/UART.c **** *******************************************************************************/
  73:./Generated_Source/PSoC5/UART.c **** void UART_Start(void)
ARM GAS  C:\Users\CHARLI~1\AppData\Local\Temp\ccl7kX1M.s 			page 3


  74:./Generated_Source/PSoC5/UART.c **** {
  38              		.loc 1 74 0
  39              		.cfi_startproc
  40              		@ args = 0, pretend = 0, frame = 0
  41              		@ frame_needed = 1, uses_anonymous_args = 0
  42 0000 80B5     		push	{r7, lr}
  43              	.LCFI0:
  44              		.cfi_def_cfa_offset 8
  45 0002 00AF     		add	r7, sp, #0
  46              		.cfi_offset 14, -4
  47              		.cfi_offset 7, -8
  48              	.LCFI1:
  49              		.cfi_def_cfa_register 7
  75:./Generated_Source/PSoC5/UART.c ****     /* If not Initialized then initialize all required hardware and software */
  76:./Generated_Source/PSoC5/UART.c ****     if(UART_initVar == 0u)
  50              		.loc 1 76 0
  51 0004 40F20003 		movw	r3, #:lower16:UART_initVar
  52 0008 C0F20003 		movt	r3, #:upper16:UART_initVar
  53 000c 1B78     		ldrb	r3, [r3, #0]	@ zero_extendqisi2
  54 000e 002B     		cmp	r3, #0
  55 0010 08D1     		bne	.L2
  77:./Generated_Source/PSoC5/UART.c ****     {
  78:./Generated_Source/PSoC5/UART.c ****         UART_Init();
  56              		.loc 1 78 0
  57 0012 FFF7FEFF 		bl	UART_Init
  79:./Generated_Source/PSoC5/UART.c ****         UART_initVar = 1u;
  58              		.loc 1 79 0
  59 0016 40F20003 		movw	r3, #:lower16:UART_initVar
  60 001a C0F20003 		movt	r3, #:upper16:UART_initVar
  61 001e 4FF00102 		mov	r2, #1
  62 0022 1A70     		strb	r2, [r3, #0]
  63              	.L2:
  80:./Generated_Source/PSoC5/UART.c ****     }
  81:./Generated_Source/PSoC5/UART.c ****     UART_Enable();
  64              		.loc 1 81 0
  65 0024 FFF7FEFF 		bl	UART_Enable
  82:./Generated_Source/PSoC5/UART.c **** }
  66              		.loc 1 82 0
  67 0028 80BD     		pop	{r7, pc}
  68              		.cfi_endproc
  69              	.LFE0:
  70              		.size	UART_Start, .-UART_Start
  71 002a 00BF     		.section	.text.UART_Init,"ax",%progbits
  72              		.align	2
  73              		.global	UART_Init
  74              		.thumb
  75              		.thumb_func
  76              		.type	UART_Init, %function
  77              	UART_Init:
  78              	.LFB1:
  83:./Generated_Source/PSoC5/UART.c **** 
  84:./Generated_Source/PSoC5/UART.c **** 
  85:./Generated_Source/PSoC5/UART.c **** /*******************************************************************************
  86:./Generated_Source/PSoC5/UART.c **** * Function Name: UART_Init
  87:./Generated_Source/PSoC5/UART.c **** ********************************************************************************
  88:./Generated_Source/PSoC5/UART.c **** *
  89:./Generated_Source/PSoC5/UART.c **** * Summary:
ARM GAS  C:\Users\CHARLI~1\AppData\Local\Temp\ccl7kX1M.s 			page 4


  90:./Generated_Source/PSoC5/UART.c **** *  Initialize component's parameters to the parameters set by user in the
  91:./Generated_Source/PSoC5/UART.c **** *  customizer of the component placed onto schematic. Usually called in
  92:./Generated_Source/PSoC5/UART.c **** *  UART_Start().
  93:./Generated_Source/PSoC5/UART.c **** *
  94:./Generated_Source/PSoC5/UART.c **** * Parameters:
  95:./Generated_Source/PSoC5/UART.c **** *  None.
  96:./Generated_Source/PSoC5/UART.c **** *
  97:./Generated_Source/PSoC5/UART.c **** * Return:
  98:./Generated_Source/PSoC5/UART.c **** *  None.
  99:./Generated_Source/PSoC5/UART.c **** *
 100:./Generated_Source/PSoC5/UART.c **** *******************************************************************************/
 101:./Generated_Source/PSoC5/UART.c **** void UART_Init(void) 
 102:./Generated_Source/PSoC5/UART.c **** {
  79              		.loc 1 102 0
  80              		.cfi_startproc
  81              		@ args = 0, pretend = 0, frame = 0
  82              		@ frame_needed = 1, uses_anonymous_args = 0
  83              		@ link register save eliminated.
  84 0000 80B4     		push	{r7}
  85              	.LCFI2:
  86              		.cfi_def_cfa_offset 4
  87 0002 00AF     		add	r7, sp, #0
  88              		.cfi_offset 7, -4
  89              	.LCFI3:
  90              		.cfi_def_cfa_register 7
 103:./Generated_Source/PSoC5/UART.c ****     #if(UART_RX_ENABLED || UART_HD_ENABLED)
 104:./Generated_Source/PSoC5/UART.c **** 
 105:./Generated_Source/PSoC5/UART.c ****         #if(UART_RX_INTERRUPT_ENABLED && (UART_RXBUFFERSIZE > UART_FIFO_LENGTH))
 106:./Generated_Source/PSoC5/UART.c ****             /* Set the RX Interrupt. */
 107:./Generated_Source/PSoC5/UART.c ****             CyIntSetVector(UART_RX_VECT_NUM,   UART_RXISR);
 108:./Generated_Source/PSoC5/UART.c ****             CyIntSetPriority(UART_RX_VECT_NUM, UART_RX_PRIOR_NUM);
 109:./Generated_Source/PSoC5/UART.c ****         #endif /* End UART_RX_INTERRUPT_ENABLED */
 110:./Generated_Source/PSoC5/UART.c **** 
 111:./Generated_Source/PSoC5/UART.c ****         #if (UART_RXHW_ADDRESS_ENABLED)
 112:./Generated_Source/PSoC5/UART.c ****             UART_SetRxAddressMode(UART_RXAddressMode);
 113:./Generated_Source/PSoC5/UART.c ****             UART_SetRxAddress1(UART_RXHWADDRESS1);
 114:./Generated_Source/PSoC5/UART.c ****             UART_SetRxAddress2(UART_RXHWADDRESS2);
 115:./Generated_Source/PSoC5/UART.c ****         #endif /* End UART_RXHW_ADDRESS_ENABLED */
 116:./Generated_Source/PSoC5/UART.c **** 
 117:./Generated_Source/PSoC5/UART.c ****         /* Configure the Initial RX interrupt mask */
 118:./Generated_Source/PSoC5/UART.c ****         UART_RXSTATUS_MASK_REG  = UART_INIT_RX_INTERRUPTS_MASK;
 119:./Generated_Source/PSoC5/UART.c ****     #endif /* End UART_RX_ENABLED || UART_HD_ENABLED*/
 120:./Generated_Source/PSoC5/UART.c **** 
 121:./Generated_Source/PSoC5/UART.c ****     #if(UART_TX_ENABLED)
 122:./Generated_Source/PSoC5/UART.c ****         #if(UART_TX_INTERRUPT_ENABLED && (UART_TXBUFFERSIZE > UART_FIFO_LENGTH))
 123:./Generated_Source/PSoC5/UART.c ****             /* Set the TX Interrupt. */
 124:./Generated_Source/PSoC5/UART.c ****             CyIntSetVector(UART_TX_VECT_NUM,   UART_TXISR);
 125:./Generated_Source/PSoC5/UART.c ****             CyIntSetPriority(UART_TX_VECT_NUM, UART_TX_PRIOR_NUM);
 126:./Generated_Source/PSoC5/UART.c ****         #endif /* End UART_TX_INTERRUPT_ENABLED */
 127:./Generated_Source/PSoC5/UART.c **** 
 128:./Generated_Source/PSoC5/UART.c ****         /* Write Counter Value for TX Bit Clk Generator*/
 129:./Generated_Source/PSoC5/UART.c ****         #if(UART_TXCLKGEN_DP)
 130:./Generated_Source/PSoC5/UART.c ****             UART_TXBITCLKGEN_CTR_REG = UART_BIT_CENTER;
  91              		.loc 1 130 0
  92 0004 46F22543 		movw	r3, #:lower16:1073767461
  93 0008 C4F20003 		movt	r3, #:upper16:1073767461
  94 000c 4FF00702 		mov	r2, #7
ARM GAS  C:\Users\CHARLI~1\AppData\Local\Temp\ccl7kX1M.s 			page 5


  95 0010 1A70     		strb	r2, [r3, #0]
 131:./Generated_Source/PSoC5/UART.c ****             UART_TXBITCLKTX_COMPLETE_REG = (UART_NUMBER_OF_DATA_BITS + \
  96              		.loc 1 131 0
  97 0012 46F23543 		movw	r3, #:lower16:1073767477
  98 0016 C4F20003 		movt	r3, #:upper16:1073767477
  99 001a 4FF04802 		mov	r2, #72
 100 001e 1A70     		strb	r2, [r3, #0]
 132:./Generated_Source/PSoC5/UART.c ****                                                     UART_NUMBER_OF_START_BIT) * \
 133:./Generated_Source/PSoC5/UART.c ****                                                     UART_OVER_SAMPLE_COUNT;
 134:./Generated_Source/PSoC5/UART.c ****         #else
 135:./Generated_Source/PSoC5/UART.c ****             UART_TXBITCTR_COUNTER_REG = (UART_NUMBER_OF_DATA_BITS + \
 136:./Generated_Source/PSoC5/UART.c ****                                                     UART_NUMBER_OF_START_BIT) * \
 137:./Generated_Source/PSoC5/UART.c ****                                                     UART_OVER_SAMPLE_8;
 138:./Generated_Source/PSoC5/UART.c ****         #endif /* End UART_TXCLKGEN_DP */
 139:./Generated_Source/PSoC5/UART.c **** 
 140:./Generated_Source/PSoC5/UART.c ****         /* Configure the Initial TX interrupt mask */
 141:./Generated_Source/PSoC5/UART.c ****         #if(UART_TX_INTERRUPT_ENABLED && (UART_TXBUFFERSIZE > UART_FIFO_LENGTH))
 142:./Generated_Source/PSoC5/UART.c ****             UART_TXSTATUS_MASK_REG = UART_TX_STS_FIFO_EMPTY;
 143:./Generated_Source/PSoC5/UART.c ****         #else
 144:./Generated_Source/PSoC5/UART.c ****             UART_TXSTATUS_MASK_REG = UART_INIT_TX_INTERRUPTS_MASK;
 101              		.loc 1 144 0
 102 0020 46F28443 		movw	r3, #:lower16:1073767556
 103 0024 C4F20003 		movt	r3, #:upper16:1073767556
 104 0028 4FF00102 		mov	r2, #1
 105 002c 1A70     		strb	r2, [r3, #0]
 145:./Generated_Source/PSoC5/UART.c ****         #endif /*End UART_TX_INTERRUPT_ENABLED*/
 146:./Generated_Source/PSoC5/UART.c ****         
 147:./Generated_Source/PSoC5/UART.c ****     #endif /* End UART_TX_ENABLED */
 148:./Generated_Source/PSoC5/UART.c **** 
 149:./Generated_Source/PSoC5/UART.c ****     #if(UART_PARITY_TYPE_SW)  /* Write Parity to Control Register */
 150:./Generated_Source/PSoC5/UART.c ****         UART_WriteControlRegister( \
 151:./Generated_Source/PSoC5/UART.c ****             (UART_ReadControlRegister() & ~UART_CTRL_PARITY_TYPE_MASK) | \
 152:./Generated_Source/PSoC5/UART.c ****             (UART_PARITY_TYPE << UART_CTRL_PARITY_TYPE0_SHIFT) );
 153:./Generated_Source/PSoC5/UART.c ****     #endif /* End UART_PARITY_TYPE_SW */
 154:./Generated_Source/PSoC5/UART.c **** }
 106              		.loc 1 154 0
 107 002e BD46     		mov	sp, r7
 108 0030 80BC     		pop	{r7}
 109 0032 7047     		bx	lr
 110              		.cfi_endproc
 111              	.LFE1:
 112              		.size	UART_Init, .-UART_Init
 113              		.section	.text.UART_Enable,"ax",%progbits
 114              		.align	2
 115              		.global	UART_Enable
 116              		.thumb
 117              		.thumb_func
 118              		.type	UART_Enable, %function
 119              	UART_Enable:
 120              	.LFB2:
 155:./Generated_Source/PSoC5/UART.c **** 
 156:./Generated_Source/PSoC5/UART.c **** 
 157:./Generated_Source/PSoC5/UART.c **** /*******************************************************************************
 158:./Generated_Source/PSoC5/UART.c **** * Function Name: UART_Enable
 159:./Generated_Source/PSoC5/UART.c **** ********************************************************************************
 160:./Generated_Source/PSoC5/UART.c **** *
 161:./Generated_Source/PSoC5/UART.c **** * Summary:
ARM GAS  C:\Users\CHARLI~1\AppData\Local\Temp\ccl7kX1M.s 			page 6


 162:./Generated_Source/PSoC5/UART.c **** *  Enables the UART block operation
 163:./Generated_Source/PSoC5/UART.c **** *
 164:./Generated_Source/PSoC5/UART.c **** * Parameters:
 165:./Generated_Source/PSoC5/UART.c **** *  None.
 166:./Generated_Source/PSoC5/UART.c **** *
 167:./Generated_Source/PSoC5/UART.c **** * Return:
 168:./Generated_Source/PSoC5/UART.c **** *  None.
 169:./Generated_Source/PSoC5/UART.c **** *
 170:./Generated_Source/PSoC5/UART.c **** *******************************************************************************/
 171:./Generated_Source/PSoC5/UART.c **** void UART_Enable(void) 
 172:./Generated_Source/PSoC5/UART.c **** {
 121              		.loc 1 172 0
 122              		.cfi_startproc
 123              		@ args = 0, pretend = 0, frame = 8
 124              		@ frame_needed = 1, uses_anonymous_args = 0
 125 0000 80B5     		push	{r7, lr}
 126              	.LCFI4:
 127              		.cfi_def_cfa_offset 8
 128 0002 82B0     		sub	sp, sp, #8
 129              	.LCFI5:
 130              		.cfi_def_cfa_offset 16
 131 0004 00AF     		add	r7, sp, #0
 132              		.cfi_offset 14, -4
 133              		.cfi_offset 7, -8
 134              	.LCFI6:
 135              		.cfi_def_cfa_register 7
 173:./Generated_Source/PSoC5/UART.c ****     uint8 enableInterrupts;
 174:./Generated_Source/PSoC5/UART.c ****     enableInterrupts = CyEnterCriticalSection();
 136              		.loc 1 174 0
 137 0006 FFF7FEFF 		bl	CyEnterCriticalSection
 138 000a 0346     		mov	r3, r0
 139 000c FB71     		strb	r3, [r7, #7]
 175:./Generated_Source/PSoC5/UART.c ****     
 176:./Generated_Source/PSoC5/UART.c ****     #if(UART_RX_ENABLED || UART_HD_ENABLED)
 177:./Generated_Source/PSoC5/UART.c ****         /*RX Counter (Count7) Enable */
 178:./Generated_Source/PSoC5/UART.c ****         UART_RXBITCTR_CONTROL_REG |= UART_CNTR_ENABLE;
 179:./Generated_Source/PSoC5/UART.c ****         /* Enable the RX Interrupt. */
 180:./Generated_Source/PSoC5/UART.c ****         UART_RXSTATUS_ACTL_REG  |= UART_INT_ENABLE;
 181:./Generated_Source/PSoC5/UART.c ****         #if(UART_RX_INTERRUPT_ENABLED && (UART_RXBUFFERSIZE > UART_FIFO_LENGTH))
 182:./Generated_Source/PSoC5/UART.c ****             CyIntEnable(UART_RX_VECT_NUM);
 183:./Generated_Source/PSoC5/UART.c ****         #endif /* End UART_RX_INTERRUPT_ENABLED */
 184:./Generated_Source/PSoC5/UART.c ****     #endif /* End UART_RX_ENABLED || UART_HD_ENABLED*/
 185:./Generated_Source/PSoC5/UART.c **** 
 186:./Generated_Source/PSoC5/UART.c ****     #if(UART_TX_ENABLED)
 187:./Generated_Source/PSoC5/UART.c ****         /*TX Counter (DP/Count7) Enable */
 188:./Generated_Source/PSoC5/UART.c ****         #if(!UART_TXCLKGEN_DP)
 189:./Generated_Source/PSoC5/UART.c ****             UART_TXBITCTR_CONTROL_REG |= UART_CNTR_ENABLE;
 190:./Generated_Source/PSoC5/UART.c ****         #endif /* End UART_TXCLKGEN_DP */
 191:./Generated_Source/PSoC5/UART.c ****         /* Enable the TX Interrupt. */
 192:./Generated_Source/PSoC5/UART.c ****         UART_TXSTATUS_ACTL_REG |= UART_INT_ENABLE;
 140              		.loc 1 192 0
 141 000e 46F29443 		movw	r3, #:lower16:1073767572
 142 0012 C4F20003 		movt	r3, #:upper16:1073767572
 143 0016 46F29442 		movw	r2, #:lower16:1073767572
 144 001a C4F20002 		movt	r2, #:upper16:1073767572
 145 001e 1278     		ldrb	r2, [r2, #0]
 146 0020 D2B2     		uxtb	r2, r2
ARM GAS  C:\Users\CHARLI~1\AppData\Local\Temp\ccl7kX1M.s 			page 7


 147 0022 42F01002 		orr	r2, r2, #16
 148 0026 D2B2     		uxtb	r2, r2
 149 0028 1A70     		strb	r2, [r3, #0]
 193:./Generated_Source/PSoC5/UART.c ****         #if(UART_TX_INTERRUPT_ENABLED && (UART_TXBUFFERSIZE > UART_FIFO_LENGTH))
 194:./Generated_Source/PSoC5/UART.c ****             CyIntEnable(UART_TX_VECT_NUM);
 195:./Generated_Source/PSoC5/UART.c ****         #endif /* End UART_TX_INTERRUPT_ENABLED*/
 196:./Generated_Source/PSoC5/UART.c ****      #endif /* End UART_TX_ENABLED */
 197:./Generated_Source/PSoC5/UART.c **** 
 198:./Generated_Source/PSoC5/UART.c ****     #if(UART_INTERNAL_CLOCK_USED)
 199:./Generated_Source/PSoC5/UART.c ****         /* Set the bit to enable the clock. */
 200:./Generated_Source/PSoC5/UART.c ****         UART_INTCLOCK_CLKEN_REG |= UART_INTCLOCK_CLKEN_MASK;
 150              		.loc 1 200 0
 151 002a 44F2A233 		movw	r3, #:lower16:1073759138
 152 002e C4F20003 		movt	r3, #:upper16:1073759138
 153 0032 44F2A232 		movw	r2, #:lower16:1073759138
 154 0036 C4F20002 		movt	r2, #:upper16:1073759138
 155 003a 1278     		ldrb	r2, [r2, #0]
 156 003c D2B2     		uxtb	r2, r2
 157 003e 42F00202 		orr	r2, r2, #2
 158 0042 D2B2     		uxtb	r2, r2
 159 0044 1A70     		strb	r2, [r3, #0]
 201:./Generated_Source/PSoC5/UART.c ****     #endif /* End UART_INTERNAL_CLOCK_USED */
 202:./Generated_Source/PSoC5/UART.c ****     
 203:./Generated_Source/PSoC5/UART.c ****     CyExitCriticalSection(enableInterrupts);
 160              		.loc 1 203 0
 161 0046 FB79     		ldrb	r3, [r7, #7]	@ zero_extendqisi2
 162 0048 1846     		mov	r0, r3
 163 004a FFF7FEFF 		bl	CyExitCriticalSection
 204:./Generated_Source/PSoC5/UART.c **** }
 164              		.loc 1 204 0
 165 004e 07F10807 		add	r7, r7, #8
 166 0052 BD46     		mov	sp, r7
 167 0054 80BD     		pop	{r7, pc}
 168              		.cfi_endproc
 169              	.LFE2:
 170              		.size	UART_Enable, .-UART_Enable
 171 0056 00BF     		.section	.text.UART_Stop,"ax",%progbits
 172              		.align	2
 173              		.global	UART_Stop
 174              		.thumb
 175              		.thumb_func
 176              		.type	UART_Stop, %function
 177              	UART_Stop:
 178              	.LFB3:
 205:./Generated_Source/PSoC5/UART.c **** 
 206:./Generated_Source/PSoC5/UART.c **** 
 207:./Generated_Source/PSoC5/UART.c **** /*******************************************************************************
 208:./Generated_Source/PSoC5/UART.c **** * Function Name: UART_Stop
 209:./Generated_Source/PSoC5/UART.c **** ********************************************************************************
 210:./Generated_Source/PSoC5/UART.c **** *
 211:./Generated_Source/PSoC5/UART.c **** * Summary:
 212:./Generated_Source/PSoC5/UART.c **** *  Disable the UART component
 213:./Generated_Source/PSoC5/UART.c **** *
 214:./Generated_Source/PSoC5/UART.c **** * Parameters:
 215:./Generated_Source/PSoC5/UART.c **** *  None.
 216:./Generated_Source/PSoC5/UART.c **** *
 217:./Generated_Source/PSoC5/UART.c **** * Return:
ARM GAS  C:\Users\CHARLI~1\AppData\Local\Temp\ccl7kX1M.s 			page 8


 218:./Generated_Source/PSoC5/UART.c **** *  None.
 219:./Generated_Source/PSoC5/UART.c **** *
 220:./Generated_Source/PSoC5/UART.c **** *******************************************************************************/
 221:./Generated_Source/PSoC5/UART.c **** void UART_Stop(void) 
 222:./Generated_Source/PSoC5/UART.c **** {
 179              		.loc 1 222 0
 180              		.cfi_startproc
 181              		@ args = 0, pretend = 0, frame = 8
 182              		@ frame_needed = 1, uses_anonymous_args = 0
 183 0000 80B5     		push	{r7, lr}
 184              	.LCFI7:
 185              		.cfi_def_cfa_offset 8
 186 0002 82B0     		sub	sp, sp, #8
 187              	.LCFI8:
 188              		.cfi_def_cfa_offset 16
 189 0004 00AF     		add	r7, sp, #0
 190              		.cfi_offset 14, -4
 191              		.cfi_offset 7, -8
 192              	.LCFI9:
 193              		.cfi_def_cfa_register 7
 223:./Generated_Source/PSoC5/UART.c ****     uint8 enableInterrupts;
 224:./Generated_Source/PSoC5/UART.c ****     enableInterrupts = CyEnterCriticalSection();
 194              		.loc 1 224 0
 195 0006 FFF7FEFF 		bl	CyEnterCriticalSection
 196 000a 0346     		mov	r3, r0
 197 000c FB71     		strb	r3, [r7, #7]
 225:./Generated_Source/PSoC5/UART.c **** 
 226:./Generated_Source/PSoC5/UART.c ****     /*Write Bit Counter Disable */
 227:./Generated_Source/PSoC5/UART.c ****     #if(UART_RX_ENABLED || UART_HD_ENABLED)
 228:./Generated_Source/PSoC5/UART.c ****         UART_RXBITCTR_CONTROL_REG &= ~UART_CNTR_ENABLE;
 229:./Generated_Source/PSoC5/UART.c ****     #endif /* End UART_RX_ENABLED */
 230:./Generated_Source/PSoC5/UART.c **** 
 231:./Generated_Source/PSoC5/UART.c ****     #if(UART_TX_ENABLED)
 232:./Generated_Source/PSoC5/UART.c ****         #if(!UART_TXCLKGEN_DP)
 233:./Generated_Source/PSoC5/UART.c ****             UART_TXBITCTR_CONTROL_REG &= ~UART_CNTR_ENABLE;
 234:./Generated_Source/PSoC5/UART.c ****         #endif /* End UART_TXCLKGEN_DP */
 235:./Generated_Source/PSoC5/UART.c ****     #endif /* UART_TX_ENABLED */
 236:./Generated_Source/PSoC5/UART.c **** 
 237:./Generated_Source/PSoC5/UART.c ****     #if(UART_INTERNAL_CLOCK_USED)
 238:./Generated_Source/PSoC5/UART.c ****         /* Clear the bit to enable the clock. */
 239:./Generated_Source/PSoC5/UART.c ****         UART_INTCLOCK_CLKEN_REG &= ~UART_INTCLOCK_CLKEN_MASK;
 198              		.loc 1 239 0
 199 000e 44F2A233 		movw	r3, #:lower16:1073759138
 200 0012 C4F20003 		movt	r3, #:upper16:1073759138
 201 0016 44F2A232 		movw	r2, #:lower16:1073759138
 202 001a C4F20002 		movt	r2, #:upper16:1073759138
 203 001e 1278     		ldrb	r2, [r2, #0]
 204 0020 D2B2     		uxtb	r2, r2
 205 0022 02F0FD02 		and	r2, r2, #253
 206 0026 1A70     		strb	r2, [r3, #0]
 240:./Generated_Source/PSoC5/UART.c ****     #endif /* End UART_INTERNAL_CLOCK_USED */
 241:./Generated_Source/PSoC5/UART.c ****     
 242:./Generated_Source/PSoC5/UART.c ****     /*Disable internal interrupt component*/
 243:./Generated_Source/PSoC5/UART.c ****     #if(UART_RX_ENABLED || UART_HD_ENABLED)
 244:./Generated_Source/PSoC5/UART.c ****         UART_RXSTATUS_ACTL_REG  &= ~UART_INT_ENABLE;
 245:./Generated_Source/PSoC5/UART.c ****         #if(UART_RX_INTERRUPT_ENABLED && (UART_RXBUFFERSIZE > UART_FIFO_LENGTH))
 246:./Generated_Source/PSoC5/UART.c ****             UART_DisableRxInt();
ARM GAS  C:\Users\CHARLI~1\AppData\Local\Temp\ccl7kX1M.s 			page 9


 247:./Generated_Source/PSoC5/UART.c ****         #endif /* End UART_RX_INTERRUPT_ENABLED */
 248:./Generated_Source/PSoC5/UART.c ****     #endif /* End UART_RX_ENABLED */
 249:./Generated_Source/PSoC5/UART.c ****     
 250:./Generated_Source/PSoC5/UART.c ****     #if(UART_TX_ENABLED)
 251:./Generated_Source/PSoC5/UART.c ****         UART_TXSTATUS_ACTL_REG &= ~UART_INT_ENABLE;
 207              		.loc 1 251 0
 208 0028 46F29443 		movw	r3, #:lower16:1073767572
 209 002c C4F20003 		movt	r3, #:upper16:1073767572
 210 0030 46F29442 		movw	r2, #:lower16:1073767572
 211 0034 C4F20002 		movt	r2, #:upper16:1073767572
 212 0038 1278     		ldrb	r2, [r2, #0]
 213 003a D2B2     		uxtb	r2, r2
 214 003c 02F0EF02 		and	r2, r2, #239
 215 0040 1A70     		strb	r2, [r3, #0]
 252:./Generated_Source/PSoC5/UART.c ****         #if(UART_TX_INTERRUPT_ENABLED && (UART_TXBUFFERSIZE > UART_FIFO_LENGTH))
 253:./Generated_Source/PSoC5/UART.c ****             UART_DisableTxInt();
 254:./Generated_Source/PSoC5/UART.c ****         #endif /* End UART_TX_INTERRUPT_ENABLED */
 255:./Generated_Source/PSoC5/UART.c ****     #endif /* End UART_TX_ENABLED */
 256:./Generated_Source/PSoC5/UART.c **** 
 257:./Generated_Source/PSoC5/UART.c ****     CyExitCriticalSection(enableInterrupts);
 216              		.loc 1 257 0
 217 0042 FB79     		ldrb	r3, [r7, #7]	@ zero_extendqisi2
 218 0044 1846     		mov	r0, r3
 219 0046 FFF7FEFF 		bl	CyExitCriticalSection
 258:./Generated_Source/PSoC5/UART.c **** }
 220              		.loc 1 258 0
 221 004a 07F10807 		add	r7, r7, #8
 222 004e BD46     		mov	sp, r7
 223 0050 80BD     		pop	{r7, pc}
 224              		.cfi_endproc
 225              	.LFE3:
 226              		.size	UART_Stop, .-UART_Stop
 227 0052 00BF     		.section	.text.UART_ReadControlRegister,"ax",%progbits
 228              		.align	2
 229              		.global	UART_ReadControlRegister
 230              		.thumb
 231              		.thumb_func
 232              		.type	UART_ReadControlRegister, %function
 233              	UART_ReadControlRegister:
 234              	.LFB4:
 259:./Generated_Source/PSoC5/UART.c **** 
 260:./Generated_Source/PSoC5/UART.c **** 
 261:./Generated_Source/PSoC5/UART.c **** /*******************************************************************************
 262:./Generated_Source/PSoC5/UART.c **** * Function Name: UART_ReadControlRegister
 263:./Generated_Source/PSoC5/UART.c **** ********************************************************************************
 264:./Generated_Source/PSoC5/UART.c **** *
 265:./Generated_Source/PSoC5/UART.c **** * Summary:
 266:./Generated_Source/PSoC5/UART.c **** *  Read the current state of the control register
 267:./Generated_Source/PSoC5/UART.c **** *
 268:./Generated_Source/PSoC5/UART.c **** * Parameters:
 269:./Generated_Source/PSoC5/UART.c **** *  None.
 270:./Generated_Source/PSoC5/UART.c **** *
 271:./Generated_Source/PSoC5/UART.c **** * Return:
 272:./Generated_Source/PSoC5/UART.c **** *  Current state of the control register.
 273:./Generated_Source/PSoC5/UART.c **** *
 274:./Generated_Source/PSoC5/UART.c **** *******************************************************************************/
 275:./Generated_Source/PSoC5/UART.c **** uint8 UART_ReadControlRegister(void) 
ARM GAS  C:\Users\CHARLI~1\AppData\Local\Temp\ccl7kX1M.s 			page 10


 276:./Generated_Source/PSoC5/UART.c **** {
 235              		.loc 1 276 0
 236              		.cfi_startproc
 237              		@ args = 0, pretend = 0, frame = 0
 238              		@ frame_needed = 1, uses_anonymous_args = 0
 239              		@ link register save eliminated.
 240 0000 80B4     		push	{r7}
 241              	.LCFI10:
 242              		.cfi_def_cfa_offset 4
 243 0002 00AF     		add	r7, sp, #0
 244              		.cfi_offset 7, -4
 245              	.LCFI11:
 246              		.cfi_def_cfa_register 7
 277:./Generated_Source/PSoC5/UART.c ****     #if( UART_CONTROL_REG_REMOVED )
 278:./Generated_Source/PSoC5/UART.c ****         return(0u);
 247              		.loc 1 278 0
 248 0004 4FF00003 		mov	r3, #0
 279:./Generated_Source/PSoC5/UART.c ****     #else
 280:./Generated_Source/PSoC5/UART.c ****         return(UART_CONTROL_REG);
 281:./Generated_Source/PSoC5/UART.c ****     #endif /* End UART_CONTROL_REG_REMOVED */
 282:./Generated_Source/PSoC5/UART.c **** }
 249              		.loc 1 282 0
 250 0008 1846     		mov	r0, r3
 251 000a BD46     		mov	sp, r7
 252 000c 80BC     		pop	{r7}
 253 000e 7047     		bx	lr
 254              		.cfi_endproc
 255              	.LFE4:
 256              		.size	UART_ReadControlRegister, .-UART_ReadControlRegister
 257              		.section	.text.UART_WriteControlRegister,"ax",%progbits
 258              		.align	2
 259              		.global	UART_WriteControlRegister
 260              		.thumb
 261              		.thumb_func
 262              		.type	UART_WriteControlRegister, %function
 263              	UART_WriteControlRegister:
 264              	.LFB5:
 283:./Generated_Source/PSoC5/UART.c **** 
 284:./Generated_Source/PSoC5/UART.c **** 
 285:./Generated_Source/PSoC5/UART.c **** /*******************************************************************************
 286:./Generated_Source/PSoC5/UART.c **** * Function Name: UART_WriteControlRegister
 287:./Generated_Source/PSoC5/UART.c **** ********************************************************************************
 288:./Generated_Source/PSoC5/UART.c **** *
 289:./Generated_Source/PSoC5/UART.c **** * Summary:
 290:./Generated_Source/PSoC5/UART.c **** *  Writes an 8-bit value into the control register
 291:./Generated_Source/PSoC5/UART.c **** *
 292:./Generated_Source/PSoC5/UART.c **** * Parameters:
 293:./Generated_Source/PSoC5/UART.c **** *  control:  control register value
 294:./Generated_Source/PSoC5/UART.c **** *
 295:./Generated_Source/PSoC5/UART.c **** * Return:
 296:./Generated_Source/PSoC5/UART.c **** *  None.
 297:./Generated_Source/PSoC5/UART.c **** *
 298:./Generated_Source/PSoC5/UART.c **** *******************************************************************************/
 299:./Generated_Source/PSoC5/UART.c **** void  UART_WriteControlRegister(uint8 control) 
 300:./Generated_Source/PSoC5/UART.c **** {
 265              		.loc 1 300 0
 266              		.cfi_startproc
ARM GAS  C:\Users\CHARLI~1\AppData\Local\Temp\ccl7kX1M.s 			page 11


 267              		@ args = 0, pretend = 0, frame = 8
 268              		@ frame_needed = 1, uses_anonymous_args = 0
 269              		@ link register save eliminated.
 270 0000 80B4     		push	{r7}
 271              	.LCFI12:
 272              		.cfi_def_cfa_offset 4
 273 0002 83B0     		sub	sp, sp, #12
 274              	.LCFI13:
 275              		.cfi_def_cfa_offset 16
 276 0004 00AF     		add	r7, sp, #0
 277              		.cfi_offset 7, -4
 278              	.LCFI14:
 279              		.cfi_def_cfa_register 7
 280 0006 0346     		mov	r3, r0
 281 0008 FB71     		strb	r3, [r7, #7]
 301:./Generated_Source/PSoC5/UART.c ****     #if( UART_CONTROL_REG_REMOVED )
 302:./Generated_Source/PSoC5/UART.c ****         control = control;      /* Reassigning to release compiler warning */ 
 303:./Generated_Source/PSoC5/UART.c ****     #else
 304:./Generated_Source/PSoC5/UART.c ****        UART_CONTROL_REG = control;
 305:./Generated_Source/PSoC5/UART.c ****     #endif /* End UART_CONTROL_REG_REMOVED */
 306:./Generated_Source/PSoC5/UART.c **** }
 282              		.loc 1 306 0
 283 000a 07F10C07 		add	r7, r7, #12
 284 000e BD46     		mov	sp, r7
 285 0010 80BC     		pop	{r7}
 286 0012 7047     		bx	lr
 287              		.cfi_endproc
 288              	.LFE5:
 289              		.size	UART_WriteControlRegister, .-UART_WriteControlRegister
 290              		.section	.text.UART_SetTxInterruptMode,"ax",%progbits
 291              		.align	2
 292              		.global	UART_SetTxInterruptMode
 293              		.thumb
 294              		.thumb_func
 295              		.type	UART_SetTxInterruptMode, %function
 296              	UART_SetTxInterruptMode:
 297              	.LFB6:
 307:./Generated_Source/PSoC5/UART.c **** 
 308:./Generated_Source/PSoC5/UART.c **** 
 309:./Generated_Source/PSoC5/UART.c **** #if(UART_RX_ENABLED || UART_HD_ENABLED)
 310:./Generated_Source/PSoC5/UART.c **** 
 311:./Generated_Source/PSoC5/UART.c ****     #if(UART_RX_INTERRUPT_ENABLED)
 312:./Generated_Source/PSoC5/UART.c **** 
 313:./Generated_Source/PSoC5/UART.c ****         /*******************************************************************************
 314:./Generated_Source/PSoC5/UART.c ****         * Function Name: UART_EnableRxInt
 315:./Generated_Source/PSoC5/UART.c ****         ********************************************************************************
 316:./Generated_Source/PSoC5/UART.c ****         *
 317:./Generated_Source/PSoC5/UART.c ****         * Summary:
 318:./Generated_Source/PSoC5/UART.c ****         *  Enable RX interrupt generation
 319:./Generated_Source/PSoC5/UART.c ****         *
 320:./Generated_Source/PSoC5/UART.c ****         * Parameters:
 321:./Generated_Source/PSoC5/UART.c ****         *  None.
 322:./Generated_Source/PSoC5/UART.c ****         *
 323:./Generated_Source/PSoC5/UART.c ****         * Return:
 324:./Generated_Source/PSoC5/UART.c ****         *  None.
 325:./Generated_Source/PSoC5/UART.c ****         *
 326:./Generated_Source/PSoC5/UART.c ****         * Theory:
ARM GAS  C:\Users\CHARLI~1\AppData\Local\Temp\ccl7kX1M.s 			page 12


 327:./Generated_Source/PSoC5/UART.c ****         *  Enable the interrupt output -or- the interrupt component itself
 328:./Generated_Source/PSoC5/UART.c ****         *
 329:./Generated_Source/PSoC5/UART.c ****         *******************************************************************************/
 330:./Generated_Source/PSoC5/UART.c ****         void UART_EnableRxInt(void) 
 331:./Generated_Source/PSoC5/UART.c ****         {
 332:./Generated_Source/PSoC5/UART.c ****             CyIntEnable(UART_RX_VECT_NUM);
 333:./Generated_Source/PSoC5/UART.c ****         }
 334:./Generated_Source/PSoC5/UART.c **** 
 335:./Generated_Source/PSoC5/UART.c **** 
 336:./Generated_Source/PSoC5/UART.c ****         /*******************************************************************************
 337:./Generated_Source/PSoC5/UART.c ****         * Function Name: UART_DisableRxInt
 338:./Generated_Source/PSoC5/UART.c ****         ********************************************************************************
 339:./Generated_Source/PSoC5/UART.c ****         *
 340:./Generated_Source/PSoC5/UART.c ****         * Summary:
 341:./Generated_Source/PSoC5/UART.c ****         *  Disable RX interrupt generation
 342:./Generated_Source/PSoC5/UART.c ****         *
 343:./Generated_Source/PSoC5/UART.c ****         * Parameters:
 344:./Generated_Source/PSoC5/UART.c ****         *  None.
 345:./Generated_Source/PSoC5/UART.c ****         *
 346:./Generated_Source/PSoC5/UART.c ****         * Return:
 347:./Generated_Source/PSoC5/UART.c ****         *  None.
 348:./Generated_Source/PSoC5/UART.c ****         *
 349:./Generated_Source/PSoC5/UART.c ****         * Theory:
 350:./Generated_Source/PSoC5/UART.c ****         *  Disable the interrupt output -or- the interrupt component itself
 351:./Generated_Source/PSoC5/UART.c ****         *
 352:./Generated_Source/PSoC5/UART.c ****         *******************************************************************************/
 353:./Generated_Source/PSoC5/UART.c ****         void UART_DisableRxInt(void) 
 354:./Generated_Source/PSoC5/UART.c ****         {
 355:./Generated_Source/PSoC5/UART.c ****             CyIntDisable(UART_RX_VECT_NUM);
 356:./Generated_Source/PSoC5/UART.c ****         }
 357:./Generated_Source/PSoC5/UART.c **** 
 358:./Generated_Source/PSoC5/UART.c ****     #endif /* UART_RX_INTERRUPT_ENABLED */
 359:./Generated_Source/PSoC5/UART.c **** 
 360:./Generated_Source/PSoC5/UART.c **** 
 361:./Generated_Source/PSoC5/UART.c ****     /*******************************************************************************
 362:./Generated_Source/PSoC5/UART.c ****     * Function Name: UART_SetRxInterruptMode
 363:./Generated_Source/PSoC5/UART.c ****     ********************************************************************************
 364:./Generated_Source/PSoC5/UART.c ****     *
 365:./Generated_Source/PSoC5/UART.c ****     * Summary:
 366:./Generated_Source/PSoC5/UART.c ****     *  Configure which status bits trigger an interrupt event
 367:./Generated_Source/PSoC5/UART.c ****     *
 368:./Generated_Source/PSoC5/UART.c ****     * Parameters:
 369:./Generated_Source/PSoC5/UART.c ****     *  IntSrc:  An or'd combination of the desired status bit masks (defined in
 370:./Generated_Source/PSoC5/UART.c ****     *           the header file)
 371:./Generated_Source/PSoC5/UART.c ****     *
 372:./Generated_Source/PSoC5/UART.c ****     * Return:
 373:./Generated_Source/PSoC5/UART.c ****     *  None.
 374:./Generated_Source/PSoC5/UART.c ****     *
 375:./Generated_Source/PSoC5/UART.c ****     * Theory:
 376:./Generated_Source/PSoC5/UART.c ****     *  Enables the output of specific status bits to the interrupt controller
 377:./Generated_Source/PSoC5/UART.c ****     *
 378:./Generated_Source/PSoC5/UART.c ****     *******************************************************************************/
 379:./Generated_Source/PSoC5/UART.c ****     void UART_SetRxInterruptMode(uint8 intSrc) 
 380:./Generated_Source/PSoC5/UART.c ****     {
 381:./Generated_Source/PSoC5/UART.c ****         UART_RXSTATUS_MASK_REG  = intSrc;
 382:./Generated_Source/PSoC5/UART.c ****     }
 383:./Generated_Source/PSoC5/UART.c **** 
ARM GAS  C:\Users\CHARLI~1\AppData\Local\Temp\ccl7kX1M.s 			page 13


 384:./Generated_Source/PSoC5/UART.c **** 
 385:./Generated_Source/PSoC5/UART.c ****     /*******************************************************************************
 386:./Generated_Source/PSoC5/UART.c ****     * Function Name: UART_ReadRxData
 387:./Generated_Source/PSoC5/UART.c ****     ********************************************************************************
 388:./Generated_Source/PSoC5/UART.c ****     *
 389:./Generated_Source/PSoC5/UART.c ****     * Summary:
 390:./Generated_Source/PSoC5/UART.c ****     *  Returns data in RX Data register without checking status register to 
 391:./Generated_Source/PSoC5/UART.c ****     *  determine if data is valid
 392:./Generated_Source/PSoC5/UART.c ****     *
 393:./Generated_Source/PSoC5/UART.c ****     * Parameters:
 394:./Generated_Source/PSoC5/UART.c ****     *  None.
 395:./Generated_Source/PSoC5/UART.c ****     *
 396:./Generated_Source/PSoC5/UART.c ****     * Return:
 397:./Generated_Source/PSoC5/UART.c ****     *  Received data from RX register
 398:./Generated_Source/PSoC5/UART.c ****     *
 399:./Generated_Source/PSoC5/UART.c ****     * Global Variables:
 400:./Generated_Source/PSoC5/UART.c ****     *  UART_rxBuffer - RAM buffer pointer for save received data.
 401:./Generated_Source/PSoC5/UART.c ****     *  UART_rxBufferWrite - cyclic index for write to rxBuffer, 
 402:./Generated_Source/PSoC5/UART.c ****     *     checked to identify new data. 
 403:./Generated_Source/PSoC5/UART.c ****     *  UART_rxBufferRead - cyclic index for read from rxBuffer, 
 404:./Generated_Source/PSoC5/UART.c ****     *     incremented after each byte has been read from buffer.
 405:./Generated_Source/PSoC5/UART.c ****     *  UART_rxBufferLoopDetect - creared if loop condition was detected
 406:./Generated_Source/PSoC5/UART.c ****     *     in RX ISR. 
 407:./Generated_Source/PSoC5/UART.c ****     *
 408:./Generated_Source/PSoC5/UART.c ****     * Reentrant:
 409:./Generated_Source/PSoC5/UART.c ****     *  No.
 410:./Generated_Source/PSoC5/UART.c ****     *
 411:./Generated_Source/PSoC5/UART.c ****     *******************************************************************************/
 412:./Generated_Source/PSoC5/UART.c ****     uint8 UART_ReadRxData(void)
 413:./Generated_Source/PSoC5/UART.c ****     {
 414:./Generated_Source/PSoC5/UART.c ****         uint8 rxData;
 415:./Generated_Source/PSoC5/UART.c **** 
 416:./Generated_Source/PSoC5/UART.c ****         #if(UART_RXBUFFERSIZE > UART_FIFO_LENGTH)
 417:./Generated_Source/PSoC5/UART.c **** 
 418:./Generated_Source/PSoC5/UART.c ****             /* Disable Rx interrupt. */
 419:./Generated_Source/PSoC5/UART.c ****             /* Protect variables that could change on interrupt. */
 420:./Generated_Source/PSoC5/UART.c ****             #if(UART_RX_INTERRUPT_ENABLED)
 421:./Generated_Source/PSoC5/UART.c ****                 UART_DisableRxInt();
 422:./Generated_Source/PSoC5/UART.c ****             #endif /* End UART_RX_INTERRUPT_ENABLED */
 423:./Generated_Source/PSoC5/UART.c **** 
 424:./Generated_Source/PSoC5/UART.c ****             if( (UART_rxBufferRead != UART_rxBufferWrite) || \
 425:./Generated_Source/PSoC5/UART.c ****                 (UART_rxBufferLoopDetect > 0u) )
 426:./Generated_Source/PSoC5/UART.c ****             {
 427:./Generated_Source/PSoC5/UART.c ****                 if(UART_rxBufferLoopDetect > 0u ) 
 428:./Generated_Source/PSoC5/UART.c ****                 {
 429:./Generated_Source/PSoC5/UART.c ****                     UART_rxBufferLoopDetect = 0u;
 430:./Generated_Source/PSoC5/UART.c ****                 }
 431:./Generated_Source/PSoC5/UART.c **** 
 432:./Generated_Source/PSoC5/UART.c ****                 if(UART_rxBufferRead >= UART_RXBUFFERSIZE)
 433:./Generated_Source/PSoC5/UART.c ****                 {
 434:./Generated_Source/PSoC5/UART.c ****                     UART_rxBufferRead = 0u;
 435:./Generated_Source/PSoC5/UART.c ****                 }
 436:./Generated_Source/PSoC5/UART.c **** 
 437:./Generated_Source/PSoC5/UART.c ****                 rxData = UART_rxBuffer[UART_rxBufferRead];
 438:./Generated_Source/PSoC5/UART.c **** 
 439:./Generated_Source/PSoC5/UART.c ****                 UART_rxBufferRead++;
 440:./Generated_Source/PSoC5/UART.c ****             }
ARM GAS  C:\Users\CHARLI~1\AppData\Local\Temp\ccl7kX1M.s 			page 14


 441:./Generated_Source/PSoC5/UART.c ****             else
 442:./Generated_Source/PSoC5/UART.c ****             {   /* Needs to check status for RX_STS_FIFO_NOTEMPTY bit*/
 443:./Generated_Source/PSoC5/UART.c ****                 rxData = UART_RXDATA_REG;
 444:./Generated_Source/PSoC5/UART.c ****             }
 445:./Generated_Source/PSoC5/UART.c **** 
 446:./Generated_Source/PSoC5/UART.c ****             /* Enable Rx interrupt. */
 447:./Generated_Source/PSoC5/UART.c ****             #if(UART_RX_INTERRUPT_ENABLED)
 448:./Generated_Source/PSoC5/UART.c ****                 UART_EnableRxInt();
 449:./Generated_Source/PSoC5/UART.c ****             #endif /* End UART_RX_INTERRUPT_ENABLED */
 450:./Generated_Source/PSoC5/UART.c **** 
 451:./Generated_Source/PSoC5/UART.c ****         #else /* UART_RXBUFFERSIZE > UART_FIFO_LENGTH */
 452:./Generated_Source/PSoC5/UART.c **** 
 453:./Generated_Source/PSoC5/UART.c ****             /* Needs to check status for RX_STS_FIFO_NOTEMPTY bit*/
 454:./Generated_Source/PSoC5/UART.c ****             rxData = UART_RXDATA_REG;
 455:./Generated_Source/PSoC5/UART.c **** 
 456:./Generated_Source/PSoC5/UART.c ****         #endif /* UART_RXBUFFERSIZE > UART_FIFO_LENGTH */
 457:./Generated_Source/PSoC5/UART.c **** 
 458:./Generated_Source/PSoC5/UART.c ****         return(rxData);
 459:./Generated_Source/PSoC5/UART.c ****     }
 460:./Generated_Source/PSoC5/UART.c **** 
 461:./Generated_Source/PSoC5/UART.c **** 
 462:./Generated_Source/PSoC5/UART.c ****     /*******************************************************************************
 463:./Generated_Source/PSoC5/UART.c ****     * Function Name: UART_ReadRxStatus
 464:./Generated_Source/PSoC5/UART.c ****     ********************************************************************************
 465:./Generated_Source/PSoC5/UART.c ****     *
 466:./Generated_Source/PSoC5/UART.c ****     * Summary:
 467:./Generated_Source/PSoC5/UART.c ****     *  Read the current state of the status register
 468:./Generated_Source/PSoC5/UART.c ****     *  And detect software buffer overflow.
 469:./Generated_Source/PSoC5/UART.c ****     *
 470:./Generated_Source/PSoC5/UART.c ****     * Parameters:
 471:./Generated_Source/PSoC5/UART.c ****     *  None.
 472:./Generated_Source/PSoC5/UART.c ****     *
 473:./Generated_Source/PSoC5/UART.c ****     * Return:
 474:./Generated_Source/PSoC5/UART.c ****     *  Current state of the status register.
 475:./Generated_Source/PSoC5/UART.c ****     *
 476:./Generated_Source/PSoC5/UART.c ****     * Global Variables:
 477:./Generated_Source/PSoC5/UART.c ****     *  UART_rxBufferOverflow - used to indicate overload condition. 
 478:./Generated_Source/PSoC5/UART.c ****     *   It set to one in RX interrupt when there isn?t free space in 
 479:./Generated_Source/PSoC5/UART.c ****     *   UART_rxBufferRead to write new data. This condition returned 
 480:./Generated_Source/PSoC5/UART.c ****     *   and cleared to zero by this API as an 
 481:./Generated_Source/PSoC5/UART.c ****     *   UART_RX_STS_SOFT_BUFF_OVER bit along with RX Status register 
 482:./Generated_Source/PSoC5/UART.c ****     *   bits.
 483:./Generated_Source/PSoC5/UART.c ****     *
 484:./Generated_Source/PSoC5/UART.c ****     *******************************************************************************/
 485:./Generated_Source/PSoC5/UART.c ****     uint8 UART_ReadRxStatus(void) 
 486:./Generated_Source/PSoC5/UART.c ****     {
 487:./Generated_Source/PSoC5/UART.c ****         uint8 status;
 488:./Generated_Source/PSoC5/UART.c **** 
 489:./Generated_Source/PSoC5/UART.c ****         status = UART_RXSTATUS_REG;
 490:./Generated_Source/PSoC5/UART.c ****         status &= UART_RX_HW_MASK;
 491:./Generated_Source/PSoC5/UART.c **** 
 492:./Generated_Source/PSoC5/UART.c ****         #if(UART_RXBUFFERSIZE > UART_FIFO_LENGTH)
 493:./Generated_Source/PSoC5/UART.c ****             if( UART_rxBufferOverflow )
 494:./Generated_Source/PSoC5/UART.c ****             {
 495:./Generated_Source/PSoC5/UART.c ****                 status |= UART_RX_STS_SOFT_BUFF_OVER;
 496:./Generated_Source/PSoC5/UART.c ****                 UART_rxBufferOverflow = 0u;
 497:./Generated_Source/PSoC5/UART.c ****             }
ARM GAS  C:\Users\CHARLI~1\AppData\Local\Temp\ccl7kX1M.s 			page 15


 498:./Generated_Source/PSoC5/UART.c ****         #endif /* UART_RXBUFFERSIZE */
 499:./Generated_Source/PSoC5/UART.c **** 
 500:./Generated_Source/PSoC5/UART.c ****         return(status);
 501:./Generated_Source/PSoC5/UART.c ****     }
 502:./Generated_Source/PSoC5/UART.c **** 
 503:./Generated_Source/PSoC5/UART.c **** 
 504:./Generated_Source/PSoC5/UART.c ****     /*******************************************************************************
 505:./Generated_Source/PSoC5/UART.c ****     * Function Name: UART_GetChar
 506:./Generated_Source/PSoC5/UART.c ****     ********************************************************************************
 507:./Generated_Source/PSoC5/UART.c ****     *
 508:./Generated_Source/PSoC5/UART.c ****     * Summary:
 509:./Generated_Source/PSoC5/UART.c ****     *  Reads UART RX buffer immediately, if data is not available or an error 
 510:./Generated_Source/PSoC5/UART.c ****     *  condition exists, zero is returned; otherwise, character is read and 
 511:./Generated_Source/PSoC5/UART.c ****     *  returned.
 512:./Generated_Source/PSoC5/UART.c ****     *
 513:./Generated_Source/PSoC5/UART.c ****     * Parameters:
 514:./Generated_Source/PSoC5/UART.c ****     *  None.
 515:./Generated_Source/PSoC5/UART.c ****     *
 516:./Generated_Source/PSoC5/UART.c ****     * Return:
 517:./Generated_Source/PSoC5/UART.c ****     *  Character read from UART RX buffer. ASCII characters from 1 to 255 are valid.
 518:./Generated_Source/PSoC5/UART.c ****     *  A returned zero signifies an error condition or no data available.
 519:./Generated_Source/PSoC5/UART.c ****     *
 520:./Generated_Source/PSoC5/UART.c ****     * Global Variables:
 521:./Generated_Source/PSoC5/UART.c ****     *  UART_rxBuffer - RAM buffer pointer for save received data.
 522:./Generated_Source/PSoC5/UART.c ****     *  UART_rxBufferWrite - cyclic index for write to rxBuffer, 
 523:./Generated_Source/PSoC5/UART.c ****     *     checked to identify new data. 
 524:./Generated_Source/PSoC5/UART.c ****     *  UART_rxBufferRead - cyclic index for read from rxBuffer, 
 525:./Generated_Source/PSoC5/UART.c ****     *     incremented after each byte has been read from buffer.
 526:./Generated_Source/PSoC5/UART.c ****     *  UART_rxBufferLoopDetect - creared if loop condition was detected
 527:./Generated_Source/PSoC5/UART.c ****     *     in RX ISR. 
 528:./Generated_Source/PSoC5/UART.c ****     *
 529:./Generated_Source/PSoC5/UART.c ****     * Reentrant:
 530:./Generated_Source/PSoC5/UART.c ****     *  No.
 531:./Generated_Source/PSoC5/UART.c ****     *
 532:./Generated_Source/PSoC5/UART.c ****     *******************************************************************************/
 533:./Generated_Source/PSoC5/UART.c ****     uint8 UART_GetChar(void)
 534:./Generated_Source/PSoC5/UART.c ****     {
 535:./Generated_Source/PSoC5/UART.c ****         uint8 rxData = 0u;
 536:./Generated_Source/PSoC5/UART.c ****         uint8 rxStatus;
 537:./Generated_Source/PSoC5/UART.c **** 
 538:./Generated_Source/PSoC5/UART.c ****         #if(UART_RXBUFFERSIZE > UART_FIFO_LENGTH)
 539:./Generated_Source/PSoC5/UART.c **** 
 540:./Generated_Source/PSoC5/UART.c ****             /* Disable Rx interrupt. */
 541:./Generated_Source/PSoC5/UART.c ****             /* Protect variables that could change on interrupt. */
 542:./Generated_Source/PSoC5/UART.c ****             #if(UART_RX_INTERRUPT_ENABLED)
 543:./Generated_Source/PSoC5/UART.c ****                 UART_DisableRxInt();
 544:./Generated_Source/PSoC5/UART.c ****             #endif /* UART_RX_INTERRUPT_ENABLED */
 545:./Generated_Source/PSoC5/UART.c **** 
 546:./Generated_Source/PSoC5/UART.c ****             if( (UART_rxBufferRead != UART_rxBufferWrite) || \
 547:./Generated_Source/PSoC5/UART.c ****                 (UART_rxBufferLoopDetect > 0u) )
 548:./Generated_Source/PSoC5/UART.c ****             {
 549:./Generated_Source/PSoC5/UART.c ****                 if(UART_rxBufferLoopDetect > 0u ) 
 550:./Generated_Source/PSoC5/UART.c ****                 {
 551:./Generated_Source/PSoC5/UART.c ****                     UART_rxBufferLoopDetect = 0u;
 552:./Generated_Source/PSoC5/UART.c ****                 }
 553:./Generated_Source/PSoC5/UART.c **** 
 554:./Generated_Source/PSoC5/UART.c ****                 if(UART_rxBufferRead >= UART_RXBUFFERSIZE)
ARM GAS  C:\Users\CHARLI~1\AppData\Local\Temp\ccl7kX1M.s 			page 16


 555:./Generated_Source/PSoC5/UART.c ****                 {
 556:./Generated_Source/PSoC5/UART.c ****                     UART_rxBufferRead = 0u;
 557:./Generated_Source/PSoC5/UART.c ****                 }
 558:./Generated_Source/PSoC5/UART.c **** 
 559:./Generated_Source/PSoC5/UART.c ****                 rxData = UART_rxBuffer[UART_rxBufferRead];
 560:./Generated_Source/PSoC5/UART.c **** 
 561:./Generated_Source/PSoC5/UART.c ****                 UART_rxBufferRead++;
 562:./Generated_Source/PSoC5/UART.c ****             }
 563:./Generated_Source/PSoC5/UART.c ****             else
 564:./Generated_Source/PSoC5/UART.c ****             {   rxStatus =UART_RXSTATUS_REG;
 565:./Generated_Source/PSoC5/UART.c ****                 if(rxStatus & UART_RX_STS_FIFO_NOTEMPTY)
 566:./Generated_Source/PSoC5/UART.c ****                 {   /* Read received data from FIFO*/
 567:./Generated_Source/PSoC5/UART.c ****                     rxData = UART_RXDATA_REG;
 568:./Generated_Source/PSoC5/UART.c ****                     /*Check status on error*/
 569:./Generated_Source/PSoC5/UART.c ****                     if(rxStatus & (UART_RX_STS_BREAK | UART_RX_STS_PAR_ERROR | \
 570:./Generated_Source/PSoC5/UART.c ****                                    UART_RX_STS_STOP_ERROR | UART_RX_STS_OVERRUN))
 571:./Generated_Source/PSoC5/UART.c ****                     {
 572:./Generated_Source/PSoC5/UART.c ****                         rxData = 0u;
 573:./Generated_Source/PSoC5/UART.c ****                     }    
 574:./Generated_Source/PSoC5/UART.c ****                 }
 575:./Generated_Source/PSoC5/UART.c ****             }
 576:./Generated_Source/PSoC5/UART.c **** 
 577:./Generated_Source/PSoC5/UART.c ****             /* Enable Rx interrupt. */
 578:./Generated_Source/PSoC5/UART.c ****             #if(UART_RX_INTERRUPT_ENABLED)
 579:./Generated_Source/PSoC5/UART.c ****                 UART_EnableRxInt();
 580:./Generated_Source/PSoC5/UART.c ****             #endif /* UART_RX_INTERRUPT_ENABLED */
 581:./Generated_Source/PSoC5/UART.c **** 
 582:./Generated_Source/PSoC5/UART.c ****         #else /* UART_RXBUFFERSIZE > UART_FIFO_LENGTH */
 583:./Generated_Source/PSoC5/UART.c **** 
 584:./Generated_Source/PSoC5/UART.c ****             rxStatus =UART_RXSTATUS_REG;
 585:./Generated_Source/PSoC5/UART.c ****             if(rxStatus & UART_RX_STS_FIFO_NOTEMPTY)
 586:./Generated_Source/PSoC5/UART.c ****             {   /* Read received data from FIFO*/
 587:./Generated_Source/PSoC5/UART.c ****                 rxData = UART_RXDATA_REG;
 588:./Generated_Source/PSoC5/UART.c ****                 /*Check status on error*/
 589:./Generated_Source/PSoC5/UART.c ****                 if(rxStatus & (UART_RX_STS_BREAK | UART_RX_STS_PAR_ERROR | \
 590:./Generated_Source/PSoC5/UART.c ****                                UART_RX_STS_STOP_ERROR | UART_RX_STS_OVERRUN))
 591:./Generated_Source/PSoC5/UART.c ****                 {
 592:./Generated_Source/PSoC5/UART.c ****                     rxData = 0u;
 593:./Generated_Source/PSoC5/UART.c ****                 }
 594:./Generated_Source/PSoC5/UART.c ****             }
 595:./Generated_Source/PSoC5/UART.c ****         #endif /* UART_RXBUFFERSIZE > UART_FIFO_LENGTH */
 596:./Generated_Source/PSoC5/UART.c **** 
 597:./Generated_Source/PSoC5/UART.c ****         return(rxData);
 598:./Generated_Source/PSoC5/UART.c ****     }
 599:./Generated_Source/PSoC5/UART.c **** 
 600:./Generated_Source/PSoC5/UART.c **** 
 601:./Generated_Source/PSoC5/UART.c ****     /*******************************************************************************
 602:./Generated_Source/PSoC5/UART.c ****     * Function Name: UART_GetByte
 603:./Generated_Source/PSoC5/UART.c ****     ********************************************************************************
 604:./Generated_Source/PSoC5/UART.c ****     *
 605:./Generated_Source/PSoC5/UART.c ****     * Summary:
 606:./Generated_Source/PSoC5/UART.c ****     *  Grab the next available byte of data from the recieve FIFO
 607:./Generated_Source/PSoC5/UART.c ****     *
 608:./Generated_Source/PSoC5/UART.c ****     * Parameters:
 609:./Generated_Source/PSoC5/UART.c ****     *  None.
 610:./Generated_Source/PSoC5/UART.c ****     *
 611:./Generated_Source/PSoC5/UART.c ****     * Return:
ARM GAS  C:\Users\CHARLI~1\AppData\Local\Temp\ccl7kX1M.s 			page 17


 612:./Generated_Source/PSoC5/UART.c ****     *  MSB contains Status Register and LSB contains UART RX data
 613:./Generated_Source/PSoC5/UART.c ****     *
 614:./Generated_Source/PSoC5/UART.c ****     * Reentrant:
 615:./Generated_Source/PSoC5/UART.c ****     *  No.
 616:./Generated_Source/PSoC5/UART.c ****     *
 617:./Generated_Source/PSoC5/UART.c ****     *******************************************************************************/
 618:./Generated_Source/PSoC5/UART.c ****     uint16 UART_GetByte(void)
 619:./Generated_Source/PSoC5/UART.c ****     {
 620:./Generated_Source/PSoC5/UART.c ****         return ( ((uint16)UART_ReadRxStatus() << 8u) | UART_ReadRxData() );
 621:./Generated_Source/PSoC5/UART.c ****     }
 622:./Generated_Source/PSoC5/UART.c **** 
 623:./Generated_Source/PSoC5/UART.c **** 
 624:./Generated_Source/PSoC5/UART.c ****     /*******************************************************************************
 625:./Generated_Source/PSoC5/UART.c ****     * Function Name: UART_GetRxBufferSize
 626:./Generated_Source/PSoC5/UART.c ****     ********************************************************************************
 627:./Generated_Source/PSoC5/UART.c ****     *
 628:./Generated_Source/PSoC5/UART.c ****     * Summary:
 629:./Generated_Source/PSoC5/UART.c ****     *  Determine the amount of bytes left in the RX buffer and return the count in
 630:./Generated_Source/PSoC5/UART.c ****     *  bytes
 631:./Generated_Source/PSoC5/UART.c ****     *
 632:./Generated_Source/PSoC5/UART.c ****     * Parameters:
 633:./Generated_Source/PSoC5/UART.c ****     *  None.
 634:./Generated_Source/PSoC5/UART.c ****     *
 635:./Generated_Source/PSoC5/UART.c ****     * Return:
 636:./Generated_Source/PSoC5/UART.c ****     *  uint8: Integer count of the number of bytes left 
 637:./Generated_Source/PSoC5/UART.c ****     *  in the RX buffer
 638:./Generated_Source/PSoC5/UART.c ****     *
 639:./Generated_Source/PSoC5/UART.c ****     * Global Variables:
 640:./Generated_Source/PSoC5/UART.c ****     *  UART_rxBufferWrite - used to calculate left bytes. 
 641:./Generated_Source/PSoC5/UART.c ****     *  UART_rxBufferRead - used to calculate left bytes.
 642:./Generated_Source/PSoC5/UART.c ****     *  UART_rxBufferLoopDetect - checked to decide left bytes amount. 
 643:./Generated_Source/PSoC5/UART.c ****     *
 644:./Generated_Source/PSoC5/UART.c ****     * Reentrant:
 645:./Generated_Source/PSoC5/UART.c ****     *  No.
 646:./Generated_Source/PSoC5/UART.c ****     *
 647:./Generated_Source/PSoC5/UART.c ****     * Theory:
 648:./Generated_Source/PSoC5/UART.c ****     *  Allows the user to find out how full the RX Buffer is.
 649:./Generated_Source/PSoC5/UART.c ****     *
 650:./Generated_Source/PSoC5/UART.c ****     *******************************************************************************/
 651:./Generated_Source/PSoC5/UART.c ****     uint8 UART_GetRxBufferSize(void)
 652:./Generated_Source/PSoC5/UART.c ****     {
 653:./Generated_Source/PSoC5/UART.c ****         uint8 size;
 654:./Generated_Source/PSoC5/UART.c **** 
 655:./Generated_Source/PSoC5/UART.c ****         #if(UART_RXBUFFERSIZE > UART_FIFO_LENGTH)
 656:./Generated_Source/PSoC5/UART.c **** 
 657:./Generated_Source/PSoC5/UART.c ****             /* Disable Rx interrupt. */
 658:./Generated_Source/PSoC5/UART.c ****             /* Protect variables that could change on interrupt. */
 659:./Generated_Source/PSoC5/UART.c ****             #if(UART_RX_INTERRUPT_ENABLED)
 660:./Generated_Source/PSoC5/UART.c ****                 UART_DisableRxInt();
 661:./Generated_Source/PSoC5/UART.c ****             #endif /* UART_RX_INTERRUPT_ENABLED */
 662:./Generated_Source/PSoC5/UART.c **** 
 663:./Generated_Source/PSoC5/UART.c ****             if(UART_rxBufferRead == UART_rxBufferWrite)
 664:./Generated_Source/PSoC5/UART.c ****             {
 665:./Generated_Source/PSoC5/UART.c ****                 if(UART_rxBufferLoopDetect > 0u)
 666:./Generated_Source/PSoC5/UART.c ****                 {
 667:./Generated_Source/PSoC5/UART.c ****                     size = UART_RXBUFFERSIZE;
 668:./Generated_Source/PSoC5/UART.c ****                 }
ARM GAS  C:\Users\CHARLI~1\AppData\Local\Temp\ccl7kX1M.s 			page 18


 669:./Generated_Source/PSoC5/UART.c ****                 else
 670:./Generated_Source/PSoC5/UART.c ****                 {
 671:./Generated_Source/PSoC5/UART.c ****                     size = 0u;
 672:./Generated_Source/PSoC5/UART.c ****                 }
 673:./Generated_Source/PSoC5/UART.c ****             }
 674:./Generated_Source/PSoC5/UART.c ****             else if(UART_rxBufferRead < UART_rxBufferWrite)
 675:./Generated_Source/PSoC5/UART.c ****             {
 676:./Generated_Source/PSoC5/UART.c ****                 size = (UART_rxBufferWrite - UART_rxBufferRead);
 677:./Generated_Source/PSoC5/UART.c ****             }
 678:./Generated_Source/PSoC5/UART.c ****             else
 679:./Generated_Source/PSoC5/UART.c ****             {
 680:./Generated_Source/PSoC5/UART.c ****                 size = (UART_RXBUFFERSIZE - UART_rxBufferRead) + UART_rxBufferWrite;
 681:./Generated_Source/PSoC5/UART.c ****             }
 682:./Generated_Source/PSoC5/UART.c **** 
 683:./Generated_Source/PSoC5/UART.c ****             /* Enable Rx interrupt. */
 684:./Generated_Source/PSoC5/UART.c ****             #if(UART_RX_INTERRUPT_ENABLED)
 685:./Generated_Source/PSoC5/UART.c ****                 UART_EnableRxInt();
 686:./Generated_Source/PSoC5/UART.c ****             #endif /* End UART_RX_INTERRUPT_ENABLED */
 687:./Generated_Source/PSoC5/UART.c **** 
 688:./Generated_Source/PSoC5/UART.c ****         #else /* UART_RXBUFFERSIZE > UART_FIFO_LENGTH */
 689:./Generated_Source/PSoC5/UART.c **** 
 690:./Generated_Source/PSoC5/UART.c ****             /* We can only know if there is data in the fifo. */
 691:./Generated_Source/PSoC5/UART.c ****             size = (UART_RXSTATUS_REG & UART_RX_STS_FIFO_NOTEMPTY) ? 1u : 0u;
 692:./Generated_Source/PSoC5/UART.c **** 
 693:./Generated_Source/PSoC5/UART.c ****         #endif /* End UART_RXBUFFERSIZE > UART_FIFO_LENGTH */
 694:./Generated_Source/PSoC5/UART.c **** 
 695:./Generated_Source/PSoC5/UART.c ****         return(size);
 696:./Generated_Source/PSoC5/UART.c ****     }
 697:./Generated_Source/PSoC5/UART.c **** 
 698:./Generated_Source/PSoC5/UART.c **** 
 699:./Generated_Source/PSoC5/UART.c ****     /*******************************************************************************
 700:./Generated_Source/PSoC5/UART.c ****     * Function Name: UART_ClearRxBuffer
 701:./Generated_Source/PSoC5/UART.c ****     ********************************************************************************
 702:./Generated_Source/PSoC5/UART.c ****     *
 703:./Generated_Source/PSoC5/UART.c ****     * Summary:
 704:./Generated_Source/PSoC5/UART.c ****     *  Clear the RX RAM buffer by setting the read and write pointers both to zero.
 705:./Generated_Source/PSoC5/UART.c ****     *
 706:./Generated_Source/PSoC5/UART.c ****     * Parameters:
 707:./Generated_Source/PSoC5/UART.c ****     *  None.
 708:./Generated_Source/PSoC5/UART.c ****     *
 709:./Generated_Source/PSoC5/UART.c ****     * Return:
 710:./Generated_Source/PSoC5/UART.c ****     *  None.
 711:./Generated_Source/PSoC5/UART.c ****     *
 712:./Generated_Source/PSoC5/UART.c ****     * Global Variables:
 713:./Generated_Source/PSoC5/UART.c ****     *  UART_rxBufferWrite - cleared to zero. 
 714:./Generated_Source/PSoC5/UART.c ****     *  UART_rxBufferRead - cleared to zero.
 715:./Generated_Source/PSoC5/UART.c ****     *  UART_rxBufferLoopDetect - cleared to zero. 
 716:./Generated_Source/PSoC5/UART.c ****     *  UART_rxBufferOverflow - cleared to zero. 
 717:./Generated_Source/PSoC5/UART.c ****     *
 718:./Generated_Source/PSoC5/UART.c ****     * Reentrant:
 719:./Generated_Source/PSoC5/UART.c ****     *  No.
 720:./Generated_Source/PSoC5/UART.c ****     *
 721:./Generated_Source/PSoC5/UART.c ****     * Theory:
 722:./Generated_Source/PSoC5/UART.c ****     *  Setting the pointers to zero makes the system believe there is no data to 
 723:./Generated_Source/PSoC5/UART.c ****     *  read and writing will resume at address 0 overwriting any data that may 
 724:./Generated_Source/PSoC5/UART.c ****     *  have remained in the RAM.
 725:./Generated_Source/PSoC5/UART.c ****     *
ARM GAS  C:\Users\CHARLI~1\AppData\Local\Temp\ccl7kX1M.s 			page 19


 726:./Generated_Source/PSoC5/UART.c ****     * Side Effects:
 727:./Generated_Source/PSoC5/UART.c ****     *  Any received data not read from the RAM buffer will be lost when overwritten.
 728:./Generated_Source/PSoC5/UART.c ****     *******************************************************************************/
 729:./Generated_Source/PSoC5/UART.c ****     void UART_ClearRxBuffer(void)
 730:./Generated_Source/PSoC5/UART.c ****     {
 731:./Generated_Source/PSoC5/UART.c ****         #if(UART_RXBUFFERSIZE > UART_FIFO_LENGTH)
 732:./Generated_Source/PSoC5/UART.c ****             /* Disable Rx interrupt. */
 733:./Generated_Source/PSoC5/UART.c ****             /* Protect variables that could change on interrupt. */
 734:./Generated_Source/PSoC5/UART.c ****             #if(UART_RX_INTERRUPT_ENABLED)
 735:./Generated_Source/PSoC5/UART.c ****                 UART_DisableRxInt();
 736:./Generated_Source/PSoC5/UART.c ****             #endif /* End UART_RX_INTERRUPT_ENABLED */
 737:./Generated_Source/PSoC5/UART.c **** 
 738:./Generated_Source/PSoC5/UART.c ****             UART_rxBufferRead = 0u;
 739:./Generated_Source/PSoC5/UART.c ****             UART_rxBufferWrite = 0u;
 740:./Generated_Source/PSoC5/UART.c ****             UART_rxBufferLoopDetect = 0u;
 741:./Generated_Source/PSoC5/UART.c ****             UART_rxBufferOverflow = 0u;
 742:./Generated_Source/PSoC5/UART.c **** 
 743:./Generated_Source/PSoC5/UART.c ****             /* Enable Rx interrupt. */
 744:./Generated_Source/PSoC5/UART.c ****             #if(UART_RX_INTERRUPT_ENABLED)
 745:./Generated_Source/PSoC5/UART.c ****                 UART_EnableRxInt();
 746:./Generated_Source/PSoC5/UART.c ****             #endif /* End UART_RX_INTERRUPT_ENABLED */
 747:./Generated_Source/PSoC5/UART.c ****         #endif /* End UART_RXBUFFERSIZE > UART_FIFO_LENGTH */
 748:./Generated_Source/PSoC5/UART.c ****     }
 749:./Generated_Source/PSoC5/UART.c **** 
 750:./Generated_Source/PSoC5/UART.c **** 
 751:./Generated_Source/PSoC5/UART.c ****     /*******************************************************************************
 752:./Generated_Source/PSoC5/UART.c ****     * Function Name: UART_SetRxAddressMode
 753:./Generated_Source/PSoC5/UART.c ****     ********************************************************************************
 754:./Generated_Source/PSoC5/UART.c ****     *
 755:./Generated_Source/PSoC5/UART.c ****     * Summary:
 756:./Generated_Source/PSoC5/UART.c ****     *  Set the receive addressing mode
 757:./Generated_Source/PSoC5/UART.c ****     *
 758:./Generated_Source/PSoC5/UART.c ****     * Parameters:
 759:./Generated_Source/PSoC5/UART.c ****     *  addressMode: Use one of the Enumerated Types listed below
 760:./Generated_Source/PSoC5/UART.c ****     *              #define UART__B_UART__AM_SW_BYTE_BYTE 1
 761:./Generated_Source/PSoC5/UART.c **** #define UART__B_UART__AM_SW_DETECT_TO_BUFFER 2
 762:./Generated_Source/PSoC5/UART.c **** #define UART__B_UART__AM_HW_BYTE_BY_BYTE 3
 763:./Generated_Source/PSoC5/UART.c **** #define UART__B_UART__AM_HW_DETECT_TO_BUFFER 4
 764:./Generated_Source/PSoC5/UART.c **** #define UART__B_UART__AM_NONE 0
 765:./Generated_Source/PSoC5/UART.c **** 
 766:./Generated_Source/PSoC5/UART.c ****     *
 767:./Generated_Source/PSoC5/UART.c ****     * Return:
 768:./Generated_Source/PSoC5/UART.c ****     *  None.
 769:./Generated_Source/PSoC5/UART.c ****     *
 770:./Generated_Source/PSoC5/UART.c ****     *******************************************************************************/
 771:./Generated_Source/PSoC5/UART.c ****     void UART_SetRxAddressMode(uint8 addressMode)  
 772:./Generated_Source/PSoC5/UART.c ****     {
 773:./Generated_Source/PSoC5/UART.c ****         #if(UART_RXHW_ADDRESS_ENABLED)
 774:./Generated_Source/PSoC5/UART.c ****             #if(UART_CONTROL_REG_REMOVED)
 775:./Generated_Source/PSoC5/UART.c ****                 addressMode = addressMode;
 776:./Generated_Source/PSoC5/UART.c ****             #else /* UART_CONTROL_REG_REMOVED */
 777:./Generated_Source/PSoC5/UART.c ****                 uint8 tmpCtrl = 0u;
 778:./Generated_Source/PSoC5/UART.c ****                 tmpCtrl = UART_CONTROL_REG & ~UART_CTRL_RXADDR_MODE_MASK;
 779:./Generated_Source/PSoC5/UART.c ****                 tmpCtrl |= ((addressMode << UART_CTRL_RXADDR_MODE0_SHIFT) & \
 780:./Generated_Source/PSoC5/UART.c ****                            UART_CTRL_RXADDR_MODE_MASK);
 781:./Generated_Source/PSoC5/UART.c ****                 UART_CONTROL_REG = tmpCtrl;
 782:./Generated_Source/PSoC5/UART.c ****             #endif /* End UART_CONTROL_REG_REMOVED */
ARM GAS  C:\Users\CHARLI~1\AppData\Local\Temp\ccl7kX1M.s 			page 20


 783:./Generated_Source/PSoC5/UART.c ****         #else /* UART_RXHW_ADDRESS_ENABLED */
 784:./Generated_Source/PSoC5/UART.c ****             addressMode = addressMode;
 785:./Generated_Source/PSoC5/UART.c ****         #endif /* End UART_RXHW_ADDRESS_ENABLED */
 786:./Generated_Source/PSoC5/UART.c ****     }
 787:./Generated_Source/PSoC5/UART.c **** 
 788:./Generated_Source/PSoC5/UART.c **** 
 789:./Generated_Source/PSoC5/UART.c ****     /*******************************************************************************
 790:./Generated_Source/PSoC5/UART.c ****     * Function Name: UART_SetRxAddress1
 791:./Generated_Source/PSoC5/UART.c ****     ********************************************************************************
 792:./Generated_Source/PSoC5/UART.c ****     *
 793:./Generated_Source/PSoC5/UART.c ****     * Summary:
 794:./Generated_Source/PSoC5/UART.c ****     *  Set the first hardware address compare value
 795:./Generated_Source/PSoC5/UART.c ****     *
 796:./Generated_Source/PSoC5/UART.c ****     * Parameters:
 797:./Generated_Source/PSoC5/UART.c ****     *  address
 798:./Generated_Source/PSoC5/UART.c ****     *
 799:./Generated_Source/PSoC5/UART.c ****     * Return:
 800:./Generated_Source/PSoC5/UART.c ****     *  None.
 801:./Generated_Source/PSoC5/UART.c ****     *
 802:./Generated_Source/PSoC5/UART.c ****     *******************************************************************************/
 803:./Generated_Source/PSoC5/UART.c ****     void UART_SetRxAddress1(uint8 address) 
 804:./Generated_Source/PSoC5/UART.c **** 
 805:./Generated_Source/PSoC5/UART.c ****     {
 806:./Generated_Source/PSoC5/UART.c ****         UART_RXADDRESS1_REG = address;
 807:./Generated_Source/PSoC5/UART.c ****     }
 808:./Generated_Source/PSoC5/UART.c **** 
 809:./Generated_Source/PSoC5/UART.c **** 
 810:./Generated_Source/PSoC5/UART.c ****     /*******************************************************************************
 811:./Generated_Source/PSoC5/UART.c ****     * Function Name: UART_SetRxAddress2
 812:./Generated_Source/PSoC5/UART.c ****     ********************************************************************************
 813:./Generated_Source/PSoC5/UART.c ****     *
 814:./Generated_Source/PSoC5/UART.c ****     * Summary:
 815:./Generated_Source/PSoC5/UART.c ****     *  Set the second hardware address compare value
 816:./Generated_Source/PSoC5/UART.c ****     *
 817:./Generated_Source/PSoC5/UART.c ****     * Parameters:
 818:./Generated_Source/PSoC5/UART.c ****     *  address
 819:./Generated_Source/PSoC5/UART.c ****     *
 820:./Generated_Source/PSoC5/UART.c ****     * Return:
 821:./Generated_Source/PSoC5/UART.c ****     *  None.
 822:./Generated_Source/PSoC5/UART.c ****     *
 823:./Generated_Source/PSoC5/UART.c ****     *******************************************************************************/
 824:./Generated_Source/PSoC5/UART.c ****     void UART_SetRxAddress2(uint8 address) 
 825:./Generated_Source/PSoC5/UART.c ****     {
 826:./Generated_Source/PSoC5/UART.c ****         UART_RXADDRESS2_REG = address;
 827:./Generated_Source/PSoC5/UART.c ****     }
 828:./Generated_Source/PSoC5/UART.c **** 
 829:./Generated_Source/PSoC5/UART.c **** #endif  /* UART_RX_ENABLED || UART_HD_ENABLED*/
 830:./Generated_Source/PSoC5/UART.c **** 
 831:./Generated_Source/PSoC5/UART.c **** 
 832:./Generated_Source/PSoC5/UART.c **** #if( (UART_TX_ENABLED) || (UART_HD_ENABLED) )
 833:./Generated_Source/PSoC5/UART.c **** 
 834:./Generated_Source/PSoC5/UART.c ****     #if(UART_TX_INTERRUPT_ENABLED)
 835:./Generated_Source/PSoC5/UART.c **** 
 836:./Generated_Source/PSoC5/UART.c ****         /*******************************************************************************
 837:./Generated_Source/PSoC5/UART.c ****         * Function Name: UART_EnableTxInt
 838:./Generated_Source/PSoC5/UART.c ****         ********************************************************************************
 839:./Generated_Source/PSoC5/UART.c ****         *
ARM GAS  C:\Users\CHARLI~1\AppData\Local\Temp\ccl7kX1M.s 			page 21


 840:./Generated_Source/PSoC5/UART.c ****         * Summary:
 841:./Generated_Source/PSoC5/UART.c ****         *  Enable TX interrupt generation
 842:./Generated_Source/PSoC5/UART.c ****         *
 843:./Generated_Source/PSoC5/UART.c ****         * Parameters:
 844:./Generated_Source/PSoC5/UART.c ****         *  None.
 845:./Generated_Source/PSoC5/UART.c ****         *
 846:./Generated_Source/PSoC5/UART.c ****         * Return:
 847:./Generated_Source/PSoC5/UART.c ****         *  None.
 848:./Generated_Source/PSoC5/UART.c ****         *
 849:./Generated_Source/PSoC5/UART.c ****         * Theory:
 850:./Generated_Source/PSoC5/UART.c ****         *  Enable the interrupt output -or- the interrupt component itself
 851:./Generated_Source/PSoC5/UART.c ****         *
 852:./Generated_Source/PSoC5/UART.c ****         *******************************************************************************/
 853:./Generated_Source/PSoC5/UART.c ****         void UART_EnableTxInt(void) 
 854:./Generated_Source/PSoC5/UART.c ****         {
 855:./Generated_Source/PSoC5/UART.c ****             CyIntEnable(UART_TX_VECT_NUM);
 856:./Generated_Source/PSoC5/UART.c ****         }
 857:./Generated_Source/PSoC5/UART.c **** 
 858:./Generated_Source/PSoC5/UART.c **** 
 859:./Generated_Source/PSoC5/UART.c ****         /*******************************************************************************
 860:./Generated_Source/PSoC5/UART.c ****         * Function Name: UART_DisableTxInt
 861:./Generated_Source/PSoC5/UART.c ****         ********************************************************************************
 862:./Generated_Source/PSoC5/UART.c ****         *
 863:./Generated_Source/PSoC5/UART.c ****         * Summary:
 864:./Generated_Source/PSoC5/UART.c ****         *  Disable TX interrupt generation
 865:./Generated_Source/PSoC5/UART.c ****         *
 866:./Generated_Source/PSoC5/UART.c ****         * Parameters:
 867:./Generated_Source/PSoC5/UART.c ****         *  None.
 868:./Generated_Source/PSoC5/UART.c ****         *
 869:./Generated_Source/PSoC5/UART.c ****         * Return:
 870:./Generated_Source/PSoC5/UART.c ****         *  None.
 871:./Generated_Source/PSoC5/UART.c ****         *
 872:./Generated_Source/PSoC5/UART.c ****         * Theory:
 873:./Generated_Source/PSoC5/UART.c ****         *  Disable the interrupt output -or- the interrupt component itself
 874:./Generated_Source/PSoC5/UART.c ****         *
 875:./Generated_Source/PSoC5/UART.c ****         *******************************************************************************/
 876:./Generated_Source/PSoC5/UART.c ****         void UART_DisableTxInt(void) 
 877:./Generated_Source/PSoC5/UART.c ****         {
 878:./Generated_Source/PSoC5/UART.c ****             CyIntDisable(UART_TX_VECT_NUM);
 879:./Generated_Source/PSoC5/UART.c ****         }
 880:./Generated_Source/PSoC5/UART.c **** 
 881:./Generated_Source/PSoC5/UART.c ****     #endif /* UART_TX_INTERRUPT_ENABLED */
 882:./Generated_Source/PSoC5/UART.c **** 
 883:./Generated_Source/PSoC5/UART.c **** 
 884:./Generated_Source/PSoC5/UART.c ****     /*******************************************************************************
 885:./Generated_Source/PSoC5/UART.c ****     * Function Name: UART_SetTxInterruptMode
 886:./Generated_Source/PSoC5/UART.c ****     ********************************************************************************
 887:./Generated_Source/PSoC5/UART.c ****     *
 888:./Generated_Source/PSoC5/UART.c ****     * Summary:
 889:./Generated_Source/PSoC5/UART.c ****     *  Configure which status bits trigger an interrupt event
 890:./Generated_Source/PSoC5/UART.c ****     *
 891:./Generated_Source/PSoC5/UART.c ****     * Parameters:
 892:./Generated_Source/PSoC5/UART.c ****     *  intSrc: An or'd combination of the desired status bit masks (defined in
 893:./Generated_Source/PSoC5/UART.c ****     *          the header file)
 894:./Generated_Source/PSoC5/UART.c ****     *
 895:./Generated_Source/PSoC5/UART.c ****     * Return:
 896:./Generated_Source/PSoC5/UART.c ****     *  None.
ARM GAS  C:\Users\CHARLI~1\AppData\Local\Temp\ccl7kX1M.s 			page 22


 897:./Generated_Source/PSoC5/UART.c ****     *
 898:./Generated_Source/PSoC5/UART.c ****     * Theory:
 899:./Generated_Source/PSoC5/UART.c ****     *  Enables the output of specific status bits to the interrupt controller
 900:./Generated_Source/PSoC5/UART.c ****     *
 901:./Generated_Source/PSoC5/UART.c ****     *******************************************************************************/
 902:./Generated_Source/PSoC5/UART.c ****     void UART_SetTxInterruptMode(uint8 intSrc) 
 903:./Generated_Source/PSoC5/UART.c ****     {
 298              		.loc 1 903 0
 299              		.cfi_startproc
 300              		@ args = 0, pretend = 0, frame = 8
 301              		@ frame_needed = 1, uses_anonymous_args = 0
 302              		@ link register save eliminated.
 303 0000 80B4     		push	{r7}
 304              	.LCFI15:
 305              		.cfi_def_cfa_offset 4
 306 0002 83B0     		sub	sp, sp, #12
 307              	.LCFI16:
 308              		.cfi_def_cfa_offset 16
 309 0004 00AF     		add	r7, sp, #0
 310              		.cfi_offset 7, -4
 311              	.LCFI17:
 312              		.cfi_def_cfa_register 7
 313 0006 0346     		mov	r3, r0
 314 0008 FB71     		strb	r3, [r7, #7]
 904:./Generated_Source/PSoC5/UART.c ****         UART_TXSTATUS_MASK_REG = intSrc;
 315              		.loc 1 904 0
 316 000a 46F28443 		movw	r3, #:lower16:1073767556
 317 000e C4F20003 		movt	r3, #:upper16:1073767556
 318 0012 FA79     		ldrb	r2, [r7, #7]
 319 0014 1A70     		strb	r2, [r3, #0]
 905:./Generated_Source/PSoC5/UART.c ****     }
 320              		.loc 1 905 0
 321 0016 07F10C07 		add	r7, r7, #12
 322 001a BD46     		mov	sp, r7
 323 001c 80BC     		pop	{r7}
 324 001e 7047     		bx	lr
 325              		.cfi_endproc
 326              	.LFE6:
 327              		.size	UART_SetTxInterruptMode, .-UART_SetTxInterruptMode
 328              		.section	.text.UART_WriteTxData,"ax",%progbits
 329              		.align	2
 330              		.global	UART_WriteTxData
 331              		.thumb
 332              		.thumb_func
 333              		.type	UART_WriteTxData, %function
 334              	UART_WriteTxData:
 335              	.LFB7:
 906:./Generated_Source/PSoC5/UART.c **** 
 907:./Generated_Source/PSoC5/UART.c **** 
 908:./Generated_Source/PSoC5/UART.c ****     /*******************************************************************************
 909:./Generated_Source/PSoC5/UART.c ****     * Function Name: UART_WriteTxData
 910:./Generated_Source/PSoC5/UART.c ****     ********************************************************************************
 911:./Generated_Source/PSoC5/UART.c ****     *
 912:./Generated_Source/PSoC5/UART.c ****     * Summary:
 913:./Generated_Source/PSoC5/UART.c ****     *  Write a byte of data to the Transmit FIFO or TX buffer to be sent when the 
 914:./Generated_Source/PSoC5/UART.c ****     *  bus is available. WriteTxData sends a byte without checking for buffer room 
 915:./Generated_Source/PSoC5/UART.c ****     *  or status. It is up to the user to separately check status.    
ARM GAS  C:\Users\CHARLI~1\AppData\Local\Temp\ccl7kX1M.s 			page 23


 916:./Generated_Source/PSoC5/UART.c ****     *
 917:./Generated_Source/PSoC5/UART.c ****     * Parameters:
 918:./Generated_Source/PSoC5/UART.c ****     *  TXDataByte: byte of data to place in the transmit FIFO
 919:./Generated_Source/PSoC5/UART.c ****     *
 920:./Generated_Source/PSoC5/UART.c ****     * Return:
 921:./Generated_Source/PSoC5/UART.c ****     * void
 922:./Generated_Source/PSoC5/UART.c ****     *
 923:./Generated_Source/PSoC5/UART.c ****     * Global Variables:
 924:./Generated_Source/PSoC5/UART.c ****     *  UART_txBuffer - RAM buffer pointer for save data for transmission
 925:./Generated_Source/PSoC5/UART.c ****     *  UART_txBufferWrite - cyclic index for write to txBuffer, 
 926:./Generated_Source/PSoC5/UART.c ****     *    incremented after each byte saved to buffer.
 927:./Generated_Source/PSoC5/UART.c ****     *  UART_txBufferRead - cyclic index for read from txBuffer, 
 928:./Generated_Source/PSoC5/UART.c ****     *    checked to identify the condition to write to FIFO directly or to TX buffer
 929:./Generated_Source/PSoC5/UART.c ****     *  UART_initVar - checked to identify that the component has been  
 930:./Generated_Source/PSoC5/UART.c ****     *    initialized.
 931:./Generated_Source/PSoC5/UART.c ****     *
 932:./Generated_Source/PSoC5/UART.c ****     * Reentrant:
 933:./Generated_Source/PSoC5/UART.c ****     *  No.
 934:./Generated_Source/PSoC5/UART.c ****     *
 935:./Generated_Source/PSoC5/UART.c ****     *******************************************************************************/
 936:./Generated_Source/PSoC5/UART.c ****     void UART_WriteTxData(uint8 txDataByte)
 937:./Generated_Source/PSoC5/UART.c ****     {
 336              		.loc 1 937 0
 337              		.cfi_startproc
 338              		@ args = 0, pretend = 0, frame = 8
 339              		@ frame_needed = 1, uses_anonymous_args = 0
 340              		@ link register save eliminated.
 341 0000 80B4     		push	{r7}
 342              	.LCFI18:
 343              		.cfi_def_cfa_offset 4
 344 0002 83B0     		sub	sp, sp, #12
 345              	.LCFI19:
 346              		.cfi_def_cfa_offset 16
 347 0004 00AF     		add	r7, sp, #0
 348              		.cfi_offset 7, -4
 349              	.LCFI20:
 350              		.cfi_def_cfa_register 7
 351 0006 0346     		mov	r3, r0
 352 0008 FB71     		strb	r3, [r7, #7]
 938:./Generated_Source/PSoC5/UART.c ****         /* If not Initialized then skip this function*/
 939:./Generated_Source/PSoC5/UART.c ****         if(UART_initVar != 0u)
 353              		.loc 1 939 0
 354 000a 40F20003 		movw	r3, #:lower16:UART_initVar
 355 000e C0F20003 		movt	r3, #:upper16:UART_initVar
 356 0012 1B78     		ldrb	r3, [r3, #0]	@ zero_extendqisi2
 357 0014 002B     		cmp	r3, #0
 358 0016 05D0     		beq	.L18
 940:./Generated_Source/PSoC5/UART.c ****         {
 941:./Generated_Source/PSoC5/UART.c ****             #if(UART_TXBUFFERSIZE > UART_FIFO_LENGTH)
 942:./Generated_Source/PSoC5/UART.c **** 
 943:./Generated_Source/PSoC5/UART.c ****                 /* Disable Tx interrupt. */
 944:./Generated_Source/PSoC5/UART.c ****                 /* Protect variables that could change on interrupt. */
 945:./Generated_Source/PSoC5/UART.c ****                 #if(UART_TX_INTERRUPT_ENABLED)
 946:./Generated_Source/PSoC5/UART.c ****                     UART_DisableTxInt();
 947:./Generated_Source/PSoC5/UART.c ****                 #endif /* End UART_TX_INTERRUPT_ENABLED */
 948:./Generated_Source/PSoC5/UART.c **** 
 949:./Generated_Source/PSoC5/UART.c ****                 if( (UART_txBufferRead == UART_txBufferWrite) && \
ARM GAS  C:\Users\CHARLI~1\AppData\Local\Temp\ccl7kX1M.s 			page 24


 950:./Generated_Source/PSoC5/UART.c ****                    !(UART_TXSTATUS_REG & UART_TX_STS_FIFO_FULL) )
 951:./Generated_Source/PSoC5/UART.c ****                 {
 952:./Generated_Source/PSoC5/UART.c ****                     /* Add directly to the FIFO. */
 953:./Generated_Source/PSoC5/UART.c ****                     UART_TXDATA_REG = txDataByte;
 954:./Generated_Source/PSoC5/UART.c ****                 }
 955:./Generated_Source/PSoC5/UART.c ****                 else
 956:./Generated_Source/PSoC5/UART.c ****                 {
 957:./Generated_Source/PSoC5/UART.c ****                     if(UART_txBufferWrite >= UART_TXBUFFERSIZE)
 958:./Generated_Source/PSoC5/UART.c ****                     {
 959:./Generated_Source/PSoC5/UART.c ****                         UART_txBufferWrite = 0;
 960:./Generated_Source/PSoC5/UART.c ****                     }
 961:./Generated_Source/PSoC5/UART.c **** 
 962:./Generated_Source/PSoC5/UART.c ****                     UART_txBuffer[UART_txBufferWrite] = txDataByte;
 963:./Generated_Source/PSoC5/UART.c **** 
 964:./Generated_Source/PSoC5/UART.c ****                     /* Add to the software buffer. */
 965:./Generated_Source/PSoC5/UART.c ****                     UART_txBufferWrite++;
 966:./Generated_Source/PSoC5/UART.c **** 
 967:./Generated_Source/PSoC5/UART.c ****                 }
 968:./Generated_Source/PSoC5/UART.c **** 
 969:./Generated_Source/PSoC5/UART.c ****                 /* Enable Tx interrupt. */
 970:./Generated_Source/PSoC5/UART.c ****                 #if(UART_TX_INTERRUPT_ENABLED)
 971:./Generated_Source/PSoC5/UART.c ****                     UART_EnableTxInt();
 972:./Generated_Source/PSoC5/UART.c ****                 #endif /* End UART_TX_INTERRUPT_ENABLED */
 973:./Generated_Source/PSoC5/UART.c **** 
 974:./Generated_Source/PSoC5/UART.c ****             #else /* UART_TXBUFFERSIZE > UART_FIFO_LENGTH */
 975:./Generated_Source/PSoC5/UART.c **** 
 976:./Generated_Source/PSoC5/UART.c ****                 /* Add directly to the FIFO. */
 977:./Generated_Source/PSoC5/UART.c ****                 UART_TXDATA_REG = txDataByte;
 359              		.loc 1 977 0
 360 0018 46F24443 		movw	r3, #:lower16:1073767492
 361 001c C4F20003 		movt	r3, #:upper16:1073767492
 362 0020 FA79     		ldrb	r2, [r7, #7]
 363 0022 1A70     		strb	r2, [r3, #0]
 364              	.L18:
 978:./Generated_Source/PSoC5/UART.c **** 
 979:./Generated_Source/PSoC5/UART.c ****             #endif /* End UART_TXBUFFERSIZE > UART_FIFO_LENGTH */
 980:./Generated_Source/PSoC5/UART.c ****         }
 981:./Generated_Source/PSoC5/UART.c ****     }
 365              		.loc 1 981 0
 366 0024 07F10C07 		add	r7, r7, #12
 367 0028 BD46     		mov	sp, r7
 368 002a 80BC     		pop	{r7}
 369 002c 7047     		bx	lr
 370              		.cfi_endproc
 371              	.LFE7:
 372              		.size	UART_WriteTxData, .-UART_WriteTxData
 373 002e 00BF     		.section	.text.UART_ReadTxStatus,"ax",%progbits
 374              		.align	2
 375              		.global	UART_ReadTxStatus
 376              		.thumb
 377              		.thumb_func
 378              		.type	UART_ReadTxStatus, %function
 379              	UART_ReadTxStatus:
 380              	.LFB8:
 982:./Generated_Source/PSoC5/UART.c **** 
 983:./Generated_Source/PSoC5/UART.c **** 
 984:./Generated_Source/PSoC5/UART.c ****     /*******************************************************************************
ARM GAS  C:\Users\CHARLI~1\AppData\Local\Temp\ccl7kX1M.s 			page 25


 985:./Generated_Source/PSoC5/UART.c ****     * Function Name: UART_ReadTxStatus
 986:./Generated_Source/PSoC5/UART.c ****     ********************************************************************************
 987:./Generated_Source/PSoC5/UART.c ****     *
 988:./Generated_Source/PSoC5/UART.c ****     * Summary:
 989:./Generated_Source/PSoC5/UART.c ****     *  Read the status register for the component
 990:./Generated_Source/PSoC5/UART.c ****     *
 991:./Generated_Source/PSoC5/UART.c ****     * Parameters:
 992:./Generated_Source/PSoC5/UART.c ****     *  None.
 993:./Generated_Source/PSoC5/UART.c ****     *
 994:./Generated_Source/PSoC5/UART.c ****     * Return:
 995:./Generated_Source/PSoC5/UART.c ****     *  Contents of the status register
 996:./Generated_Source/PSoC5/UART.c ****     *
 997:./Generated_Source/PSoC5/UART.c ****     * Theory:
 998:./Generated_Source/PSoC5/UART.c ****     *  This function reads the status register which is clear on read. It is up to 
 999:./Generated_Source/PSoC5/UART.c ****     *  the user to handle all bits in this return value accordingly, even if the bit 
1000:./Generated_Source/PSoC5/UART.c ****     *  was not enabled as an interrupt source the event happened and must be handled
1001:./Generated_Source/PSoC5/UART.c ****     *  accordingly.    
1002:./Generated_Source/PSoC5/UART.c ****     *
1003:./Generated_Source/PSoC5/UART.c ****     *******************************************************************************/
1004:./Generated_Source/PSoC5/UART.c ****     uint8 UART_ReadTxStatus(void) 
1005:./Generated_Source/PSoC5/UART.c ****     {
 381              		.loc 1 1005 0
 382              		.cfi_startproc
 383              		@ args = 0, pretend = 0, frame = 0
 384              		@ frame_needed = 1, uses_anonymous_args = 0
 385              		@ link register save eliminated.
 386 0000 80B4     		push	{r7}
 387              	.LCFI21:
 388              		.cfi_def_cfa_offset 4
 389 0002 00AF     		add	r7, sp, #0
 390              		.cfi_offset 7, -4
 391              	.LCFI22:
 392              		.cfi_def_cfa_register 7
1006:./Generated_Source/PSoC5/UART.c ****         return(UART_TXSTATUS_REG);
 393              		.loc 1 1006 0
 394 0004 46F26443 		movw	r3, #:lower16:1073767524
 395 0008 C4F20003 		movt	r3, #:upper16:1073767524
 396 000c 1B78     		ldrb	r3, [r3, #0]
 397 000e DBB2     		uxtb	r3, r3
1007:./Generated_Source/PSoC5/UART.c ****     }
 398              		.loc 1 1007 0
 399 0010 1846     		mov	r0, r3
 400 0012 BD46     		mov	sp, r7
 401 0014 80BC     		pop	{r7}
 402 0016 7047     		bx	lr
 403              		.cfi_endproc
 404              	.LFE8:
 405              		.size	UART_ReadTxStatus, .-UART_ReadTxStatus
 406              		.section	.text.UART_PutChar,"ax",%progbits
 407              		.align	2
 408              		.global	UART_PutChar
 409              		.thumb
 410              		.thumb_func
 411              		.type	UART_PutChar, %function
 412              	UART_PutChar:
 413              	.LFB9:
1008:./Generated_Source/PSoC5/UART.c **** 
ARM GAS  C:\Users\CHARLI~1\AppData\Local\Temp\ccl7kX1M.s 			page 26


1009:./Generated_Source/PSoC5/UART.c **** 
1010:./Generated_Source/PSoC5/UART.c ****     /*******************************************************************************
1011:./Generated_Source/PSoC5/UART.c ****     * Function Name: UART_PutChar
1012:./Generated_Source/PSoC5/UART.c ****     ********************************************************************************
1013:./Generated_Source/PSoC5/UART.c ****     *
1014:./Generated_Source/PSoC5/UART.c ****     * Summary:
1015:./Generated_Source/PSoC5/UART.c ****     *  Wait to send byte until TX register or buffer has room.
1016:./Generated_Source/PSoC5/UART.c ****     *
1017:./Generated_Source/PSoC5/UART.c ****     * Parameters:
1018:./Generated_Source/PSoC5/UART.c ****     *  txDataByte: The 8-bit data value to send across the UART.
1019:./Generated_Source/PSoC5/UART.c ****     *
1020:./Generated_Source/PSoC5/UART.c ****     * Return:
1021:./Generated_Source/PSoC5/UART.c ****     *  None.
1022:./Generated_Source/PSoC5/UART.c ****     *
1023:./Generated_Source/PSoC5/UART.c ****     * Global Variables:
1024:./Generated_Source/PSoC5/UART.c ****     *  UART_txBuffer - RAM buffer pointer for save data for transmission
1025:./Generated_Source/PSoC5/UART.c ****     *  UART_txBufferWrite - cyclic index for write to txBuffer, 
1026:./Generated_Source/PSoC5/UART.c ****     *     checked to identify free space in txBuffer and incremented after each byte 
1027:./Generated_Source/PSoC5/UART.c ****     *     saved to buffer.
1028:./Generated_Source/PSoC5/UART.c ****     *  UART_txBufferRead - cyclic index for read from txBuffer, 
1029:./Generated_Source/PSoC5/UART.c ****     *     checked to identify free space in txBuffer.
1030:./Generated_Source/PSoC5/UART.c ****     *  UART_initVar - checked to identify that the component has been  
1031:./Generated_Source/PSoC5/UART.c ****     *     initialized.
1032:./Generated_Source/PSoC5/UART.c ****     *
1033:./Generated_Source/PSoC5/UART.c ****     * Reentrant:
1034:./Generated_Source/PSoC5/UART.c ****     *  No.
1035:./Generated_Source/PSoC5/UART.c ****     *
1036:./Generated_Source/PSoC5/UART.c ****     * Theory:
1037:./Generated_Source/PSoC5/UART.c ****     *  Allows the user to transmit any byte of data in a single transfer
1038:./Generated_Source/PSoC5/UART.c ****     *
1039:./Generated_Source/PSoC5/UART.c ****     *******************************************************************************/
1040:./Generated_Source/PSoC5/UART.c ****     void UART_PutChar(uint8 txDataByte)
1041:./Generated_Source/PSoC5/UART.c ****     {
 414              		.loc 1 1041 0
 415              		.cfi_startproc
 416              		@ args = 0, pretend = 0, frame = 8
 417              		@ frame_needed = 1, uses_anonymous_args = 0
 418              		@ link register save eliminated.
 419 0000 80B4     		push	{r7}
 420              	.LCFI23:
 421              		.cfi_def_cfa_offset 4
 422 0002 83B0     		sub	sp, sp, #12
 423              	.LCFI24:
 424              		.cfi_def_cfa_offset 16
 425 0004 00AF     		add	r7, sp, #0
 426              		.cfi_offset 7, -4
 427              	.LCFI25:
 428              		.cfi_def_cfa_register 7
 429 0006 0346     		mov	r3, r0
 430 0008 FB71     		strb	r3, [r7, #7]
 431              	.L22:
1042:./Generated_Source/PSoC5/UART.c ****             #if(UART_TXBUFFERSIZE > UART_FIFO_LENGTH)
1043:./Generated_Source/PSoC5/UART.c **** 
1044:./Generated_Source/PSoC5/UART.c ****                 /* Block if buffer is full, so we dont overwrite. */
1045:./Generated_Source/PSoC5/UART.c ****                 while( UART_txBufferWrite == (UART_txBufferRead - 1u) || \
1046:./Generated_Source/PSoC5/UART.c ****                     (uint8)(UART_txBufferWrite - UART_txBufferRead) ==
1047:./Generated_Source/PSoC5/UART.c ****                     (uint8)(UART_TXBUFFERSIZE - 1u) )
ARM GAS  C:\Users\CHARLI~1\AppData\Local\Temp\ccl7kX1M.s 			page 27


1048:./Generated_Source/PSoC5/UART.c ****                 {
1049:./Generated_Source/PSoC5/UART.c ****                     /* Software buffer is full. */
1050:./Generated_Source/PSoC5/UART.c ****                 }
1051:./Generated_Source/PSoC5/UART.c ****                 /* Disable Tx interrupt. */
1052:./Generated_Source/PSoC5/UART.c ****                 /* Protect variables that could change on interrupt. */
1053:./Generated_Source/PSoC5/UART.c ****                 #if(UART_TX_INTERRUPT_ENABLED)
1054:./Generated_Source/PSoC5/UART.c ****                     UART_DisableTxInt();
1055:./Generated_Source/PSoC5/UART.c ****                 #endif /* End UART_TX_INTERRUPT_ENABLED */
1056:./Generated_Source/PSoC5/UART.c **** 
1057:./Generated_Source/PSoC5/UART.c ****                 if( (UART_txBufferRead == UART_txBufferWrite) && \
1058:./Generated_Source/PSoC5/UART.c ****                    !(UART_TXSTATUS_REG & UART_TX_STS_FIFO_FULL) )
1059:./Generated_Source/PSoC5/UART.c ****                 {
1060:./Generated_Source/PSoC5/UART.c ****                     /* Add directly to the FIFO. */
1061:./Generated_Source/PSoC5/UART.c ****                     UART_TXDATA_REG = txDataByte;
1062:./Generated_Source/PSoC5/UART.c ****                 }
1063:./Generated_Source/PSoC5/UART.c ****                 else
1064:./Generated_Source/PSoC5/UART.c ****                 {
1065:./Generated_Source/PSoC5/UART.c ****                     if(UART_txBufferWrite >= UART_TXBUFFERSIZE)
1066:./Generated_Source/PSoC5/UART.c ****                     {
1067:./Generated_Source/PSoC5/UART.c ****                         UART_txBufferWrite = 0;
1068:./Generated_Source/PSoC5/UART.c ****                     }
1069:./Generated_Source/PSoC5/UART.c **** 
1070:./Generated_Source/PSoC5/UART.c ****                     UART_txBuffer[UART_txBufferWrite] = txDataByte;
1071:./Generated_Source/PSoC5/UART.c **** 
1072:./Generated_Source/PSoC5/UART.c ****                     /* Add to the software buffer. */
1073:./Generated_Source/PSoC5/UART.c ****                     UART_txBufferWrite++;
1074:./Generated_Source/PSoC5/UART.c **** 
1075:./Generated_Source/PSoC5/UART.c ****                 }
1076:./Generated_Source/PSoC5/UART.c **** 
1077:./Generated_Source/PSoC5/UART.c ****                 /* Enable Rx interrupt. */
1078:./Generated_Source/PSoC5/UART.c ****                 #if(UART_TX_INTERRUPT_ENABLED)
1079:./Generated_Source/PSoC5/UART.c ****                     UART_EnableTxInt();
1080:./Generated_Source/PSoC5/UART.c ****                 #endif /* End UART_TX_INTERRUPT_ENABLED */
1081:./Generated_Source/PSoC5/UART.c **** 
1082:./Generated_Source/PSoC5/UART.c ****             #else /* UART_TXBUFFERSIZE > UART_FIFO_LENGTH */
1083:./Generated_Source/PSoC5/UART.c **** 
1084:./Generated_Source/PSoC5/UART.c ****                 /* Block if there isnt room. */
1085:./Generated_Source/PSoC5/UART.c ****                 while(UART_TXSTATUS_REG & UART_TX_STS_FIFO_FULL);
 432              		.loc 1 1085 0
 433 000a 46F26443 		movw	r3, #:lower16:1073767524
 434 000e C4F20003 		movt	r3, #:upper16:1073767524
 435 0012 1B78     		ldrb	r3, [r3, #0]
 436 0014 DBB2     		uxtb	r3, r3
 437 0016 03F00403 		and	r3, r3, #4
 438 001a 002B     		cmp	r3, #0
 439 001c F5D1     		bne	.L22
1086:./Generated_Source/PSoC5/UART.c **** 
1087:./Generated_Source/PSoC5/UART.c ****                 /* Add directly to the FIFO. */
1088:./Generated_Source/PSoC5/UART.c ****                 UART_TXDATA_REG = txDataByte;
 440              		.loc 1 1088 0
 441 001e 46F24443 		movw	r3, #:lower16:1073767492
 442 0022 C4F20003 		movt	r3, #:upper16:1073767492
 443 0026 FA79     		ldrb	r2, [r7, #7]
 444 0028 1A70     		strb	r2, [r3, #0]
1089:./Generated_Source/PSoC5/UART.c **** 
1090:./Generated_Source/PSoC5/UART.c ****             #endif /* End UART_TXBUFFERSIZE > UART_FIFO_LENGTH */
1091:./Generated_Source/PSoC5/UART.c ****     }
ARM GAS  C:\Users\CHARLI~1\AppData\Local\Temp\ccl7kX1M.s 			page 28


 445              		.loc 1 1091 0
 446 002a 07F10C07 		add	r7, r7, #12
 447 002e BD46     		mov	sp, r7
 448 0030 80BC     		pop	{r7}
 449 0032 7047     		bx	lr
 450              		.cfi_endproc
 451              	.LFE9:
 452              		.size	UART_PutChar, .-UART_PutChar
 453              		.section	.text.UART_PutString,"ax",%progbits
 454              		.align	2
 455              		.global	UART_PutString
 456              		.thumb
 457              		.thumb_func
 458              		.type	UART_PutString, %function
 459              	UART_PutString:
 460              	.LFB10:
1092:./Generated_Source/PSoC5/UART.c **** 
1093:./Generated_Source/PSoC5/UART.c **** 
1094:./Generated_Source/PSoC5/UART.c ****     /*******************************************************************************
1095:./Generated_Source/PSoC5/UART.c ****     * Function Name: UART_PutString
1096:./Generated_Source/PSoC5/UART.c ****     ********************************************************************************
1097:./Generated_Source/PSoC5/UART.c ****     *
1098:./Generated_Source/PSoC5/UART.c ****     * Summary:
1099:./Generated_Source/PSoC5/UART.c ****     *  Write a Sequence of bytes on the Transmit line. Data comes from RAM or ROM.
1100:./Generated_Source/PSoC5/UART.c ****     *
1101:./Generated_Source/PSoC5/UART.c ****     * Parameters:
1102:./Generated_Source/PSoC5/UART.c ****     *  string: uint8 pointer to character string of Data to Send.
1103:./Generated_Source/PSoC5/UART.c ****     *
1104:./Generated_Source/PSoC5/UART.c ****     * Return:
1105:./Generated_Source/PSoC5/UART.c ****     *  None.
1106:./Generated_Source/PSoC5/UART.c ****     *
1107:./Generated_Source/PSoC5/UART.c ****     * Global Variables:
1108:./Generated_Source/PSoC5/UART.c ****     *  UART_initVar - checked to identify that the component has been  
1109:./Generated_Source/PSoC5/UART.c ****     *     initialized.
1110:./Generated_Source/PSoC5/UART.c ****     *
1111:./Generated_Source/PSoC5/UART.c ****     * Reentrant:
1112:./Generated_Source/PSoC5/UART.c ****     *  No.
1113:./Generated_Source/PSoC5/UART.c ****     *
1114:./Generated_Source/PSoC5/UART.c ****     * Theory:
1115:./Generated_Source/PSoC5/UART.c ****     *  This function will block if there is not enough memory to place the whole 
1116:./Generated_Source/PSoC5/UART.c ****     *  string, it will block until the entire string has been written to the 
1117:./Generated_Source/PSoC5/UART.c ****     *  transmit buffer.
1118:./Generated_Source/PSoC5/UART.c ****     *
1119:./Generated_Source/PSoC5/UART.c ****     *******************************************************************************/
1120:./Generated_Source/PSoC5/UART.c ****     void UART_PutString(uint8* string)
1121:./Generated_Source/PSoC5/UART.c ****     {
 461              		.loc 1 1121 0
 462              		.cfi_startproc
 463              		@ args = 0, pretend = 0, frame = 8
 464              		@ frame_needed = 1, uses_anonymous_args = 0
 465 0000 80B5     		push	{r7, lr}
 466              	.LCFI26:
 467              		.cfi_def_cfa_offset 8
 468 0002 82B0     		sub	sp, sp, #8
 469              	.LCFI27:
 470              		.cfi_def_cfa_offset 16
 471 0004 00AF     		add	r7, sp, #0
ARM GAS  C:\Users\CHARLI~1\AppData\Local\Temp\ccl7kX1M.s 			page 29


 472              		.cfi_offset 14, -4
 473              		.cfi_offset 7, -8
 474              	.LCFI28:
 475              		.cfi_def_cfa_register 7
 476 0006 7860     		str	r0, [r7, #4]
1122:./Generated_Source/PSoC5/UART.c ****         /* If not Initialized then skip this function*/
1123:./Generated_Source/PSoC5/UART.c ****         if(UART_initVar != 0u)
 477              		.loc 1 1123 0
 478 0008 40F20003 		movw	r3, #:lower16:UART_initVar
 479 000c C0F20003 		movt	r3, #:upper16:UART_initVar
 480 0010 1B78     		ldrb	r3, [r3, #0]	@ zero_extendqisi2
 481 0012 002B     		cmp	r3, #0
 482 0014 0DD0     		beq	.L28
1124:./Generated_Source/PSoC5/UART.c ****         {
1125:./Generated_Source/PSoC5/UART.c ****             /* This is a blocking function, it will not exit until all data is sent*/
1126:./Generated_Source/PSoC5/UART.c ****             while(*string != 0u)
 483              		.loc 1 1126 0
 484 0016 08E0     		b	.L26
 485              	.L27:
1127:./Generated_Source/PSoC5/UART.c ****             {
1128:./Generated_Source/PSoC5/UART.c ****                 UART_PutChar(*string++);
 486              		.loc 1 1128 0
 487 0018 7B68     		ldr	r3, [r7, #4]
 488 001a 1B78     		ldrb	r3, [r3, #0]	@ zero_extendqisi2
 489 001c 7A68     		ldr	r2, [r7, #4]
 490 001e 02F10102 		add	r2, r2, #1
 491 0022 7A60     		str	r2, [r7, #4]
 492 0024 1846     		mov	r0, r3
 493 0026 FFF7FEFF 		bl	UART_PutChar
 494              	.L26:
 495              		.loc 1 1126 0
 496 002a 7B68     		ldr	r3, [r7, #4]
 497 002c 1B78     		ldrb	r3, [r3, #0]	@ zero_extendqisi2
 498 002e 002B     		cmp	r3, #0
 499 0030 F2D1     		bne	.L27
 500              	.L28:
1129:./Generated_Source/PSoC5/UART.c ****             }
1130:./Generated_Source/PSoC5/UART.c ****         }
1131:./Generated_Source/PSoC5/UART.c ****     }
 501              		.loc 1 1131 0
 502 0032 07F10807 		add	r7, r7, #8
 503 0036 BD46     		mov	sp, r7
 504 0038 80BD     		pop	{r7, pc}
 505              		.cfi_endproc
 506              	.LFE10:
 507              		.size	UART_PutString, .-UART_PutString
 508 003a 00BF     		.section	.text.UART_PutArray,"ax",%progbits
 509              		.align	2
 510              		.global	UART_PutArray
 511              		.thumb
 512              		.thumb_func
 513              		.type	UART_PutArray, %function
 514              	UART_PutArray:
 515              	.LFB11:
1132:./Generated_Source/PSoC5/UART.c **** 
1133:./Generated_Source/PSoC5/UART.c **** 
1134:./Generated_Source/PSoC5/UART.c ****     /*******************************************************************************
ARM GAS  C:\Users\CHARLI~1\AppData\Local\Temp\ccl7kX1M.s 			page 30


1135:./Generated_Source/PSoC5/UART.c ****     * Function Name: UART_PutArray
1136:./Generated_Source/PSoC5/UART.c ****     ********************************************************************************
1137:./Generated_Source/PSoC5/UART.c ****     *
1138:./Generated_Source/PSoC5/UART.c ****     * Summary:
1139:./Generated_Source/PSoC5/UART.c ****     *  Write a Sequence of bytes on the Transmit line. Data comes from RAM or ROM.
1140:./Generated_Source/PSoC5/UART.c ****     *
1141:./Generated_Source/PSoC5/UART.c ****     * Parameters:
1142:./Generated_Source/PSoC5/UART.c ****     *  string: Address of the memory array residing in RAM or ROM.
1143:./Generated_Source/PSoC5/UART.c ****     *  byteCount: Number of Bytes to be transmitted.
1144:./Generated_Source/PSoC5/UART.c ****     *
1145:./Generated_Source/PSoC5/UART.c ****     * Return:
1146:./Generated_Source/PSoC5/UART.c ****     *  None.
1147:./Generated_Source/PSoC5/UART.c ****     *
1148:./Generated_Source/PSoC5/UART.c ****     * Global Variables:
1149:./Generated_Source/PSoC5/UART.c ****     *  UART_initVar - checked to identify that the component has been  
1150:./Generated_Source/PSoC5/UART.c ****     *     initialized.
1151:./Generated_Source/PSoC5/UART.c ****     *
1152:./Generated_Source/PSoC5/UART.c ****     * Reentrant:
1153:./Generated_Source/PSoC5/UART.c ****     *  No.
1154:./Generated_Source/PSoC5/UART.c ****     *
1155:./Generated_Source/PSoC5/UART.c ****     *******************************************************************************/
1156:./Generated_Source/PSoC5/UART.c ****     void UART_PutArray(uint8* string, uint8 byteCount)
1157:./Generated_Source/PSoC5/UART.c ****     {
 516              		.loc 1 1157 0
 517              		.cfi_startproc
 518              		@ args = 0, pretend = 0, frame = 8
 519              		@ frame_needed = 1, uses_anonymous_args = 0
 520 0000 80B5     		push	{r7, lr}
 521              	.LCFI29:
 522              		.cfi_def_cfa_offset 8
 523 0002 82B0     		sub	sp, sp, #8
 524              	.LCFI30:
 525              		.cfi_def_cfa_offset 16
 526 0004 00AF     		add	r7, sp, #0
 527              		.cfi_offset 14, -4
 528              		.cfi_offset 7, -8
 529              	.LCFI31:
 530              		.cfi_def_cfa_register 7
 531 0006 7860     		str	r0, [r7, #4]
 532 0008 0B46     		mov	r3, r1
 533 000a FB70     		strb	r3, [r7, #3]
1158:./Generated_Source/PSoC5/UART.c ****         /* If not Initialized then skip this function*/
1159:./Generated_Source/PSoC5/UART.c ****         if(UART_initVar != 0u)
 534              		.loc 1 1159 0
 535 000c 40F20003 		movw	r3, #:lower16:UART_initVar
 536 0010 C0F20003 		movt	r3, #:upper16:UART_initVar
 537 0014 1B78     		ldrb	r3, [r3, #0]	@ zero_extendqisi2
 538 0016 002B     		cmp	r3, #0
 539 0018 10D0     		beq	.L33
1160:./Generated_Source/PSoC5/UART.c ****         {
1161:./Generated_Source/PSoC5/UART.c ****             while(byteCount > 0u)
 540              		.loc 1 1161 0
 541 001a 0CE0     		b	.L31
 542              	.L32:
1162:./Generated_Source/PSoC5/UART.c ****             {
1163:./Generated_Source/PSoC5/UART.c ****                 UART_PutChar(*string++);
 543              		.loc 1 1163 0
ARM GAS  C:\Users\CHARLI~1\AppData\Local\Temp\ccl7kX1M.s 			page 31


 544 001c 7B68     		ldr	r3, [r7, #4]
 545 001e 1B78     		ldrb	r3, [r3, #0]	@ zero_extendqisi2
 546 0020 7A68     		ldr	r2, [r7, #4]
 547 0022 02F10102 		add	r2, r2, #1
 548 0026 7A60     		str	r2, [r7, #4]
 549 0028 1846     		mov	r0, r3
 550 002a FFF7FEFF 		bl	UART_PutChar
1164:./Generated_Source/PSoC5/UART.c ****                 byteCount--;
 551              		.loc 1 1164 0
 552 002e FB78     		ldrb	r3, [r7, #3]
 553 0030 03F1FF33 		add	r3, r3, #-1
 554 0034 FB70     		strb	r3, [r7, #3]
 555              	.L31:
 556              		.loc 1 1161 0
 557 0036 FB78     		ldrb	r3, [r7, #3]	@ zero_extendqisi2
 558 0038 002B     		cmp	r3, #0
 559 003a EFD1     		bne	.L32
 560              	.L33:
1165:./Generated_Source/PSoC5/UART.c ****             }
1166:./Generated_Source/PSoC5/UART.c ****         }
1167:./Generated_Source/PSoC5/UART.c ****     }
 561              		.loc 1 1167 0
 562 003c 07F10807 		add	r7, r7, #8
 563 0040 BD46     		mov	sp, r7
 564 0042 80BD     		pop	{r7, pc}
 565              		.cfi_endproc
 566              	.LFE11:
 567              		.size	UART_PutArray, .-UART_PutArray
 568              		.section	.text.UART_PutCRLF,"ax",%progbits
 569              		.align	2
 570              		.global	UART_PutCRLF
 571              		.thumb
 572              		.thumb_func
 573              		.type	UART_PutCRLF, %function
 574              	UART_PutCRLF:
 575              	.LFB12:
1168:./Generated_Source/PSoC5/UART.c **** 
1169:./Generated_Source/PSoC5/UART.c **** 
1170:./Generated_Source/PSoC5/UART.c ****     /*******************************************************************************
1171:./Generated_Source/PSoC5/UART.c ****     * Function Name: UART_PutCRLF
1172:./Generated_Source/PSoC5/UART.c ****     ********************************************************************************
1173:./Generated_Source/PSoC5/UART.c ****     *
1174:./Generated_Source/PSoC5/UART.c ****     * Summary:
1175:./Generated_Source/PSoC5/UART.c ****     *  Write a character and then carriage return and line feed.
1176:./Generated_Source/PSoC5/UART.c ****     *
1177:./Generated_Source/PSoC5/UART.c ****     * Parameters:
1178:./Generated_Source/PSoC5/UART.c ****     *  txDataByte: uint8 Character to send.
1179:./Generated_Source/PSoC5/UART.c ****     *
1180:./Generated_Source/PSoC5/UART.c ****     * Return:
1181:./Generated_Source/PSoC5/UART.c ****     *  None.
1182:./Generated_Source/PSoC5/UART.c ****     *
1183:./Generated_Source/PSoC5/UART.c ****     * Global Variables:
1184:./Generated_Source/PSoC5/UART.c ****     *  UART_initVar - checked to identify that the component has been  
1185:./Generated_Source/PSoC5/UART.c ****     *     initialized.
1186:./Generated_Source/PSoC5/UART.c ****     *
1187:./Generated_Source/PSoC5/UART.c ****     * Reentrant:
1188:./Generated_Source/PSoC5/UART.c ****     *  No.
ARM GAS  C:\Users\CHARLI~1\AppData\Local\Temp\ccl7kX1M.s 			page 32


1189:./Generated_Source/PSoC5/UART.c ****     *
1190:./Generated_Source/PSoC5/UART.c ****     *******************************************************************************/
1191:./Generated_Source/PSoC5/UART.c ****     void UART_PutCRLF(uint8 txDataByte)
1192:./Generated_Source/PSoC5/UART.c ****     {
 576              		.loc 1 1192 0
 577              		.cfi_startproc
 578              		@ args = 0, pretend = 0, frame = 8
 579              		@ frame_needed = 1, uses_anonymous_args = 0
 580 0000 80B5     		push	{r7, lr}
 581              	.LCFI32:
 582              		.cfi_def_cfa_offset 8
 583 0002 82B0     		sub	sp, sp, #8
 584              	.LCFI33:
 585              		.cfi_def_cfa_offset 16
 586 0004 00AF     		add	r7, sp, #0
 587              		.cfi_offset 14, -4
 588              		.cfi_offset 7, -8
 589              	.LCFI34:
 590              		.cfi_def_cfa_register 7
 591 0006 0346     		mov	r3, r0
 592 0008 FB71     		strb	r3, [r7, #7]
1193:./Generated_Source/PSoC5/UART.c ****         /* If not Initialized then skip this function*/
1194:./Generated_Source/PSoC5/UART.c ****         if(UART_initVar != 0u)
 593              		.loc 1 1194 0
 594 000a 40F20003 		movw	r3, #:lower16:UART_initVar
 595 000e C0F20003 		movt	r3, #:upper16:UART_initVar
 596 0012 1B78     		ldrb	r3, [r3, #0]	@ zero_extendqisi2
 597 0014 002B     		cmp	r3, #0
 598 0016 0BD0     		beq	.L36
1195:./Generated_Source/PSoC5/UART.c ****         {
1196:./Generated_Source/PSoC5/UART.c ****             UART_PutChar(txDataByte);
 599              		.loc 1 1196 0
 600 0018 FB79     		ldrb	r3, [r7, #7]	@ zero_extendqisi2
 601 001a 1846     		mov	r0, r3
 602 001c FFF7FEFF 		bl	UART_PutChar
1197:./Generated_Source/PSoC5/UART.c ****             UART_PutChar(0x0Du);
 603              		.loc 1 1197 0
 604 0020 4FF00D00 		mov	r0, #13
 605 0024 FFF7FEFF 		bl	UART_PutChar
1198:./Generated_Source/PSoC5/UART.c ****             UART_PutChar(0x0Au);
 606              		.loc 1 1198 0
 607 0028 4FF00A00 		mov	r0, #10
 608 002c FFF7FEFF 		bl	UART_PutChar
 609              	.L36:
1199:./Generated_Source/PSoC5/UART.c ****         }
1200:./Generated_Source/PSoC5/UART.c ****     }
 610              		.loc 1 1200 0
 611 0030 07F10807 		add	r7, r7, #8
 612 0034 BD46     		mov	sp, r7
 613 0036 80BD     		pop	{r7, pc}
 614              		.cfi_endproc
 615              	.LFE12:
 616              		.size	UART_PutCRLF, .-UART_PutCRLF
 617              		.section	.text.UART_GetTxBufferSize,"ax",%progbits
 618              		.align	2
 619              		.global	UART_GetTxBufferSize
 620              		.thumb
ARM GAS  C:\Users\CHARLI~1\AppData\Local\Temp\ccl7kX1M.s 			page 33


 621              		.thumb_func
 622              		.type	UART_GetTxBufferSize, %function
 623              	UART_GetTxBufferSize:
 624              	.LFB13:
1201:./Generated_Source/PSoC5/UART.c **** 
1202:./Generated_Source/PSoC5/UART.c **** 
1203:./Generated_Source/PSoC5/UART.c ****     /*******************************************************************************
1204:./Generated_Source/PSoC5/UART.c ****     * Function Name: UART_GetTxBufferSize
1205:./Generated_Source/PSoC5/UART.c ****     ********************************************************************************
1206:./Generated_Source/PSoC5/UART.c ****     *
1207:./Generated_Source/PSoC5/UART.c ****     * Summary:
1208:./Generated_Source/PSoC5/UART.c ****     *  Determine the amount of space left in the TX buffer and return the count in
1209:./Generated_Source/PSoC5/UART.c ****     *  bytes
1210:./Generated_Source/PSoC5/UART.c ****     *
1211:./Generated_Source/PSoC5/UART.c ****     * Parameters:
1212:./Generated_Source/PSoC5/UART.c ****     *  None.
1213:./Generated_Source/PSoC5/UART.c ****     *
1214:./Generated_Source/PSoC5/UART.c ****     * Return:
1215:./Generated_Source/PSoC5/UART.c ****     *  Integer count of the number of bytes left in the TX buffer
1216:./Generated_Source/PSoC5/UART.c ****     *
1217:./Generated_Source/PSoC5/UART.c ****     * Global Variables:
1218:./Generated_Source/PSoC5/UART.c ****     *  UART_txBufferWrite - used to calculate left space. 
1219:./Generated_Source/PSoC5/UART.c ****     *  UART_txBufferRead - used to calculate left space.
1220:./Generated_Source/PSoC5/UART.c ****     *
1221:./Generated_Source/PSoC5/UART.c ****     * Reentrant:
1222:./Generated_Source/PSoC5/UART.c ****     *  No.
1223:./Generated_Source/PSoC5/UART.c ****     *
1224:./Generated_Source/PSoC5/UART.c ****     * Theory:
1225:./Generated_Source/PSoC5/UART.c ****     *  Allows the user to find out how full the TX Buffer is.
1226:./Generated_Source/PSoC5/UART.c ****     *
1227:./Generated_Source/PSoC5/UART.c ****     *******************************************************************************/
1228:./Generated_Source/PSoC5/UART.c ****     uint8 UART_GetTxBufferSize(void)
1229:./Generated_Source/PSoC5/UART.c ****     {
 625              		.loc 1 1229 0
 626              		.cfi_startproc
 627              		@ args = 0, pretend = 0, frame = 8
 628              		@ frame_needed = 1, uses_anonymous_args = 0
 629              		@ link register save eliminated.
 630 0000 80B4     		push	{r7}
 631              	.LCFI35:
 632              		.cfi_def_cfa_offset 4
 633 0002 83B0     		sub	sp, sp, #12
 634              	.LCFI36:
 635              		.cfi_def_cfa_offset 16
 636 0004 00AF     		add	r7, sp, #0
 637              		.cfi_offset 7, -4
 638              	.LCFI37:
 639              		.cfi_def_cfa_register 7
1230:./Generated_Source/PSoC5/UART.c ****         uint8 size;
1231:./Generated_Source/PSoC5/UART.c **** 
1232:./Generated_Source/PSoC5/UART.c ****         #if(UART_TXBUFFERSIZE > UART_FIFO_LENGTH)
1233:./Generated_Source/PSoC5/UART.c **** 
1234:./Generated_Source/PSoC5/UART.c ****             /* Disable Tx interrupt. */
1235:./Generated_Source/PSoC5/UART.c ****             /* Protect variables that could change on interrupt. */
1236:./Generated_Source/PSoC5/UART.c ****             #if(UART_TX_INTERRUPT_ENABLED)
1237:./Generated_Source/PSoC5/UART.c ****                 UART_DisableTxInt();
1238:./Generated_Source/PSoC5/UART.c ****             #endif /* End UART_TX_INTERRUPT_ENABLED */
ARM GAS  C:\Users\CHARLI~1\AppData\Local\Temp\ccl7kX1M.s 			page 34


1239:./Generated_Source/PSoC5/UART.c **** 
1240:./Generated_Source/PSoC5/UART.c ****             if(UART_txBufferRead == UART_txBufferWrite)
1241:./Generated_Source/PSoC5/UART.c ****             {
1242:./Generated_Source/PSoC5/UART.c ****                 size = 0u;
1243:./Generated_Source/PSoC5/UART.c ****             }
1244:./Generated_Source/PSoC5/UART.c ****             else if(UART_txBufferRead < UART_txBufferWrite)
1245:./Generated_Source/PSoC5/UART.c ****             {
1246:./Generated_Source/PSoC5/UART.c ****                 size = (UART_txBufferWrite - UART_txBufferRead);
1247:./Generated_Source/PSoC5/UART.c ****             }
1248:./Generated_Source/PSoC5/UART.c ****             else
1249:./Generated_Source/PSoC5/UART.c ****             {
1250:./Generated_Source/PSoC5/UART.c ****                 size = (UART_TXBUFFERSIZE - UART_txBufferRead) + UART_txBufferWrite;
1251:./Generated_Source/PSoC5/UART.c ****             }
1252:./Generated_Source/PSoC5/UART.c **** 
1253:./Generated_Source/PSoC5/UART.c ****             /* Enable Tx interrupt. */
1254:./Generated_Source/PSoC5/UART.c ****             #if(UART_TX_INTERRUPT_ENABLED)
1255:./Generated_Source/PSoC5/UART.c ****                 UART_EnableTxInt();
1256:./Generated_Source/PSoC5/UART.c ****             #endif /* End UART_TX_INTERRUPT_ENABLED */
1257:./Generated_Source/PSoC5/UART.c **** 
1258:./Generated_Source/PSoC5/UART.c ****         #else /* UART_TXBUFFERSIZE > UART_FIFO_LENGTH */
1259:./Generated_Source/PSoC5/UART.c **** 
1260:./Generated_Source/PSoC5/UART.c ****             size = UART_TXSTATUS_REG;
 640              		.loc 1 1260 0
 641 0006 46F26443 		movw	r3, #:lower16:1073767524
 642 000a C4F20003 		movt	r3, #:upper16:1073767524
 643 000e 1B78     		ldrb	r3, [r3, #0]
 644 0010 FB71     		strb	r3, [r7, #7]
1261:./Generated_Source/PSoC5/UART.c **** 
1262:./Generated_Source/PSoC5/UART.c ****             /* Is the fifo is full. */
1263:./Generated_Source/PSoC5/UART.c ****             if(size & UART_TX_STS_FIFO_FULL)
 645              		.loc 1 1263 0
 646 0012 FB79     		ldrb	r3, [r7, #7]	@ zero_extendqisi2
 647 0014 03F00403 		and	r3, r3, #4
 648 0018 002B     		cmp	r3, #0
 649 001a 03D0     		beq	.L38
1264:./Generated_Source/PSoC5/UART.c ****             {
1265:./Generated_Source/PSoC5/UART.c ****                 size = UART_FIFO_LENGTH;
 650              		.loc 1 1265 0
 651 001c 4FF00403 		mov	r3, #4
 652 0020 FB71     		strb	r3, [r7, #7]
 653 0022 0BE0     		b	.L39
 654              	.L38:
1266:./Generated_Source/PSoC5/UART.c ****             }
1267:./Generated_Source/PSoC5/UART.c ****             else if(size & UART_TX_STS_FIFO_EMPTY)
 655              		.loc 1 1267 0
 656 0024 FB79     		ldrb	r3, [r7, #7]	@ zero_extendqisi2
 657 0026 03F00203 		and	r3, r3, #2
 658 002a 002B     		cmp	r3, #0
 659 002c 03D0     		beq	.L40
1268:./Generated_Source/PSoC5/UART.c ****             {
1269:./Generated_Source/PSoC5/UART.c ****                 size = 0u;
 660              		.loc 1 1269 0
 661 002e 4FF00003 		mov	r3, #0
 662 0032 FB71     		strb	r3, [r7, #7]
 663 0034 02E0     		b	.L39
 664              	.L40:
1270:./Generated_Source/PSoC5/UART.c ****             }
ARM GAS  C:\Users\CHARLI~1\AppData\Local\Temp\ccl7kX1M.s 			page 35


1271:./Generated_Source/PSoC5/UART.c ****             else
1272:./Generated_Source/PSoC5/UART.c ****             {
1273:./Generated_Source/PSoC5/UART.c ****                 /* We only know there is data in the fifo. */
1274:./Generated_Source/PSoC5/UART.c ****                 size = 1u;
 665              		.loc 1 1274 0
 666 0036 4FF00103 		mov	r3, #1
 667 003a FB71     		strb	r3, [r7, #7]
 668              	.L39:
1275:./Generated_Source/PSoC5/UART.c ****             }
1276:./Generated_Source/PSoC5/UART.c **** 
1277:./Generated_Source/PSoC5/UART.c ****         #endif /* End UART_TXBUFFERSIZE > UART_FIFO_LENGTH */
1278:./Generated_Source/PSoC5/UART.c **** 
1279:./Generated_Source/PSoC5/UART.c ****         return(size);
 669              		.loc 1 1279 0
 670 003c FB79     		ldrb	r3, [r7, #7]	@ zero_extendqisi2
1280:./Generated_Source/PSoC5/UART.c ****     }
 671              		.loc 1 1280 0
 672 003e 1846     		mov	r0, r3
 673 0040 07F10C07 		add	r7, r7, #12
 674 0044 BD46     		mov	sp, r7
 675 0046 80BC     		pop	{r7}
 676 0048 7047     		bx	lr
 677              		.cfi_endproc
 678              	.LFE13:
 679              		.size	UART_GetTxBufferSize, .-UART_GetTxBufferSize
 680 004a 00BF     		.section	.text.UART_ClearTxBuffer,"ax",%progbits
 681              		.align	2
 682              		.global	UART_ClearTxBuffer
 683              		.thumb
 684              		.thumb_func
 685              		.type	UART_ClearTxBuffer, %function
 686              	UART_ClearTxBuffer:
 687              	.LFB14:
1281:./Generated_Source/PSoC5/UART.c **** 
1282:./Generated_Source/PSoC5/UART.c **** 
1283:./Generated_Source/PSoC5/UART.c ****     /*******************************************************************************
1284:./Generated_Source/PSoC5/UART.c ****     * Function Name: UART_ClearTxBuffer
1285:./Generated_Source/PSoC5/UART.c ****     ********************************************************************************
1286:./Generated_Source/PSoC5/UART.c ****     *
1287:./Generated_Source/PSoC5/UART.c ****     * Summary:
1288:./Generated_Source/PSoC5/UART.c ****     *  Clear the TX RAM buffer by setting the read and write pointers both to zero.
1289:./Generated_Source/PSoC5/UART.c ****     *
1290:./Generated_Source/PSoC5/UART.c ****     * Parameters:
1291:./Generated_Source/PSoC5/UART.c ****     *  None.
1292:./Generated_Source/PSoC5/UART.c ****     *
1293:./Generated_Source/PSoC5/UART.c ****     * Return:
1294:./Generated_Source/PSoC5/UART.c ****     *  None.
1295:./Generated_Source/PSoC5/UART.c ****     *
1296:./Generated_Source/PSoC5/UART.c ****     * Global Variables:
1297:./Generated_Source/PSoC5/UART.c ****     *  UART_txBufferWrite - cleared to zero. 
1298:./Generated_Source/PSoC5/UART.c ****     *  UART_txBufferRead - cleared to zero.
1299:./Generated_Source/PSoC5/UART.c ****     *
1300:./Generated_Source/PSoC5/UART.c ****     * Reentrant:
1301:./Generated_Source/PSoC5/UART.c ****     *  No.
1302:./Generated_Source/PSoC5/UART.c ****     *
1303:./Generated_Source/PSoC5/UART.c ****     * Theory:
1304:./Generated_Source/PSoC5/UART.c ****     *  Setting the pointers to zero makes the system believe there is no data to 
ARM GAS  C:\Users\CHARLI~1\AppData\Local\Temp\ccl7kX1M.s 			page 36


1305:./Generated_Source/PSoC5/UART.c ****     *  read and writing will resume at address 0 overwriting any data that may have
1306:./Generated_Source/PSoC5/UART.c ****     *  remained in the RAM.
1307:./Generated_Source/PSoC5/UART.c ****     *
1308:./Generated_Source/PSoC5/UART.c ****     * Side Effects:
1309:./Generated_Source/PSoC5/UART.c ****     *  Any received data not read from the RAM buffer will be lost when overwritten.
1310:./Generated_Source/PSoC5/UART.c ****     *
1311:./Generated_Source/PSoC5/UART.c ****     *******************************************************************************/
1312:./Generated_Source/PSoC5/UART.c ****     void UART_ClearTxBuffer(void)
1313:./Generated_Source/PSoC5/UART.c ****     {
 688              		.loc 1 1313 0
 689              		.cfi_startproc
 690              		@ args = 0, pretend = 0, frame = 0
 691              		@ frame_needed = 1, uses_anonymous_args = 0
 692              		@ link register save eliminated.
 693 0000 80B4     		push	{r7}
 694              	.LCFI38:
 695              		.cfi_def_cfa_offset 4
 696 0002 00AF     		add	r7, sp, #0
 697              		.cfi_offset 7, -4
 698              	.LCFI39:
 699              		.cfi_def_cfa_register 7
1314:./Generated_Source/PSoC5/UART.c ****         #if(UART_TXBUFFERSIZE > UART_FIFO_LENGTH)
1315:./Generated_Source/PSoC5/UART.c **** 
1316:./Generated_Source/PSoC5/UART.c ****             /* Disable Tx interrupt. */
1317:./Generated_Source/PSoC5/UART.c ****             /* Protect variables that could change on interrupt. */
1318:./Generated_Source/PSoC5/UART.c ****             #if(UART_TX_INTERRUPT_ENABLED)
1319:./Generated_Source/PSoC5/UART.c ****                 UART_DisableTxInt();
1320:./Generated_Source/PSoC5/UART.c ****             #endif /* End UART_TX_INTERRUPT_ENABLED */
1321:./Generated_Source/PSoC5/UART.c **** 
1322:./Generated_Source/PSoC5/UART.c ****             UART_txBufferRead = 0u;
1323:./Generated_Source/PSoC5/UART.c ****             UART_txBufferWrite = 0u;
1324:./Generated_Source/PSoC5/UART.c **** 
1325:./Generated_Source/PSoC5/UART.c ****             /* Enable Tx interrupt. */
1326:./Generated_Source/PSoC5/UART.c ****             #if(UART_TX_INTERRUPT_ENABLED)
1327:./Generated_Source/PSoC5/UART.c ****                 UART_EnableTxInt();
1328:./Generated_Source/PSoC5/UART.c ****             #endif /* End UART_TX_INTERRUPT_ENABLED */
1329:./Generated_Source/PSoC5/UART.c **** 
1330:./Generated_Source/PSoC5/UART.c ****         #endif /* End UART_TXBUFFERSIZE > UART_FIFO_LENGTH */
1331:./Generated_Source/PSoC5/UART.c ****     }
 700              		.loc 1 1331 0
 701 0004 BD46     		mov	sp, r7
 702 0006 80BC     		pop	{r7}
 703 0008 7047     		bx	lr
 704              		.cfi_endproc
 705              	.LFE14:
 706              		.size	UART_ClearTxBuffer, .-UART_ClearTxBuffer
 707 000a 00BF     		.section	.text.UART_SendBreak,"ax",%progbits
 708              		.align	2
 709              		.global	UART_SendBreak
 710              		.thumb
 711              		.thumb_func
 712              		.type	UART_SendBreak, %function
 713              	UART_SendBreak:
 714              	.LFB15:
1332:./Generated_Source/PSoC5/UART.c **** 
1333:./Generated_Source/PSoC5/UART.c **** 
1334:./Generated_Source/PSoC5/UART.c ****     /*******************************************************************************
ARM GAS  C:\Users\CHARLI~1\AppData\Local\Temp\ccl7kX1M.s 			page 37


1335:./Generated_Source/PSoC5/UART.c ****     * Function Name: UART_SendBreak
1336:./Generated_Source/PSoC5/UART.c ****     ********************************************************************************
1337:./Generated_Source/PSoC5/UART.c ****     *
1338:./Generated_Source/PSoC5/UART.c ****     * Summary:
1339:./Generated_Source/PSoC5/UART.c ****     *  Write a Break command to the UART
1340:./Generated_Source/PSoC5/UART.c ****     *
1341:./Generated_Source/PSoC5/UART.c ****     * Parameters:
1342:./Generated_Source/PSoC5/UART.c ****     *  uint8 retMode:  Wait mode,
1343:./Generated_Source/PSoC5/UART.c ****     *   0 - Initialize registers for Break, sends the Break signal and return 
1344:./Generated_Source/PSoC5/UART.c ****     *       imediately.
1345:./Generated_Source/PSoC5/UART.c ****     *   1 - Wait until Break sending is complete, reinitialize registers to normal
1346:./Generated_Source/PSoC5/UART.c ****     *       transmission mode then return.
1347:./Generated_Source/PSoC5/UART.c ****     *   2 - Reinitialize registers to normal transmission mode then return.
1348:./Generated_Source/PSoC5/UART.c ****     *   3 - both steps: 0 and 1
1349:./Generated_Source/PSoC5/UART.c ****     *       init registers for Break, send Break signal
1350:./Generated_Source/PSoC5/UART.c ****     *       wait until Break sending is complete, reinit registers to normal
1351:./Generated_Source/PSoC5/UART.c ****     *       transmission mode then return.
1352:./Generated_Source/PSoC5/UART.c ****     *
1353:./Generated_Source/PSoC5/UART.c ****     * Return:
1354:./Generated_Source/PSoC5/UART.c ****     *  None.
1355:./Generated_Source/PSoC5/UART.c ****     *
1356:./Generated_Source/PSoC5/UART.c ****     * Global Variables:
1357:./Generated_Source/PSoC5/UART.c ****     *  UART_initVar - checked to identify that the component has been  
1358:./Generated_Source/PSoC5/UART.c ****     *     initialized.
1359:./Generated_Source/PSoC5/UART.c ****     *  tx_period - static variable, used for keeping TX period configuration.
1360:./Generated_Source/PSoC5/UART.c ****     *
1361:./Generated_Source/PSoC5/UART.c ****     * Reentrant:
1362:./Generated_Source/PSoC5/UART.c ****     *  No.
1363:./Generated_Source/PSoC5/UART.c ****     *
1364:./Generated_Source/PSoC5/UART.c ****     * Theory:
1365:./Generated_Source/PSoC5/UART.c ****     *  SendBreak function initializes registers to send 13-bit break signal. It is
1366:./Generated_Source/PSoC5/UART.c ****     *  important to return the registers configuration to normal for continue 8-bit
1367:./Generated_Source/PSoC5/UART.c ****     *  operation.
1368:./Generated_Source/PSoC5/UART.c ****     *  Trere are 3 variants for this API usage:
1369:./Generated_Source/PSoC5/UART.c ****     *  1) SendBreak(3) - function will send the Break signal and take care on the
1370:./Generated_Source/PSoC5/UART.c ****     *     configuration returning. Funcition will block CPU untill transmition 
1371:./Generated_Source/PSoC5/UART.c ****     *     complete.
1372:./Generated_Source/PSoC5/UART.c ****     *  2) User may want to use bloking time if UART configured to the low speed 
1373:./Generated_Source/PSoC5/UART.c ****     *     operation
1374:./Generated_Source/PSoC5/UART.c ****     *     Emample for this case:
1375:./Generated_Source/PSoC5/UART.c ****     *     SendBreak(0);     - init Break signal transmition
1376:./Generated_Source/PSoC5/UART.c ****     *         Add your code here to use CPU time
1377:./Generated_Source/PSoC5/UART.c ****     *     SendBreak(1);     - complete Break operation
1378:./Generated_Source/PSoC5/UART.c ****     *  3) Same to 2) but user may want to init and use the interrupt for complete 
1379:./Generated_Source/PSoC5/UART.c ****     *     break operation.
1380:./Generated_Source/PSoC5/UART.c ****     *     Example for this case:
1381:./Generated_Source/PSoC5/UART.c ****     *     Init TX interrupt whith "TX - On TX Complete" parameter
1382:./Generated_Source/PSoC5/UART.c ****     *     SendBreak(0);     - init Break signal transmition
1383:./Generated_Source/PSoC5/UART.c ****     *         Add your code here to use CPU time
1384:./Generated_Source/PSoC5/UART.c ****     *     When interrupt appear with UART_TX_STS_COMPLETE status:
1385:./Generated_Source/PSoC5/UART.c ****     *     SendBreak(2);     - complete Break operation
1386:./Generated_Source/PSoC5/UART.c ****     *
1387:./Generated_Source/PSoC5/UART.c ****     * Side Effects:
1388:./Generated_Source/PSoC5/UART.c ****     *   Uses static variable to keep registers configuration.
1389:./Generated_Source/PSoC5/UART.c ****     *
1390:./Generated_Source/PSoC5/UART.c ****     *******************************************************************************/
1391:./Generated_Source/PSoC5/UART.c ****     void UART_SendBreak(uint8 retMode)
ARM GAS  C:\Users\CHARLI~1\AppData\Local\Temp\ccl7kX1M.s 			page 38


1392:./Generated_Source/PSoC5/UART.c ****     {
 715              		.loc 1 1392 0
 716              		.cfi_startproc
 717              		@ args = 0, pretend = 0, frame = 16
 718              		@ frame_needed = 1, uses_anonymous_args = 0
 719              		@ link register save eliminated.
 720 0000 80B4     		push	{r7}
 721              	.LCFI40:
 722              		.cfi_def_cfa_offset 4
 723 0002 85B0     		sub	sp, sp, #20
 724              	.LCFI41:
 725              		.cfi_def_cfa_offset 24
 726 0004 00AF     		add	r7, sp, #0
 727              		.cfi_offset 7, -4
 728              	.LCFI42:
 729              		.cfi_def_cfa_register 7
 730 0006 0346     		mov	r3, r0
 731 0008 FB71     		strb	r3, [r7, #7]
1393:./Generated_Source/PSoC5/UART.c **** 
1394:./Generated_Source/PSoC5/UART.c ****         /* If not Initialized then skip this function*/
1395:./Generated_Source/PSoC5/UART.c ****         if(UART_initVar != 0u)
 732              		.loc 1 1395 0
 733 000a 40F20003 		movw	r3, #:lower16:UART_initVar
 734 000e C0F20003 		movt	r3, #:upper16:UART_initVar
 735 0012 1B78     		ldrb	r3, [r3, #0]	@ zero_extendqisi2
 736 0014 002B     		cmp	r3, #0
 737 0016 4ED0     		beq	.L52
 738              	.LBB2:
1396:./Generated_Source/PSoC5/UART.c ****         {
1397:./Generated_Source/PSoC5/UART.c ****             /*Set the Counter to 13-bits and transmit a 00 byte*/
1398:./Generated_Source/PSoC5/UART.c ****             /*When that is done then reset the counter value back*/
1399:./Generated_Source/PSoC5/UART.c ****             uint8 tmpStat;
1400:./Generated_Source/PSoC5/UART.c **** 
1401:./Generated_Source/PSoC5/UART.c ****             #if(UART_HD_ENABLED) /* Half Duplex mode*/
1402:./Generated_Source/PSoC5/UART.c **** 
1403:./Generated_Source/PSoC5/UART.c ****                 if( (retMode == UART_SEND_BREAK) ||
1404:./Generated_Source/PSoC5/UART.c ****                     (retMode == UART_SEND_WAIT_REINIT ) )
1405:./Generated_Source/PSoC5/UART.c ****                 {
1406:./Generated_Source/PSoC5/UART.c ****                     /* CTRL_HD_SEND_BREAK - sends break bits in HD mode*/
1407:./Generated_Source/PSoC5/UART.c ****                     UART_WriteControlRegister(UART_ReadControlRegister() | \
1408:./Generated_Source/PSoC5/UART.c ****                                                           UART_CTRL_HD_SEND_BREAK);
1409:./Generated_Source/PSoC5/UART.c ****                     /* Send zeros*/
1410:./Generated_Source/PSoC5/UART.c ****                     UART_TXDATA_REG = 0u;
1411:./Generated_Source/PSoC5/UART.c **** 
1412:./Generated_Source/PSoC5/UART.c ****                     do /*wait until transmit starts*/
1413:./Generated_Source/PSoC5/UART.c ****                     {
1414:./Generated_Source/PSoC5/UART.c ****                         tmpStat = UART_TXSTATUS_REG;
1415:./Generated_Source/PSoC5/UART.c ****                     }while(tmpStat & UART_TX_STS_FIFO_EMPTY);
1416:./Generated_Source/PSoC5/UART.c ****                 }
1417:./Generated_Source/PSoC5/UART.c **** 
1418:./Generated_Source/PSoC5/UART.c ****                 if( (retMode == UART_WAIT_FOR_COMLETE_REINIT) || \
1419:./Generated_Source/PSoC5/UART.c ****                     (retMode == UART_SEND_WAIT_REINIT) )
1420:./Generated_Source/PSoC5/UART.c ****                 {
1421:./Generated_Source/PSoC5/UART.c ****                     do /*wait until transmit complete*/
1422:./Generated_Source/PSoC5/UART.c ****                     {
1423:./Generated_Source/PSoC5/UART.c ****                         tmpStat = UART_TXSTATUS_REG;
1424:./Generated_Source/PSoC5/UART.c ****                     }while(~tmpStat & UART_TX_STS_COMPLETE);
ARM GAS  C:\Users\CHARLI~1\AppData\Local\Temp\ccl7kX1M.s 			page 39


1425:./Generated_Source/PSoC5/UART.c ****                 }
1426:./Generated_Source/PSoC5/UART.c **** 
1427:./Generated_Source/PSoC5/UART.c ****                 if( (retMode == UART_WAIT_FOR_COMLETE_REINIT) || \
1428:./Generated_Source/PSoC5/UART.c ****                     (retMode == UART_REINIT) || \
1429:./Generated_Source/PSoC5/UART.c ****                     (retMode == UART_SEND_WAIT_REINIT) )
1430:./Generated_Source/PSoC5/UART.c ****                 {
1431:./Generated_Source/PSoC5/UART.c ****                     UART_WriteControlRegister(UART_ReadControlRegister() & \
1432:./Generated_Source/PSoC5/UART.c ****                                                          ~UART_CTRL_HD_SEND_BREAK);
1433:./Generated_Source/PSoC5/UART.c ****                 }
1434:./Generated_Source/PSoC5/UART.c **** 
1435:./Generated_Source/PSoC5/UART.c ****             #else /* UART_HD_ENABLED Full Duplex mode */
1436:./Generated_Source/PSoC5/UART.c **** 
1437:./Generated_Source/PSoC5/UART.c ****                 static uint8 tx_period; 
1438:./Generated_Source/PSoC5/UART.c ****                 
1439:./Generated_Source/PSoC5/UART.c ****                 if( (retMode == UART_SEND_BREAK) || \
 739              		.loc 1 1439 0
 740 0018 FB79     		ldrb	r3, [r7, #7]	@ zero_extendqisi2
 741 001a 002B     		cmp	r3, #0
 742 001c 02D0     		beq	.L46
 743 001e FB79     		ldrb	r3, [r7, #7]	@ zero_extendqisi2
 744 0020 032B     		cmp	r3, #3
 745 0022 23D1     		bne	.L47
 746              	.L46:
1440:./Generated_Source/PSoC5/UART.c ****                     (retMode == UART_SEND_WAIT_REINIT) )
1441:./Generated_Source/PSoC5/UART.c ****                 {
1442:./Generated_Source/PSoC5/UART.c ****                     /* CTRL_HD_SEND_BREAK - skip to send parity bit @ Break signal in Full Duplex m
1443:./Generated_Source/PSoC5/UART.c ****                     if( (UART_PARITY_TYPE != UART__B_UART__NONE_REVB) || \
1444:./Generated_Source/PSoC5/UART.c ****                          UART_PARITY_TYPE_SW )
1445:./Generated_Source/PSoC5/UART.c ****                     {
1446:./Generated_Source/PSoC5/UART.c ****                         UART_WriteControlRegister(UART_ReadControlRegister() | \
1447:./Generated_Source/PSoC5/UART.c ****                                                               UART_CTRL_HD_SEND_BREAK);
1448:./Generated_Source/PSoC5/UART.c ****                     }                                                          
1449:./Generated_Source/PSoC5/UART.c **** 
1450:./Generated_Source/PSoC5/UART.c ****                     #if(UART_TXCLKGEN_DP)
1451:./Generated_Source/PSoC5/UART.c ****                         tx_period = UART_TXBITCLKTX_COMPLETE_REG;
 747              		.loc 1 1451 0
 748 0024 46F23543 		movw	r3, #:lower16:1073767477
 749 0028 C4F20003 		movt	r3, #:upper16:1073767477
 750 002c 1B78     		ldrb	r3, [r3, #0]
 751 002e DAB2     		uxtb	r2, r3
 752 0030 40F20003 		movw	r3, #:lower16:tx_period.2085
 753 0034 C0F20003 		movt	r3, #:upper16:tx_period.2085
 754 0038 1A70     		strb	r2, [r3, #0]
1452:./Generated_Source/PSoC5/UART.c ****                         UART_TXBITCLKTX_COMPLETE_REG = UART_TXBITCTR_BREAKBITS;
 755              		.loc 1 1452 0
 756 003a 46F23543 		movw	r3, #:lower16:1073767477
 757 003e C4F20003 		movt	r3, #:upper16:1073767477
 758 0042 4FF06702 		mov	r2, #103
 759 0046 1A70     		strb	r2, [r3, #0]
1453:./Generated_Source/PSoC5/UART.c ****                     #else
1454:./Generated_Source/PSoC5/UART.c ****                         tx_period = UART_TXBITCTR_PERIOD_REG;
1455:./Generated_Source/PSoC5/UART.c ****                         UART_TXBITCTR_PERIOD_REG = UART_TXBITCTR_BREAKBITS8X;
1456:./Generated_Source/PSoC5/UART.c ****                     #endif /* End UART_TXCLKGEN_DP */
1457:./Generated_Source/PSoC5/UART.c **** 
1458:./Generated_Source/PSoC5/UART.c ****                     /* Send zeros*/
1459:./Generated_Source/PSoC5/UART.c ****                     UART_TXDATA_REG = 0u;
 760              		.loc 1 1459 0
ARM GAS  C:\Users\CHARLI~1\AppData\Local\Temp\ccl7kX1M.s 			page 40


 761 0048 46F24443 		movw	r3, #:lower16:1073767492
 762 004c C4F20003 		movt	r3, #:upper16:1073767492
 763 0050 4FF00002 		mov	r2, #0
 764 0054 1A70     		strb	r2, [r3, #0]
 765              	.L48:
1460:./Generated_Source/PSoC5/UART.c **** 
1461:./Generated_Source/PSoC5/UART.c ****                     do /*wait until transmit starts*/
1462:./Generated_Source/PSoC5/UART.c ****                     {
1463:./Generated_Source/PSoC5/UART.c ****                         tmpStat = UART_TXSTATUS_REG;
 766              		.loc 1 1463 0
 767 0056 46F26443 		movw	r3, #:lower16:1073767524
 768 005a C4F20003 		movt	r3, #:upper16:1073767524
 769 005e 1B78     		ldrb	r3, [r3, #0]
 770 0060 FB73     		strb	r3, [r7, #15]
1464:./Generated_Source/PSoC5/UART.c ****                     }while(tmpStat & UART_TX_STS_FIFO_EMPTY);
 771              		.loc 1 1464 0
 772 0062 FB7B     		ldrb	r3, [r7, #15]	@ zero_extendqisi2
 773 0064 03F00203 		and	r3, r3, #2
 774 0068 002B     		cmp	r3, #0
 775 006a F4D1     		bne	.L48
 776              	.L47:
1465:./Generated_Source/PSoC5/UART.c ****                 }
1466:./Generated_Source/PSoC5/UART.c **** 
1467:./Generated_Source/PSoC5/UART.c ****                 if( (retMode == UART_WAIT_FOR_COMLETE_REINIT) || \
 777              		.loc 1 1467 0
 778 006c FB79     		ldrb	r3, [r7, #7]	@ zero_extendqisi2
 779 006e 012B     		cmp	r3, #1
 780 0070 02D0     		beq	.L49
 781 0072 FB79     		ldrb	r3, [r7, #7]	@ zero_extendqisi2
 782 0074 032B     		cmp	r3, #3
 783 0076 0AD1     		bne	.L50
 784              	.L49:
1468:./Generated_Source/PSoC5/UART.c ****                     (retMode == UART_SEND_WAIT_REINIT) )
1469:./Generated_Source/PSoC5/UART.c ****                 {
1470:./Generated_Source/PSoC5/UART.c ****                     do /*wait until transmit complete*/
1471:./Generated_Source/PSoC5/UART.c ****                     {
1472:./Generated_Source/PSoC5/UART.c ****                         tmpStat = UART_TXSTATUS_REG;
 785              		.loc 1 1472 0
 786 0078 46F26443 		movw	r3, #:lower16:1073767524
 787 007c C4F20003 		movt	r3, #:upper16:1073767524
 788 0080 1B78     		ldrb	r3, [r3, #0]
 789 0082 FB73     		strb	r3, [r7, #15]
1473:./Generated_Source/PSoC5/UART.c ****                     }while(~tmpStat & UART_TX_STS_COMPLETE);
 790              		.loc 1 1473 0
 791 0084 FB7B     		ldrb	r3, [r7, #15]	@ zero_extendqisi2
 792 0086 03F00103 		and	r3, r3, #1
 793 008a 002B     		cmp	r3, #0
 794 008c F4D0     		beq	.L49
 795              	.L50:
1474:./Generated_Source/PSoC5/UART.c ****                 }
1475:./Generated_Source/PSoC5/UART.c **** 
1476:./Generated_Source/PSoC5/UART.c ****                 if( (retMode == UART_WAIT_FOR_COMLETE_REINIT) || \
 796              		.loc 1 1476 0
 797 008e FB79     		ldrb	r3, [r7, #7]	@ zero_extendqisi2
 798 0090 012B     		cmp	r3, #1
 799 0092 05D0     		beq	.L51
 800 0094 FB79     		ldrb	r3, [r7, #7]	@ zero_extendqisi2
ARM GAS  C:\Users\CHARLI~1\AppData\Local\Temp\ccl7kX1M.s 			page 41


 801 0096 022B     		cmp	r3, #2
 802 0098 02D0     		beq	.L51
 803 009a FB79     		ldrb	r3, [r7, #7]	@ zero_extendqisi2
 804 009c 032B     		cmp	r3, #3
 805 009e 0AD1     		bne	.L52
 806              	.L51:
1477:./Generated_Source/PSoC5/UART.c ****                     (retMode == UART_REINIT) || \
1478:./Generated_Source/PSoC5/UART.c ****                     (retMode == UART_SEND_WAIT_REINIT) )
1479:./Generated_Source/PSoC5/UART.c ****                 {
1480:./Generated_Source/PSoC5/UART.c **** 
1481:./Generated_Source/PSoC5/UART.c ****                     #if(UART_TXCLKGEN_DP)
1482:./Generated_Source/PSoC5/UART.c ****                         UART_TXBITCLKTX_COMPLETE_REG = tx_period;
 807              		.loc 1 1482 0
 808 00a0 46F23543 		movw	r3, #:lower16:1073767477
 809 00a4 C4F20003 		movt	r3, #:upper16:1073767477
 810 00a8 40F20002 		movw	r2, #:lower16:tx_period.2085
 811 00ac C0F20002 		movt	r2, #:upper16:tx_period.2085
 812 00b0 1278     		ldrb	r2, [r2, #0]	@ zero_extendqisi2
 813 00b2 1A70     		strb	r2, [r3, #0]
1483:./Generated_Source/PSoC5/UART.c ****                     #else
1484:./Generated_Source/PSoC5/UART.c ****                         UART_TXBITCTR_PERIOD_REG = tx_period;
1485:./Generated_Source/PSoC5/UART.c ****                     #endif /* End UART_TXCLKGEN_DP */
1486:./Generated_Source/PSoC5/UART.c **** 
1487:./Generated_Source/PSoC5/UART.c ****                     if( (UART_PARITY_TYPE != UART__B_UART__NONE_REVB) || 
 814              		.loc 1 1487 0
 815 00b4 00BF     		nop
 816              	.L52:
 817              	.LBE2:
1488:./Generated_Source/PSoC5/UART.c ****                          UART_PARITY_TYPE_SW )
1489:./Generated_Source/PSoC5/UART.c ****                     {
1490:./Generated_Source/PSoC5/UART.c ****                         UART_WriteControlRegister(UART_ReadControlRegister() & \
1491:./Generated_Source/PSoC5/UART.c ****                                                              ~UART_CTRL_HD_SEND_BREAK);
1492:./Generated_Source/PSoC5/UART.c ****                     }                                     
1493:./Generated_Source/PSoC5/UART.c ****                 }
1494:./Generated_Source/PSoC5/UART.c ****             #endif    /* End UART_HD_ENABLED */
1495:./Generated_Source/PSoC5/UART.c ****         }
1496:./Generated_Source/PSoC5/UART.c ****     }
 818              		.loc 1 1496 0
 819 00b6 07F11407 		add	r7, r7, #20
 820 00ba BD46     		mov	sp, r7
 821 00bc 80BC     		pop	{r7}
 822 00be 7047     		bx	lr
 823              		.cfi_endproc
 824              	.LFE15:
 825              		.size	UART_SendBreak, .-UART_SendBreak
 826              		.section	.text.UART_SetTxAddressMode,"ax",%progbits
 827              		.align	2
 828              		.global	UART_SetTxAddressMode
 829              		.thumb
 830              		.thumb_func
 831              		.type	UART_SetTxAddressMode, %function
 832              	UART_SetTxAddressMode:
 833              	.LFB16:
1497:./Generated_Source/PSoC5/UART.c **** 
1498:./Generated_Source/PSoC5/UART.c **** 
1499:./Generated_Source/PSoC5/UART.c ****     /*******************************************************************************
1500:./Generated_Source/PSoC5/UART.c ****     * Function Name: UART_SetTxAddressMode
ARM GAS  C:\Users\CHARLI~1\AppData\Local\Temp\ccl7kX1M.s 			page 42


1501:./Generated_Source/PSoC5/UART.c ****     ********************************************************************************
1502:./Generated_Source/PSoC5/UART.c ****     *
1503:./Generated_Source/PSoC5/UART.c ****     * Summary:
1504:./Generated_Source/PSoC5/UART.c ****     *  Set the transmit addressing mode
1505:./Generated_Source/PSoC5/UART.c ****     *
1506:./Generated_Source/PSoC5/UART.c ****     * Parameters:
1507:./Generated_Source/PSoC5/UART.c ****     *  addressMode: 0 -> Space
1508:./Generated_Source/PSoC5/UART.c ****     *               1 -> Mark
1509:./Generated_Source/PSoC5/UART.c ****     *
1510:./Generated_Source/PSoC5/UART.c ****     * Return:
1511:./Generated_Source/PSoC5/UART.c ****     *  None.
1512:./Generated_Source/PSoC5/UART.c ****     *
1513:./Generated_Source/PSoC5/UART.c ****     *******************************************************************************/
1514:./Generated_Source/PSoC5/UART.c ****     void UART_SetTxAddressMode(uint8 addressMode) 
1515:./Generated_Source/PSoC5/UART.c ****     {
 834              		.loc 1 1515 0
 835              		.cfi_startproc
 836              		@ args = 0, pretend = 0, frame = 8
 837              		@ frame_needed = 1, uses_anonymous_args = 0
 838 0000 80B5     		push	{r7, lr}
 839              	.LCFI43:
 840              		.cfi_def_cfa_offset 8
 841 0002 82B0     		sub	sp, sp, #8
 842              	.LCFI44:
 843              		.cfi_def_cfa_offset 16
 844 0004 00AF     		add	r7, sp, #0
 845              		.cfi_offset 14, -4
 846              		.cfi_offset 7, -8
 847              	.LCFI45:
 848              		.cfi_def_cfa_register 7
 849 0006 0346     		mov	r3, r0
 850 0008 FB71     		strb	r3, [r7, #7]
1516:./Generated_Source/PSoC5/UART.c ****         /* Mark/Space sending enable*/
1517:./Generated_Source/PSoC5/UART.c ****         if(addressMode != 0)
 851              		.loc 1 1517 0
 852 000a FB79     		ldrb	r3, [r7, #7]	@ zero_extendqisi2
 853 000c 002B     		cmp	r3, #0
 854 000e 09D0     		beq	.L54
1518:./Generated_Source/PSoC5/UART.c ****         {
1519:./Generated_Source/PSoC5/UART.c ****             UART_WriteControlRegister(UART_ReadControlRegister() | UART_CTRL_MARK);
 855              		.loc 1 1519 0
 856 0010 FFF7FEFF 		bl	UART_ReadControlRegister
 857 0014 0346     		mov	r3, r0
 858 0016 43F00403 		orr	r3, r3, #4
 859 001a DBB2     		uxtb	r3, r3
 860 001c 1846     		mov	r0, r3
 861 001e FFF7FEFF 		bl	UART_WriteControlRegister
 862 0022 07E0     		b	.L56
 863              	.L54:
1520:./Generated_Source/PSoC5/UART.c ****         }
1521:./Generated_Source/PSoC5/UART.c ****         else
1522:./Generated_Source/PSoC5/UART.c ****         {
1523:./Generated_Source/PSoC5/UART.c ****             UART_WriteControlRegister(UART_ReadControlRegister() & ~UART_CTRL_MARK);
 864              		.loc 1 1523 0
 865 0024 FFF7FEFF 		bl	UART_ReadControlRegister
 866 0028 0346     		mov	r3, r0
 867 002a 03F0FB03 		and	r3, r3, #251
ARM GAS  C:\Users\CHARLI~1\AppData\Local\Temp\ccl7kX1M.s 			page 43


 868 002e 1846     		mov	r0, r3
 869 0030 FFF7FEFF 		bl	UART_WriteControlRegister
 870              	.L56:
1524:./Generated_Source/PSoC5/UART.c ****         }
1525:./Generated_Source/PSoC5/UART.c ****     }
 871              		.loc 1 1525 0
 872 0034 07F10807 		add	r7, r7, #8
 873 0038 BD46     		mov	sp, r7
 874 003a 80BD     		pop	{r7, pc}
 875              		.cfi_endproc
 876              	.LFE16:
 877              		.size	UART_SetTxAddressMode, .-UART_SetTxAddressMode
 878              		.bss
 879              	tx_period.2085:
 880 0001 00       		.space	1
 881              		.text
 882              	.Letext0: