ARM GAS  C:\Users\CHARLI~1\AppData\Local\Temp\ccF9CHT0.s 			page 1


   1              		.syntax unified
   2              		.cpu cortex-m3
   3              		.fpu softvfp
   4              		.eabi_attribute 20, 1
   5              		.eabi_attribute 21, 1
   6              		.eabi_attribute 23, 3
   7              		.eabi_attribute 24, 1
   8              		.eabi_attribute 25, 1
   9              		.eabi_attribute 26, 1
  10              		.eabi_attribute 30, 6
  11              		.eabi_attribute 18, 4
  12              		.thumb
  13              		.file	"CapSense_1_CSHL.c"
  14              		.section	.debug_abbrev,"",%progbits
  15              	.Ldebug_abbrev0:
  16              		.section	.debug_info,"",%progbits
  17              	.Ldebug_info0:
  18              		.section	.debug_line,"",%progbits
  19              	.Ldebug_line0:
  20 0000 8D010000 		.text
  20      02004E00 
  20      00000201 
  20      FB0E0D00 
  20      01010101 
  21              	.Ltext0:
  22              		.cfi_sections	.debug_frame
  23              		.comm	CapSense_1_rawFilterData1,2,4
  24              		.global	CapSense_1_SensorBaseline
  25              		.bss
  26              		.align	2
  27              		.type	CapSense_1_SensorBaseline, %object
  28              		.size	CapSense_1_SensorBaseline, 2
  29              	CapSense_1_SensorBaseline:
  30 0000 0000     		.space	2
  31              		.global	CapSense_1_SensorBaselineLow
  32 0002 0000     		.align	2
  33              		.type	CapSense_1_SensorBaselineLow, %object
  34              		.size	CapSense_1_SensorBaselineLow, 1
  35              	CapSense_1_SensorBaselineLow:
  36 0004 00       		.space	1
  37              		.global	CapSense_1_SensorSignal
  38 0005 000000   		.align	2
  39              		.type	CapSense_1_SensorSignal, %object
  40              		.size	CapSense_1_SensorSignal, 1
  41              	CapSense_1_SensorSignal:
  42 0008 00       		.space	1
  43              		.global	CapSense_1_SensorOnMask
  44 0009 000000   		.align	2
  45              		.type	CapSense_1_SensorOnMask, %object
  46              		.size	CapSense_1_SensorOnMask, 1
  47              	CapSense_1_SensorOnMask:
  48 000c 00       		.space	1
  49              		.global	CapSense_1_fingerThreshold
  50              		.section	.rodata
  51              		.align	2
  52              		.type	CapSense_1_fingerThreshold, %object
  53              		.size	CapSense_1_fingerThreshold, 1
ARM GAS  C:\Users\CHARLI~1\AppData\Local\Temp\ccF9CHT0.s 			page 2


  54              	CapSense_1_fingerThreshold:
  55 0000 64       		.byte	100
  56              		.global	CapSense_1_noiseThreshold
  57 0001 000000   		.align	2
  58              		.type	CapSense_1_noiseThreshold, %object
  59              		.size	CapSense_1_noiseThreshold, 1
  60              	CapSense_1_noiseThreshold:
  61 0004 14       		.byte	20
  62              		.global	CapSense_1_hysteresis
  63 0005 000000   		.align	2
  64              		.type	CapSense_1_hysteresis, %object
  65              		.size	CapSense_1_hysteresis, 1
  66              	CapSense_1_hysteresis:
  67 0008 0A       		.byte	10
  68              		.global	CapSense_1_debounce
  69 0009 000000   		.align	2
  70              		.type	CapSense_1_debounce, %object
  71              		.size	CapSense_1_debounce, 1
  72              	CapSense_1_debounce:
  73 000c 05       		.byte	5
  74              		.global	CapSense_1_debounceCounter
  75              		.bss
  76 000d 000000   		.align	2
  77              		.type	CapSense_1_debounceCounter, %object
  78              		.size	CapSense_1_debounceCounter, 2
  79              	CapSense_1_debounceCounter:
  80 0010 0000     		.space	2
  81              		.global	CapSense_1_rawDataIndex
  82 0012 0000     		.section	.rodata
  83 000d 000000   		.align	2
  84              		.type	CapSense_1_rawDataIndex, %object
  85              		.size	CapSense_1_rawDataIndex, 1
  86              	CapSense_1_rawDataIndex:
  87 0010 00       		.space	1
  88              		.global	CapSense_1_numberOfSensors
  89 0011 000000   		.align	2
  90              		.type	CapSense_1_numberOfSensors, %object
  91              		.size	CapSense_1_numberOfSensors, 1
  92              	CapSense_1_numberOfSensors:
  93 0014 01       		.byte	1
  94 0015 000000   		.section	.text.CapSense_1_BaseInit,"ax",%progbits
  95              		.align	2
  96              		.global	CapSense_1_BaseInit
  97              		.thumb
  98              		.thumb_func
  99              		.type	CapSense_1_BaseInit, %function
 100              	CapSense_1_BaseInit:
 101              	.LFB0:
 102              		.file 1 "./Generated_Source/PSoC5/CapSense_1_CSHL.c"
   1:./Generated_Source/PSoC5/CapSense_1_CSHL.c **** /*******************************************************************************
   2:./Generated_Source/PSoC5/CapSense_1_CSHL.c **** * File Name: CapSense_1_CSHL.c
   3:./Generated_Source/PSoC5/CapSense_1_CSHL.c **** * Version 2.10
   4:./Generated_Source/PSoC5/CapSense_1_CSHL.c **** *
   5:./Generated_Source/PSoC5/CapSense_1_CSHL.c **** * Description:
   6:./Generated_Source/PSoC5/CapSense_1_CSHL.c **** *  This file provides the source code to the High Level APIs for the CapSesne
   7:./Generated_Source/PSoC5/CapSense_1_CSHL.c **** *  CSD component.
   8:./Generated_Source/PSoC5/CapSense_1_CSHL.c **** *
ARM GAS  C:\Users\CHARLI~1\AppData\Local\Temp\ccF9CHT0.s 			page 3


   9:./Generated_Source/PSoC5/CapSense_1_CSHL.c **** * Note:
  10:./Generated_Source/PSoC5/CapSense_1_CSHL.c **** *
  11:./Generated_Source/PSoC5/CapSense_1_CSHL.c **** ********************************************************************************
  12:./Generated_Source/PSoC5/CapSense_1_CSHL.c **** * Copyright 2008-2010, Cypress Semiconductor Corporation.  All rights reserved.
  13:./Generated_Source/PSoC5/CapSense_1_CSHL.c **** * You may use this file only in accordance with the license, terms, conditions,
  14:./Generated_Source/PSoC5/CapSense_1_CSHL.c **** * disclaimers, and limitations in the end user license agreement accompanying
  15:./Generated_Source/PSoC5/CapSense_1_CSHL.c **** * the software package with which this file was provided.
  16:./Generated_Source/PSoC5/CapSense_1_CSHL.c **** *******************************************************************************/
  17:./Generated_Source/PSoC5/CapSense_1_CSHL.c **** 
  18:./Generated_Source/PSoC5/CapSense_1_CSHL.c **** #include "CapSense_1_CSHL.h"
  19:./Generated_Source/PSoC5/CapSense_1_CSHL.c **** 
  20:./Generated_Source/PSoC5/CapSense_1_CSHL.c **** /* SmartSense functions */
  21:./Generated_Source/PSoC5/CapSense_1_CSHL.c **** #if (CapSense_1_TUNING_METHOD == CapSense_1_AUTO_TUNING)
  22:./Generated_Source/PSoC5/CapSense_1_CSHL.c ****     extern void CapSense_1_CalculateThresholds(uint8 SensorNumber);
  23:./Generated_Source/PSoC5/CapSense_1_CSHL.c **** #endif /* End (CapSense_1_TUNING_METHOD == CapSense_1_AUTO_TUNING) */
  24:./Generated_Source/PSoC5/CapSense_1_CSHL.c **** 
  25:./Generated_Source/PSoC5/CapSense_1_CSHL.c **** /* Median filter function prototype */
  26:./Generated_Source/PSoC5/CapSense_1_CSHL.c **** #if ( (CapSense_1_RAW_FILTER_MASK & CapSense_1_MEDIAN_FILTER) || \
  27:./Generated_Source/PSoC5/CapSense_1_CSHL.c ****       (CapSense_1_POS_FILTERS_MASK & CapSense_1_MEDIAN_FILTER) )
  28:./Generated_Source/PSoC5/CapSense_1_CSHL.c ****     uint16 CapSense_1_MedianFilter(uint16 x1, uint16 x2, uint16 x3) \
  29:./Generated_Source/PSoC5/CapSense_1_CSHL.c ****     ;
  30:./Generated_Source/PSoC5/CapSense_1_CSHL.c **** #endif /* End CapSense_1_RAW_FILTER_MASK && CapSense_1_POS_FILTERS_MASK */
  31:./Generated_Source/PSoC5/CapSense_1_CSHL.c **** 
  32:./Generated_Source/PSoC5/CapSense_1_CSHL.c **** /* Averaging filter function prototype */
  33:./Generated_Source/PSoC5/CapSense_1_CSHL.c **** #if ( (CapSense_1_RAW_FILTER_MASK & CapSense_1_AVERAGING_FILTER) || \
  34:./Generated_Source/PSoC5/CapSense_1_CSHL.c ****       (CapSense_1_POS_FILTERS_MASK & CapSense_1_AVERAGING_FILTER) )
  35:./Generated_Source/PSoC5/CapSense_1_CSHL.c ****     uint16 CapSense_1_AveragingFilter(uint16 x1, uint16 x2, uint16 x3) \
  36:./Generated_Source/PSoC5/CapSense_1_CSHL.c ****     ;
  37:./Generated_Source/PSoC5/CapSense_1_CSHL.c **** #endif /* End CapSense_1_RAW_FILTER_MASK && CapSense_1_POS_FILTERS_MASK */
  38:./Generated_Source/PSoC5/CapSense_1_CSHL.c **** 
  39:./Generated_Source/PSoC5/CapSense_1_CSHL.c **** /* IIR2Filter(1/2prev + 1/2cur) filter function prototype */
  40:./Generated_Source/PSoC5/CapSense_1_CSHL.c **** #if ( (CapSense_1_RAW_FILTER_MASK & CapSense_1_IIR2_FILTER) || \
  41:./Generated_Source/PSoC5/CapSense_1_CSHL.c ****       (CapSense_1_POS_FILTERS_MASK & CapSense_1_IIR2_FILTER) )
  42:./Generated_Source/PSoC5/CapSense_1_CSHL.c **** uint16 CapSense_1_IIR2Filter(uint16 x1, uint16 x2) ;
  43:./Generated_Source/PSoC5/CapSense_1_CSHL.c **** #endif /* End CapSense_1_RAW_FILTER_MASK && CapSense_1_POS_FILTERS_MASK */
  44:./Generated_Source/PSoC5/CapSense_1_CSHL.c **** 
  45:./Generated_Source/PSoC5/CapSense_1_CSHL.c **** /* IIR4Filter(3/4prev + 1/4cur) filter function prototype */
  46:./Generated_Source/PSoC5/CapSense_1_CSHL.c **** #if ( (CapSense_1_RAW_FILTER_MASK & CapSense_1_IIR4_FILTER) || \
  47:./Generated_Source/PSoC5/CapSense_1_CSHL.c ****       (CapSense_1_POS_FILTERS_MASK & CapSense_1_IIR4_FILTER) )
  48:./Generated_Source/PSoC5/CapSense_1_CSHL.c ****     uint16 CapSense_1_IIR4Filter(uint16 x1, uint16 x2) ;
  49:./Generated_Source/PSoC5/CapSense_1_CSHL.c **** #endif /* End CapSense_1_RAW_FILTER_MASK && CapSense_1_POS_FILTERS_MASK */
  50:./Generated_Source/PSoC5/CapSense_1_CSHL.c **** 
  51:./Generated_Source/PSoC5/CapSense_1_CSHL.c **** /* IIR8Filter(7/8prev + 1/8cur) filter function prototype - RawCounts only */
  52:./Generated_Source/PSoC5/CapSense_1_CSHL.c **** #if (CapSense_1_RAW_FILTER_MASK & CapSense_1_IIR8_FILTER)
  53:./Generated_Source/PSoC5/CapSense_1_CSHL.c ****     uint16 CapSense_1_IIR8Filter(uint16 x1, uint16 x2) ;
  54:./Generated_Source/PSoC5/CapSense_1_CSHL.c **** #endif /* End CapSense_1_RAW_FILTER_MASK */
  55:./Generated_Source/PSoC5/CapSense_1_CSHL.c **** 
  56:./Generated_Source/PSoC5/CapSense_1_CSHL.c **** /* IIR16Filter(15/16prev + 1/16cur) filter function prototype - RawCounts only */
  57:./Generated_Source/PSoC5/CapSense_1_CSHL.c **** #if (CapSense_1_RAW_FILTER_MASK & CapSense_1_IIR16_FILTER)
  58:./Generated_Source/PSoC5/CapSense_1_CSHL.c ****     uint16 CapSense_1_IIR16Filter(uint16 x1, uint16 x2) ;
  59:./Generated_Source/PSoC5/CapSense_1_CSHL.c **** #endif /* End CapSense_1_RAW_FILTER_MASK */
  60:./Generated_Source/PSoC5/CapSense_1_CSHL.c **** 
  61:./Generated_Source/PSoC5/CapSense_1_CSHL.c **** /* JitterFilter filter function prototype */
  62:./Generated_Source/PSoC5/CapSense_1_CSHL.c **** #if ( (CapSense_1_RAW_FILTER_MASK & CapSense_1_JITTER_FILTER) || \
  63:./Generated_Source/PSoC5/CapSense_1_CSHL.c ****       (CapSense_1_POS_FILTERS_MASK & CapSense_1_JITTER_FILTER) )
  64:./Generated_Source/PSoC5/CapSense_1_CSHL.c ****     uint16 CapSense_1_JitterFilter(uint16 x1, uint16 x2) ;
  65:./Generated_Source/PSoC5/CapSense_1_CSHL.c **** #endif /* End CapSense_1_RAW_FILTER_MASK && CapSense_1_POS_FILTERS_MASK */
ARM GAS  C:\Users\CHARLI~1\AppData\Local\Temp\ccF9CHT0.s 			page 4


  66:./Generated_Source/PSoC5/CapSense_1_CSHL.c **** 
  67:./Generated_Source/PSoC5/CapSense_1_CSHL.c **** /* Storage of filters data */
  68:./Generated_Source/PSoC5/CapSense_1_CSHL.c **** #if ( (CapSense_1_RAW_FILTER_MASK & CapSense_1_MEDIAN_FILTER) || \
  69:./Generated_Source/PSoC5/CapSense_1_CSHL.c ****       (CapSense_1_RAW_FILTER_MASK & CapSense_1_AVERAGING_FILTER) )
  70:./Generated_Source/PSoC5/CapSense_1_CSHL.c **** 
  71:./Generated_Source/PSoC5/CapSense_1_CSHL.c ****     uint16 CapSense_1_rawFilterData1[CapSense_1_TOTAL_SENSOR_COUNT];
  72:./Generated_Source/PSoC5/CapSense_1_CSHL.c ****     uint16 CapSense_1_rawFilterData2[CapSense_1_TOTAL_SENSOR_COUNT];
  73:./Generated_Source/PSoC5/CapSense_1_CSHL.c **** 
  74:./Generated_Source/PSoC5/CapSense_1_CSHL.c **** #elif ( (CapSense_1_RAW_FILTER_MASK & CapSense_1_IIR2_FILTER)   || \
  75:./Generated_Source/PSoC5/CapSense_1_CSHL.c ****         (CapSense_1_RAW_FILTER_MASK & CapSense_1_IIR4_FILTER)   || \
  76:./Generated_Source/PSoC5/CapSense_1_CSHL.c ****         (CapSense_1_RAW_FILTER_MASK & CapSense_1_JITTER_FILTER) || \
  77:./Generated_Source/PSoC5/CapSense_1_CSHL.c ****         (CapSense_1_RAW_FILTER_MASK & CapSense_1_IIR8_FILTER)   || \
  78:./Generated_Source/PSoC5/CapSense_1_CSHL.c ****         (CapSense_1_RAW_FILTER_MASK & CapSense_1_IIR16_FILTER) )
  79:./Generated_Source/PSoC5/CapSense_1_CSHL.c ****         
  80:./Generated_Source/PSoC5/CapSense_1_CSHL.c ****     uint16 CapSense_1_rawFilterData1[CapSense_1_TOTAL_SENSOR_COUNT];
  81:./Generated_Source/PSoC5/CapSense_1_CSHL.c **** 
  82:./Generated_Source/PSoC5/CapSense_1_CSHL.c **** #else
  83:./Generated_Source/PSoC5/CapSense_1_CSHL.c ****     /* No Raw filters */
  84:./Generated_Source/PSoC5/CapSense_1_CSHL.c **** #endif  /* End CapSense_1_RAW_FILTER_MASK */
  85:./Generated_Source/PSoC5/CapSense_1_CSHL.c **** 
  86:./Generated_Source/PSoC5/CapSense_1_CSHL.c **** extern uint16 CapSense_1_SensorRaw[CapSense_1_TOTAL_SENSOR_COUNT];
  87:./Generated_Source/PSoC5/CapSense_1_CSHL.c **** extern uint8 CapSense_1_SensorEnableMask[(((CapSense_1_TOTAL_SENSOR_COUNT - 1u) / 8u) + 1u)];
  88:./Generated_Source/PSoC5/CapSense_1_CSHL.c **** extern const uint8 CYCODE CapSense_1_widgetNumber[];
  89:./Generated_Source/PSoC5/CapSense_1_CSHL.c **** 
  90:./Generated_Source/PSoC5/CapSense_1_CSHL.c **** uint16 CapSense_1_SensorBaseline[CapSense_1_TOTAL_SENSOR_COUNT] = {0u};
  91:./Generated_Source/PSoC5/CapSense_1_CSHL.c **** uint8 CapSense_1_SensorBaselineLow[CapSense_1_TOTAL_SENSOR_COUNT] = {0u};
  92:./Generated_Source/PSoC5/CapSense_1_CSHL.c **** uint8 CapSense_1_SensorSignal[CapSense_1_TOTAL_SENSOR_COUNT] = {0u};
  93:./Generated_Source/PSoC5/CapSense_1_CSHL.c **** uint8 CapSense_1_SensorOnMask[(((CapSense_1_TOTAL_SENSOR_COUNT - 1u) / 8u) + 1u)] = {0u};
  94:./Generated_Source/PSoC5/CapSense_1_CSHL.c **** 
  95:./Generated_Source/PSoC5/CapSense_1_CSHL.c **** /* Helps while centroid calulation */
  96:./Generated_Source/PSoC5/CapSense_1_CSHL.c **** #if (CapSense_1_TOTAL_CENTROIDS_COUNT)
  97:./Generated_Source/PSoC5/CapSense_1_CSHL.c ****     static uint8 CapSense_1_centroid[3];
  98:./Generated_Source/PSoC5/CapSense_1_CSHL.c **** #endif  /* End (CapSense_1_TOTAL_CENTROIDS_COUNT) */
  99:./Generated_Source/PSoC5/CapSense_1_CSHL.c **** 
 100:./Generated_Source/PSoC5/CapSense_1_CSHL.c **** 
 101:./Generated_Source/PSoC5/CapSense_1_CSHL.c **** const uint8 CYCODE CapSense_1_fingerThreshold[] = {
 102:./Generated_Source/PSoC5/CapSense_1_CSHL.c ****     100u, 
 103:./Generated_Source/PSoC5/CapSense_1_CSHL.c **** };
 104:./Generated_Source/PSoC5/CapSense_1_CSHL.c **** 
 105:./Generated_Source/PSoC5/CapSense_1_CSHL.c **** const uint8 CYCODE CapSense_1_noiseThreshold[] = {
 106:./Generated_Source/PSoC5/CapSense_1_CSHL.c ****     20u, 
 107:./Generated_Source/PSoC5/CapSense_1_CSHL.c **** };
 108:./Generated_Source/PSoC5/CapSense_1_CSHL.c **** 
 109:./Generated_Source/PSoC5/CapSense_1_CSHL.c **** const uint8 CYCODE CapSense_1_hysteresis[] = {
 110:./Generated_Source/PSoC5/CapSense_1_CSHL.c ****     10u, 
 111:./Generated_Source/PSoC5/CapSense_1_CSHL.c **** };
 112:./Generated_Source/PSoC5/CapSense_1_CSHL.c **** 
 113:./Generated_Source/PSoC5/CapSense_1_CSHL.c **** const uint8 CYCODE CapSense_1_debounce[] = {
 114:./Generated_Source/PSoC5/CapSense_1_CSHL.c ****     5u, 
 115:./Generated_Source/PSoC5/CapSense_1_CSHL.c **** };
 116:./Generated_Source/PSoC5/CapSense_1_CSHL.c **** 
 117:./Generated_Source/PSoC5/CapSense_1_CSHL.c **** uint8 CapSense_1_debounceCounter[] = {
 118:./Generated_Source/PSoC5/CapSense_1_CSHL.c ****     0u, 0u, 
 119:./Generated_Source/PSoC5/CapSense_1_CSHL.c **** };
 120:./Generated_Source/PSoC5/CapSense_1_CSHL.c **** 
 121:./Generated_Source/PSoC5/CapSense_1_CSHL.c **** const uint8 CYCODE CapSense_1_rawDataIndex[] = {
 122:./Generated_Source/PSoC5/CapSense_1_CSHL.c ****     0u, /* DummyWidget__BTN */
ARM GAS  C:\Users\CHARLI~1\AppData\Local\Temp\ccF9CHT0.s 			page 5


 123:./Generated_Source/PSoC5/CapSense_1_CSHL.c **** 
 124:./Generated_Source/PSoC5/CapSense_1_CSHL.c **** };
 125:./Generated_Source/PSoC5/CapSense_1_CSHL.c **** 
 126:./Generated_Source/PSoC5/CapSense_1_CSHL.c **** const uint8 CYCODE CapSense_1_numberOfSensors[] = {
 127:./Generated_Source/PSoC5/CapSense_1_CSHL.c ****     1u, /* DummyWidget__BTN */
 128:./Generated_Source/PSoC5/CapSense_1_CSHL.c **** 
 129:./Generated_Source/PSoC5/CapSense_1_CSHL.c **** };
 130:./Generated_Source/PSoC5/CapSense_1_CSHL.c **** 
 131:./Generated_Source/PSoC5/CapSense_1_CSHL.c **** 
 132:./Generated_Source/PSoC5/CapSense_1_CSHL.c **** 
 133:./Generated_Source/PSoC5/CapSense_1_CSHL.c **** #if (CapSense_1_TOTAL_TOUCH_PADS_COUNT)
 134:./Generated_Source/PSoC5/CapSense_1_CSHL.c ****     uint8 CapSense_1_position[CapSense_1_TOTAL_CENTROIDS_COUNT] = {0xFFu};
 135:./Generated_Source/PSoC5/CapSense_1_CSHL.c **** #endif  /* End (CapSense_1_TOTAL_TOUCH_PADS_COUNT) */
 136:./Generated_Source/PSoC5/CapSense_1_CSHL.c **** 
 137:./Generated_Source/PSoC5/CapSense_1_CSHL.c **** 
 138:./Generated_Source/PSoC5/CapSense_1_CSHL.c **** /*******************************************************************************
 139:./Generated_Source/PSoC5/CapSense_1_CSHL.c **** * Function Name: CapSense_1_BaseInit
 140:./Generated_Source/PSoC5/CapSense_1_CSHL.c **** ********************************************************************************
 141:./Generated_Source/PSoC5/CapSense_1_CSHL.c **** *
 142:./Generated_Source/PSoC5/CapSense_1_CSHL.c **** * Summary:
 143:./Generated_Source/PSoC5/CapSense_1_CSHL.c **** *  Loads the CapSense_1_SensorBaseline[sensor] array element with an 
 144:./Generated_Source/PSoC5/CapSense_1_CSHL.c **** *  initial value which qual raw count value. 
 145:./Generated_Source/PSoC5/CapSense_1_CSHL.c **** *  Resets to zero CapSense_1_SensorBaselineLow[senesor] and 
 146:./Generated_Source/PSoC5/CapSense_1_CSHL.c **** *  CapSense_1_SensorSignal[sensor] array element.
 147:./Generated_Source/PSoC5/CapSense_1_CSHL.c **** *  Loads CapSense_1_debounceCounter[sensor] array element with initial 
 148:./Generated_Source/PSoC5/CapSense_1_CSHL.c **** *  value equal CapSense_1_debounce[].
 149:./Generated_Source/PSoC5/CapSense_1_CSHL.c **** *  Loads the CapSense_1_rawFilterData2[sensor] and 
 150:./Generated_Source/PSoC5/CapSense_1_CSHL.c **** *  CapSense_1_rawFilterData2[sensor] array element with an 
 151:./Generated_Source/PSoC5/CapSense_1_CSHL.c **** *  initial value which qual raw count value if raw data filter is enabled.
 152:./Generated_Source/PSoC5/CapSense_1_CSHL.c **** *
 153:./Generated_Source/PSoC5/CapSense_1_CSHL.c **** * Parameters:
 154:./Generated_Source/PSoC5/CapSense_1_CSHL.c **** *  sensor:  Sensor number.
 155:./Generated_Source/PSoC5/CapSense_1_CSHL.c **** *
 156:./Generated_Source/PSoC5/CapSense_1_CSHL.c **** * Return:
 157:./Generated_Source/PSoC5/CapSense_1_CSHL.c **** *  None
 158:./Generated_Source/PSoC5/CapSense_1_CSHL.c **** *
 159:./Generated_Source/PSoC5/CapSense_1_CSHL.c **** * Global Variables:
 160:./Generated_Source/PSoC5/CapSense_1_CSHL.c **** *  CapSense_1_SensorBaseline[]    - used to store baseline value.
 161:./Generated_Source/PSoC5/CapSense_1_CSHL.c **** *  CapSense_1_SensorBaselineLow[] - used to store fraction byte of 
 162:./Generated_Source/PSoC5/CapSense_1_CSHL.c **** *  baseline value.
 163:./Generated_Source/PSoC5/CapSense_1_CSHL.c **** *  CapSense_1_SensorSignal[]      - used to store diffence between 
 164:./Generated_Source/PSoC5/CapSense_1_CSHL.c **** *  current value of raw data and previous value of baseline.
 165:./Generated_Source/PSoC5/CapSense_1_CSHL.c **** *  CapSense_1_debounceCounter[]   - used to store current debounce 
 166:./Generated_Source/PSoC5/CapSense_1_CSHL.c **** *  counter of sensor. Widget which has this parameter are buttons, matrix 
 167:./Generated_Source/PSoC5/CapSense_1_CSHL.c **** *  buttons, proximity, guard. All other widgets haven't debounce parameter
 168:./Generated_Source/PSoC5/CapSense_1_CSHL.c **** *  and use the last element of this array with value 0 (it means no debounce).
 169:./Generated_Source/PSoC5/CapSense_1_CSHL.c **** *  CapSense_1_rawFilterData1[]    - used to store previous sample of 
 170:./Generated_Source/PSoC5/CapSense_1_CSHL.c **** *  any enabled raw data filter.
 171:./Generated_Source/PSoC5/CapSense_1_CSHL.c **** *  CapSense_1_rawFilterData2[]    - used to store before previous sample
 172:./Generated_Source/PSoC5/CapSense_1_CSHL.c **** *  of enabled raw data filter. Only required for median or average filters.
 173:./Generated_Source/PSoC5/CapSense_1_CSHL.c **** *
 174:./Generated_Source/PSoC5/CapSense_1_CSHL.c **** * Reentrant:
 175:./Generated_Source/PSoC5/CapSense_1_CSHL.c **** *  No
 176:./Generated_Source/PSoC5/CapSense_1_CSHL.c **** *
 177:./Generated_Source/PSoC5/CapSense_1_CSHL.c **** *******************************************************************************/
 178:./Generated_Source/PSoC5/CapSense_1_CSHL.c **** void CapSense_1_BaseInit(uint8 sensor)
 179:./Generated_Source/PSoC5/CapSense_1_CSHL.c **** {
ARM GAS  C:\Users\CHARLI~1\AppData\Local\Temp\ccF9CHT0.s 			page 6


 103              		.loc 1 179 0
 104              		.cfi_startproc
 105              		@ args = 0, pretend = 0, frame = 16
 106              		@ frame_needed = 1, uses_anonymous_args = 0
 107              		@ link register save eliminated.
 108 0000 80B4     		push	{r7}
 109              	.LCFI0:
 110              		.cfi_def_cfa_offset 4
 111 0002 85B0     		sub	sp, sp, #20
 112              	.LCFI1:
 113              		.cfi_def_cfa_offset 24
 114 0004 00AF     		add	r7, sp, #0
 115              		.cfi_offset 7, -4
 116              	.LCFI2:
 117              		.cfi_def_cfa_register 7
 118 0006 0346     		mov	r3, r0
 119 0008 FB71     		strb	r3, [r7, #7]
 180:./Generated_Source/PSoC5/CapSense_1_CSHL.c ****     #if ((CapSense_1_TOTAL_BUTTONS_COUNT) || (CapSense_1_TOTAL_MATRIX_BUTTONS_COUNT) || \
 181:./Generated_Source/PSoC5/CapSense_1_CSHL.c ****          (CapSense_1_TOTAL_GENERICS_COUNT))
 182:./Generated_Source/PSoC5/CapSense_1_CSHL.c ****         uint8 widget = CapSense_1_widgetNumber[sensor];
 120              		.loc 1 182 0
 121 000a FA79     		ldrb	r2, [r7, #7]	@ zero_extendqisi2
 122 000c 40F20003 		movw	r3, #:lower16:CapSense_1_widgetNumber
 123 0010 C0F20003 		movt	r3, #:upper16:CapSense_1_widgetNumber
 124 0014 9B5C     		ldrb	r3, [r3, r2]
 125 0016 FB73     		strb	r3, [r7, #15]
 183:./Generated_Source/PSoC5/CapSense_1_CSHL.c ****     #endif /* ((CapSense_1_TOTAL_MATRIX_BUTTONS_COUNT) || (CapSense_1_TOTAL_MATRIX_BUTTONS_COUNT)) 
 184:./Generated_Source/PSoC5/CapSense_1_CSHL.c ****     
 185:./Generated_Source/PSoC5/CapSense_1_CSHL.c ****     #if (CapSense_1_TOTAL_MATRIX_BUTTONS_COUNT)
 186:./Generated_Source/PSoC5/CapSense_1_CSHL.c ****         uint8 debounceIndex;
 187:./Generated_Source/PSoC5/CapSense_1_CSHL.c ****     #endif  /* End (CapSense_1_TOTAL_MATRIX_BUTTONS_COUNT != 0u) */
 188:./Generated_Source/PSoC5/CapSense_1_CSHL.c ****     
 189:./Generated_Source/PSoC5/CapSense_1_CSHL.c ****     #if (CapSense_1_TOTAL_GENERICS_COUNT)
 190:./Generated_Source/PSoC5/CapSense_1_CSHL.c ****         /* Exclude generic widget */
 191:./Generated_Source/PSoC5/CapSense_1_CSHL.c ****         if(widget < CapSense_1_END_OF_WIDGETS_INDEX)
 192:./Generated_Source/PSoC5/CapSense_1_CSHL.c ****         {
 193:./Generated_Source/PSoC5/CapSense_1_CSHL.c ****     #endif  /* End CapSense_1_TOTAL_GENERICS_COUNT */
 194:./Generated_Source/PSoC5/CapSense_1_CSHL.c ****     
 195:./Generated_Source/PSoC5/CapSense_1_CSHL.c ****     /* Initialize Baseline */
 196:./Generated_Source/PSoC5/CapSense_1_CSHL.c ****     CapSense_1_SensorBaseline[sensor] = CapSense_1_SensorRaw[sensor];
 126              		.loc 1 196 0
 127 0018 FA79     		ldrb	r2, [r7, #7]	@ zero_extendqisi2
 128 001a F979     		ldrb	r1, [r7, #7]	@ zero_extendqisi2
 129 001c 40F20003 		movw	r3, #:lower16:CapSense_1_SensorRaw
 130 0020 C0F20003 		movt	r3, #:upper16:CapSense_1_SensorRaw
 131 0024 33F81110 		ldrh	r1, [r3, r1, lsl #1]
 132 0028 40F20003 		movw	r3, #:lower16:CapSense_1_SensorBaseline
 133 002c C0F20003 		movt	r3, #:upper16:CapSense_1_SensorBaseline
 134 0030 23F81210 		strh	r1, [r3, r2, lsl #1]	@ movhi
 197:./Generated_Source/PSoC5/CapSense_1_CSHL.c ****     CapSense_1_SensorBaselineLow[sensor] = 0u;
 135              		.loc 1 197 0
 136 0034 FA79     		ldrb	r2, [r7, #7]	@ zero_extendqisi2
 137 0036 40F20003 		movw	r3, #:lower16:CapSense_1_SensorBaselineLow
 138 003a C0F20003 		movt	r3, #:upper16:CapSense_1_SensorBaselineLow
 139 003e 4FF00001 		mov	r1, #0
 140 0042 9954     		strb	r1, [r3, r2]
 198:./Generated_Source/PSoC5/CapSense_1_CSHL.c ****     CapSense_1_SensorSignal[sensor] = 0u;
ARM GAS  C:\Users\CHARLI~1\AppData\Local\Temp\ccF9CHT0.s 			page 7


 141              		.loc 1 198 0
 142 0044 FA79     		ldrb	r2, [r7, #7]	@ zero_extendqisi2
 143 0046 40F20003 		movw	r3, #:lower16:CapSense_1_SensorSignal
 144 004a C0F20003 		movt	r3, #:upper16:CapSense_1_SensorSignal
 145 004e 4FF00001 		mov	r1, #0
 146 0052 9954     		strb	r1, [r3, r2]
 199:./Generated_Source/PSoC5/CapSense_1_CSHL.c ****         
 200:./Generated_Source/PSoC5/CapSense_1_CSHL.c ****     CapSense_1_debounceCounter[widget] =  CapSense_1_debounce[widget];
 147              		.loc 1 200 0
 148 0054 FA7B     		ldrb	r2, [r7, #15]	@ zero_extendqisi2
 149 0056 F97B     		ldrb	r1, [r7, #15]	@ zero_extendqisi2
 150 0058 40F20003 		movw	r3, #:lower16:CapSense_1_debounce
 151 005c C0F20003 		movt	r3, #:upper16:CapSense_1_debounce
 152 0060 595C     		ldrb	r1, [r3, r1]	@ zero_extendqisi2
 153 0062 40F20003 		movw	r3, #:lower16:CapSense_1_debounceCounter
 154 0066 C0F20003 		movt	r3, #:upper16:CapSense_1_debounceCounter
 155 006a 9954     		strb	r1, [r3, r2]
 201:./Generated_Source/PSoC5/CapSense_1_CSHL.c **** 
 202:./Generated_Source/PSoC5/CapSense_1_CSHL.c ****     
 203:./Generated_Source/PSoC5/CapSense_1_CSHL.c ****     #if ( (CapSense_1_RAW_FILTER_MASK & CapSense_1_MEDIAN_FILTER) || \
 204:./Generated_Source/PSoC5/CapSense_1_CSHL.c ****           (CapSense_1_RAW_FILTER_MASK & CapSense_1_AVERAGING_FILTER) )
 205:./Generated_Source/PSoC5/CapSense_1_CSHL.c ****     
 206:./Generated_Source/PSoC5/CapSense_1_CSHL.c ****         CapSense_1_rawFilterData1[sensor] = CapSense_1_SensorRaw[sensor];
 207:./Generated_Source/PSoC5/CapSense_1_CSHL.c ****         CapSense_1_rawFilterData2[sensor] = CapSense_1_SensorRaw[sensor];
 208:./Generated_Source/PSoC5/CapSense_1_CSHL.c ****     
 209:./Generated_Source/PSoC5/CapSense_1_CSHL.c ****     #elif ( (CapSense_1_RAW_FILTER_MASK & CapSense_1_IIR2_FILTER)   || \
 210:./Generated_Source/PSoC5/CapSense_1_CSHL.c ****             (CapSense_1_RAW_FILTER_MASK & CapSense_1_IIR4_FILTER)   || \
 211:./Generated_Source/PSoC5/CapSense_1_CSHL.c ****             (CapSense_1_RAW_FILTER_MASK & CapSense_1_JITTER_FILTER) || \
 212:./Generated_Source/PSoC5/CapSense_1_CSHL.c ****             (CapSense_1_RAW_FILTER_MASK & CapSense_1_IIR8_FILTER)   || \
 213:./Generated_Source/PSoC5/CapSense_1_CSHL.c ****             (CapSense_1_RAW_FILTER_MASK & CapSense_1_IIR16_FILTER) )
 214:./Generated_Source/PSoC5/CapSense_1_CSHL.c ****             
 215:./Generated_Source/PSoC5/CapSense_1_CSHL.c ****         CapSense_1_rawFilterData1[sensor] = CapSense_1_SensorRaw[sensor];
 156              		.loc 1 215 0
 157 006c FA79     		ldrb	r2, [r7, #7]	@ zero_extendqisi2
 158 006e F979     		ldrb	r1, [r7, #7]	@ zero_extendqisi2
 159 0070 40F20003 		movw	r3, #:lower16:CapSense_1_SensorRaw
 160 0074 C0F20003 		movt	r3, #:upper16:CapSense_1_SensorRaw
 161 0078 33F81110 		ldrh	r1, [r3, r1, lsl #1]
 162 007c 40F20003 		movw	r3, #:lower16:CapSense_1_rawFilterData1
 163 0080 C0F20003 		movt	r3, #:upper16:CapSense_1_rawFilterData1
 164 0084 23F81210 		strh	r1, [r3, r2, lsl #1]	@ movhi
 216:./Generated_Source/PSoC5/CapSense_1_CSHL.c ****     
 217:./Generated_Source/PSoC5/CapSense_1_CSHL.c ****     #else
 218:./Generated_Source/PSoC5/CapSense_1_CSHL.c ****         /* No Raw filters */
 219:./Generated_Source/PSoC5/CapSense_1_CSHL.c ****     #endif  /* End CapSense_1_RAW_FILTER_MASK */
 220:./Generated_Source/PSoC5/CapSense_1_CSHL.c ****     
 221:./Generated_Source/PSoC5/CapSense_1_CSHL.c ****     #if (CapSense_1_TOTAL_GENERICS_COUNT)
 222:./Generated_Source/PSoC5/CapSense_1_CSHL.c ****         /* Exclude generic widget */
 223:./Generated_Source/PSoC5/CapSense_1_CSHL.c ****         }
 224:./Generated_Source/PSoC5/CapSense_1_CSHL.c ****     #endif  /* End CapSense_1_TOTAL_GENERICS_COUNT */
 225:./Generated_Source/PSoC5/CapSense_1_CSHL.c **** }
 165              		.loc 1 225 0
 166 0088 07F11407 		add	r7, r7, #20
 167 008c BD46     		mov	sp, r7
 168 008e 80BC     		pop	{r7}
 169 0090 7047     		bx	lr
 170              		.cfi_endproc
ARM GAS  C:\Users\CHARLI~1\AppData\Local\Temp\ccF9CHT0.s 			page 8


 171              	.LFE0:
 172              		.size	CapSense_1_BaseInit, .-CapSense_1_BaseInit
 173 0092 00BF     		.section	.text.CapSense_1_InitializeSensorBaseline,"ax",%progbits
 174              		.align	2
 175              		.global	CapSense_1_InitializeSensorBaseline
 176              		.thumb
 177              		.thumb_func
 178              		.type	CapSense_1_InitializeSensorBaseline, %function
 179              	CapSense_1_InitializeSensorBaseline:
 180              	.LFB1:
 226:./Generated_Source/PSoC5/CapSense_1_CSHL.c **** 
 227:./Generated_Source/PSoC5/CapSense_1_CSHL.c **** 
 228:./Generated_Source/PSoC5/CapSense_1_CSHL.c **** /*******************************************************************************
 229:./Generated_Source/PSoC5/CapSense_1_CSHL.c **** * Function Name: CapSense_1_InitializeSensorBaseline
 230:./Generated_Source/PSoC5/CapSense_1_CSHL.c **** ********************************************************************************
 231:./Generated_Source/PSoC5/CapSense_1_CSHL.c **** *
 232:./Generated_Source/PSoC5/CapSense_1_CSHL.c **** * Summary:
 233:./Generated_Source/PSoC5/CapSense_1_CSHL.c **** *  Loads the CapSense_1_SensorBaseline[sensor] array element with an 
 234:./Generated_Source/PSoC5/CapSense_1_CSHL.c **** *  initial value by scanning the selected sensor (one channel design) or pair 
 235:./Generated_Source/PSoC5/CapSense_1_CSHL.c **** *  of sensors (two channels designs). The raw count value is copied into the 
 236:./Generated_Source/PSoC5/CapSense_1_CSHL.c **** *  baseline array for each sensor. The raw data filters are initialized if 
 237:./Generated_Source/PSoC5/CapSense_1_CSHL.c **** *  enabled.
 238:./Generated_Source/PSoC5/CapSense_1_CSHL.c **** *
 239:./Generated_Source/PSoC5/CapSense_1_CSHL.c **** * Parameters:
 240:./Generated_Source/PSoC5/CapSense_1_CSHL.c **** *  sensor:  Sensor number.
 241:./Generated_Source/PSoC5/CapSense_1_CSHL.c **** *
 242:./Generated_Source/PSoC5/CapSense_1_CSHL.c **** * Return:
 243:./Generated_Source/PSoC5/CapSense_1_CSHL.c **** *  None
 244:./Generated_Source/PSoC5/CapSense_1_CSHL.c **** *
 245:./Generated_Source/PSoC5/CapSense_1_CSHL.c **** * Reentrant:
 246:./Generated_Source/PSoC5/CapSense_1_CSHL.c **** *  No
 247:./Generated_Source/PSoC5/CapSense_1_CSHL.c **** *
 248:./Generated_Source/PSoC5/CapSense_1_CSHL.c **** *******************************************************************************/
 249:./Generated_Source/PSoC5/CapSense_1_CSHL.c **** void CapSense_1_InitializeSensorBaseline(uint8 sensor)
 250:./Generated_Source/PSoC5/CapSense_1_CSHL.c **** {
 181              		.loc 1 250 0
 182              		.cfi_startproc
 183              		@ args = 0, pretend = 0, frame = 8
 184              		@ frame_needed = 1, uses_anonymous_args = 0
 185 0000 80B5     		push	{r7, lr}
 186              	.LCFI3:
 187              		.cfi_def_cfa_offset 8
 188 0002 82B0     		sub	sp, sp, #8
 189              	.LCFI4:
 190              		.cfi_def_cfa_offset 16
 191 0004 00AF     		add	r7, sp, #0
 192              		.cfi_offset 14, -4
 193              		.cfi_offset 7, -8
 194              	.LCFI5:
 195              		.cfi_def_cfa_register 7
 196 0006 0346     		mov	r3, r0
 197 0008 FB71     		strb	r3, [r7, #7]
 251:./Generated_Source/PSoC5/CapSense_1_CSHL.c ****     /* Scan sensor */
 252:./Generated_Source/PSoC5/CapSense_1_CSHL.c ****     CapSense_1_ScanSensor(sensor);
 198              		.loc 1 252 0
 199 000a FB79     		ldrb	r3, [r7, #7]	@ zero_extendqisi2
 200 000c 1846     		mov	r0, r3
ARM GAS  C:\Users\CHARLI~1\AppData\Local\Temp\ccF9CHT0.s 			page 9


 201 000e FFF7FEFF 		bl	CapSense_1_ScanSensor
 202              	.L4:
 253:./Generated_Source/PSoC5/CapSense_1_CSHL.c ****         while(CapSense_1_IsBusy() != 0u) {;}
 203              		.loc 1 253 0
 204 0012 FFF7FEFF 		bl	CapSense_1_IsBusy
 205 0016 0346     		mov	r3, r0
 206 0018 002B     		cmp	r3, #0
 207 001a FAD1     		bne	.L4
 254:./Generated_Source/PSoC5/CapSense_1_CSHL.c ****     
 255:./Generated_Source/PSoC5/CapSense_1_CSHL.c ****     #if (CapSense_1_DESIGN_TYPE == CapSense_1_ONE_CHANNEL_DESIGN)
 256:./Generated_Source/PSoC5/CapSense_1_CSHL.c ****         /* Initialize Baseline, Signal and debounce counters */       
 257:./Generated_Source/PSoC5/CapSense_1_CSHL.c ****         CapSense_1_BaseInit(sensor);
 208              		.loc 1 257 0
 209 001c FB79     		ldrb	r3, [r7, #7]	@ zero_extendqisi2
 210 001e 1846     		mov	r0, r3
 211 0020 FFF7FEFF 		bl	CapSense_1_BaseInit
 258:./Generated_Source/PSoC5/CapSense_1_CSHL.c ****         
 259:./Generated_Source/PSoC5/CapSense_1_CSHL.c ****     #else
 260:./Generated_Source/PSoC5/CapSense_1_CSHL.c ****     
 261:./Generated_Source/PSoC5/CapSense_1_CSHL.c ****         if(sensor < CapSense_1_TOTAL_SENSOR_COUNT__CH0)
 262:./Generated_Source/PSoC5/CapSense_1_CSHL.c ****         {
 263:./Generated_Source/PSoC5/CapSense_1_CSHL.c ****             /* Initialize Baseline, Signal and debounce counters */ 
 264:./Generated_Source/PSoC5/CapSense_1_CSHL.c ****             CapSense_1_BaseInit(sensor);
 265:./Generated_Source/PSoC5/CapSense_1_CSHL.c ****         }
 266:./Generated_Source/PSoC5/CapSense_1_CSHL.c ****         
 267:./Generated_Source/PSoC5/CapSense_1_CSHL.c ****         if(sensor < CapSense_1_TOTAL_SENSOR_COUNT__CH1)
 268:./Generated_Source/PSoC5/CapSense_1_CSHL.c ****         {
 269:./Generated_Source/PSoC5/CapSense_1_CSHL.c ****             /* Initialize Baseline, Signal and debounce counters */
 270:./Generated_Source/PSoC5/CapSense_1_CSHL.c ****             CapSense_1_BaseInit(sensor + CapSense_1_TOTAL_SENSOR_COUNT__CH0);
 271:./Generated_Source/PSoC5/CapSense_1_CSHL.c ****         }
 272:./Generated_Source/PSoC5/CapSense_1_CSHL.c ****     
 273:./Generated_Source/PSoC5/CapSense_1_CSHL.c ****     #endif  /* End (CapSense_1_DESIGN_TYPE == CapSense_1_ONE_CHANNEL_DESIGN) */
 274:./Generated_Source/PSoC5/CapSense_1_CSHL.c **** }
 212              		.loc 1 274 0
 213 0024 07F10807 		add	r7, r7, #8
 214 0028 BD46     		mov	sp, r7
 215 002a 80BD     		pop	{r7, pc}
 216              		.cfi_endproc
 217              	.LFE1:
 218              		.size	CapSense_1_InitializeSensorBaseline, .-CapSense_1_InitializeSensorBaseline
 219              		.section	.text.CapSense_1_InitializeAllBaselines,"ax",%progbits
 220              		.align	2
 221              		.global	CapSense_1_InitializeAllBaselines
 222              		.thumb
 223              		.thumb_func
 224              		.type	CapSense_1_InitializeAllBaselines, %function
 225              	CapSense_1_InitializeAllBaselines:
 226              	.LFB2:
 275:./Generated_Source/PSoC5/CapSense_1_CSHL.c **** 
 276:./Generated_Source/PSoC5/CapSense_1_CSHL.c **** 
 277:./Generated_Source/PSoC5/CapSense_1_CSHL.c **** /*******************************************************************************
 278:./Generated_Source/PSoC5/CapSense_1_CSHL.c **** * Function Name: CapSense_1_InitializeAllBaselines
 279:./Generated_Source/PSoC5/CapSense_1_CSHL.c **** ********************************************************************************
 280:./Generated_Source/PSoC5/CapSense_1_CSHL.c **** *
 281:./Generated_Source/PSoC5/CapSense_1_CSHL.c **** * Summary:
 282:./Generated_Source/PSoC5/CapSense_1_CSHL.c **** *  Uses the CapSense_1_InitializeSensorBaseline function to loads the 
 283:./Generated_Source/PSoC5/CapSense_1_CSHL.c **** *  CapSense_1_SensorBaseline[] array with an initial values by scanning 
ARM GAS  C:\Users\CHARLI~1\AppData\Local\Temp\ccF9CHT0.s 			page 10


 284:./Generated_Source/PSoC5/CapSense_1_CSHL.c **** *  all sensors. The raw count values are copied into the baseline array for 
 285:./Generated_Source/PSoC5/CapSense_1_CSHL.c **** *  all sensors. The raw data filters are initialized if enabled.
 286:./Generated_Source/PSoC5/CapSense_1_CSHL.c **** *
 287:./Generated_Source/PSoC5/CapSense_1_CSHL.c **** * Parameters:
 288:./Generated_Source/PSoC5/CapSense_1_CSHL.c **** *  None
 289:./Generated_Source/PSoC5/CapSense_1_CSHL.c **** *
 290:./Generated_Source/PSoC5/CapSense_1_CSHL.c **** * Return:
 291:./Generated_Source/PSoC5/CapSense_1_CSHL.c **** *  None
 292:./Generated_Source/PSoC5/CapSense_1_CSHL.c **** *
 293:./Generated_Source/PSoC5/CapSense_1_CSHL.c **** * Reentrant:
 294:./Generated_Source/PSoC5/CapSense_1_CSHL.c **** *  No
 295:./Generated_Source/PSoC5/CapSense_1_CSHL.c **** *
 296:./Generated_Source/PSoC5/CapSense_1_CSHL.c **** *******************************************************************************/
 297:./Generated_Source/PSoC5/CapSense_1_CSHL.c **** void CapSense_1_InitializeAllBaselines(void)
 298:./Generated_Source/PSoC5/CapSense_1_CSHL.c **** {
 227              		.loc 1 298 0
 228              		.cfi_startproc
 229              		@ args = 0, pretend = 0, frame = 8
 230              		@ frame_needed = 1, uses_anonymous_args = 0
 231 0000 80B5     		push	{r7, lr}
 232              	.LCFI6:
 233              		.cfi_def_cfa_offset 8
 234 0002 82B0     		sub	sp, sp, #8
 235              	.LCFI7:
 236              		.cfi_def_cfa_offset 16
 237 0004 00AF     		add	r7, sp, #0
 238              		.cfi_offset 14, -4
 239              		.cfi_offset 7, -8
 240              	.LCFI8:
 241              		.cfi_def_cfa_register 7
 299:./Generated_Source/PSoC5/CapSense_1_CSHL.c ****     uint8 i;
 300:./Generated_Source/PSoC5/CapSense_1_CSHL.c ****     
 301:./Generated_Source/PSoC5/CapSense_1_CSHL.c ****     /* The baseline initialize by sensor of sensor pair */
 302:./Generated_Source/PSoC5/CapSense_1_CSHL.c ****     for(i = 0u; i < CapSense_1_TOTAL_SCANSLOT_COUNT; i++)
 242              		.loc 1 302 0
 243 0006 4FF00003 		mov	r3, #0
 244 000a FB71     		strb	r3, [r7, #7]
 245 000c 07E0     		b	.L7
 246              	.L8:
 303:./Generated_Source/PSoC5/CapSense_1_CSHL.c ****     {
 304:./Generated_Source/PSoC5/CapSense_1_CSHL.c ****         CapSense_1_InitializeSensorBaseline(i);
 247              		.loc 1 304 0
 248 000e FB79     		ldrb	r3, [r7, #7]	@ zero_extendqisi2
 249 0010 1846     		mov	r0, r3
 250 0012 FFF7FEFF 		bl	CapSense_1_InitializeSensorBaseline
 251              		.loc 1 302 0
 252 0016 FB79     		ldrb	r3, [r7, #7]
 253 0018 03F10103 		add	r3, r3, #1
 254 001c FB71     		strb	r3, [r7, #7]
 255              	.L7:
 256 001e FB79     		ldrb	r3, [r7, #7]	@ zero_extendqisi2
 257 0020 002B     		cmp	r3, #0
 258 0022 F4D0     		beq	.L8
 305:./Generated_Source/PSoC5/CapSense_1_CSHL.c ****     }
 306:./Generated_Source/PSoC5/CapSense_1_CSHL.c **** }
 259              		.loc 1 306 0
 260 0024 07F10807 		add	r7, r7, #8
ARM GAS  C:\Users\CHARLI~1\AppData\Local\Temp\ccF9CHT0.s 			page 11


 261 0028 BD46     		mov	sp, r7
 262 002a 80BD     		pop	{r7, pc}
 263              		.cfi_endproc
 264              	.LFE2:
 265              		.size	CapSense_1_InitializeAllBaselines, .-CapSense_1_InitializeAllBaselines
 266              		.section	.text.CapSense_1_UpdateSensorBaseline,"ax",%progbits
 267              		.align	2
 268              		.global	CapSense_1_UpdateSensorBaseline
 269              		.thumb
 270              		.thumb_func
 271              		.type	CapSense_1_UpdateSensorBaseline, %function
 272              	CapSense_1_UpdateSensorBaseline:
 273              	.LFB3:
 307:./Generated_Source/PSoC5/CapSense_1_CSHL.c **** 
 308:./Generated_Source/PSoC5/CapSense_1_CSHL.c **** 
 309:./Generated_Source/PSoC5/CapSense_1_CSHL.c **** #if (CapSense_1_DESIGN_TYPE == CapSense_1_TWO_CHANNELS_DESIGN)
 310:./Generated_Source/PSoC5/CapSense_1_CSHL.c ****     /*******************************************************************************
 311:./Generated_Source/PSoC5/CapSense_1_CSHL.c ****     * Function Name: CapSense_1_InitializeEnabledBaselines
 312:./Generated_Source/PSoC5/CapSense_1_CSHL.c ****     ********************************************************************************
 313:./Generated_Source/PSoC5/CapSense_1_CSHL.c ****     *
 314:./Generated_Source/PSoC5/CapSense_1_CSHL.c ****     * Summary:
 315:./Generated_Source/PSoC5/CapSense_1_CSHL.c ****     *  Scans all enabled widgets and the raw count values are copied into the 
 316:./Generated_Source/PSoC5/CapSense_1_CSHL.c ****     *  baseline array for all sensors enabled in scanning process. Baselines 
 317:./Generated_Source/PSoC5/CapSense_1_CSHL.c ****     *  initialize with zero values for sensors disabled from scanning process. 
 318:./Generated_Source/PSoC5/CapSense_1_CSHL.c ****     *  The raw data filters are initialized if enabled.
 319:./Generated_Source/PSoC5/CapSense_1_CSHL.c ****     *
 320:./Generated_Source/PSoC5/CapSense_1_CSHL.c ****     * Parameters:
 321:./Generated_Source/PSoC5/CapSense_1_CSHL.c ****     *  None
 322:./Generated_Source/PSoC5/CapSense_1_CSHL.c ****     *
 323:./Generated_Source/PSoC5/CapSense_1_CSHL.c ****     * Return:
 324:./Generated_Source/PSoC5/CapSense_1_CSHL.c ****     *  None
 325:./Generated_Source/PSoC5/CapSense_1_CSHL.c ****     *
 326:./Generated_Source/PSoC5/CapSense_1_CSHL.c ****     * Reentrant:
 327:./Generated_Source/PSoC5/CapSense_1_CSHL.c ****     *  No
 328:./Generated_Source/PSoC5/CapSense_1_CSHL.c ****     *
 329:./Generated_Source/PSoC5/CapSense_1_CSHL.c ****     *******************************************************************************/
 330:./Generated_Source/PSoC5/CapSense_1_CSHL.c ****     void CapSense_1_InitializeEnabledBaselines(void)
 331:./Generated_Source/PSoC5/CapSense_1_CSHL.c ****     {
 332:./Generated_Source/PSoC5/CapSense_1_CSHL.c ****         uint8 i;
 333:./Generated_Source/PSoC5/CapSense_1_CSHL.c ****         uint8 pos;
 334:./Generated_Source/PSoC5/CapSense_1_CSHL.c ****         uint8 enMask;
 335:./Generated_Source/PSoC5/CapSense_1_CSHL.c ****         
 336:./Generated_Source/PSoC5/CapSense_1_CSHL.c ****         CapSense_1_ScanEnabledWidgets();
 337:./Generated_Source/PSoC5/CapSense_1_CSHL.c ****         while(CapSense_1_IsBusy() != 0u){;}
 338:./Generated_Source/PSoC5/CapSense_1_CSHL.c ****         
 339:./Generated_Source/PSoC5/CapSense_1_CSHL.c ****         for(i = 0u; i < CapSense_1_TOTAL_SENSOR_COUNT; i++)
 340:./Generated_Source/PSoC5/CapSense_1_CSHL.c ****         {
 341:./Generated_Source/PSoC5/CapSense_1_CSHL.c ****             pos = (i >> 3u);
 342:./Generated_Source/PSoC5/CapSense_1_CSHL.c ****             enMask = 0x01u << (i & 0x07u);
 343:./Generated_Source/PSoC5/CapSense_1_CSHL.c ****             
 344:./Generated_Source/PSoC5/CapSense_1_CSHL.c ****             /* Clear raw data if sensor is disabled from scanning process */
 345:./Generated_Source/PSoC5/CapSense_1_CSHL.c ****             if((CapSense_1_SensorEnableMask[pos] & enMask) == 0u)
 346:./Generated_Source/PSoC5/CapSense_1_CSHL.c ****             {
 347:./Generated_Source/PSoC5/CapSense_1_CSHL.c ****                 CapSense_1_SensorRaw[i] = 0u;
 348:./Generated_Source/PSoC5/CapSense_1_CSHL.c ****             }
 349:./Generated_Source/PSoC5/CapSense_1_CSHL.c ****             
 350:./Generated_Source/PSoC5/CapSense_1_CSHL.c ****             /* Initialize baselines */
ARM GAS  C:\Users\CHARLI~1\AppData\Local\Temp\ccF9CHT0.s 			page 12


 351:./Generated_Source/PSoC5/CapSense_1_CSHL.c ****             CapSense_1_BaseInit(i);
 352:./Generated_Source/PSoC5/CapSense_1_CSHL.c ****         }
 353:./Generated_Source/PSoC5/CapSense_1_CSHL.c ****     }  
 354:./Generated_Source/PSoC5/CapSense_1_CSHL.c **** #endif  /* End (CapSense_1_DESIGN_TYPE == CapSense_1_TWO_CHANNELS_DESIGN) */
 355:./Generated_Source/PSoC5/CapSense_1_CSHL.c **** 
 356:./Generated_Source/PSoC5/CapSense_1_CSHL.c **** 
 357:./Generated_Source/PSoC5/CapSense_1_CSHL.c **** /*******************************************************************************
 358:./Generated_Source/PSoC5/CapSense_1_CSHL.c **** * Function Name: CapSense_1_UpdateSensorBaseline
 359:./Generated_Source/PSoC5/CapSense_1_CSHL.c **** ********************************************************************************
 360:./Generated_Source/PSoC5/CapSense_1_CSHL.c **** *
 361:./Generated_Source/PSoC5/CapSense_1_CSHL.c **** * Summary:
 362:./Generated_Source/PSoC5/CapSense_1_CSHL.c **** *  Updates the CapSense_1_SensorBaseline[sensor] array element using the 
 363:./Generated_Source/PSoC5/CapSense_1_CSHL.c **** *  LP filter with k = 256. The signal calculates the difference of count by 
 364:./Generated_Source/PSoC5/CapSense_1_CSHL.c **** *  subtracting the previous baseline from the current raw count value and stores
 365:./Generated_Source/PSoC5/CapSense_1_CSHL.c **** *  it in CapSense_1_SensorSignal[sensor]. 
 366:./Generated_Source/PSoC5/CapSense_1_CSHL.c **** *  If auto reset option is enabled the baseline updated regards noise threshold. 
 367:./Generated_Source/PSoC5/CapSense_1_CSHL.c **** *  If auto reset option is disabled the baseline stops updating if signal is 
 368:./Generated_Source/PSoC5/CapSense_1_CSHL.c **** *  greater that zero and baseline loads with raw count value if signal is less 
 369:./Generated_Source/PSoC5/CapSense_1_CSHL.c **** *  that noise threshold.
 370:./Generated_Source/PSoC5/CapSense_1_CSHL.c **** *  Raw data filters are applied to the values if enabled before baseline 
 371:./Generated_Source/PSoC5/CapSense_1_CSHL.c **** *  calculation.
 372:./Generated_Source/PSoC5/CapSense_1_CSHL.c **** *
 373:./Generated_Source/PSoC5/CapSense_1_CSHL.c **** * Parameters:
 374:./Generated_Source/PSoC5/CapSense_1_CSHL.c **** *  sensor:  Sensor number.
 375:./Generated_Source/PSoC5/CapSense_1_CSHL.c **** *
 376:./Generated_Source/PSoC5/CapSense_1_CSHL.c **** * Return:
 377:./Generated_Source/PSoC5/CapSense_1_CSHL.c **** *  None
 378:./Generated_Source/PSoC5/CapSense_1_CSHL.c **** *
 379:./Generated_Source/PSoC5/CapSense_1_CSHL.c **** * Global Variables:
 380:./Generated_Source/PSoC5/CapSense_1_CSHL.c **** *  CapSense_1_SensorBaseline[]    - used to store baseline value.
 381:./Generated_Source/PSoC5/CapSense_1_CSHL.c **** *  CapSense_1_SensorBaselineLow[] - used to store fraction byte of 
 382:./Generated_Source/PSoC5/CapSense_1_CSHL.c **** *  baseline value.
 383:./Generated_Source/PSoC5/CapSense_1_CSHL.c **** *  CapSense_1_SensorSignal[]      - used to store diffence between 
 384:./Generated_Source/PSoC5/CapSense_1_CSHL.c **** *  current value of raw data and previous value of baseline.
 385:./Generated_Source/PSoC5/CapSense_1_CSHL.c **** *  CapSense_1_rawFilterData1[]    - used to store previous sample of 
 386:./Generated_Source/PSoC5/CapSense_1_CSHL.c **** *  any enabled raw data filter.
 387:./Generated_Source/PSoC5/CapSense_1_CSHL.c **** *  CapSense_1_rawFilterData2[]    - used to store before previous sample
 388:./Generated_Source/PSoC5/CapSense_1_CSHL.c **** *  of enabled raw data filter. Only required for median or average filters.
 389:./Generated_Source/PSoC5/CapSense_1_CSHL.c **** *
 390:./Generated_Source/PSoC5/CapSense_1_CSHL.c **** * Reentrant:
 391:./Generated_Source/PSoC5/CapSense_1_CSHL.c **** *  No
 392:./Generated_Source/PSoC5/CapSense_1_CSHL.c **** *
 393:./Generated_Source/PSoC5/CapSense_1_CSHL.c **** *******************************************************************************/
 394:./Generated_Source/PSoC5/CapSense_1_CSHL.c ****  void CapSense_1_UpdateSensorBaseline(uint8 sensor)
 395:./Generated_Source/PSoC5/CapSense_1_CSHL.c **** {
 274              		.loc 1 395 0
 275              		.cfi_startproc
 276              		@ args = 0, pretend = 0, frame = 24
 277              		@ frame_needed = 1, uses_anonymous_args = 0
 278 0000 80B5     		push	{r7, lr}
 279              	.LCFI9:
 280              		.cfi_def_cfa_offset 8
 281 0002 86B0     		sub	sp, sp, #24
 282              	.LCFI10:
 283              		.cfi_def_cfa_offset 32
 284 0004 00AF     		add	r7, sp, #0
 285              		.cfi_offset 14, -4
ARM GAS  C:\Users\CHARLI~1\AppData\Local\Temp\ccF9CHT0.s 			page 13


 286              		.cfi_offset 7, -8
 287              	.LCFI11:
 288              		.cfi_def_cfa_register 7
 289 0006 0346     		mov	r3, r0
 290 0008 FB71     		strb	r3, [r7, #7]
 396:./Generated_Source/PSoC5/CapSense_1_CSHL.c ****     uint32 calc;
 397:./Generated_Source/PSoC5/CapSense_1_CSHL.c ****     uint16 tempRaw;
 398:./Generated_Source/PSoC5/CapSense_1_CSHL.c ****     uint16 filteredRawData;
 399:./Generated_Source/PSoC5/CapSense_1_CSHL.c ****     uint8 widget = CapSense_1_widgetNumber[sensor];
 291              		.loc 1 399 0
 292 000a FA79     		ldrb	r2, [r7, #7]	@ zero_extendqisi2
 293 000c 40F20003 		movw	r3, #:lower16:CapSense_1_widgetNumber
 294 0010 C0F20003 		movt	r3, #:upper16:CapSense_1_widgetNumber
 295 0014 9B5C     		ldrb	r3, [r3, r2]
 296 0016 BB75     		strb	r3, [r7, #22]
 400:./Generated_Source/PSoC5/CapSense_1_CSHL.c ****     uint8 noiseThreshold = CapSense_1_noiseThreshold[widget];
 297              		.loc 1 400 0
 298 0018 BA7D     		ldrb	r2, [r7, #22]	@ zero_extendqisi2
 299 001a 40F20003 		movw	r3, #:lower16:CapSense_1_noiseThreshold
 300 001e C0F20003 		movt	r3, #:upper16:CapSense_1_noiseThreshold
 301 0022 9B5C     		ldrb	r3, [r3, r2]
 302 0024 FB75     		strb	r3, [r7, #23]
 401:./Generated_Source/PSoC5/CapSense_1_CSHL.c ****     
 402:./Generated_Source/PSoC5/CapSense_1_CSHL.c ****     #if (CapSense_1_TOTAL_GENERICS_COUNT)
 403:./Generated_Source/PSoC5/CapSense_1_CSHL.c ****         /* Exclude generic widget */
 404:./Generated_Source/PSoC5/CapSense_1_CSHL.c ****         if(widget < CapSense_1_END_OF_WIDGETS_INDEX)
 405:./Generated_Source/PSoC5/CapSense_1_CSHL.c ****         {
 406:./Generated_Source/PSoC5/CapSense_1_CSHL.c ****     #endif  /* End CapSense_1_TOTAL_GENERICS_COUNT */
 407:./Generated_Source/PSoC5/CapSense_1_CSHL.c ****     
 408:./Generated_Source/PSoC5/CapSense_1_CSHL.c ****     filteredRawData = CapSense_1_SensorRaw[sensor];
 303              		.loc 1 408 0
 304 0026 FA79     		ldrb	r2, [r7, #7]	@ zero_extendqisi2
 305 0028 40F20003 		movw	r3, #:lower16:CapSense_1_SensorRaw
 306 002c C0F20003 		movt	r3, #:upper16:CapSense_1_SensorRaw
 307 0030 33F81230 		ldrh	r3, [r3, r2, lsl #1]	@ movhi
 308 0034 BB82     		strh	r3, [r7, #20]	@ movhi
 409:./Generated_Source/PSoC5/CapSense_1_CSHL.c ****     
 410:./Generated_Source/PSoC5/CapSense_1_CSHL.c ****     #if (CapSense_1_RAW_FILTER_MASK & CapSense_1_MEDIAN_FILTER)
 411:./Generated_Source/PSoC5/CapSense_1_CSHL.c ****         tempRaw = filteredRawData;
 412:./Generated_Source/PSoC5/CapSense_1_CSHL.c ****         filteredRawData = CapSense_1_MedianFilter(filteredRawData, CapSense_1_rawFilterData1[sensor
 413:./Generated_Source/PSoC5/CapSense_1_CSHL.c ****                                                         CapSense_1_rawFilterData2[sensor]);
 414:./Generated_Source/PSoC5/CapSense_1_CSHL.c ****         CapSense_1_rawFilterData2[sensor] = CapSense_1_rawFilterData1[sensor];
 415:./Generated_Source/PSoC5/CapSense_1_CSHL.c ****         CapSense_1_rawFilterData1[sensor] = tempRaw;
 416:./Generated_Source/PSoC5/CapSense_1_CSHL.c ****         
 417:./Generated_Source/PSoC5/CapSense_1_CSHL.c ****     #elif (CapSense_1_RAW_FILTER_MASK & CapSense_1_AVERAGING_FILTER)
 418:./Generated_Source/PSoC5/CapSense_1_CSHL.c ****         tempRaw = filteredRawData;
 419:./Generated_Source/PSoC5/CapSense_1_CSHL.c ****         filteredRawData = CapSense_1_AveragingFilter(filteredRawData, CapSense_1_rawFilterData1[sen
 420:./Generated_Source/PSoC5/CapSense_1_CSHL.c ****                                                            CapSense_1_rawFilterData2[sensor]);
 421:./Generated_Source/PSoC5/CapSense_1_CSHL.c ****         CapSense_1_rawFilterData2[sensor] = CapSense_1_rawFilterData1[sensor];
 422:./Generated_Source/PSoC5/CapSense_1_CSHL.c ****         CapSense_1_rawFilterData1[sensor] = tempRaw;
 423:./Generated_Source/PSoC5/CapSense_1_CSHL.c ****         
 424:./Generated_Source/PSoC5/CapSense_1_CSHL.c ****     #elif (CapSense_1_RAW_FILTER_MASK & CapSense_1_IIR2_FILTER)
 425:./Generated_Source/PSoC5/CapSense_1_CSHL.c ****         filteredRawData = CapSense_1_IIR2Filter(filteredRawData, CapSense_1_rawFilterData1[sensor])
 426:./Generated_Source/PSoC5/CapSense_1_CSHL.c ****         CapSense_1_rawFilterData1[sensor] = filteredRawData;
 427:./Generated_Source/PSoC5/CapSense_1_CSHL.c ****         
 428:./Generated_Source/PSoC5/CapSense_1_CSHL.c ****     #elif (CapSense_1_RAW_FILTER_MASK & CapSense_1_IIR4_FILTER)
 429:./Generated_Source/PSoC5/CapSense_1_CSHL.c ****         filteredRawData = CapSense_1_IIR4Filter(filteredRawData, CapSense_1_rawFilterData1[sensor])
ARM GAS  C:\Users\CHARLI~1\AppData\Local\Temp\ccF9CHT0.s 			page 14


 309              		.loc 1 429 0
 310 0036 FA79     		ldrb	r2, [r7, #7]	@ zero_extendqisi2
 311 0038 40F20003 		movw	r3, #:lower16:CapSense_1_rawFilterData1
 312 003c C0F20003 		movt	r3, #:upper16:CapSense_1_rawFilterData1
 313 0040 33F81230 		ldrh	r3, [r3, r2, lsl #1]
 314 0044 BA8A     		ldrh	r2, [r7, #20]
 315 0046 1046     		mov	r0, r2
 316 0048 1946     		mov	r1, r3
 317 004a FFF7FEFF 		bl	CapSense_1_IIR4Filter
 318 004e 0346     		mov	r3, r0
 319 0050 BB82     		strh	r3, [r7, #20]	@ movhi
 430:./Generated_Source/PSoC5/CapSense_1_CSHL.c ****         CapSense_1_rawFilterData1[sensor] = filteredRawData;
 320              		.loc 1 430 0
 321 0052 FA79     		ldrb	r2, [r7, #7]	@ zero_extendqisi2
 322 0054 40F20003 		movw	r3, #:lower16:CapSense_1_rawFilterData1
 323 0058 C0F20003 		movt	r3, #:upper16:CapSense_1_rawFilterData1
 324 005c B98A     		ldrh	r1, [r7, #20]	@ movhi
 325 005e 23F81210 		strh	r1, [r3, r2, lsl #1]	@ movhi
 431:./Generated_Source/PSoC5/CapSense_1_CSHL.c ****             
 432:./Generated_Source/PSoC5/CapSense_1_CSHL.c ****     #elif (CapSense_1_RAW_FILTER_MASK & CapSense_1_JITTER_FILTER)
 433:./Generated_Source/PSoC5/CapSense_1_CSHL.c ****         filteredRawData = CapSense_1_JitterFilter(filteredRawData, CapSense_1_rawFilterData1[sensor
 434:./Generated_Source/PSoC5/CapSense_1_CSHL.c ****         CapSense_1_rawFilterData1[sensor] = filteredRawData;
 435:./Generated_Source/PSoC5/CapSense_1_CSHL.c ****         
 436:./Generated_Source/PSoC5/CapSense_1_CSHL.c ****     #elif (CapSense_1_RAW_FILTER_MASK & CapSense_1_IIR8_FILTER)
 437:./Generated_Source/PSoC5/CapSense_1_CSHL.c ****         filteredRawData = CapSense_1_IIR8Filter(filteredRawData, CapSense_1_rawFilterData1[sensor])
 438:./Generated_Source/PSoC5/CapSense_1_CSHL.c ****         CapSense_1_rawFilterData1[sensor] = filteredRawData;
 439:./Generated_Source/PSoC5/CapSense_1_CSHL.c ****         
 440:./Generated_Source/PSoC5/CapSense_1_CSHL.c ****     #elif (CapSense_1_RAW_FILTER_MASK & CapSense_1_IIR16_FILTER)
 441:./Generated_Source/PSoC5/CapSense_1_CSHL.c ****         filteredRawData = CapSense_1_IIR16Filter(filteredRawData, CapSense_1_rawFilterData1[sensor]
 442:./Generated_Source/PSoC5/CapSense_1_CSHL.c ****         CapSense_1_rawFilterData1[sensor] = filteredRawData;
 443:./Generated_Source/PSoC5/CapSense_1_CSHL.c ****         
 444:./Generated_Source/PSoC5/CapSense_1_CSHL.c ****     #else
 445:./Generated_Source/PSoC5/CapSense_1_CSHL.c ****         /* No Raw filters */
 446:./Generated_Source/PSoC5/CapSense_1_CSHL.c ****     #endif  /* End CapSense_1_RAW_FILTER_MASK */
 447:./Generated_Source/PSoC5/CapSense_1_CSHL.c ****     
 448:./Generated_Source/PSoC5/CapSense_1_CSHL.c ****     #if (CapSense_1_TUNING_METHOD == CapSense_1_AUTO_TUNING)
 449:./Generated_Source/PSoC5/CapSense_1_CSHL.c ****         CapSense_1_CalculateThresholds(sensor);
 450:./Generated_Source/PSoC5/CapSense_1_CSHL.c ****     #endif /* End (CapSense_1_TUNING_METHOD == CapSense_1_AUTO_TUNING) */
 451:./Generated_Source/PSoC5/CapSense_1_CSHL.c ****     
 452:./Generated_Source/PSoC5/CapSense_1_CSHL.c ****     /* Baseline calculation */
 453:./Generated_Source/PSoC5/CapSense_1_CSHL.c ****     #if (CapSense_1_AUTO_RESET == CapSense_1_AUTO_RESET_DISABLE)
 454:./Generated_Source/PSoC5/CapSense_1_CSHL.c ****         
 455:./Generated_Source/PSoC5/CapSense_1_CSHL.c ****         /* Calculate difference RawData[cur] - Baseline[prev] */
 456:./Generated_Source/PSoC5/CapSense_1_CSHL.c ****         if(filteredRawData >= CapSense_1_SensorBaseline[sensor])
 326              		.loc 1 456 0
 327 0062 FA79     		ldrb	r2, [r7, #7]	@ zero_extendqisi2
 328 0064 40F20003 		movw	r3, #:lower16:CapSense_1_SensorBaseline
 329 0068 C0F20003 		movt	r3, #:upper16:CapSense_1_SensorBaseline
 330 006c 33F81230 		ldrh	r3, [r3, r2, lsl #1]
 331 0070 BA8A     		ldrh	r2, [r7, #20]
 332 0072 9A42     		cmp	r2, r3
 333 0074 0ED3     		bcc	.L11
 457:./Generated_Source/PSoC5/CapSense_1_CSHL.c ****         {
 458:./Generated_Source/PSoC5/CapSense_1_CSHL.c ****             tempRaw = filteredRawData - CapSense_1_SensorBaseline[sensor];
 334              		.loc 1 458 0
 335 0076 FA79     		ldrb	r2, [r7, #7]	@ zero_extendqisi2
 336 0078 40F20003 		movw	r3, #:lower16:CapSense_1_SensorBaseline
ARM GAS  C:\Users\CHARLI~1\AppData\Local\Temp\ccF9CHT0.s 			page 15


 337 007c C0F20003 		movt	r3, #:upper16:CapSense_1_SensorBaseline
 338 0080 33F81230 		ldrh	r3, [r3, r2, lsl #1]
 339 0084 BA8A     		ldrh	r2, [r7, #20]	@ movhi
 340 0086 C3EB0203 		rsb	r3, r3, r2
 341 008a 7B82     		strh	r3, [r7, #18]	@ movhi
 459:./Generated_Source/PSoC5/CapSense_1_CSHL.c ****             widget = 1u;        /* Positive difference */
 342              		.loc 1 459 0
 343 008c 4FF00103 		mov	r3, #1
 344 0090 BB75     		strb	r3, [r7, #22]
 345 0092 0DE0     		b	.L12
 346              	.L11:
 460:./Generated_Source/PSoC5/CapSense_1_CSHL.c ****         }
 461:./Generated_Source/PSoC5/CapSense_1_CSHL.c ****         else
 462:./Generated_Source/PSoC5/CapSense_1_CSHL.c ****         {
 463:./Generated_Source/PSoC5/CapSense_1_CSHL.c ****             tempRaw = CapSense_1_SensorBaseline[sensor] - filteredRawData;
 347              		.loc 1 463 0
 348 0094 FA79     		ldrb	r2, [r7, #7]	@ zero_extendqisi2
 349 0096 40F20003 		movw	r3, #:lower16:CapSense_1_SensorBaseline
 350 009a C0F20003 		movt	r3, #:upper16:CapSense_1_SensorBaseline
 351 009e 33F81220 		ldrh	r2, [r3, r2, lsl #1]
 352 00a2 BB8A     		ldrh	r3, [r7, #20]	@ movhi
 353 00a4 C3EB0203 		rsb	r3, r3, r2
 354 00a8 7B82     		strh	r3, [r7, #18]	@ movhi
 464:./Generated_Source/PSoC5/CapSense_1_CSHL.c ****             widget = 0u;        /* Negative difference */
 355              		.loc 1 464 0
 356 00aa 4FF00003 		mov	r3, #0
 357 00ae BB75     		strb	r3, [r7, #22]
 358              	.L12:
 465:./Generated_Source/PSoC5/CapSense_1_CSHL.c ****         }
 466:./Generated_Source/PSoC5/CapSense_1_CSHL.c ****         
 467:./Generated_Source/PSoC5/CapSense_1_CSHL.c ****         /* Update Baseline if lower that noiseThreshold */
 468:./Generated_Source/PSoC5/CapSense_1_CSHL.c ****         if (tempRaw <= (uint16) noiseThreshold)
 359              		.loc 1 468 0
 360 00b0 FB7D     		ldrb	r3, [r7, #23]	@ zero_extendqisi2
 361 00b2 7A8A     		ldrh	r2, [r7, #18]
 362 00b4 9A42     		cmp	r2, r3
 363 00b6 3ED8     		bhi	.L13
 469:./Generated_Source/PSoC5/CapSense_1_CSHL.c ****         {
 470:./Generated_Source/PSoC5/CapSense_1_CSHL.c ****             /* Make full Baseline 23 bits */
 471:./Generated_Source/PSoC5/CapSense_1_CSHL.c ****             calc = (uint32) CapSense_1_SensorBaseline[sensor] << 8u;
 364              		.loc 1 471 0
 365 00b8 FA79     		ldrb	r2, [r7, #7]	@ zero_extendqisi2
 366 00ba 40F20003 		movw	r3, #:lower16:CapSense_1_SensorBaseline
 367 00be C0F20003 		movt	r3, #:upper16:CapSense_1_SensorBaseline
 368 00c2 33F81230 		ldrh	r3, [r3, r2, lsl #1]
 369 00c6 4FEA0323 		lsl	r3, r3, #8
 370 00ca FB60     		str	r3, [r7, #12]
 472:./Generated_Source/PSoC5/CapSense_1_CSHL.c ****             calc |= (uint32) CapSense_1_SensorBaselineLow[sensor];
 371              		.loc 1 472 0
 372 00cc FA79     		ldrb	r2, [r7, #7]	@ zero_extendqisi2
 373 00ce 40F20003 		movw	r3, #:lower16:CapSense_1_SensorBaselineLow
 374 00d2 C0F20003 		movt	r3, #:upper16:CapSense_1_SensorBaselineLow
 375 00d6 9B5C     		ldrb	r3, [r3, r2]	@ zero_extendqisi2
 376 00d8 FA68     		ldr	r2, [r7, #12]
 377 00da 42EA0303 		orr	r3, r2, r3
 378 00de FB60     		str	r3, [r7, #12]
 473:./Generated_Source/PSoC5/CapSense_1_CSHL.c ****             
ARM GAS  C:\Users\CHARLI~1\AppData\Local\Temp\ccF9CHT0.s 			page 16


 474:./Generated_Source/PSoC5/CapSense_1_CSHL.c ****             /* Add Raw Data to Baseline */
 475:./Generated_Source/PSoC5/CapSense_1_CSHL.c ****             calc += filteredRawData;
 379              		.loc 1 475 0
 380 00e0 BB8A     		ldrh	r3, [r7, #20]
 381 00e2 FA68     		ldr	r2, [r7, #12]
 382 00e4 1344     		add	r3, r2, r3
 383 00e6 FB60     		str	r3, [r7, #12]
 476:./Generated_Source/PSoC5/CapSense_1_CSHL.c ****             
 477:./Generated_Source/PSoC5/CapSense_1_CSHL.c ****             /* Sub the high Baseline */
 478:./Generated_Source/PSoC5/CapSense_1_CSHL.c ****             calc -= CapSense_1_SensorBaseline[sensor];
 384              		.loc 1 478 0
 385 00e8 FA79     		ldrb	r2, [r7, #7]	@ zero_extendqisi2
 386 00ea 40F20003 		movw	r3, #:lower16:CapSense_1_SensorBaseline
 387 00ee C0F20003 		movt	r3, #:upper16:CapSense_1_SensorBaseline
 388 00f2 33F81230 		ldrh	r3, [r3, r2, lsl #1]
 389 00f6 FA68     		ldr	r2, [r7, #12]
 390 00f8 C3EB0203 		rsb	r3, r3, r2
 391 00fc FB60     		str	r3, [r7, #12]
 479:./Generated_Source/PSoC5/CapSense_1_CSHL.c ****             
 480:./Generated_Source/PSoC5/CapSense_1_CSHL.c ****             /* Put Baseline and BaselineLow */
 481:./Generated_Source/PSoC5/CapSense_1_CSHL.c ****             CapSense_1_SensorBaseline[sensor] = ((uint16) (calc >> 8u));
 392              		.loc 1 481 0
 393 00fe FA79     		ldrb	r2, [r7, #7]	@ zero_extendqisi2
 394 0100 FB68     		ldr	r3, [r7, #12]
 395 0102 4FEA1323 		lsr	r3, r3, #8
 396 0106 99B2     		uxth	r1, r3
 397 0108 40F20003 		movw	r3, #:lower16:CapSense_1_SensorBaseline
 398 010c C0F20003 		movt	r3, #:upper16:CapSense_1_SensorBaseline
 399 0110 23F81210 		strh	r1, [r3, r2, lsl #1]	@ movhi
 482:./Generated_Source/PSoC5/CapSense_1_CSHL.c ****             CapSense_1_SensorBaselineLow[sensor] = ((uint8) calc);
 400              		.loc 1 482 0
 401 0114 FA79     		ldrb	r2, [r7, #7]	@ zero_extendqisi2
 402 0116 FB68     		ldr	r3, [r7, #12]
 403 0118 D9B2     		uxtb	r1, r3
 404 011a 40F20003 		movw	r3, #:lower16:CapSense_1_SensorBaselineLow
 405 011e C0F20003 		movt	r3, #:upper16:CapSense_1_SensorBaselineLow
 406 0122 9954     		strb	r1, [r3, r2]
 483:./Generated_Source/PSoC5/CapSense_1_CSHL.c ****             
 484:./Generated_Source/PSoC5/CapSense_1_CSHL.c ****             /* Signal is zero */
 485:./Generated_Source/PSoC5/CapSense_1_CSHL.c ****             CapSense_1_SensorSignal[sensor] = 0u;
 407              		.loc 1 485 0
 408 0124 FA79     		ldrb	r2, [r7, #7]	@ zero_extendqisi2
 409 0126 40F20003 		movw	r3, #:lower16:CapSense_1_SensorSignal
 410 012a C0F20003 		movt	r3, #:upper16:CapSense_1_SensorSignal
 411 012e 4FF00001 		mov	r1, #0
 412 0132 9954     		strb	r1, [r3, r2]
 413 0134 2FE0     		b	.L18
 414              	.L13:
 486:./Generated_Source/PSoC5/CapSense_1_CSHL.c ****         }
 487:./Generated_Source/PSoC5/CapSense_1_CSHL.c ****         /* Calculate Signal if possitive difference > noiseThreshold */
 488:./Generated_Source/PSoC5/CapSense_1_CSHL.c ****         else if (widget != 0u)
 415              		.loc 1 488 0
 416 0136 BB7D     		ldrb	r3, [r7, #22]	@ zero_extendqisi2
 417 0138 002B     		cmp	r3, #0
 418 013a 14D0     		beq	.L15
 489:./Generated_Source/PSoC5/CapSense_1_CSHL.c ****         {
 490:./Generated_Source/PSoC5/CapSense_1_CSHL.c ****             #if (CapSense_1_SIGNAL_SIZE == CapSense_1_SIGNAL_SIZE_UINT8)
ARM GAS  C:\Users\CHARLI~1\AppData\Local\Temp\ccF9CHT0.s 			page 17


 491:./Generated_Source/PSoC5/CapSense_1_CSHL.c ****                 /* Over flow defence for uint8 */
 492:./Generated_Source/PSoC5/CapSense_1_CSHL.c ****                 if (tempRaw > 0xFFu)
 419              		.loc 1 492 0
 420 013c 7B8A     		ldrh	r3, [r7, #18]
 421 013e FF2B     		cmp	r3, #255
 422 0140 08D9     		bls	.L16
 493:./Generated_Source/PSoC5/CapSense_1_CSHL.c ****                 {
 494:./Generated_Source/PSoC5/CapSense_1_CSHL.c ****                     CapSense_1_SensorSignal[sensor] = 0xFFu;
 423              		.loc 1 494 0
 424 0142 FA79     		ldrb	r2, [r7, #7]	@ zero_extendqisi2
 425 0144 40F20003 		movw	r3, #:lower16:CapSense_1_SensorSignal
 426 0148 C0F20003 		movt	r3, #:upper16:CapSense_1_SensorSignal
 427 014c 4FF0FF31 		mov	r1, #-1
 428 0150 9954     		strb	r1, [r3, r2]
 495:./Generated_Source/PSoC5/CapSense_1_CSHL.c ****                 }    
 496:./Generated_Source/PSoC5/CapSense_1_CSHL.c ****                 else 
 497:./Generated_Source/PSoC5/CapSense_1_CSHL.c ****                 {
 498:./Generated_Source/PSoC5/CapSense_1_CSHL.c ****                     CapSense_1_SensorSignal[sensor] = ((uint8) tempRaw);
 429              		.loc 1 498 0
 430 0152 20E0     		b	.L18
 431              	.L16:
 432 0154 FA79     		ldrb	r2, [r7, #7]	@ zero_extendqisi2
 433 0156 7B8A     		ldrh	r3, [r7, #18]	@ movhi
 434 0158 D9B2     		uxtb	r1, r3
 435 015a 40F20003 		movw	r3, #:lower16:CapSense_1_SensorSignal
 436 015e C0F20003 		movt	r3, #:upper16:CapSense_1_SensorSignal
 437 0162 9954     		strb	r1, [r3, r2]
 438 0164 17E0     		b	.L18
 439              	.L15:
 499:./Generated_Source/PSoC5/CapSense_1_CSHL.c ****                 }
 500:./Generated_Source/PSoC5/CapSense_1_CSHL.c ****             #else
 501:./Generated_Source/PSoC5/CapSense_1_CSHL.c ****                 CapSense_1_SensorSignal[sensor] = ((uint16) tempRaw);
 502:./Generated_Source/PSoC5/CapSense_1_CSHL.c ****                 
 503:./Generated_Source/PSoC5/CapSense_1_CSHL.c ****             #endif  /* End CapSense_1_SIGNAL_SIZE */
 504:./Generated_Source/PSoC5/CapSense_1_CSHL.c ****         }
 505:./Generated_Source/PSoC5/CapSense_1_CSHL.c ****         /* Reinitialize if negative difference > noiseThreshold */
 506:./Generated_Source/PSoC5/CapSense_1_CSHL.c ****         else
 507:./Generated_Source/PSoC5/CapSense_1_CSHL.c ****         {
 508:./Generated_Source/PSoC5/CapSense_1_CSHL.c ****             /* Baseline and BaselineLow re-init */
 509:./Generated_Source/PSoC5/CapSense_1_CSHL.c ****             CapSense_1_SensorBaseline[sensor] = filteredRawData;
 440              		.loc 1 509 0
 441 0166 FA79     		ldrb	r2, [r7, #7]	@ zero_extendqisi2
 442 0168 40F20003 		movw	r3, #:lower16:CapSense_1_SensorBaseline
 443 016c C0F20003 		movt	r3, #:upper16:CapSense_1_SensorBaseline
 444 0170 B98A     		ldrh	r1, [r7, #20]	@ movhi
 445 0172 23F81210 		strh	r1, [r3, r2, lsl #1]	@ movhi
 510:./Generated_Source/PSoC5/CapSense_1_CSHL.c ****             CapSense_1_SensorBaselineLow[sensor] = 0u;
 446              		.loc 1 510 0
 447 0176 FA79     		ldrb	r2, [r7, #7]	@ zero_extendqisi2
 448 0178 40F20003 		movw	r3, #:lower16:CapSense_1_SensorBaselineLow
 449 017c C0F20003 		movt	r3, #:upper16:CapSense_1_SensorBaselineLow
 450 0180 4FF00001 		mov	r1, #0
 451 0184 9954     		strb	r1, [r3, r2]
 511:./Generated_Source/PSoC5/CapSense_1_CSHL.c ****             
 512:./Generated_Source/PSoC5/CapSense_1_CSHL.c ****             /* Signal is zero */
 513:./Generated_Source/PSoC5/CapSense_1_CSHL.c ****             CapSense_1_SensorSignal[sensor] = 0u;
 452              		.loc 1 513 0
ARM GAS  C:\Users\CHARLI~1\AppData\Local\Temp\ccF9CHT0.s 			page 18


 453 0186 FA79     		ldrb	r2, [r7, #7]	@ zero_extendqisi2
 454 0188 40F20003 		movw	r3, #:lower16:CapSense_1_SensorSignal
 455 018c C0F20003 		movt	r3, #:upper16:CapSense_1_SensorSignal
 456 0190 4FF00001 		mov	r1, #0
 457 0194 9954     		strb	r1, [r3, r2]
 458              	.L18:
 514:./Generated_Source/PSoC5/CapSense_1_CSHL.c ****         }
 515:./Generated_Source/PSoC5/CapSense_1_CSHL.c ****     
 516:./Generated_Source/PSoC5/CapSense_1_CSHL.c ****     #else
 517:./Generated_Source/PSoC5/CapSense_1_CSHL.c ****         /* Calculate difference RawData[cur] - Baseline[prev] */
 518:./Generated_Source/PSoC5/CapSense_1_CSHL.c ****         if(filteredRawData >= CapSense_1_SensorBaseline[sensor])
 519:./Generated_Source/PSoC5/CapSense_1_CSHL.c ****         {
 520:./Generated_Source/PSoC5/CapSense_1_CSHL.c ****             tempRaw = filteredRawData - CapSense_1_SensorBaseline[sensor];
 521:./Generated_Source/PSoC5/CapSense_1_CSHL.c ****             widget = 1u;    /* Calculate the Signal */
 522:./Generated_Source/PSoC5/CapSense_1_CSHL.c ****         }
 523:./Generated_Source/PSoC5/CapSense_1_CSHL.c ****         else
 524:./Generated_Source/PSoC5/CapSense_1_CSHL.c ****         {
 525:./Generated_Source/PSoC5/CapSense_1_CSHL.c ****             tempRaw = CapSense_1_SensorBaseline[sensor] - filteredRawData;
 526:./Generated_Source/PSoC5/CapSense_1_CSHL.c ****             widget = 0u;    /* Do NOT calculate the Signal */
 527:./Generated_Source/PSoC5/CapSense_1_CSHL.c ****         }
 528:./Generated_Source/PSoC5/CapSense_1_CSHL.c ****         
 529:./Generated_Source/PSoC5/CapSense_1_CSHL.c ****         if((tempRaw > (uint16) noiseThreshold) && (widget != 0u))
 530:./Generated_Source/PSoC5/CapSense_1_CSHL.c ****         {
 531:./Generated_Source/PSoC5/CapSense_1_CSHL.c ****             #if (CapSense_1_SIGNAL_SIZE == CapSense_1_SIGNAL_SIZE_UINT8)
 532:./Generated_Source/PSoC5/CapSense_1_CSHL.c ****                 /* Over flow defence for uint8 */
 533:./Generated_Source/PSoC5/CapSense_1_CSHL.c ****                 if (tempRaw > 0xFFu)
 534:./Generated_Source/PSoC5/CapSense_1_CSHL.c ****                 {
 535:./Generated_Source/PSoC5/CapSense_1_CSHL.c ****                     CapSense_1_SensorSignal[sensor] = 0xFFu;
 536:./Generated_Source/PSoC5/CapSense_1_CSHL.c ****                 }    
 537:./Generated_Source/PSoC5/CapSense_1_CSHL.c ****                 else 
 538:./Generated_Source/PSoC5/CapSense_1_CSHL.c ****                 {
 539:./Generated_Source/PSoC5/CapSense_1_CSHL.c ****                     CapSense_1_SensorSignal[sensor] = ((uint8) tempRaw);
 540:./Generated_Source/PSoC5/CapSense_1_CSHL.c ****                 }
 541:./Generated_Source/PSoC5/CapSense_1_CSHL.c ****             #else
 542:./Generated_Source/PSoC5/CapSense_1_CSHL.c ****                 CapSense_1_SensorSignal[sensor] = ((uint16) tempRaw);
 543:./Generated_Source/PSoC5/CapSense_1_CSHL.c ****                 
 544:./Generated_Source/PSoC5/CapSense_1_CSHL.c ****             #endif  /* End CapSense_1_SIGNAL_SIZE */
 545:./Generated_Source/PSoC5/CapSense_1_CSHL.c ****         }
 546:./Generated_Source/PSoC5/CapSense_1_CSHL.c ****         else
 547:./Generated_Source/PSoC5/CapSense_1_CSHL.c ****         {
 548:./Generated_Source/PSoC5/CapSense_1_CSHL.c ****             /* Signal is zero */
 549:./Generated_Source/PSoC5/CapSense_1_CSHL.c ****             CapSense_1_SensorSignal[sensor] = 0u;
 550:./Generated_Source/PSoC5/CapSense_1_CSHL.c ****         }
 551:./Generated_Source/PSoC5/CapSense_1_CSHL.c ****         
 552:./Generated_Source/PSoC5/CapSense_1_CSHL.c ****         /* Update Baseline */
 553:./Generated_Source/PSoC5/CapSense_1_CSHL.c ****         /* Make full Baseline 23 bits */
 554:./Generated_Source/PSoC5/CapSense_1_CSHL.c ****         calc = (uint32) CapSense_1_SensorBaseline[sensor] << 8u;
 555:./Generated_Source/PSoC5/CapSense_1_CSHL.c ****         calc |= (uint32) CapSense_1_SensorBaselineLow[sensor];
 556:./Generated_Source/PSoC5/CapSense_1_CSHL.c ****         
 557:./Generated_Source/PSoC5/CapSense_1_CSHL.c ****         /* Add Raw Data to Baseline */
 558:./Generated_Source/PSoC5/CapSense_1_CSHL.c ****         calc += filteredRawData;
 559:./Generated_Source/PSoC5/CapSense_1_CSHL.c ****         
 560:./Generated_Source/PSoC5/CapSense_1_CSHL.c ****         /* Sub the high Baseline */
 561:./Generated_Source/PSoC5/CapSense_1_CSHL.c ****         calc -= CapSense_1_SensorBaseline[sensor];
 562:./Generated_Source/PSoC5/CapSense_1_CSHL.c ****         
 563:./Generated_Source/PSoC5/CapSense_1_CSHL.c ****         /* Put Baseline and BaselineLow */
 564:./Generated_Source/PSoC5/CapSense_1_CSHL.c ****         CapSense_1_SensorBaseline[sensor] = ((uint16) (calc >> 8u));
ARM GAS  C:\Users\CHARLI~1\AppData\Local\Temp\ccF9CHT0.s 			page 19


 565:./Generated_Source/PSoC5/CapSense_1_CSHL.c ****         CapSense_1_SensorBaselineLow[sensor] = ((uint8) calc);
 566:./Generated_Source/PSoC5/CapSense_1_CSHL.c ****      
 567:./Generated_Source/PSoC5/CapSense_1_CSHL.c ****     #endif  /* End (CapSense_1_AUTO_RESET == CapSense_1_AUTO_RESET_DISABLE) */
 568:./Generated_Source/PSoC5/CapSense_1_CSHL.c ****     
 569:./Generated_Source/PSoC5/CapSense_1_CSHL.c ****     #if (CapSense_1_TOTAL_GENERICS_COUNT)
 570:./Generated_Source/PSoC5/CapSense_1_CSHL.c ****         /* Exclude generic widget */
 571:./Generated_Source/PSoC5/CapSense_1_CSHL.c ****         }
 572:./Generated_Source/PSoC5/CapSense_1_CSHL.c ****     #endif  /* End CapSense_1_TOTAL_GENERICS_COUNT */
 573:./Generated_Source/PSoC5/CapSense_1_CSHL.c **** }
 459              		.loc 1 573 0
 460 0196 07F11807 		add	r7, r7, #24
 461 019a BD46     		mov	sp, r7
 462 019c 80BD     		pop	{r7, pc}
 463              		.cfi_endproc
 464              	.LFE3:
 465              		.size	CapSense_1_UpdateSensorBaseline, .-CapSense_1_UpdateSensorBaseline
 466 019e 00BF     		.section	.text.CapSense_1_UpdateEnabledBaselines,"ax",%progbits
 467              		.align	2
 468              		.global	CapSense_1_UpdateEnabledBaselines
 469              		.thumb
 470              		.thumb_func
 471              		.type	CapSense_1_UpdateEnabledBaselines, %function
 472              	CapSense_1_UpdateEnabledBaselines:
 473              	.LFB4:
 574:./Generated_Source/PSoC5/CapSense_1_CSHL.c **** 
 575:./Generated_Source/PSoC5/CapSense_1_CSHL.c **** 
 576:./Generated_Source/PSoC5/CapSense_1_CSHL.c **** /*******************************************************************************
 577:./Generated_Source/PSoC5/CapSense_1_CSHL.c **** * Function Name: CapSense_1_UpdateEnabledBaselines
 578:./Generated_Source/PSoC5/CapSense_1_CSHL.c **** ********************************************************************************
 579:./Generated_Source/PSoC5/CapSense_1_CSHL.c **** *
 580:./Generated_Source/PSoC5/CapSense_1_CSHL.c **** * Summary:
 581:./Generated_Source/PSoC5/CapSense_1_CSHL.c **** *  Checks CapSense_1_SensorEnableMask[] array and calls the 
 582:./Generated_Source/PSoC5/CapSense_1_CSHL.c **** *  CapSense_1_UpdateSensorBaseline function to update the baselines 
 583:./Generated_Source/PSoC5/CapSense_1_CSHL.c **** *  for enabled sensors.
 584:./Generated_Source/PSoC5/CapSense_1_CSHL.c **** *
 585:./Generated_Source/PSoC5/CapSense_1_CSHL.c **** * Parameters:
 586:./Generated_Source/PSoC5/CapSense_1_CSHL.c **** *  None
 587:./Generated_Source/PSoC5/CapSense_1_CSHL.c **** *
 588:./Generated_Source/PSoC5/CapSense_1_CSHL.c **** * Return:
 589:./Generated_Source/PSoC5/CapSense_1_CSHL.c **** *  None
 590:./Generated_Source/PSoC5/CapSense_1_CSHL.c **** *
 591:./Generated_Source/PSoC5/CapSense_1_CSHL.c **** * Global Variables:
 592:./Generated_Source/PSoC5/CapSense_1_CSHL.c **** *  CapSense_1_SensorEnableMask[] - used to store the sensor scanning 
 593:./Generated_Source/PSoC5/CapSense_1_CSHL.c **** *  state.
 594:./Generated_Source/PSoC5/CapSense_1_CSHL.c **** *  CapSense_1_SensorEnableMask[0] contains the masked bits for sensors 
 595:./Generated_Source/PSoC5/CapSense_1_CSHL.c **** *   0 through 7 (sensor 0 is bit 0, sensor 1 is bit 1).
 596:./Generated_Source/PSoC5/CapSense_1_CSHL.c **** *  CapSense_1_SensorEnableMask[1] contains the masked bits for 
 597:./Generated_Source/PSoC5/CapSense_1_CSHL.c **** *  sensors 8 through 15 (if needed), and so on.
 598:./Generated_Source/PSoC5/CapSense_1_CSHL.c **** *  0 - sensor doesn't scan by CapSense_1_ScanEnabledWidgets().
 599:./Generated_Source/PSoC5/CapSense_1_CSHL.c **** *  1 - sensor scans by CapSense_1_ScanEnabledWidgets().
 600:./Generated_Source/PSoC5/CapSense_1_CSHL.c **** *
 601:./Generated_Source/PSoC5/CapSense_1_CSHL.c **** * Reentrant:
 602:./Generated_Source/PSoC5/CapSense_1_CSHL.c **** *  No
 603:./Generated_Source/PSoC5/CapSense_1_CSHL.c **** *
 604:./Generated_Source/PSoC5/CapSense_1_CSHL.c **** *******************************************************************************/
 605:./Generated_Source/PSoC5/CapSense_1_CSHL.c ****  void CapSense_1_UpdateEnabledBaselines(void)
 606:./Generated_Source/PSoC5/CapSense_1_CSHL.c **** {
ARM GAS  C:\Users\CHARLI~1\AppData\Local\Temp\ccF9CHT0.s 			page 20


 474              		.loc 1 606 0
 475              		.cfi_startproc
 476              		@ args = 0, pretend = 0, frame = 8
 477              		@ frame_needed = 1, uses_anonymous_args = 0
 478 0000 80B5     		push	{r7, lr}
 479              	.LCFI12:
 480              		.cfi_def_cfa_offset 8
 481 0002 82B0     		sub	sp, sp, #8
 482              	.LCFI13:
 483              		.cfi_def_cfa_offset 16
 484 0004 00AF     		add	r7, sp, #0
 485              		.cfi_offset 14, -4
 486              		.cfi_offset 7, -8
 487              	.LCFI14:
 488              		.cfi_def_cfa_register 7
 607:./Generated_Source/PSoC5/CapSense_1_CSHL.c ****     uint8 i;
 608:./Generated_Source/PSoC5/CapSense_1_CSHL.c ****     uint8 pos;
 609:./Generated_Source/PSoC5/CapSense_1_CSHL.c ****     uint8 enMask;
 610:./Generated_Source/PSoC5/CapSense_1_CSHL.c ****     
 611:./Generated_Source/PSoC5/CapSense_1_CSHL.c ****     for(i = 0; i < CapSense_1_TOTAL_SENSOR_COUNT; i++)
 489              		.loc 1 611 0
 490 0006 4FF00003 		mov	r3, #0
 491 000a 7B71     		strb	r3, [r7, #5]
 492 000c 1FE0     		b	.L20
 493              	.L22:
 612:./Generated_Source/PSoC5/CapSense_1_CSHL.c ****     {
 613:./Generated_Source/PSoC5/CapSense_1_CSHL.c ****         pos = (i >> 3u);
 494              		.loc 1 613 0
 495 000e 7B79     		ldrb	r3, [r7, #5]	@ zero_extendqisi2
 496 0010 4FEAD303 		lsr	r3, r3, #3
 497 0014 BB71     		strb	r3, [r7, #6]
 614:./Generated_Source/PSoC5/CapSense_1_CSHL.c ****         enMask = 0x01u << (i & 0x07u);
 498              		.loc 1 614 0
 499 0016 7B79     		ldrb	r3, [r7, #5]	@ zero_extendqisi2
 500 0018 03F00703 		and	r3, r3, #7
 501 001c 4FF00102 		mov	r2, #1
 502 0020 02FA03F3 		lsl	r3, r2, r3
 503 0024 FB71     		strb	r3, [r7, #7]
 615:./Generated_Source/PSoC5/CapSense_1_CSHL.c ****         if((CapSense_1_SensorEnableMask[pos] & enMask) != 0u)
 504              		.loc 1 615 0
 505 0026 BA79     		ldrb	r2, [r7, #6]	@ zero_extendqisi2
 506 0028 40F20003 		movw	r3, #:lower16:CapSense_1_SensorEnableMask
 507 002c C0F20003 		movt	r3, #:upper16:CapSense_1_SensorEnableMask
 508 0030 9A5C     		ldrb	r2, [r3, r2]	@ zero_extendqisi2
 509 0032 FB79     		ldrb	r3, [r7, #7]
 510 0034 02EA0303 		and	r3, r2, r3
 511 0038 DBB2     		uxtb	r3, r3
 512 003a 002B     		cmp	r3, #0
 513 003c 03D0     		beq	.L21
 616:./Generated_Source/PSoC5/CapSense_1_CSHL.c ****         {
 617:./Generated_Source/PSoC5/CapSense_1_CSHL.c ****             CapSense_1_UpdateSensorBaseline(i);
 514              		.loc 1 617 0
 515 003e 7B79     		ldrb	r3, [r7, #5]	@ zero_extendqisi2
 516 0040 1846     		mov	r0, r3
 517 0042 FFF7FEFF 		bl	CapSense_1_UpdateSensorBaseline
 518              	.L21:
 519              		.loc 1 611 0
ARM GAS  C:\Users\CHARLI~1\AppData\Local\Temp\ccF9CHT0.s 			page 21


 520 0046 7B79     		ldrb	r3, [r7, #5]
 521 0048 03F10103 		add	r3, r3, #1
 522 004c 7B71     		strb	r3, [r7, #5]
 523              	.L20:
 524 004e 7B79     		ldrb	r3, [r7, #5]	@ zero_extendqisi2
 525 0050 002B     		cmp	r3, #0
 526 0052 DCD0     		beq	.L22
 618:./Generated_Source/PSoC5/CapSense_1_CSHL.c ****         }
 619:./Generated_Source/PSoC5/CapSense_1_CSHL.c ****     }
 620:./Generated_Source/PSoC5/CapSense_1_CSHL.c **** }
 527              		.loc 1 620 0
 528 0054 07F10807 		add	r7, r7, #8
 529 0058 BD46     		mov	sp, r7
 530 005a 80BD     		pop	{r7, pc}
 531              		.cfi_endproc
 532              	.LFE4:
 533              		.size	CapSense_1_UpdateEnabledBaselines, .-CapSense_1_UpdateEnabledBaselines
 534              		.section	.text.CapSense_1_CheckIsSensorActive,"ax",%progbits
 535              		.align	2
 536              		.global	CapSense_1_CheckIsSensorActive
 537              		.thumb
 538              		.thumb_func
 539              		.type	CapSense_1_CheckIsSensorActive, %function
 540              	CapSense_1_CheckIsSensorActive:
 541              	.LFB5:
 621:./Generated_Source/PSoC5/CapSense_1_CSHL.c **** 
 622:./Generated_Source/PSoC5/CapSense_1_CSHL.c **** 
 623:./Generated_Source/PSoC5/CapSense_1_CSHL.c **** /*******************************************************************************
 624:./Generated_Source/PSoC5/CapSense_1_CSHL.c **** * Function Name: CapSense_1_CheckIsSensorActive
 625:./Generated_Source/PSoC5/CapSense_1_CSHL.c **** ********************************************************************************
 626:./Generated_Source/PSoC5/CapSense_1_CSHL.c **** *
 627:./Generated_Source/PSoC5/CapSense_1_CSHL.c **** * Summary:
 628:./Generated_Source/PSoC5/CapSense_1_CSHL.c **** *  Compares the CapSense_1_SensorSignal[sensor] array element to finger
 629:./Generated_Source/PSoC5/CapSense_1_CSHL.c **** *  threshold of widget it belongs to. The hysteresis and debounce are taken into 
 630:./Generated_Source/PSoC5/CapSense_1_CSHL.c **** *  account. The hysteresis is added or subtracted from the finger threshold 
 631:./Generated_Source/PSoC5/CapSense_1_CSHL.c **** *  based on whether the sensor is currently active. 
 632:./Generated_Source/PSoC5/CapSense_1_CSHL.c **** *  If the sensor is active, the threshold is lowered by the hysteresis amount.
 633:./Generated_Source/PSoC5/CapSense_1_CSHL.c **** *  If the sensor is inactive, the threshold is raised by the hysteresis amount.
 634:./Generated_Source/PSoC5/CapSense_1_CSHL.c **** *  The debounce counter added to the sensor active transition.
 635:./Generated_Source/PSoC5/CapSense_1_CSHL.c **** *  This function updates CapSense_1_SensorOnMask[] array element.
 636:./Generated_Source/PSoC5/CapSense_1_CSHL.c **** *
 637:./Generated_Source/PSoC5/CapSense_1_CSHL.c **** * Parameters:
 638:./Generated_Source/PSoC5/CapSense_1_CSHL.c **** *  sensor:  Sensor number.
 639:./Generated_Source/PSoC5/CapSense_1_CSHL.c **** *
 640:./Generated_Source/PSoC5/CapSense_1_CSHL.c **** * Return:
 641:./Generated_Source/PSoC5/CapSense_1_CSHL.c **** *  Returns sensor state 1 if active, 0 if not active.
 642:./Generated_Source/PSoC5/CapSense_1_CSHL.c **** *
 643:./Generated_Source/PSoC5/CapSense_1_CSHL.c **** * Global Variables:
 644:./Generated_Source/PSoC5/CapSense_1_CSHL.c **** *  CapSense_1_SensorSignal[]      - used to store diffence between 
 645:./Generated_Source/PSoC5/CapSense_1_CSHL.c **** *  current value of raw data and previous value of baseline.
 646:./Generated_Source/PSoC5/CapSense_1_CSHL.c **** *  CapSense_1_debounceCounter[]   - used to store current debounce 
 647:./Generated_Source/PSoC5/CapSense_1_CSHL.c **** *  counter of sensor. Widget which has this parameter are buttons, matrix 
 648:./Generated_Source/PSoC5/CapSense_1_CSHL.c **** *  buttons, proximity, guard. All other widgets haven't debounce parameter
 649:./Generated_Source/PSoC5/CapSense_1_CSHL.c **** *  and use the last element of this array with value 0 (it means no debounce).
 650:./Generated_Source/PSoC5/CapSense_1_CSHL.c **** *  CapSense_1_SensorOnMask[] - used to store sensors on/off state.
 651:./Generated_Source/PSoC5/CapSense_1_CSHL.c **** *  CapSense_1_SensorOnMask[0] contains the masked bits for sensors 
 652:./Generated_Source/PSoC5/CapSense_1_CSHL.c **** *   0 through 7 (sensor 0 is bit 0, sensor 1 is bit 1).
ARM GAS  C:\Users\CHARLI~1\AppData\Local\Temp\ccF9CHT0.s 			page 22


 653:./Generated_Source/PSoC5/CapSense_1_CSHL.c **** *  CapSense_1_SensorEnableMask[1] contains the masked bits for 
 654:./Generated_Source/PSoC5/CapSense_1_CSHL.c **** *  sensors 8 through 15 (if needed), and so on.
 655:./Generated_Source/PSoC5/CapSense_1_CSHL.c **** *  0 - sensor is inactive.
 656:./Generated_Source/PSoC5/CapSense_1_CSHL.c **** *  1 - sensor is active.
 657:./Generated_Source/PSoC5/CapSense_1_CSHL.c **** *
 658:./Generated_Source/PSoC5/CapSense_1_CSHL.c **** * Reentrant:
 659:./Generated_Source/PSoC5/CapSense_1_CSHL.c **** *  No
 660:./Generated_Source/PSoC5/CapSense_1_CSHL.c **** *
 661:./Generated_Source/PSoC5/CapSense_1_CSHL.c **** *******************************************************************************/
 662:./Generated_Source/PSoC5/CapSense_1_CSHL.c **** uint8 CapSense_1_CheckIsSensorActive(uint8 sensor)
 663:./Generated_Source/PSoC5/CapSense_1_CSHL.c **** {
 542              		.loc 1 663 0
 543              		.cfi_startproc
 544              		@ args = 0, pretend = 0, frame = 16
 545              		@ frame_needed = 1, uses_anonymous_args = 0
 546              		@ link register save eliminated.
 547 0000 80B4     		push	{r7}
 548              	.LCFI15:
 549              		.cfi_def_cfa_offset 4
 550 0002 85B0     		sub	sp, sp, #20
 551              	.LCFI16:
 552              		.cfi_def_cfa_offset 24
 553 0004 00AF     		add	r7, sp, #0
 554              		.cfi_offset 7, -4
 555              	.LCFI17:
 556              		.cfi_def_cfa_register 7
 557 0006 0346     		mov	r3, r0
 558 0008 FB71     		strb	r3, [r7, #7]
 664:./Generated_Source/PSoC5/CapSense_1_CSHL.c ****     uint8 debounceIndex;
 665:./Generated_Source/PSoC5/CapSense_1_CSHL.c ****     /* Get On/Off mask */
 666:./Generated_Source/PSoC5/CapSense_1_CSHL.c ****     uint8 pos = (sensor >> 3u);
 559              		.loc 1 666 0
 560 000a FB79     		ldrb	r3, [r7, #7]	@ zero_extendqisi2
 561 000c 4FEAD303 		lsr	r3, r3, #3
 562 0010 BB72     		strb	r3, [r7, #10]
 667:./Generated_Source/PSoC5/CapSense_1_CSHL.c ****     uint8 onMask = 0x01u << (sensor & 0x07u);
 563              		.loc 1 667 0
 564 0012 FB79     		ldrb	r3, [r7, #7]	@ zero_extendqisi2
 565 0014 03F00703 		and	r3, r3, #7
 566 0018 4FF00102 		mov	r2, #1
 567 001c 02FA03F3 		lsl	r3, r2, r3
 568 0020 FB72     		strb	r3, [r7, #11]
 668:./Generated_Source/PSoC5/CapSense_1_CSHL.c ****     /* Prepare to find debounce counter index */
 669:./Generated_Source/PSoC5/CapSense_1_CSHL.c ****     uint8 widget = CapSense_1_widgetNumber[sensor];
 569              		.loc 1 669 0
 570 0022 FA79     		ldrb	r2, [r7, #7]	@ zero_extendqisi2
 571 0024 40F20003 		movw	r3, #:lower16:CapSense_1_widgetNumber
 572 0028 C0F20003 		movt	r3, #:upper16:CapSense_1_widgetNumber
 573 002c 9B5C     		ldrb	r3, [r3, r2]
 574 002e 3B73     		strb	r3, [r7, #12]
 670:./Generated_Source/PSoC5/CapSense_1_CSHL.c ****     uint8 fingerThreshold = CapSense_1_fingerThreshold[widget];
 575              		.loc 1 670 0
 576 0030 3A7B     		ldrb	r2, [r7, #12]	@ zero_extendqisi2
 577 0032 40F20003 		movw	r3, #:lower16:CapSense_1_fingerThreshold
 578 0036 C0F20003 		movt	r3, #:upper16:CapSense_1_fingerThreshold
 579 003a 9B5C     		ldrb	r3, [r3, r2]
 580 003c 7B73     		strb	r3, [r7, #13]
ARM GAS  C:\Users\CHARLI~1\AppData\Local\Temp\ccF9CHT0.s 			page 23


 671:./Generated_Source/PSoC5/CapSense_1_CSHL.c ****     uint8 hysteresis = CapSense_1_hysteresis[widget];
 581              		.loc 1 671 0
 582 003e 3A7B     		ldrb	r2, [r7, #12]	@ zero_extendqisi2
 583 0040 40F20003 		movw	r3, #:lower16:CapSense_1_hysteresis
 584 0044 C0F20003 		movt	r3, #:upper16:CapSense_1_hysteresis
 585 0048 9B5C     		ldrb	r3, [r3, r2]
 586 004a BB73     		strb	r3, [r7, #14]
 672:./Generated_Source/PSoC5/CapSense_1_CSHL.c ****     uint8 debounce = CapSense_1_debounce[widget];
 587              		.loc 1 672 0
 588 004c 3A7B     		ldrb	r2, [r7, #12]	@ zero_extendqisi2
 589 004e 40F20003 		movw	r3, #:lower16:CapSense_1_debounce
 590 0052 C0F20003 		movt	r3, #:upper16:CapSense_1_debounce
 591 0056 9B5C     		ldrb	r3, [r3, r2]
 592 0058 FB73     		strb	r3, [r7, #15]
 673:./Generated_Source/PSoC5/CapSense_1_CSHL.c ****     
 674:./Generated_Source/PSoC5/CapSense_1_CSHL.c ****     debounceIndex = widget;
 593              		.loc 1 674 0
 594 005a 3B7B     		ldrb	r3, [r7, #12]
 595 005c 7B72     		strb	r3, [r7, #9]
 675:./Generated_Source/PSoC5/CapSense_1_CSHL.c **** 
 676:./Generated_Source/PSoC5/CapSense_1_CSHL.c ****     
 677:./Generated_Source/PSoC5/CapSense_1_CSHL.c ****     /* Was on */
 678:./Generated_Source/PSoC5/CapSense_1_CSHL.c ****     if (CapSense_1_SensorOnMask[pos] & onMask)
 596              		.loc 1 678 0
 597 005e BA7A     		ldrb	r2, [r7, #10]	@ zero_extendqisi2
 598 0060 40F20003 		movw	r3, #:lower16:CapSense_1_SensorOnMask
 599 0064 C0F20003 		movt	r3, #:upper16:CapSense_1_SensorOnMask
 600 0068 9A5C     		ldrb	r2, [r3, r2]	@ zero_extendqisi2
 601 006a FB7A     		ldrb	r3, [r7, #11]
 602 006c 02EA0303 		and	r3, r2, r3
 603 0070 DBB2     		uxtb	r3, r3
 604 0072 002B     		cmp	r3, #0
 605 0074 29D0     		beq	.L25
 679:./Generated_Source/PSoC5/CapSense_1_CSHL.c ****     {
 680:./Generated_Source/PSoC5/CapSense_1_CSHL.c ****         /* Hysteresis minus */
 681:./Generated_Source/PSoC5/CapSense_1_CSHL.c ****         if (CapSense_1_SensorSignal[sensor] < (fingerThreshold - hysteresis))
 606              		.loc 1 681 0
 607 0076 FA79     		ldrb	r2, [r7, #7]	@ zero_extendqisi2
 608 0078 40F20003 		movw	r3, #:lower16:CapSense_1_SensorSignal
 609 007c C0F20003 		movt	r3, #:upper16:CapSense_1_SensorSignal
 610 0080 9B5C     		ldrb	r3, [r3, r2]	@ zero_extendqisi2
 611 0082 1A46     		mov	r2, r3
 612 0084 797B     		ldrb	r1, [r7, #13]	@ zero_extendqisi2
 613 0086 BB7B     		ldrb	r3, [r7, #14]	@ zero_extendqisi2
 614 0088 C3EB0103 		rsb	r3, r3, r1
 615 008c 9A42     		cmp	r2, r3
 616 008e 56DA     		bge	.L33
 682:./Generated_Source/PSoC5/CapSense_1_CSHL.c ****         {
 683:./Generated_Source/PSoC5/CapSense_1_CSHL.c ****             CapSense_1_SensorOnMask[pos] &= ~onMask;
 617              		.loc 1 683 0
 618 0090 BA7A     		ldrb	r2, [r7, #10]	@ zero_extendqisi2
 619 0092 B97A     		ldrb	r1, [r7, #10]	@ zero_extendqisi2
 620 0094 40F20003 		movw	r3, #:lower16:CapSense_1_SensorOnMask
 621 0098 C0F20003 		movt	r3, #:upper16:CapSense_1_SensorOnMask
 622 009c 5B5C     		ldrb	r3, [r3, r1]	@ zero_extendqisi2
 623 009e 1946     		mov	r1, r3
 624 00a0 FB7A     		ldrb	r3, [r7, #11]	@ zero_extendqisi2
ARM GAS  C:\Users\CHARLI~1\AppData\Local\Temp\ccF9CHT0.s 			page 24


 625 00a2 6FEA0303 		mvn	r3, r3
 626 00a6 DBB2     		uxtb	r3, r3
 627 00a8 01EA0303 		and	r3, r1, r3
 628 00ac DBB2     		uxtb	r3, r3
 629 00ae D9B2     		uxtb	r1, r3
 630 00b0 40F20003 		movw	r3, #:lower16:CapSense_1_SensorOnMask
 631 00b4 C0F20003 		movt	r3, #:upper16:CapSense_1_SensorOnMask
 632 00b8 9954     		strb	r1, [r3, r2]
 684:./Generated_Source/PSoC5/CapSense_1_CSHL.c ****             CapSense_1_debounceCounter[debounceIndex] = debounce; 
 633              		.loc 1 684 0
 634 00ba 7A7A     		ldrb	r2, [r7, #9]	@ zero_extendqisi2
 635 00bc 40F20003 		movw	r3, #:lower16:CapSense_1_debounceCounter
 636 00c0 C0F20003 		movt	r3, #:upper16:CapSense_1_debounceCounter
 637 00c4 F97B     		ldrb	r1, [r7, #15]
 638 00c6 9954     		strb	r1, [r3, r2]
 639 00c8 3CE0     		b	.L27
 640              	.L25:
 685:./Generated_Source/PSoC5/CapSense_1_CSHL.c ****         }
 686:./Generated_Source/PSoC5/CapSense_1_CSHL.c ****     }
 687:./Generated_Source/PSoC5/CapSense_1_CSHL.c ****     else    /* Was off */
 688:./Generated_Source/PSoC5/CapSense_1_CSHL.c ****     {
 689:./Generated_Source/PSoC5/CapSense_1_CSHL.c ****         /* Hysteresis plus */
 690:./Generated_Source/PSoC5/CapSense_1_CSHL.c ****         if (CapSense_1_SensorSignal[sensor] > (fingerThreshold + hysteresis))
 641              		.loc 1 690 0
 642 00ca FA79     		ldrb	r2, [r7, #7]	@ zero_extendqisi2
 643 00cc 40F20003 		movw	r3, #:lower16:CapSense_1_SensorSignal
 644 00d0 C0F20003 		movt	r3, #:upper16:CapSense_1_SensorSignal
 645 00d4 9B5C     		ldrb	r3, [r3, r2]	@ zero_extendqisi2
 646 00d6 1A46     		mov	r2, r3
 647 00d8 797B     		ldrb	r1, [r7, #13]	@ zero_extendqisi2
 648 00da BB7B     		ldrb	r3, [r7, #14]	@ zero_extendqisi2
 649 00dc 0B44     		add	r3, r1, r3
 650 00de 9A42     		cmp	r2, r3
 651 00e0 25DD     		ble	.L28
 691:./Generated_Source/PSoC5/CapSense_1_CSHL.c ****         {
 692:./Generated_Source/PSoC5/CapSense_1_CSHL.c ****             /* Sensor active, decrement debounce counter */
 693:./Generated_Source/PSoC5/CapSense_1_CSHL.c ****             if (CapSense_1_debounceCounter[debounceIndex]-- == 0)
 652              		.loc 1 693 0
 653 00e2 7A7A     		ldrb	r2, [r7, #9]	@ zero_extendqisi2
 654 00e4 40F20003 		movw	r3, #:lower16:CapSense_1_debounceCounter
 655 00e8 C0F20003 		movt	r3, #:upper16:CapSense_1_debounceCounter
 656 00ec 9B5C     		ldrb	r3, [r3, r2]	@ zero_extendqisi2
 657 00ee 002B     		cmp	r3, #0
 658 00f0 14BF     		ite	ne
 659 00f2 0021     		movne	r1, #0
 660 00f4 0121     		moveq	r1, #1
 661 00f6 C9B2     		uxtb	r1, r1
 662 00f8 03F1FF33 		add	r3, r3, #-1
 663 00fc D8B2     		uxtb	r0, r3
 664 00fe 40F20003 		movw	r3, #:lower16:CapSense_1_debounceCounter
 665 0102 C0F20003 		movt	r3, #:upper16:CapSense_1_debounceCounter
 666 0106 9854     		strb	r0, [r3, r2]
 667 0108 0029     		cmp	r1, #0
 668 010a 1AD0     		beq	.L34
 694:./Generated_Source/PSoC5/CapSense_1_CSHL.c ****             {
 695:./Generated_Source/PSoC5/CapSense_1_CSHL.c ****                 CapSense_1_SensorOnMask[pos] |= onMask; 
 669              		.loc 1 695 0
ARM GAS  C:\Users\CHARLI~1\AppData\Local\Temp\ccF9CHT0.s 			page 25


 670 010c BA7A     		ldrb	r2, [r7, #10]	@ zero_extendqisi2
 671 010e B97A     		ldrb	r1, [r7, #10]	@ zero_extendqisi2
 672 0110 40F20003 		movw	r3, #:lower16:CapSense_1_SensorOnMask
 673 0114 C0F20003 		movt	r3, #:upper16:CapSense_1_SensorOnMask
 674 0118 595C     		ldrb	r1, [r3, r1]	@ zero_extendqisi2
 675 011a FB7A     		ldrb	r3, [r7, #11]
 676 011c 41EA0303 		orr	r3, r1, r3
 677 0120 D9B2     		uxtb	r1, r3
 678 0122 40F20003 		movw	r3, #:lower16:CapSense_1_SensorOnMask
 679 0126 C0F20003 		movt	r3, #:upper16:CapSense_1_SensorOnMask
 680 012a 9954     		strb	r1, [r3, r2]
 681 012c 0AE0     		b	.L27
 682              	.L28:
 696:./Generated_Source/PSoC5/CapSense_1_CSHL.c ****             }
 697:./Generated_Source/PSoC5/CapSense_1_CSHL.c ****         }
 698:./Generated_Source/PSoC5/CapSense_1_CSHL.c ****         else
 699:./Generated_Source/PSoC5/CapSense_1_CSHL.c ****         {
 700:./Generated_Source/PSoC5/CapSense_1_CSHL.c ****             /* Sensor inactive - reset Debounce counter */
 701:./Generated_Source/PSoC5/CapSense_1_CSHL.c ****             CapSense_1_debounceCounter[debounceIndex] = debounce;
 683              		.loc 1 701 0
 684 012e 7A7A     		ldrb	r2, [r7, #9]	@ zero_extendqisi2
 685 0130 40F20003 		movw	r3, #:lower16:CapSense_1_debounceCounter
 686 0134 C0F20003 		movt	r3, #:upper16:CapSense_1_debounceCounter
 687 0138 F97B     		ldrb	r1, [r7, #15]
 688 013a 9954     		strb	r1, [r3, r2]
 689 013c 02E0     		b	.L27
 690              	.L33:
 691              		.loc 1 684 0
 692 013e 00BF     		nop
 693 0140 00E0     		b	.L27
 694              	.L34:
 695              		.loc 1 695 0
 696 0142 00BF     		nop
 697              	.L27:
 702:./Generated_Source/PSoC5/CapSense_1_CSHL.c ****         }
 703:./Generated_Source/PSoC5/CapSense_1_CSHL.c ****     }
 704:./Generated_Source/PSoC5/CapSense_1_CSHL.c ****     
 705:./Generated_Source/PSoC5/CapSense_1_CSHL.c ****     return (CapSense_1_SensorOnMask[pos] & onMask) ? 1u : 0u;
 698              		.loc 1 705 0
 699 0144 BA7A     		ldrb	r2, [r7, #10]	@ zero_extendqisi2
 700 0146 40F20003 		movw	r3, #:lower16:CapSense_1_SensorOnMask
 701 014a C0F20003 		movt	r3, #:upper16:CapSense_1_SensorOnMask
 702 014e 9A5C     		ldrb	r2, [r3, r2]	@ zero_extendqisi2
 703 0150 FB7A     		ldrb	r3, [r7, #11]
 704 0152 02EA0303 		and	r3, r2, r3
 705 0156 DBB2     		uxtb	r3, r3
 706 0158 002B     		cmp	r3, #0
 707 015a 02D0     		beq	.L30
 708 015c 4FF00103 		mov	r3, #1
 709 0160 01E0     		b	.L31
 710              	.L30:
 711 0162 4FF00003 		mov	r3, #0
 712              	.L31:
 706:./Generated_Source/PSoC5/CapSense_1_CSHL.c **** }
 713              		.loc 1 706 0
 714 0166 1846     		mov	r0, r3
 715 0168 07F11407 		add	r7, r7, #20
ARM GAS  C:\Users\CHARLI~1\AppData\Local\Temp\ccF9CHT0.s 			page 26


 716 016c BD46     		mov	sp, r7
 717 016e 80BC     		pop	{r7}
 718 0170 7047     		bx	lr
 719              		.cfi_endproc
 720              	.LFE5:
 721              		.size	CapSense_1_CheckIsSensorActive, .-CapSense_1_CheckIsSensorActive
 722 0172 00BF     		.section	.text.CapSense_1_CheckIsWidgetActive,"ax",%progbits
 723              		.align	2
 724              		.global	CapSense_1_CheckIsWidgetActive
 725              		.thumb
 726              		.thumb_func
 727              		.type	CapSense_1_CheckIsWidgetActive, %function
 728              	CapSense_1_CheckIsWidgetActive:
 729              	.LFB6:
 707:./Generated_Source/PSoC5/CapSense_1_CSHL.c **** 
 708:./Generated_Source/PSoC5/CapSense_1_CSHL.c **** 
 709:./Generated_Source/PSoC5/CapSense_1_CSHL.c **** /*******************************************************************************
 710:./Generated_Source/PSoC5/CapSense_1_CSHL.c **** * Function Name: CapSense_1_CheckIsWidgetActive
 711:./Generated_Source/PSoC5/CapSense_1_CSHL.c **** ********************************************************************************
 712:./Generated_Source/PSoC5/CapSense_1_CSHL.c **** *
 713:./Generated_Source/PSoC5/CapSense_1_CSHL.c **** * Summary:
 714:./Generated_Source/PSoC5/CapSense_1_CSHL.c **** *  Use function CapSense_1_CheckIsSensorActive() to update 
 715:./Generated_Source/PSoC5/CapSense_1_CSHL.c **** *  CapSense_1_SensorOnMask[] for all sensors within the widget.
 716:./Generated_Source/PSoC5/CapSense_1_CSHL.c **** *  If one of sensors within widget is active the function return that widget is 
 717:./Generated_Source/PSoC5/CapSense_1_CSHL.c **** *  active.
 718:./Generated_Source/PSoC5/CapSense_1_CSHL.c **** *  The touch pad and matrix buttons widgets need to have active sensor within 
 719:./Generated_Source/PSoC5/CapSense_1_CSHL.c **** *  col and row to return widget active status.
 720:./Generated_Source/PSoC5/CapSense_1_CSHL.c **** *
 721:./Generated_Source/PSoC5/CapSense_1_CSHL.c **** * Parameters:
 722:./Generated_Source/PSoC5/CapSense_1_CSHL.c **** *  widget:  widget number.
 723:./Generated_Source/PSoC5/CapSense_1_CSHL.c **** *
 724:./Generated_Source/PSoC5/CapSense_1_CSHL.c **** * Return:
 725:./Generated_Source/PSoC5/CapSense_1_CSHL.c **** *  Returns widget sensor state 1 if one or more sensors within widget is/are 
 726:./Generated_Source/PSoC5/CapSense_1_CSHL.c **** *  active, 0 if all sensors within widget are inactive.
 727:./Generated_Source/PSoC5/CapSense_1_CSHL.c **** *
 728:./Generated_Source/PSoC5/CapSense_1_CSHL.c **** * Reentrant:
 729:./Generated_Source/PSoC5/CapSense_1_CSHL.c **** *  No
 730:./Generated_Source/PSoC5/CapSense_1_CSHL.c **** *
 731:./Generated_Source/PSoC5/CapSense_1_CSHL.c **** *******************************************************************************/
 732:./Generated_Source/PSoC5/CapSense_1_CSHL.c **** uint8 CapSense_1_CheckIsWidgetActive(uint8 widget)
 733:./Generated_Source/PSoC5/CapSense_1_CSHL.c **** {
 730              		.loc 1 733 0
 731              		.cfi_startproc
 732              		@ args = 0, pretend = 0, frame = 16
 733              		@ frame_needed = 1, uses_anonymous_args = 0
 734 0000 80B5     		push	{r7, lr}
 735              	.LCFI18:
 736              		.cfi_def_cfa_offset 8
 737 0002 84B0     		sub	sp, sp, #16
 738              	.LCFI19:
 739              		.cfi_def_cfa_offset 24
 740 0004 00AF     		add	r7, sp, #0
 741              		.cfi_offset 14, -4
 742              		.cfi_offset 7, -8
 743              	.LCFI20:
 744              		.cfi_def_cfa_register 7
 745 0006 0346     		mov	r3, r0
ARM GAS  C:\Users\CHARLI~1\AppData\Local\Temp\ccF9CHT0.s 			page 27


 746 0008 FB71     		strb	r3, [r7, #7]
 734:./Generated_Source/PSoC5/CapSense_1_CSHL.c ****     uint8 rawIndex = CapSense_1_rawDataIndex[widget];
 747              		.loc 1 734 0
 748 000a FA79     		ldrb	r2, [r7, #7]	@ zero_extendqisi2
 749 000c 40F20003 		movw	r3, #:lower16:CapSense_1_rawDataIndex
 750 0010 C0F20003 		movt	r3, #:upper16:CapSense_1_rawDataIndex
 751 0014 9B5C     		ldrb	r3, [r3, r2]
 752 0016 7B73     		strb	r3, [r7, #13]
 735:./Generated_Source/PSoC5/CapSense_1_CSHL.c ****     uint8 numberOfSensors = CapSense_1_numberOfSensors[widget] + rawIndex;
 753              		.loc 1 735 0
 754 0018 FA79     		ldrb	r2, [r7, #7]	@ zero_extendqisi2
 755 001a 40F20003 		movw	r3, #:lower16:CapSense_1_numberOfSensors
 756 001e C0F20003 		movt	r3, #:upper16:CapSense_1_numberOfSensors
 757 0022 9A5C     		ldrb	r2, [r3, r2]	@ zero_extendqisi2
 758 0024 7B7B     		ldrb	r3, [r7, #13]
 759 0026 1344     		add	r3, r2, r3
 760 0028 BB73     		strb	r3, [r7, #14]
 736:./Generated_Source/PSoC5/CapSense_1_CSHL.c ****     uint8 state = 0u;
 761              		.loc 1 736 0
 762 002a 4FF00003 		mov	r3, #0
 763 002e FB73     		strb	r3, [r7, #15]
 764              	.L37:
 737:./Generated_Source/PSoC5/CapSense_1_CSHL.c **** 
 738:./Generated_Source/PSoC5/CapSense_1_CSHL.c ****     /* Check all sensors of the widget */
 739:./Generated_Source/PSoC5/CapSense_1_CSHL.c ****     do
 740:./Generated_Source/PSoC5/CapSense_1_CSHL.c ****     {
 741:./Generated_Source/PSoC5/CapSense_1_CSHL.c ****         if(CapSense_1_CheckIsSensorActive(rawIndex) != 0u)
 765              		.loc 1 741 0
 766 0030 7B7B     		ldrb	r3, [r7, #13]	@ zero_extendqisi2
 767 0032 1846     		mov	r0, r3
 768 0034 FFF7FEFF 		bl	CapSense_1_CheckIsSensorActive
 769 0038 0346     		mov	r3, r0
 770 003a 002B     		cmp	r3, #0
 771 003c 02D0     		beq	.L36
 742:./Generated_Source/PSoC5/CapSense_1_CSHL.c ****         {
 743:./Generated_Source/PSoC5/CapSense_1_CSHL.c ****             state = CapSense_1_SENSOR_1_IS_ACTIVE;
 772              		.loc 1 743 0
 773 003e 4FF00103 		mov	r3, #1
 774 0042 FB73     		strb	r3, [r7, #15]
 775              	.L36:
 744:./Generated_Source/PSoC5/CapSense_1_CSHL.c ****         }
 745:./Generated_Source/PSoC5/CapSense_1_CSHL.c ****         rawIndex++;
 776              		.loc 1 745 0
 777 0044 7B7B     		ldrb	r3, [r7, #13]
 778 0046 03F10103 		add	r3, r3, #1
 779 004a 7B73     		strb	r3, [r7, #13]
 746:./Generated_Source/PSoC5/CapSense_1_CSHL.c ****     }
 747:./Generated_Source/PSoC5/CapSense_1_CSHL.c ****     while(rawIndex < numberOfSensors);
 780              		.loc 1 747 0
 781 004c 7A7B     		ldrb	r2, [r7, #13]	@ zero_extendqisi2
 782 004e BB7B     		ldrb	r3, [r7, #14]	@ zero_extendqisi2
 783 0050 9A42     		cmp	r2, r3
 784 0052 EDD3     		bcc	.L37
 748:./Generated_Source/PSoC5/CapSense_1_CSHL.c ****     
 749:./Generated_Source/PSoC5/CapSense_1_CSHL.c **** 
 750:./Generated_Source/PSoC5/CapSense_1_CSHL.c ****     
 751:./Generated_Source/PSoC5/CapSense_1_CSHL.c ****     return state;
ARM GAS  C:\Users\CHARLI~1\AppData\Local\Temp\ccF9CHT0.s 			page 28


 785              		.loc 1 751 0
 786 0054 FB7B     		ldrb	r3, [r7, #15]	@ zero_extendqisi2
 752:./Generated_Source/PSoC5/CapSense_1_CSHL.c **** }
 787              		.loc 1 752 0
 788 0056 1846     		mov	r0, r3
 789 0058 07F11007 		add	r7, r7, #16
 790 005c BD46     		mov	sp, r7
 791 005e 80BD     		pop	{r7, pc}
 792              		.cfi_endproc
 793              	.LFE6:
 794              		.size	CapSense_1_CheckIsWidgetActive, .-CapSense_1_CheckIsWidgetActive
 795              		.section	.text.CapSense_1_CheckIsAnyWidgetActive,"ax",%progbits
 796              		.align	2
 797              		.global	CapSense_1_CheckIsAnyWidgetActive
 798              		.thumb
 799              		.thumb_func
 800              		.type	CapSense_1_CheckIsAnyWidgetActive, %function
 801              	CapSense_1_CheckIsAnyWidgetActive:
 802              	.LFB7:
 753:./Generated_Source/PSoC5/CapSense_1_CSHL.c **** 
 754:./Generated_Source/PSoC5/CapSense_1_CSHL.c **** 
 755:./Generated_Source/PSoC5/CapSense_1_CSHL.c **** /*******************************************************************************
 756:./Generated_Source/PSoC5/CapSense_1_CSHL.c **** * Function Name: CapSense_1_CheckIsAnyWidgetActive
 757:./Generated_Source/PSoC5/CapSense_1_CSHL.c **** ********************************************************************************
 758:./Generated_Source/PSoC5/CapSense_1_CSHL.c **** *
 759:./Generated_Source/PSoC5/CapSense_1_CSHL.c **** * Summary:
 760:./Generated_Source/PSoC5/CapSense_1_CSHL.c **** *  Compares all sensors of the CapSense_1_Signal[] array to their finger 
 761:./Generated_Source/PSoC5/CapSense_1_CSHL.c **** *  threshold. Calls CapSense_1_CheckIsWidgetActive() for each widget so 
 762:./Generated_Source/PSoC5/CapSense_1_CSHL.c **** *  the CapSense_1_SensorOnMask[] array is up to date after calling this 
 763:./Generated_Source/PSoC5/CapSense_1_CSHL.c **** *  function.
 764:./Generated_Source/PSoC5/CapSense_1_CSHL.c **** *
 765:./Generated_Source/PSoC5/CapSense_1_CSHL.c **** * Parameters:
 766:./Generated_Source/PSoC5/CapSense_1_CSHL.c **** *  widget:  widget number.
 767:./Generated_Source/PSoC5/CapSense_1_CSHL.c **** *
 768:./Generated_Source/PSoC5/CapSense_1_CSHL.c **** * Return:
 769:./Generated_Source/PSoC5/CapSense_1_CSHL.c **** *  Returns 1 if any widget is active, 0 none of widgets are active.
 770:./Generated_Source/PSoC5/CapSense_1_CSHL.c **** *
 771:./Generated_Source/PSoC5/CapSense_1_CSHL.c **** * Reentrant:
 772:./Generated_Source/PSoC5/CapSense_1_CSHL.c **** *  No
 773:./Generated_Source/PSoC5/CapSense_1_CSHL.c **** *
 774:./Generated_Source/PSoC5/CapSense_1_CSHL.c **** *******************************************************************************/
 775:./Generated_Source/PSoC5/CapSense_1_CSHL.c **** uint8 CapSense_1_CheckIsAnyWidgetActive(void)
 776:./Generated_Source/PSoC5/CapSense_1_CSHL.c **** {
 803              		.loc 1 776 0
 804              		.cfi_startproc
 805              		@ args = 0, pretend = 0, frame = 8
 806              		@ frame_needed = 1, uses_anonymous_args = 0
 807 0000 80B5     		push	{r7, lr}
 808              	.LCFI21:
 809              		.cfi_def_cfa_offset 8
 810 0002 82B0     		sub	sp, sp, #8
 811              	.LCFI22:
 812              		.cfi_def_cfa_offset 16
 813 0004 00AF     		add	r7, sp, #0
 814              		.cfi_offset 14, -4
 815              		.cfi_offset 7, -8
 816              	.LCFI23:
ARM GAS  C:\Users\CHARLI~1\AppData\Local\Temp\ccF9CHT0.s 			page 29


 817              		.cfi_def_cfa_register 7
 777:./Generated_Source/PSoC5/CapSense_1_CSHL.c ****     uint8 i;
 778:./Generated_Source/PSoC5/CapSense_1_CSHL.c ****     uint8 state = 0u;
 818              		.loc 1 778 0
 819 0006 4FF00003 		mov	r3, #0
 820 000a FB71     		strb	r3, [r7, #7]
 779:./Generated_Source/PSoC5/CapSense_1_CSHL.c ****     
 780:./Generated_Source/PSoC5/CapSense_1_CSHL.c ****     for(i = 0u; i < CapSense_1_TOTAL_WIDGET_COUNT; i++)
 821              		.loc 1 780 0
 822 000c 4FF00003 		mov	r3, #0
 823 0010 BB71     		strb	r3, [r7, #6]
 824 0012 0DE0     		b	.L40
 825              	.L42:
 781:./Generated_Source/PSoC5/CapSense_1_CSHL.c ****     {
 782:./Generated_Source/PSoC5/CapSense_1_CSHL.c ****         if (CapSense_1_CheckIsWidgetActive(i) != 0u)
 826              		.loc 1 782 0
 827 0014 BB79     		ldrb	r3, [r7, #6]	@ zero_extendqisi2
 828 0016 1846     		mov	r0, r3
 829 0018 FFF7FEFF 		bl	CapSense_1_CheckIsWidgetActive
 830 001c 0346     		mov	r3, r0
 831 001e 002B     		cmp	r3, #0
 832 0020 02D0     		beq	.L41
 783:./Generated_Source/PSoC5/CapSense_1_CSHL.c ****         {
 784:./Generated_Source/PSoC5/CapSense_1_CSHL.c ****             state = CapSense_1_WIDGET_IS_ACTIVE;
 833              		.loc 1 784 0
 834 0022 4FF00103 		mov	r3, #1
 835 0026 FB71     		strb	r3, [r7, #7]
 836              	.L41:
 837              		.loc 1 780 0
 838 0028 BB79     		ldrb	r3, [r7, #6]
 839 002a 03F10103 		add	r3, r3, #1
 840 002e BB71     		strb	r3, [r7, #6]
 841              	.L40:
 842 0030 BB79     		ldrb	r3, [r7, #6]	@ zero_extendqisi2
 843 0032 002B     		cmp	r3, #0
 844 0034 EED0     		beq	.L42
 785:./Generated_Source/PSoC5/CapSense_1_CSHL.c ****         }
 786:./Generated_Source/PSoC5/CapSense_1_CSHL.c ****     }
 787:./Generated_Source/PSoC5/CapSense_1_CSHL.c ****     
 788:./Generated_Source/PSoC5/CapSense_1_CSHL.c **** 
 789:./Generated_Source/PSoC5/CapSense_1_CSHL.c ****     return state;
 845              		.loc 1 789 0
 846 0036 FB79     		ldrb	r3, [r7, #7]	@ zero_extendqisi2
 790:./Generated_Source/PSoC5/CapSense_1_CSHL.c **** }
 847              		.loc 1 790 0
 848 0038 1846     		mov	r0, r3
 849 003a 07F10807 		add	r7, r7, #8
 850 003e BD46     		mov	sp, r7
 851 0040 80BD     		pop	{r7, pc}
 852              		.cfi_endproc
 853              	.LFE7:
 854              		.size	CapSense_1_CheckIsAnyWidgetActive, .-CapSense_1_CheckIsAnyWidgetActive
 855 0042 00BF     		.section	.text.CapSense_1_EnableWidget,"ax",%progbits
 856              		.align	2
 857              		.global	CapSense_1_EnableWidget
 858              		.thumb
 859              		.thumb_func
ARM GAS  C:\Users\CHARLI~1\AppData\Local\Temp\ccF9CHT0.s 			page 30


 860              		.type	CapSense_1_EnableWidget, %function
 861              	CapSense_1_EnableWidget:
 862              	.LFB8:
 791:./Generated_Source/PSoC5/CapSense_1_CSHL.c **** 
 792:./Generated_Source/PSoC5/CapSense_1_CSHL.c **** 
 793:./Generated_Source/PSoC5/CapSense_1_CSHL.c **** /*******************************************************************************
 794:./Generated_Source/PSoC5/CapSense_1_CSHL.c **** * Function Name: CapSense_1_EnableWidget
 795:./Generated_Source/PSoC5/CapSense_1_CSHL.c **** ********************************************************************************
 796:./Generated_Source/PSoC5/CapSense_1_CSHL.c **** *
 797:./Generated_Source/PSoC5/CapSense_1_CSHL.c **** * Summary:
 798:./Generated_Source/PSoC5/CapSense_1_CSHL.c **** *  Enable all widget elements (sensors) to scanning process.
 799:./Generated_Source/PSoC5/CapSense_1_CSHL.c **** *
 800:./Generated_Source/PSoC5/CapSense_1_CSHL.c **** * Parameters:
 801:./Generated_Source/PSoC5/CapSense_1_CSHL.c **** *  widget:  widget number.
 802:./Generated_Source/PSoC5/CapSense_1_CSHL.c **** *
 803:./Generated_Source/PSoC5/CapSense_1_CSHL.c **** * Return:
 804:./Generated_Source/PSoC5/CapSense_1_CSHL.c **** *  None
 805:./Generated_Source/PSoC5/CapSense_1_CSHL.c **** *
 806:./Generated_Source/PSoC5/CapSense_1_CSHL.c **** * Global Variables:
 807:./Generated_Source/PSoC5/CapSense_1_CSHL.c **** *  CapSense_1_SensorEnableMask[] - used to store the sensor scanning 
 808:./Generated_Source/PSoC5/CapSense_1_CSHL.c **** *  state.
 809:./Generated_Source/PSoC5/CapSense_1_CSHL.c **** *  CapSense_1_SensorEnableMask[0] contains the masked bits for sensors 
 810:./Generated_Source/PSoC5/CapSense_1_CSHL.c **** *  0 through 7 (sensor 0 is bit 0, sensor 1 is bit 1).
 811:./Generated_Source/PSoC5/CapSense_1_CSHL.c **** *  CapSense_1_SensorEnableMask[1] contains the masked bits for 
 812:./Generated_Source/PSoC5/CapSense_1_CSHL.c **** *  sensors 8 through 15 (if needed), and so on.
 813:./Generated_Source/PSoC5/CapSense_1_CSHL.c **** *  0 - sensor doesn't scan by CapSense_1_ScanEnabledWidgets().
 814:./Generated_Source/PSoC5/CapSense_1_CSHL.c **** *  1 - sensor scans by CapSense_1_ScanEnabledWidgets().
 815:./Generated_Source/PSoC5/CapSense_1_CSHL.c **** *
 816:./Generated_Source/PSoC5/CapSense_1_CSHL.c **** * Reentrant:
 817:./Generated_Source/PSoC5/CapSense_1_CSHL.c **** *  No
 818:./Generated_Source/PSoC5/CapSense_1_CSHL.c **** *
 819:./Generated_Source/PSoC5/CapSense_1_CSHL.c **** *******************************************************************************/
 820:./Generated_Source/PSoC5/CapSense_1_CSHL.c **** void CapSense_1_EnableWidget(uint8 widget)
 821:./Generated_Source/PSoC5/CapSense_1_CSHL.c **** {
 863              		.loc 1 821 0
 864              		.cfi_startproc
 865              		@ args = 0, pretend = 0, frame = 16
 866              		@ frame_needed = 1, uses_anonymous_args = 0
 867              		@ link register save eliminated.
 868 0000 80B4     		push	{r7}
 869              	.LCFI24:
 870              		.cfi_def_cfa_offset 4
 871 0002 85B0     		sub	sp, sp, #20
 872              	.LCFI25:
 873              		.cfi_def_cfa_offset 24
 874 0004 00AF     		add	r7, sp, #0
 875              		.cfi_offset 7, -4
 876              	.LCFI26:
 877              		.cfi_def_cfa_register 7
 878 0006 0346     		mov	r3, r0
 879 0008 FB71     		strb	r3, [r7, #7]
 822:./Generated_Source/PSoC5/CapSense_1_CSHL.c ****     uint8 pos;
 823:./Generated_Source/PSoC5/CapSense_1_CSHL.c ****     uint8 enMask;
 824:./Generated_Source/PSoC5/CapSense_1_CSHL.c ****     uint8 rawIndex = CapSense_1_rawDataIndex[widget];
 880              		.loc 1 824 0
 881 000a FA79     		ldrb	r2, [r7, #7]	@ zero_extendqisi2
 882 000c 40F20003 		movw	r3, #:lower16:CapSense_1_rawDataIndex
ARM GAS  C:\Users\CHARLI~1\AppData\Local\Temp\ccF9CHT0.s 			page 31


 883 0010 C0F20003 		movt	r3, #:upper16:CapSense_1_rawDataIndex
 884 0014 9B5C     		ldrb	r3, [r3, r2]
 885 0016 BB73     		strb	r3, [r7, #14]
 825:./Generated_Source/PSoC5/CapSense_1_CSHL.c ****     uint8 numberOfSensors = CapSense_1_numberOfSensors[widget] + rawIndex;
 886              		.loc 1 825 0
 887 0018 FA79     		ldrb	r2, [r7, #7]	@ zero_extendqisi2
 888 001a 40F20003 		movw	r3, #:lower16:CapSense_1_numberOfSensors
 889 001e C0F20003 		movt	r3, #:upper16:CapSense_1_numberOfSensors
 890 0022 9A5C     		ldrb	r2, [r3, r2]	@ zero_extendqisi2
 891 0024 BB7B     		ldrb	r3, [r7, #14]
 892 0026 1344     		add	r3, r2, r3
 893 0028 FB73     		strb	r3, [r7, #15]
 894              	.L45:
 826:./Generated_Source/PSoC5/CapSense_1_CSHL.c ****     
 827:./Generated_Source/PSoC5/CapSense_1_CSHL.c ****     /* Enable all sensors of the widget */
 828:./Generated_Source/PSoC5/CapSense_1_CSHL.c ****     do
 829:./Generated_Source/PSoC5/CapSense_1_CSHL.c ****     {
 830:./Generated_Source/PSoC5/CapSense_1_CSHL.c ****         pos = (rawIndex >> 3u);
 895              		.loc 1 830 0
 896 002a BB7B     		ldrb	r3, [r7, #14]	@ zero_extendqisi2
 897 002c 4FEAD303 		lsr	r3, r3, #3
 898 0030 3B73     		strb	r3, [r7, #12]
 831:./Generated_Source/PSoC5/CapSense_1_CSHL.c ****         enMask = 0x01u << (rawIndex & 0x07u);
 899              		.loc 1 831 0
 900 0032 BB7B     		ldrb	r3, [r7, #14]	@ zero_extendqisi2
 901 0034 03F00703 		and	r3, r3, #7
 902 0038 4FF00102 		mov	r2, #1
 903 003c 02FA03F3 		lsl	r3, r2, r3
 904 0040 7B73     		strb	r3, [r7, #13]
 832:./Generated_Source/PSoC5/CapSense_1_CSHL.c ****         
 833:./Generated_Source/PSoC5/CapSense_1_CSHL.c ****         CapSense_1_SensorEnableMask[pos] |= enMask;
 905              		.loc 1 833 0
 906 0042 3A7B     		ldrb	r2, [r7, #12]	@ zero_extendqisi2
 907 0044 397B     		ldrb	r1, [r7, #12]	@ zero_extendqisi2
 908 0046 40F20003 		movw	r3, #:lower16:CapSense_1_SensorEnableMask
 909 004a C0F20003 		movt	r3, #:upper16:CapSense_1_SensorEnableMask
 910 004e 595C     		ldrb	r1, [r3, r1]	@ zero_extendqisi2
 911 0050 7B7B     		ldrb	r3, [r7, #13]
 912 0052 41EA0303 		orr	r3, r1, r3
 913 0056 D9B2     		uxtb	r1, r3
 914 0058 40F20003 		movw	r3, #:lower16:CapSense_1_SensorEnableMask
 915 005c C0F20003 		movt	r3, #:upper16:CapSense_1_SensorEnableMask
 916 0060 9954     		strb	r1, [r3, r2]
 834:./Generated_Source/PSoC5/CapSense_1_CSHL.c ****         rawIndex++;
 917              		.loc 1 834 0
 918 0062 BB7B     		ldrb	r3, [r7, #14]
 919 0064 03F10103 		add	r3, r3, #1
 920 0068 BB73     		strb	r3, [r7, #14]
 835:./Generated_Source/PSoC5/CapSense_1_CSHL.c ****     }
 836:./Generated_Source/PSoC5/CapSense_1_CSHL.c ****     while(rawIndex < numberOfSensors);
 921              		.loc 1 836 0
 922 006a BA7B     		ldrb	r2, [r7, #14]	@ zero_extendqisi2
 923 006c FB7B     		ldrb	r3, [r7, #15]	@ zero_extendqisi2
 924 006e 9A42     		cmp	r2, r3
 925 0070 DBD3     		bcc	.L45
 837:./Generated_Source/PSoC5/CapSense_1_CSHL.c ****     
 838:./Generated_Source/PSoC5/CapSense_1_CSHL.c **** 
ARM GAS  C:\Users\CHARLI~1\AppData\Local\Temp\ccF9CHT0.s 			page 32


 839:./Generated_Source/PSoC5/CapSense_1_CSHL.c **** }
 926              		.loc 1 839 0
 927 0072 07F11407 		add	r7, r7, #20
 928 0076 BD46     		mov	sp, r7
 929 0078 80BC     		pop	{r7}
 930 007a 7047     		bx	lr
 931              		.cfi_endproc
 932              	.LFE8:
 933              		.size	CapSense_1_EnableWidget, .-CapSense_1_EnableWidget
 934              		.section	.text.CapSense_1_DisableWidget,"ax",%progbits
 935              		.align	2
 936              		.global	CapSense_1_DisableWidget
 937              		.thumb
 938              		.thumb_func
 939              		.type	CapSense_1_DisableWidget, %function
 940              	CapSense_1_DisableWidget:
 941              	.LFB9:
 840:./Generated_Source/PSoC5/CapSense_1_CSHL.c **** 
 841:./Generated_Source/PSoC5/CapSense_1_CSHL.c **** 
 842:./Generated_Source/PSoC5/CapSense_1_CSHL.c **** /*******************************************************************************
 843:./Generated_Source/PSoC5/CapSense_1_CSHL.c **** * Function Name: CapSense_1_DisableWidget
 844:./Generated_Source/PSoC5/CapSense_1_CSHL.c **** ********************************************************************************
 845:./Generated_Source/PSoC5/CapSense_1_CSHL.c **** *
 846:./Generated_Source/PSoC5/CapSense_1_CSHL.c **** * Summary:
 847:./Generated_Source/PSoC5/CapSense_1_CSHL.c **** *  Disable all widget elements (sensors) from scanning process.
 848:./Generated_Source/PSoC5/CapSense_1_CSHL.c **** *
 849:./Generated_Source/PSoC5/CapSense_1_CSHL.c **** * Parameters:
 850:./Generated_Source/PSoC5/CapSense_1_CSHL.c **** *  widget:  widget number.
 851:./Generated_Source/PSoC5/CapSense_1_CSHL.c **** *
 852:./Generated_Source/PSoC5/CapSense_1_CSHL.c **** * Return:
 853:./Generated_Source/PSoC5/CapSense_1_CSHL.c **** *  None
 854:./Generated_Source/PSoC5/CapSense_1_CSHL.c **** *
 855:./Generated_Source/PSoC5/CapSense_1_CSHL.c **** * Global Variables:
 856:./Generated_Source/PSoC5/CapSense_1_CSHL.c **** *  CapSense_1_SensorEnableMask[] - used to store the sensor scanning 
 857:./Generated_Source/PSoC5/CapSense_1_CSHL.c **** *  state.
 858:./Generated_Source/PSoC5/CapSense_1_CSHL.c **** *  CapSense_1_SensorEnableMask[0] contains the masked bits for sensors 
 859:./Generated_Source/PSoC5/CapSense_1_CSHL.c **** *  0 through 7 (sensor 0 is bit 0, sensor 1 is bit 1).
 860:./Generated_Source/PSoC5/CapSense_1_CSHL.c **** *  CapSense_1_SensorEnableMask[1] contains the masked bits for 
 861:./Generated_Source/PSoC5/CapSense_1_CSHL.c **** *  sensors 8 through 15 (if needed), and so on.
 862:./Generated_Source/PSoC5/CapSense_1_CSHL.c **** *  0 - sensor doesn't scan by CapSense_1_ScanEnabledWidgets().
 863:./Generated_Source/PSoC5/CapSense_1_CSHL.c **** *  1 - sensor scans by CapSense_1_ScanEnabledWidgets().
 864:./Generated_Source/PSoC5/CapSense_1_CSHL.c **** *
 865:./Generated_Source/PSoC5/CapSense_1_CSHL.c **** * Reentrant:
 866:./Generated_Source/PSoC5/CapSense_1_CSHL.c **** *  No
 867:./Generated_Source/PSoC5/CapSense_1_CSHL.c **** *
 868:./Generated_Source/PSoC5/CapSense_1_CSHL.c **** *******************************************************************************/
 869:./Generated_Source/PSoC5/CapSense_1_CSHL.c **** void CapSense_1_DisableWidget(uint8 widget)
 870:./Generated_Source/PSoC5/CapSense_1_CSHL.c **** {
 942              		.loc 1 870 0
 943              		.cfi_startproc
 944              		@ args = 0, pretend = 0, frame = 16
 945              		@ frame_needed = 1, uses_anonymous_args = 0
 946              		@ link register save eliminated.
 947 0000 80B4     		push	{r7}
 948              	.LCFI27:
 949              		.cfi_def_cfa_offset 4
 950 0002 85B0     		sub	sp, sp, #20
ARM GAS  C:\Users\CHARLI~1\AppData\Local\Temp\ccF9CHT0.s 			page 33


 951              	.LCFI28:
 952              		.cfi_def_cfa_offset 24
 953 0004 00AF     		add	r7, sp, #0
 954              		.cfi_offset 7, -4
 955              	.LCFI29:
 956              		.cfi_def_cfa_register 7
 957 0006 0346     		mov	r3, r0
 958 0008 FB71     		strb	r3, [r7, #7]
 871:./Generated_Source/PSoC5/CapSense_1_CSHL.c ****     uint8 pos;
 872:./Generated_Source/PSoC5/CapSense_1_CSHL.c ****     uint8 enMask;
 873:./Generated_Source/PSoC5/CapSense_1_CSHL.c ****     uint8 rawIndex = CapSense_1_rawDataIndex[widget];
 959              		.loc 1 873 0
 960 000a FA79     		ldrb	r2, [r7, #7]	@ zero_extendqisi2
 961 000c 40F20003 		movw	r3, #:lower16:CapSense_1_rawDataIndex
 962 0010 C0F20003 		movt	r3, #:upper16:CapSense_1_rawDataIndex
 963 0014 9B5C     		ldrb	r3, [r3, r2]
 964 0016 BB73     		strb	r3, [r7, #14]
 874:./Generated_Source/PSoC5/CapSense_1_CSHL.c ****     uint8 numberOfSensors = CapSense_1_numberOfSensors[widget] + rawIndex;
 965              		.loc 1 874 0
 966 0018 FA79     		ldrb	r2, [r7, #7]	@ zero_extendqisi2
 967 001a 40F20003 		movw	r3, #:lower16:CapSense_1_numberOfSensors
 968 001e C0F20003 		movt	r3, #:upper16:CapSense_1_numberOfSensors
 969 0022 9A5C     		ldrb	r2, [r3, r2]	@ zero_extendqisi2
 970 0024 BB7B     		ldrb	r3, [r7, #14]
 971 0026 1344     		add	r3, r2, r3
 972 0028 FB73     		strb	r3, [r7, #15]
 973              	.L48:
 875:./Generated_Source/PSoC5/CapSense_1_CSHL.c ****    
 876:./Generated_Source/PSoC5/CapSense_1_CSHL.c ****     /* Disable all sensors of the widget */
 877:./Generated_Source/PSoC5/CapSense_1_CSHL.c ****     do
 878:./Generated_Source/PSoC5/CapSense_1_CSHL.c ****     {
 879:./Generated_Source/PSoC5/CapSense_1_CSHL.c ****         pos = (rawIndex >> 3u);
 974              		.loc 1 879 0
 975 002a BB7B     		ldrb	r3, [r7, #14]	@ zero_extendqisi2
 976 002c 4FEAD303 		lsr	r3, r3, #3
 977 0030 3B73     		strb	r3, [r7, #12]
 880:./Generated_Source/PSoC5/CapSense_1_CSHL.c ****         enMask = 0x01u << (rawIndex & 0x07u);
 978              		.loc 1 880 0
 979 0032 BB7B     		ldrb	r3, [r7, #14]	@ zero_extendqisi2
 980 0034 03F00703 		and	r3, r3, #7
 981 0038 4FF00102 		mov	r2, #1
 982 003c 02FA03F3 		lsl	r3, r2, r3
 983 0040 7B73     		strb	r3, [r7, #13]
 881:./Generated_Source/PSoC5/CapSense_1_CSHL.c ****         
 882:./Generated_Source/PSoC5/CapSense_1_CSHL.c ****         CapSense_1_SensorEnableMask[pos] &= ~enMask;
 984              		.loc 1 882 0
 985 0042 3A7B     		ldrb	r2, [r7, #12]	@ zero_extendqisi2
 986 0044 397B     		ldrb	r1, [r7, #12]	@ zero_extendqisi2
 987 0046 40F20003 		movw	r3, #:lower16:CapSense_1_SensorEnableMask
 988 004a C0F20003 		movt	r3, #:upper16:CapSense_1_SensorEnableMask
 989 004e 5B5C     		ldrb	r3, [r3, r1]	@ zero_extendqisi2
 990 0050 1946     		mov	r1, r3
 991 0052 7B7B     		ldrb	r3, [r7, #13]	@ zero_extendqisi2
 992 0054 6FEA0303 		mvn	r3, r3
 993 0058 DBB2     		uxtb	r3, r3
 994 005a 01EA0303 		and	r3, r1, r3
 995 005e DBB2     		uxtb	r3, r3
ARM GAS  C:\Users\CHARLI~1\AppData\Local\Temp\ccF9CHT0.s 			page 34


 996 0060 D9B2     		uxtb	r1, r3
 997 0062 40F20003 		movw	r3, #:lower16:CapSense_1_SensorEnableMask
 998 0066 C0F20003 		movt	r3, #:upper16:CapSense_1_SensorEnableMask
 999 006a 9954     		strb	r1, [r3, r2]
 883:./Generated_Source/PSoC5/CapSense_1_CSHL.c ****         rawIndex++;
 1000              		.loc 1 883 0
 1001 006c BB7B     		ldrb	r3, [r7, #14]
 1002 006e 03F10103 		add	r3, r3, #1
 1003 0072 BB73     		strb	r3, [r7, #14]
 884:./Generated_Source/PSoC5/CapSense_1_CSHL.c ****     }
 885:./Generated_Source/PSoC5/CapSense_1_CSHL.c ****     while(rawIndex < numberOfSensors);
 1004              		.loc 1 885 0
 1005 0074 BA7B     		ldrb	r2, [r7, #14]	@ zero_extendqisi2
 1006 0076 FB7B     		ldrb	r3, [r7, #15]	@ zero_extendqisi2
 1007 0078 9A42     		cmp	r2, r3
 1008 007a D6D3     		bcc	.L48
 886:./Generated_Source/PSoC5/CapSense_1_CSHL.c ****     
 887:./Generated_Source/PSoC5/CapSense_1_CSHL.c **** 
 888:./Generated_Source/PSoC5/CapSense_1_CSHL.c **** }
 1009              		.loc 1 888 0
 1010 007c 07F11407 		add	r7, r7, #20
 1011 0080 BD46     		mov	sp, r7
 1012 0082 80BC     		pop	{r7}
 1013 0084 7047     		bx	lr
 1014              		.cfi_endproc
 1015              	.LFE9:
 1016              		.size	CapSense_1_DisableWidget, .-CapSense_1_DisableWidget
 1017 0086 00BF     		.section	.text.CapSense_1_IIR4Filter,"ax",%progbits
 1018              		.align	2
 1019              		.global	CapSense_1_IIR4Filter
 1020              		.thumb
 1021              		.thumb_func
 1022              		.type	CapSense_1_IIR4Filter, %function
 1023              	CapSense_1_IIR4Filter:
 1024              	.LFB10:
 889:./Generated_Source/PSoC5/CapSense_1_CSHL.c **** 
 890:./Generated_Source/PSoC5/CapSense_1_CSHL.c **** 
 891:./Generated_Source/PSoC5/CapSense_1_CSHL.c **** 
 892:./Generated_Source/PSoC5/CapSense_1_CSHL.c **** 
 893:./Generated_Source/PSoC5/CapSense_1_CSHL.c **** #if ( (CapSense_1_RAW_FILTER_MASK & CapSense_1_MEDIAN_FILTER) || \
 894:./Generated_Source/PSoC5/CapSense_1_CSHL.c ****       (CapSense_1_POS_FILTERS_MASK & CapSense_1_MEDIAN_FILTER) )
 895:./Generated_Source/PSoC5/CapSense_1_CSHL.c ****     /*******************************************************************************
 896:./Generated_Source/PSoC5/CapSense_1_CSHL.c ****     * Function Name: CapSense_1_MedianFilter
 897:./Generated_Source/PSoC5/CapSense_1_CSHL.c ****     ********************************************************************************
 898:./Generated_Source/PSoC5/CapSense_1_CSHL.c ****     *
 899:./Generated_Source/PSoC5/CapSense_1_CSHL.c ****     * Summary:
 900:./Generated_Source/PSoC5/CapSense_1_CSHL.c ****     *  Median filter function. 
 901:./Generated_Source/PSoC5/CapSense_1_CSHL.c ****     *  The median filter looks at the three most recent samples and reports the 
 902:./Generated_Source/PSoC5/CapSense_1_CSHL.c ****     *  median value.
 903:./Generated_Source/PSoC5/CapSense_1_CSHL.c ****     *
 904:./Generated_Source/PSoC5/CapSense_1_CSHL.c ****     * Parameters:
 905:./Generated_Source/PSoC5/CapSense_1_CSHL.c ****     *  x1:  Current value.
 906:./Generated_Source/PSoC5/CapSense_1_CSHL.c ****     *  x2:  Previous value.
 907:./Generated_Source/PSoC5/CapSense_1_CSHL.c ****     *  x3:  Before previous value.
 908:./Generated_Source/PSoC5/CapSense_1_CSHL.c ****     *
 909:./Generated_Source/PSoC5/CapSense_1_CSHL.c ****     * Return:
 910:./Generated_Source/PSoC5/CapSense_1_CSHL.c ****     *  Returns filtered value.
ARM GAS  C:\Users\CHARLI~1\AppData\Local\Temp\ccF9CHT0.s 			page 35


 911:./Generated_Source/PSoC5/CapSense_1_CSHL.c ****     *
 912:./Generated_Source/PSoC5/CapSense_1_CSHL.c ****     *******************************************************************************/
 913:./Generated_Source/PSoC5/CapSense_1_CSHL.c ****     uint16 CapSense_1_MedianFilter(uint16 x1, uint16 x2, uint16 x3) \
 914:./Generated_Source/PSoC5/CapSense_1_CSHL.c ****                                          
 915:./Generated_Source/PSoC5/CapSense_1_CSHL.c ****     {
 916:./Generated_Source/PSoC5/CapSense_1_CSHL.c ****         uint16 tmp;
 917:./Generated_Source/PSoC5/CapSense_1_CSHL.c ****         
 918:./Generated_Source/PSoC5/CapSense_1_CSHL.c ****         if (x1 > x2)
 919:./Generated_Source/PSoC5/CapSense_1_CSHL.c ****         {
 920:./Generated_Source/PSoC5/CapSense_1_CSHL.c ****             tmp = x2;
 921:./Generated_Source/PSoC5/CapSense_1_CSHL.c ****             x2 = x1;
 922:./Generated_Source/PSoC5/CapSense_1_CSHL.c ****             x1 = tmp;
 923:./Generated_Source/PSoC5/CapSense_1_CSHL.c ****         }
 924:./Generated_Source/PSoC5/CapSense_1_CSHL.c ****         
 925:./Generated_Source/PSoC5/CapSense_1_CSHL.c ****         if (x2 > x3)
 926:./Generated_Source/PSoC5/CapSense_1_CSHL.c ****         {
 927:./Generated_Source/PSoC5/CapSense_1_CSHL.c ****             x2 = x3;
 928:./Generated_Source/PSoC5/CapSense_1_CSHL.c ****         }
 929:./Generated_Source/PSoC5/CapSense_1_CSHL.c ****         
 930:./Generated_Source/PSoC5/CapSense_1_CSHL.c ****         return ((x1 > x2) ? x1 : x2);
 931:./Generated_Source/PSoC5/CapSense_1_CSHL.c ****     }
 932:./Generated_Source/PSoC5/CapSense_1_CSHL.c **** #endif /* End CapSense_1_RAW_FILTER_MASK && CapSense_1_POS_FILTERS_MASK */
 933:./Generated_Source/PSoC5/CapSense_1_CSHL.c **** 
 934:./Generated_Source/PSoC5/CapSense_1_CSHL.c **** 
 935:./Generated_Source/PSoC5/CapSense_1_CSHL.c **** #if ( (CapSense_1_RAW_FILTER_MASK & CapSense_1_AVERAGING_FILTER) || \
 936:./Generated_Source/PSoC5/CapSense_1_CSHL.c ****       (CapSense_1_POS_FILTERS_MASK & CapSense_1_AVERAGING_FILTER) )
 937:./Generated_Source/PSoC5/CapSense_1_CSHL.c ****     /*******************************************************************************
 938:./Generated_Source/PSoC5/CapSense_1_CSHL.c ****     * Function Name: CapSense_1_AveragingFilter
 939:./Generated_Source/PSoC5/CapSense_1_CSHL.c ****     ********************************************************************************
 940:./Generated_Source/PSoC5/CapSense_1_CSHL.c ****     *
 941:./Generated_Source/PSoC5/CapSense_1_CSHL.c ****     * Summary:
 942:./Generated_Source/PSoC5/CapSense_1_CSHL.c ****     *  Averaging filter function.
 943:./Generated_Source/PSoC5/CapSense_1_CSHL.c ****     *  The averaging filter looks at the three most recent samples of position and
 944:./Generated_Source/PSoC5/CapSense_1_CSHL.c ****     *  reports the averaging value.
 945:./Generated_Source/PSoC5/CapSense_1_CSHL.c ****     *
 946:./Generated_Source/PSoC5/CapSense_1_CSHL.c ****     * Parameters:
 947:./Generated_Source/PSoC5/CapSense_1_CSHL.c ****     *  x1:  Current value.
 948:./Generated_Source/PSoC5/CapSense_1_CSHL.c ****     *  x2:  Previous value.
 949:./Generated_Source/PSoC5/CapSense_1_CSHL.c ****     *  x3:  Before previous value.
 950:./Generated_Source/PSoC5/CapSense_1_CSHL.c ****     *
 951:./Generated_Source/PSoC5/CapSense_1_CSHL.c ****     * Return:
 952:./Generated_Source/PSoC5/CapSense_1_CSHL.c ****     *  Returns filtered value.
 953:./Generated_Source/PSoC5/CapSense_1_CSHL.c ****     *
 954:./Generated_Source/PSoC5/CapSense_1_CSHL.c ****     *******************************************************************************/
 955:./Generated_Source/PSoC5/CapSense_1_CSHL.c ****     uint16 CapSense_1_AveragingFilter(uint16 x1, uint16 x2, uint16 x3) \
 956:./Generated_Source/PSoC5/CapSense_1_CSHL.c ****                                             
 957:./Generated_Source/PSoC5/CapSense_1_CSHL.c ****     {
 958:./Generated_Source/PSoC5/CapSense_1_CSHL.c ****         uint32 tmp = ((uint32)x1 + (uint32)x2 + (uint32)x3) / 3u;
 959:./Generated_Source/PSoC5/CapSense_1_CSHL.c ****         
 960:./Generated_Source/PSoC5/CapSense_1_CSHL.c ****         return ((uint16) tmp);
 961:./Generated_Source/PSoC5/CapSense_1_CSHL.c ****     }
 962:./Generated_Source/PSoC5/CapSense_1_CSHL.c **** #endif /* End CapSense_1_RAW_FILTER_MASK && CapSense_1_POS_FILTERS_MASK */
 963:./Generated_Source/PSoC5/CapSense_1_CSHL.c **** 
 964:./Generated_Source/PSoC5/CapSense_1_CSHL.c **** 
 965:./Generated_Source/PSoC5/CapSense_1_CSHL.c **** #if ( (CapSense_1_RAW_FILTER_MASK & CapSense_1_IIR2_FILTER) || \
 966:./Generated_Source/PSoC5/CapSense_1_CSHL.c ****       (CapSense_1_POS_FILTERS_MASK & CapSense_1_IIR2_FILTER) )
 967:./Generated_Source/PSoC5/CapSense_1_CSHL.c ****     /*******************************************************************************
ARM GAS  C:\Users\CHARLI~1\AppData\Local\Temp\ccF9CHT0.s 			page 36


 968:./Generated_Source/PSoC5/CapSense_1_CSHL.c ****     * Function Name: CapSense_1_IIR2Filter
 969:./Generated_Source/PSoC5/CapSense_1_CSHL.c ****     ********************************************************************************
 970:./Generated_Source/PSoC5/CapSense_1_CSHL.c ****     *
 971:./Generated_Source/PSoC5/CapSense_1_CSHL.c ****     * Summary:
 972:./Generated_Source/PSoC5/CapSense_1_CSHL.c ****     *  IIR1/2 filter function. IIR1/2 = 1/2current + 1/2previous.
 973:./Generated_Source/PSoC5/CapSense_1_CSHL.c ****     *
 974:./Generated_Source/PSoC5/CapSense_1_CSHL.c ****     * Parameters:
 975:./Generated_Source/PSoC5/CapSense_1_CSHL.c ****     *  x1:  Current value.
 976:./Generated_Source/PSoC5/CapSense_1_CSHL.c ****     *  x2:  Previous value.
 977:./Generated_Source/PSoC5/CapSense_1_CSHL.c ****     *
 978:./Generated_Source/PSoC5/CapSense_1_CSHL.c ****     * Return:
 979:./Generated_Source/PSoC5/CapSense_1_CSHL.c ****     *  Returns filtered value.
 980:./Generated_Source/PSoC5/CapSense_1_CSHL.c ****     *
 981:./Generated_Source/PSoC5/CapSense_1_CSHL.c ****     *******************************************************************************/
 982:./Generated_Source/PSoC5/CapSense_1_CSHL.c ****     uint16 CapSense_1_IIR2Filter(uint16 x1, uint16 x2) \
 983:./Generated_Source/PSoC5/CapSense_1_CSHL.c ****                                        
 984:./Generated_Source/PSoC5/CapSense_1_CSHL.c ****     {
 985:./Generated_Source/PSoC5/CapSense_1_CSHL.c ****         uint32 tmp;
 986:./Generated_Source/PSoC5/CapSense_1_CSHL.c ****         
 987:./Generated_Source/PSoC5/CapSense_1_CSHL.c ****         /* IIR = 1/2 Current Value+ 1/2 Previous Value */
 988:./Generated_Source/PSoC5/CapSense_1_CSHL.c ****         tmp = (uint32)x1 + (uint32)x2;
 989:./Generated_Source/PSoC5/CapSense_1_CSHL.c ****         tmp >>= 1u;
 990:./Generated_Source/PSoC5/CapSense_1_CSHL.c ****     
 991:./Generated_Source/PSoC5/CapSense_1_CSHL.c ****         return ((uint16) tmp);
 992:./Generated_Source/PSoC5/CapSense_1_CSHL.c ****     }
 993:./Generated_Source/PSoC5/CapSense_1_CSHL.c **** #endif /* End CapSense_1_RAW_FILTER_MASK && CapSense_1_POS_FILTERS_MASK */
 994:./Generated_Source/PSoC5/CapSense_1_CSHL.c **** 
 995:./Generated_Source/PSoC5/CapSense_1_CSHL.c **** 
 996:./Generated_Source/PSoC5/CapSense_1_CSHL.c **** #if ( (CapSense_1_RAW_FILTER_MASK & CapSense_1_IIR4_FILTER) || \
 997:./Generated_Source/PSoC5/CapSense_1_CSHL.c ****       (CapSense_1_POS_FILTERS_MASK & CapSense_1_IIR4_FILTER) )
 998:./Generated_Source/PSoC5/CapSense_1_CSHL.c ****     /*******************************************************************************
 999:./Generated_Source/PSoC5/CapSense_1_CSHL.c ****     * Function Name: CapSense_1_IIR4Filter
1000:./Generated_Source/PSoC5/CapSense_1_CSHL.c ****     ********************************************************************************
1001:./Generated_Source/PSoC5/CapSense_1_CSHL.c ****     *
1002:./Generated_Source/PSoC5/CapSense_1_CSHL.c ****     * Summary:
1003:./Generated_Source/PSoC5/CapSense_1_CSHL.c ****     *  IIR1/4 filter function. IIR1/4 = 1/4current + 3/4previous.
1004:./Generated_Source/PSoC5/CapSense_1_CSHL.c ****     *
1005:./Generated_Source/PSoC5/CapSense_1_CSHL.c ****     * Parameters:
1006:./Generated_Source/PSoC5/CapSense_1_CSHL.c ****     *  x1:  Current value.
1007:./Generated_Source/PSoC5/CapSense_1_CSHL.c ****     *  x2:  Previous value.
1008:./Generated_Source/PSoC5/CapSense_1_CSHL.c ****     *
1009:./Generated_Source/PSoC5/CapSense_1_CSHL.c ****     * Return:
1010:./Generated_Source/PSoC5/CapSense_1_CSHL.c ****     *  Returns filtered value.
1011:./Generated_Source/PSoC5/CapSense_1_CSHL.c ****     *
1012:./Generated_Source/PSoC5/CapSense_1_CSHL.c ****     *******************************************************************************/
1013:./Generated_Source/PSoC5/CapSense_1_CSHL.c ****     uint16 CapSense_1_IIR4Filter(uint16 x1, uint16 x2) \
1014:./Generated_Source/PSoC5/CapSense_1_CSHL.c ****                                        
1015:./Generated_Source/PSoC5/CapSense_1_CSHL.c ****     {
 1025              		.loc 1 1015 0
 1026              		.cfi_startproc
 1027              		@ args = 0, pretend = 0, frame = 16
 1028              		@ frame_needed = 1, uses_anonymous_args = 0
 1029              		@ link register save eliminated.
 1030 0000 80B4     		push	{r7}
 1031              	.LCFI30:
 1032              		.cfi_def_cfa_offset 4
 1033 0002 85B0     		sub	sp, sp, #20
ARM GAS  C:\Users\CHARLI~1\AppData\Local\Temp\ccF9CHT0.s 			page 37


 1034              	.LCFI31:
 1035              		.cfi_def_cfa_offset 24
 1036 0004 00AF     		add	r7, sp, #0
 1037              		.cfi_offset 7, -4
 1038              	.LCFI32:
 1039              		.cfi_def_cfa_register 7
 1040 0006 0246     		mov	r2, r0
 1041 0008 0B46     		mov	r3, r1
 1042 000a FA80     		strh	r2, [r7, #6]	@ movhi
 1043 000c BB80     		strh	r3, [r7, #4]	@ movhi
1016:./Generated_Source/PSoC5/CapSense_1_CSHL.c ****         uint32 tmp;
1017:./Generated_Source/PSoC5/CapSense_1_CSHL.c ****         
1018:./Generated_Source/PSoC5/CapSense_1_CSHL.c ****         /* IIR = 1/4 Current Value + 3/4 Previous Value */
1019:./Generated_Source/PSoC5/CapSense_1_CSHL.c ****         tmp = (uint32)x1 + (uint32)x2;
 1044              		.loc 1 1019 0
 1045 000e FA88     		ldrh	r2, [r7, #6]
 1046 0010 BB88     		ldrh	r3, [r7, #4]
 1047 0012 1344     		add	r3, r2, r3
 1048 0014 FB60     		str	r3, [r7, #12]
1020:./Generated_Source/PSoC5/CapSense_1_CSHL.c ****         tmp += ((uint32)x2 << 1u);
 1049              		.loc 1 1020 0
 1050 0016 BB88     		ldrh	r3, [r7, #4]
 1051 0018 4FEA4303 		lsl	r3, r3, #1
 1052 001c FA68     		ldr	r2, [r7, #12]
 1053 001e 1344     		add	r3, r2, r3
 1054 0020 FB60     		str	r3, [r7, #12]
1021:./Generated_Source/PSoC5/CapSense_1_CSHL.c ****         tmp >>= 2u;
 1055              		.loc 1 1021 0
 1056 0022 FB68     		ldr	r3, [r7, #12]
 1057 0024 4FEA9303 		lsr	r3, r3, #2
 1058 0028 FB60     		str	r3, [r7, #12]
1022:./Generated_Source/PSoC5/CapSense_1_CSHL.c ****         
1023:./Generated_Source/PSoC5/CapSense_1_CSHL.c ****         return ((uint16) tmp);
 1059              		.loc 1 1023 0
 1060 002a FB68     		ldr	r3, [r7, #12]
 1061 002c 9BB2     		uxth	r3, r3
1024:./Generated_Source/PSoC5/CapSense_1_CSHL.c ****     }
 1062              		.loc 1 1024 0
 1063 002e 1846     		mov	r0, r3
 1064 0030 07F11407 		add	r7, r7, #20
 1065 0034 BD46     		mov	sp, r7
 1066 0036 80BC     		pop	{r7}
 1067 0038 7047     		bx	lr
 1068              		.cfi_endproc
 1069              	.LFE10:
 1070              		.size	CapSense_1_IIR4Filter, .-CapSense_1_IIR4Filter
 1071 003a 00BF     		.text
 1072              	.Letext0:
 1073              		.section	.debug_loc,"",%progbits
 1074              	.Ldebug_loc0:
 1075              	.LLST0:
 1076 0000 00000000 		.4byte	.LFB0
 1077 0004 02000000 		.4byte	.LCFI0
 1078 0008 0100     		.2byte	0x1
 1079 000a 5D       		.byte	0x5d
 1080 000b 02000000 		.4byte	.LCFI0
 1081 000f 04000000 		.4byte	.LCFI1
ARM GAS  C:\Users\CHARLI~1\AppData\Local\Temp\ccF9CHT0.s 			page 38


 1082 0013 0200     		.2byte	0x2
 1083 0015 7D       		.byte	0x7d
 1084 0016 04       		.sleb128 4
 1085 0017 04000000 		.4byte	.LCFI1
 1086 001b 06000000 		.4byte	.LCFI2
 1087 001f 0200     		.2byte	0x2
 1088 0021 7D       		.byte	0x7d
 1089 0022 18       		.sleb128 24
 1090 0023 06000000 		.4byte	.LCFI2
 1091 0027 92000000 		.4byte	.LFE0
 1092 002b 0200     		.2byte	0x2
 1093 002d 77       		.byte	0x77
 1094 002e 18       		.sleb128 24
 1095 002f 00000000 		.4byte	0x0
 1096 0033 00000000 		.4byte	0x0
 1097              	.LLST1:
 1098 0037 00000000 		.4byte	.LFB1
 1099 003b 02000000 		.4byte	.LCFI3
 1100 003f 0100     		.2byte	0x1
 1101 0041 5D       		.byte	0x5d
 1102 0042 02000000 		.4byte	.LCFI3
 1103 0046 04000000 		.4byte	.LCFI4
 1104 004a 0200     		.2byte	0x2
 1105 004c 7D       		.byte	0x7d
 1106 004d 08       		.sleb128 8
 1107 004e 04000000 		.4byte	.LCFI4
 1108 0052 06000000 		.4byte	.LCFI5
 1109 0056 0200     		.2byte	0x2
 1110 0058 7D       		.byte	0x7d
 1111 0059 10       		.sleb128 16
 1112 005a 06000000 		.4byte	.LCFI5
 1113 005e 2C000000 		.4byte	.LFE1
 1114 0062 0200     		.2byte	0x2
 1115 0064 77       		.byte	0x77
 1116 0065 10       		.sleb128 16
 1117 0066 00000000 		.4byte	0x0
 1118 006a 00000000 		.4byte	0x0
 1119              	.LLST2:
 1120 006e 00000000 		.4byte	.LFB2
 1121 0072 02000000 		.4byte	.LCFI6
 1122 0076 0100     		.2byte	0x1
 1123 0078 5D       		.byte	0x5d
 1124 0079 02000000 		.4byte	.LCFI6
 1125 007d 04000000 		.4byte	.LCFI7
 1126 0081 0200     		.2byte	0x2
 1127 0083 7D       		.byte	0x7d
 1128 0084 08       		.sleb128 8
 1129 0085 04000000 		.4byte	.LCFI7
 1130 0089 06000000 		.4byte	.LCFI8
 1131 008d 0200     		.2byte	0x2
 1132 008f 7D       		.byte	0x7d
 1133 0090 10       		.sleb128 16
 1134 0091 06000000 		.4byte	.LCFI8
 1135 0095 2C000000 		.4byte	.LFE2
 1136 0099 0200     		.2byte	0x2
 1137 009b 77       		.byte	0x77
 1138 009c 10       		.sleb128 16
ARM GAS  C:\Users\CHARLI~1\AppData\Local\Temp\ccF9CHT0.s 			page 39


 1139 009d 00000000 		.4byte	0x0
 1140 00a1 00000000 		.4byte	0x0
 1141              	.LLST3:
 1142 00a5 00000000 		.4byte	.LFB3
 1143 00a9 02000000 		.4byte	.LCFI9
 1144 00ad 0100     		.2byte	0x1
 1145 00af 5D       		.byte	0x5d
 1146 00b0 02000000 		.4byte	.LCFI9
 1147 00b4 04000000 		.4byte	.LCFI10
 1148 00b8 0200     		.2byte	0x2
 1149 00ba 7D       		.byte	0x7d
 1150 00bb 08       		.sleb128 8
 1151 00bc 04000000 		.4byte	.LCFI10
 1152 00c0 06000000 		.4byte	.LCFI11
 1153 00c4 0200     		.2byte	0x2
 1154 00c6 7D       		.byte	0x7d
 1155 00c7 20       		.sleb128 32
 1156 00c8 06000000 		.4byte	.LCFI11
 1157 00cc 9E010000 		.4byte	.LFE3
 1158 00d0 0200     		.2byte	0x2
 1159 00d2 77       		.byte	0x77
 1160 00d3 20       		.sleb128 32
 1161 00d4 00000000 		.4byte	0x0
 1162 00d8 00000000 		.4byte	0x0
 1163              	.LLST4:
 1164 00dc 00000000 		.4byte	.LFB4
 1165 00e0 02000000 		.4byte	.LCFI12
 1166 00e4 0100     		.2byte	0x1
 1167 00e6 5D       		.byte	0x5d
 1168 00e7 02000000 		.4byte	.LCFI12
 1169 00eb 04000000 		.4byte	.LCFI13
 1170 00ef 0200     		.2byte	0x2
 1171 00f1 7D       		.byte	0x7d
 1172 00f2 08       		.sleb128 8
 1173 00f3 04000000 		.4byte	.LCFI13
 1174 00f7 06000000 		.4byte	.LCFI14
 1175 00fb 0200     		.2byte	0x2
 1176 00fd 7D       		.byte	0x7d
 1177 00fe 10       		.sleb128 16
 1178 00ff 06000000 		.4byte	.LCFI14
 1179 0103 5C000000 		.4byte	.LFE4
 1180 0107 0200     		.2byte	0x2
 1181 0109 77       		.byte	0x77
 1182 010a 10       		.sleb128 16
 1183 010b 00000000 		.4byte	0x0
 1184 010f 00000000 		.4byte	0x0
 1185              	.LLST5:
 1186 0113 00000000 		.4byte	.LFB5
 1187 0117 02000000 		.4byte	.LCFI15
 1188 011b 0100     		.2byte	0x1
 1189 011d 5D       		.byte	0x5d
 1190 011e 02000000 		.4byte	.LCFI15
 1191 0122 04000000 		.4byte	.LCFI16
 1192 0126 0200     		.2byte	0x2
 1193 0128 7D       		.byte	0x7d
 1194 0129 04       		.sleb128 4
 1195 012a 04000000 		.4byte	.LCFI16
ARM GAS  C:\Users\CHARLI~1\AppData\Local\Temp\ccF9CHT0.s 			page 40


 1196 012e 06000000 		.4byte	.LCFI17
 1197 0132 0200     		.2byte	0x2
 1198 0134 7D       		.byte	0x7d
 1199 0135 18       		.sleb128 24
 1200 0136 06000000 		.4byte	.LCFI17
 1201 013a 72010000 		.4byte	.LFE5
 1202 013e 0200     		.2byte	0x2
 1203 0140 77       		.byte	0x77
 1204 0141 18       		.sleb128 24
 1205 0142 00000000 		.4byte	0x0
 1206 0146 00000000 		.4byte	0x0
 1207              	.LLST6:
 1208 014a 00000000 		.4byte	.LFB6
 1209 014e 02000000 		.4byte	.LCFI18
 1210 0152 0100     		.2byte	0x1
 1211 0154 5D       		.byte	0x5d
 1212 0155 02000000 		.4byte	.LCFI18
 1213 0159 04000000 		.4byte	.LCFI19
 1214 015d 0200     		.2byte	0x2
 1215 015f 7D       		.byte	0x7d
 1216 0160 08       		.sleb128 8
 1217 0161 04000000 		.4byte	.LCFI19
 1218 0165 06000000 		.4byte	.LCFI20
 1219 0169 0200     		.2byte	0x2
 1220 016b 7D       		.byte	0x7d
 1221 016c 18       		.sleb128 24
 1222 016d 06000000 		.4byte	.LCFI20
 1223 0171 60000000 		.4byte	.LFE6
 1224 0175 0200     		.2byte	0x2
 1225 0177 77       		.byte	0x77
 1226 0178 18       		.sleb128 24
 1227 0179 00000000 		.4byte	0x0
 1228 017d 00000000 		.4byte	0x0
 1229              	.LLST7:
 1230 0181 00000000 		.4byte	.LFB7
 1231 0185 02000000 		.4byte	.LCFI21
 1232 0189 0100     		.2byte	0x1
 1233 018b 5D       		.byte	0x5d
 1234 018c 02000000 		.4byte	.LCFI21
 1235 0190 04000000 		.4byte	.LCFI22
 1236 0194 0200     		.2byte	0x2
 1237 0196 7D       		.byte	0x7d
 1238 0197 08       		.sleb128 8
 1239 0198 04000000 		.4byte	.LCFI22
 1240 019c 06000000 		.4byte	.LCFI23
 1241 01a0 0200     		.2byte	0x2
 1242 01a2 7D       		.byte	0x7d
 1243 01a3 10       		.sleb128 16
 1244 01a4 06000000 		.4byte	.LCFI23
 1245 01a8 42000000 		.4byte	.LFE7
 1246 01ac 0200     		.2byte	0x2
 1247 01ae 77       		.byte	0x77
 1248 01af 10       		.sleb128 16
 1249 01b0 00000000 		.4byte	0x0
 1250 01b4 00000000 		.4byte	0x0
 1251              	.LLST8:
 1252 01b8 00000000 		.4byte	.LFB8
ARM GAS  C:\Users\CHARLI~1\AppData\Local\Temp\ccF9CHT0.s 			page 41


 1253 01bc 02000000 		.4byte	.LCFI24
 1254 01c0 0100     		.2byte	0x1
 1255 01c2 5D       		.byte	0x5d
 1256 01c3 02000000 		.4byte	.LCFI24
 1257 01c7 04000000 		.4byte	.LCFI25
 1258 01cb 0200     		.2byte	0x2
 1259 01cd 7D       		.byte	0x7d
 1260 01ce 04       		.sleb128 4
 1261 01cf 04000000 		.4byte	.LCFI25
 1262 01d3 06000000 		.4byte	.LCFI26
 1263 01d7 0200     		.2byte	0x2
 1264 01d9 7D       		.byte	0x7d
 1265 01da 18       		.sleb128 24
 1266 01db 06000000 		.4byte	.LCFI26
 1267 01df 7C000000 		.4byte	.LFE8
 1268 01e3 0200     		.2byte	0x2
 1269 01e5 77       		.byte	0x77
 1270 01e6 18       		.sleb128 24
 1271 01e7 00000000 		.4byte	0x0
 1272 01eb 00000000 		.4byte	0x0
 1273              	.LLST9:
 1274 01ef 00000000 		.4byte	.LFB9
 1275 01f3 02000000 		.4byte	.LCFI27
 1276 01f7 0100     		.2byte	0x1
 1277 01f9 5D       		.byte	0x5d
 1278 01fa 02000000 		.4byte	.LCFI27
 1279 01fe 04000000 		.4byte	.LCFI28
 1280 0202 0200     		.2byte	0x2
 1281 0204 7D       		.byte	0x7d
 1282 0205 04       		.sleb128 4
 1283 0206 04000000 		.4byte	.LCFI28
 1284 020a 06000000 		.4byte	.LCFI29
 1285 020e 0200     		.2byte	0x2
 1286 0210 7D       		.byte	0x7d
 1287 0211 18       		.sleb128 24
 1288 0212 06000000 		.4byte	.LCFI29
 1289 0216 86000000 		.4byte	.LFE9
 1290 021a 0200     		.2byte	0x2
 1291 021c 77       		.byte	0x77
 1292 021d 18       		.sleb128 24
 1293 021e 00000000 		.4byte	0x0
 1294 0222 00000000 		.4byte	0x0
 1295              	.LLST10:
 1296 0226 00000000 		.4byte	.LFB10
 1297 022a 02000000 		.4byte	.LCFI30
 1298 022e 0100     		.2byte	0x1
 1299 0230 5D       		.byte	0x5d
 1300 0231 02000000 		.4byte	.LCFI30
 1301 0235 04000000 		.4byte	.LCFI31
 1302 0239 0200     		.2byte	0x2
 1303 023b 7D       		.byte	0x7d
 1304 023c 04       		.sleb128 4
 1305 023d 04000000 		.4byte	.LCFI31
 1306 0241 06000000 		.4byte	.LCFI32
 1307 0245 0200     		.2byte	0x2
 1308 0247 7D       		.byte	0x7d
 1309 0248 18       		.sleb128 24
ARM GAS  C:\Users\CHARLI~1\AppData\Local\Temp\ccF9CHT0.s 			page 42


 1310 0249 06000000 		.4byte	.LCFI32
 1311 024d 3A000000 		.4byte	.LFE10
 1312 0251 0200     		.2byte	0x2
 1313 0253 77       		.byte	0x77
 1314 0254 18       		.sleb128 24
 1315 0255 00000000 		.4byte	0x0
 1316 0259 00000000 		.4byte	0x0
 1317              		.file 2 "./Generated_Source/PSoC5/cytypes.h"
 1318              		.section	.debug_info
 1319 0000 78050000 		.4byte	0x578
 1320 0004 0200     		.2byte	0x2
 1321 0006 00000000 		.4byte	.Ldebug_abbrev0
 1322 000a 04       		.byte	0x4
 1323 000b 01       		.uleb128 0x1
 1324 000c 52030000 		.4byte	.LASF54
 1325 0010 01       		.byte	0x1
 1326 0011 B9030000 		.4byte	.LASF55
 1327 0015 72010000 		.4byte	.LASF56
 1328 0019 00000000 		.4byte	0x0
 1329 001d 00000000 		.4byte	0x0
 1330 0021 00000000 		.4byte	.Ldebug_ranges0+0x0
 1331 0025 00000000 		.4byte	.Ldebug_line0
 1332 0029 02       		.uleb128 0x2
 1333 002a 01       		.byte	0x1
 1334 002b 06       		.byte	0x6
 1335 002c 47040000 		.4byte	.LASF0
 1336 0030 02       		.uleb128 0x2
 1337 0031 01       		.byte	0x1
 1338 0032 08       		.byte	0x8
 1339 0033 64010000 		.4byte	.LASF1
 1340 0037 02       		.uleb128 0x2
 1341 0038 02       		.byte	0x2
 1342 0039 05       		.byte	0x5
 1343 003a AF030000 		.4byte	.LASF2
 1344 003e 02       		.uleb128 0x2
 1345 003f 02       		.byte	0x2
 1346 0040 07       		.byte	0x7
 1347 0041 03010000 		.4byte	.LASF3
 1348 0045 02       		.uleb128 0x2
 1349 0046 04       		.byte	0x4
 1350 0047 05       		.byte	0x5
 1351 0048 1A040000 		.4byte	.LASF4
 1352 004c 02       		.uleb128 0x2
 1353 004d 04       		.byte	0x4
 1354 004e 07       		.byte	0x7
 1355 004f F6010000 		.4byte	.LASF5
 1356 0053 02       		.uleb128 0x2
 1357 0054 08       		.byte	0x8
 1358 0055 05       		.byte	0x5
 1359 0056 00000000 		.4byte	.LASF6
 1360 005a 02       		.uleb128 0x2
 1361 005b 08       		.byte	0x8
 1362 005c 07       		.byte	0x7
 1363 005d D5020000 		.4byte	.LASF7
 1364 0061 03       		.uleb128 0x3
 1365 0062 04       		.byte	0x4
 1366 0063 05       		.byte	0x5
ARM GAS  C:\Users\CHARLI~1\AppData\Local\Temp\ccF9CHT0.s 			page 43


 1367 0064 696E7400 		.ascii	"int\000"
 1368 0068 02       		.uleb128 0x2
 1369 0069 04       		.byte	0x4
 1370 006a 07       		.byte	0x7
 1371 006b B0020000 		.4byte	.LASF8
 1372 006f 02       		.uleb128 0x2
 1373 0070 01       		.byte	0x1
 1374 0071 08       		.byte	0x8
 1375 0072 29000000 		.4byte	.LASF9
 1376 0076 04       		.uleb128 0x4
 1377 0077 08020000 		.4byte	.LASF10
 1378 007b 02       		.byte	0x2
 1379 007c 2A       		.byte	0x2a
 1380 007d 30000000 		.4byte	0x30
 1381 0081 04       		.uleb128 0x4
 1382 0082 60020000 		.4byte	.LASF11
 1383 0086 02       		.byte	0x2
 1384 0087 2B       		.byte	0x2b
 1385 0088 3E000000 		.4byte	0x3e
 1386 008c 04       		.uleb128 0x4
 1387 008d 81020000 		.4byte	.LASF12
 1388 0091 02       		.byte	0x2
 1389 0092 2C       		.byte	0x2c
 1390 0093 4C000000 		.4byte	0x4c
 1391 0097 05       		.uleb128 0x5
 1392 0098 04       		.byte	0x4
 1393 0099 07       		.byte	0x7
 1394 009a 06       		.uleb128 0x6
 1395 009b 01       		.byte	0x1
 1396 009c 06040000 		.4byte	.LASF13
 1397 00a0 01       		.byte	0x1
 1398 00a1 B2       		.byte	0xb2
 1399 00a2 01       		.byte	0x1
 1400 00a3 00000000 		.4byte	.LFB0
 1401 00a7 92000000 		.4byte	.LFE0
 1402 00ab 00000000 		.4byte	.LLST0
 1403 00af D0000000 		.4byte	0xd0
 1404 00b3 07       		.uleb128 0x7
 1405 00b4 A8030000 		.4byte	.LASF15
 1406 00b8 01       		.byte	0x1
 1407 00b9 B2       		.byte	0xb2
 1408 00ba 76000000 		.4byte	0x76
 1409 00be 02       		.byte	0x2
 1410 00bf 91       		.byte	0x91
 1411 00c0 6F       		.sleb128 -17
 1412 00c1 08       		.uleb128 0x8
 1413 00c2 19030000 		.4byte	.LASF17
 1414 00c6 01       		.byte	0x1
 1415 00c7 B6       		.byte	0xb6
 1416 00c8 76000000 		.4byte	0x76
 1417 00cc 02       		.byte	0x2
 1418 00cd 91       		.byte	0x91
 1419 00ce 77       		.sleb128 -9
 1420 00cf 00       		.byte	0x0
 1421 00d0 06       		.uleb128 0x6
 1422 00d1 01       		.byte	0x1
 1423 00d2 EC020000 		.4byte	.LASF14
ARM GAS  C:\Users\CHARLI~1\AppData\Local\Temp\ccF9CHT0.s 			page 44


 1424 00d6 01       		.byte	0x1
 1425 00d7 F9       		.byte	0xf9
 1426 00d8 01       		.byte	0x1
 1427 00d9 00000000 		.4byte	.LFB1
 1428 00dd 2C000000 		.4byte	.LFE1
 1429 00e1 37000000 		.4byte	.LLST1
 1430 00e5 F8000000 		.4byte	0xf8
 1431 00e9 07       		.uleb128 0x7
 1432 00ea A8030000 		.4byte	.LASF15
 1433 00ee 01       		.byte	0x1
 1434 00ef F9       		.byte	0xf9
 1435 00f0 76000000 		.4byte	0x76
 1436 00f4 02       		.byte	0x2
 1437 00f5 91       		.byte	0x91
 1438 00f6 77       		.sleb128 -9
 1439 00f7 00       		.byte	0x0
 1440 00f8 09       		.uleb128 0x9
 1441 00f9 01       		.byte	0x1
 1442 00fa B2010000 		.4byte	.LASF16
 1443 00fe 01       		.byte	0x1
 1444 00ff 2901     		.2byte	0x129
 1445 0101 01       		.byte	0x1
 1446 0102 00000000 		.4byte	.LFB2
 1447 0106 2C000000 		.4byte	.LFE2
 1448 010a 6E000000 		.4byte	.LLST2
 1449 010e 20010000 		.4byte	0x120
 1450 0112 0A       		.uleb128 0xa
 1451 0113 6900     		.ascii	"i\000"
 1452 0115 01       		.byte	0x1
 1453 0116 2B01     		.2byte	0x12b
 1454 0118 76000000 		.4byte	0x76
 1455 011c 02       		.byte	0x2
 1456 011d 91       		.byte	0x91
 1457 011e 77       		.sleb128 -9
 1458 011f 00       		.byte	0x0
 1459 0120 09       		.uleb128 0x9
 1460 0121 01       		.byte	0x1
 1461 0122 44010000 		.4byte	.LASF18
 1462 0126 01       		.byte	0x1
 1463 0127 8A01     		.2byte	0x18a
 1464 0129 01       		.byte	0x1
 1465 012a 00000000 		.4byte	.LFB3
 1466 012e 9E010000 		.4byte	.LFE3
 1467 0132 A5000000 		.4byte	.LLST3
 1468 0136 95010000 		.4byte	0x195
 1469 013a 0B       		.uleb128 0xb
 1470 013b A8030000 		.4byte	.LASF15
 1471 013f 01       		.byte	0x1
 1472 0140 8A01     		.2byte	0x18a
 1473 0142 76000000 		.4byte	0x76
 1474 0146 02       		.byte	0x2
 1475 0147 91       		.byte	0x91
 1476 0148 67       		.sleb128 -25
 1477 0149 0C       		.uleb128 0xc
 1478 014a 0E020000 		.4byte	.LASF19
 1479 014e 01       		.byte	0x1
 1480 014f 8C01     		.2byte	0x18c
ARM GAS  C:\Users\CHARLI~1\AppData\Local\Temp\ccF9CHT0.s 			page 45


 1481 0151 8C000000 		.4byte	0x8c
 1482 0155 02       		.byte	0x2
 1483 0156 91       		.byte	0x91
 1484 0157 6C       		.sleb128 -20
 1485 0158 0C       		.uleb128 0xc
 1486 0159 33010000 		.4byte	.LASF20
 1487 015d 01       		.byte	0x1
 1488 015e 8D01     		.2byte	0x18d
 1489 0160 81000000 		.4byte	0x81
 1490 0164 02       		.byte	0x2
 1491 0165 91       		.byte	0x91
 1492 0166 72       		.sleb128 -14
 1493 0167 0C       		.uleb128 0xc
 1494 0168 A9000000 		.4byte	.LASF21
 1495 016c 01       		.byte	0x1
 1496 016d 8E01     		.2byte	0x18e
 1497 016f 81000000 		.4byte	0x81
 1498 0173 02       		.byte	0x2
 1499 0174 91       		.byte	0x91
 1500 0175 74       		.sleb128 -12
 1501 0176 0C       		.uleb128 0xc
 1502 0177 19030000 		.4byte	.LASF17
 1503 017b 01       		.byte	0x1
 1504 017c 8F01     		.2byte	0x18f
 1505 017e 76000000 		.4byte	0x76
 1506 0182 02       		.byte	0x2
 1507 0183 91       		.byte	0x91
 1508 0184 76       		.sleb128 -10
 1509 0185 0C       		.uleb128 0xc
 1510 0186 38040000 		.4byte	.LASF22
 1511 018a 01       		.byte	0x1
 1512 018b 9001     		.2byte	0x190
 1513 018d 76000000 		.4byte	0x76
 1514 0191 02       		.byte	0x2
 1515 0192 91       		.byte	0x91
 1516 0193 77       		.sleb128 -9
 1517 0194 00       		.byte	0x0
 1518 0195 09       		.uleb128 0x9
 1519 0196 01       		.byte	0x1
 1520 0197 E4030000 		.4byte	.LASF23
 1521 019b 01       		.byte	0x1
 1522 019c 5D02     		.2byte	0x25d
 1523 019e 01       		.byte	0x1
 1524 019f 00000000 		.4byte	.LFB4
 1525 01a3 5C000000 		.4byte	.LFE4
 1526 01a7 DC000000 		.4byte	.LLST4
 1527 01ab DB010000 		.4byte	0x1db
 1528 01af 0A       		.uleb128 0xa
 1529 01b0 6900     		.ascii	"i\000"
 1530 01b2 01       		.byte	0x1
 1531 01b3 5F02     		.2byte	0x25f
 1532 01b5 76000000 		.4byte	0x76
 1533 01b9 02       		.byte	0x2
 1534 01ba 91       		.byte	0x91
 1535 01bb 75       		.sleb128 -11
 1536 01bc 0A       		.uleb128 0xa
 1537 01bd 706F7300 		.ascii	"pos\000"
ARM GAS  C:\Users\CHARLI~1\AppData\Local\Temp\ccF9CHT0.s 			page 46


 1538 01c1 01       		.byte	0x1
 1539 01c2 6002     		.2byte	0x260
 1540 01c4 76000000 		.4byte	0x76
 1541 01c8 02       		.byte	0x2
 1542 01c9 91       		.byte	0x91
 1543 01ca 76       		.sleb128 -10
 1544 01cb 0C       		.uleb128 0xc
 1545 01cc D4010000 		.4byte	.LASF24
 1546 01d0 01       		.byte	0x1
 1547 01d1 6102     		.2byte	0x261
 1548 01d3 76000000 		.4byte	0x76
 1549 01d7 02       		.byte	0x2
 1550 01d8 91       		.byte	0x91
 1551 01d9 77       		.sleb128 -9
 1552 01da 00       		.byte	0x0
 1553 01db 0D       		.uleb128 0xd
 1554 01dc 01       		.byte	0x1
 1555 01dd 46000000 		.4byte	.LASF30
 1556 01e1 01       		.byte	0x1
 1557 01e2 9602     		.2byte	0x296
 1558 01e4 01       		.byte	0x1
 1559 01e5 76000000 		.4byte	0x76
 1560 01e9 00000000 		.4byte	.LFB5
 1561 01ed 72010000 		.4byte	.LFE5
 1562 01f1 13010000 		.4byte	.LLST5
 1563 01f5 72020000 		.4byte	0x272
 1564 01f9 0B       		.uleb128 0xb
 1565 01fa A8030000 		.4byte	.LASF15
 1566 01fe 01       		.byte	0x1
 1567 01ff 9602     		.2byte	0x296
 1568 0201 76000000 		.4byte	0x76
 1569 0205 02       		.byte	0x2
 1570 0206 91       		.byte	0x91
 1571 0207 6F       		.sleb128 -17
 1572 0208 0C       		.uleb128 0xc
 1573 0209 44030000 		.4byte	.LASF25
 1574 020d 01       		.byte	0x1
 1575 020e 9802     		.2byte	0x298
 1576 0210 76000000 		.4byte	0x76
 1577 0214 02       		.byte	0x2
 1578 0215 91       		.byte	0x91
 1579 0216 71       		.sleb128 -15
 1580 0217 0A       		.uleb128 0xa
 1581 0218 706F7300 		.ascii	"pos\000"
 1582 021c 01       		.byte	0x1
 1583 021d 9A02     		.2byte	0x29a
 1584 021f 76000000 		.4byte	0x76
 1585 0223 02       		.byte	0x2
 1586 0224 91       		.byte	0x91
 1587 0225 72       		.sleb128 -14
 1588 0226 0C       		.uleb128 0xc
 1589 0227 43020000 		.4byte	.LASF26
 1590 022b 01       		.byte	0x1
 1591 022c 9B02     		.2byte	0x29b
 1592 022e 76000000 		.4byte	0x76
 1593 0232 02       		.byte	0x2
 1594 0233 91       		.byte	0x91
ARM GAS  C:\Users\CHARLI~1\AppData\Local\Temp\ccF9CHT0.s 			page 47


 1595 0234 73       		.sleb128 -13
 1596 0235 0C       		.uleb128 0xc
 1597 0236 19030000 		.4byte	.LASF17
 1598 023a 01       		.byte	0x1
 1599 023b 9D02     		.2byte	0x29d
 1600 023d 76000000 		.4byte	0x76
 1601 0241 02       		.byte	0x2
 1602 0242 91       		.byte	0x91
 1603 0243 74       		.sleb128 -12
 1604 0244 0C       		.uleb128 0xc
 1605 0245 7D030000 		.4byte	.LASF27
 1606 0249 01       		.byte	0x1
 1607 024a 9E02     		.2byte	0x29e
 1608 024c 76000000 		.4byte	0x76
 1609 0250 02       		.byte	0x2
 1610 0251 91       		.byte	0x91
 1611 0252 75       		.sleb128 -11
 1612 0253 0C       		.uleb128 0xc
 1613 0254 39030000 		.4byte	.LASF28
 1614 0258 01       		.byte	0x1
 1615 0259 9F02     		.2byte	0x29f
 1616 025b 76000000 		.4byte	0x76
 1617 025f 02       		.byte	0x2
 1618 0260 91       		.byte	0x91
 1619 0261 76       		.sleb128 -10
 1620 0262 0C       		.uleb128 0xc
 1621 0263 10030000 		.4byte	.LASF29
 1622 0267 01       		.byte	0x1
 1623 0268 A002     		.2byte	0x2a0
 1624 026a 76000000 		.4byte	0x76
 1625 026e 02       		.byte	0x2
 1626 026f 91       		.byte	0x91
 1627 0270 77       		.sleb128 -9
 1628 0271 00       		.byte	0x0
 1629 0272 0D       		.uleb128 0xd
 1630 0273 01       		.byte	0x1
 1631 0274 5E030000 		.4byte	.LASF31
 1632 0278 01       		.byte	0x1
 1633 0279 DC02     		.2byte	0x2dc
 1634 027b 01       		.byte	0x1
 1635 027c 76000000 		.4byte	0x76
 1636 0280 00000000 		.4byte	.LFB6
 1637 0284 60000000 		.4byte	.LFE6
 1638 0288 4A010000 		.4byte	.LLST6
 1639 028c CD020000 		.4byte	0x2cd
 1640 0290 0B       		.uleb128 0xb
 1641 0291 19030000 		.4byte	.LASF17
 1642 0295 01       		.byte	0x1
 1643 0296 DC02     		.2byte	0x2dc
 1644 0298 76000000 		.4byte	0x76
 1645 029c 02       		.byte	0x2
 1646 029d 91       		.byte	0x91
 1647 029e 6F       		.sleb128 -17
 1648 029f 0C       		.uleb128 0xc
 1649 02a0 3B010000 		.4byte	.LASF32
 1650 02a4 01       		.byte	0x1
 1651 02a5 DE02     		.2byte	0x2de
ARM GAS  C:\Users\CHARLI~1\AppData\Local\Temp\ccF9CHT0.s 			page 48


 1652 02a7 76000000 		.4byte	0x76
 1653 02ab 02       		.byte	0x2
 1654 02ac 91       		.byte	0x91
 1655 02ad 75       		.sleb128 -11
 1656 02ae 0C       		.uleb128 0xc
 1657 02af 88020000 		.4byte	.LASF33
 1658 02b3 01       		.byte	0x1
 1659 02b4 DF02     		.2byte	0x2df
 1660 02b6 76000000 		.4byte	0x76
 1661 02ba 02       		.byte	0x2
 1662 02bb 91       		.byte	0x91
 1663 02bc 76       		.sleb128 -10
 1664 02bd 0C       		.uleb128 0xc
 1665 02be 87000000 		.4byte	.LASF34
 1666 02c2 01       		.byte	0x1
 1667 02c3 E002     		.2byte	0x2e0
 1668 02c5 76000000 		.4byte	0x76
 1669 02c9 02       		.byte	0x2
 1670 02ca 91       		.byte	0x91
 1671 02cb 77       		.sleb128 -9
 1672 02cc 00       		.byte	0x0
 1673 02cd 0D       		.uleb128 0xd
 1674 02ce 01       		.byte	0x1
 1675 02cf 65000000 		.4byte	.LASF35
 1676 02d3 01       		.byte	0x1
 1677 02d4 0703     		.2byte	0x307
 1678 02d6 01       		.byte	0x1
 1679 02d7 76000000 		.4byte	0x76
 1680 02db 00000000 		.4byte	.LFB7
 1681 02df 42000000 		.4byte	.LFE7
 1682 02e3 81010000 		.4byte	.LLST7
 1683 02e7 08030000 		.4byte	0x308
 1684 02eb 0A       		.uleb128 0xa
 1685 02ec 6900     		.ascii	"i\000"
 1686 02ee 01       		.byte	0x1
 1687 02ef 0903     		.2byte	0x309
 1688 02f1 76000000 		.4byte	0x76
 1689 02f5 02       		.byte	0x2
 1690 02f6 91       		.byte	0x91
 1691 02f7 76       		.sleb128 -10
 1692 02f8 0C       		.uleb128 0xc
 1693 02f9 87000000 		.4byte	.LASF34
 1694 02fd 01       		.byte	0x1
 1695 02fe 0A03     		.2byte	0x30a
 1696 0300 76000000 		.4byte	0x76
 1697 0304 02       		.byte	0x2
 1698 0305 91       		.byte	0x91
 1699 0306 77       		.sleb128 -9
 1700 0307 00       		.byte	0x0
 1701 0308 09       		.uleb128 0x9
 1702 0309 01       		.byte	0x1
 1703 030a 2B020000 		.4byte	.LASF36
 1704 030e 01       		.byte	0x1
 1705 030f 3403     		.2byte	0x334
 1706 0311 01       		.byte	0x1
 1707 0312 00000000 		.4byte	.LFB8
 1708 0316 7C000000 		.4byte	.LFE8
ARM GAS  C:\Users\CHARLI~1\AppData\Local\Temp\ccF9CHT0.s 			page 49


 1709 031a B8010000 		.4byte	.LLST8
 1710 031e 6E030000 		.4byte	0x36e
 1711 0322 0B       		.uleb128 0xb
 1712 0323 19030000 		.4byte	.LASF17
 1713 0327 01       		.byte	0x1
 1714 0328 3403     		.2byte	0x334
 1715 032a 76000000 		.4byte	0x76
 1716 032e 02       		.byte	0x2
 1717 032f 91       		.byte	0x91
 1718 0330 6F       		.sleb128 -17
 1719 0331 0A       		.uleb128 0xa
 1720 0332 706F7300 		.ascii	"pos\000"
 1721 0336 01       		.byte	0x1
 1722 0337 3603     		.2byte	0x336
 1723 0339 76000000 		.4byte	0x76
 1724 033d 02       		.byte	0x2
 1725 033e 91       		.byte	0x91
 1726 033f 74       		.sleb128 -12
 1727 0340 0C       		.uleb128 0xc
 1728 0341 D4010000 		.4byte	.LASF24
 1729 0345 01       		.byte	0x1
 1730 0346 3703     		.2byte	0x337
 1731 0348 76000000 		.4byte	0x76
 1732 034c 02       		.byte	0x2
 1733 034d 91       		.byte	0x91
 1734 034e 75       		.sleb128 -11
 1735 034f 0C       		.uleb128 0xc
 1736 0350 3B010000 		.4byte	.LASF32
 1737 0354 01       		.byte	0x1
 1738 0355 3803     		.2byte	0x338
 1739 0357 76000000 		.4byte	0x76
 1740 035b 02       		.byte	0x2
 1741 035c 91       		.byte	0x91
 1742 035d 76       		.sleb128 -10
 1743 035e 0C       		.uleb128 0xc
 1744 035f 88020000 		.4byte	.LASF33
 1745 0363 01       		.byte	0x1
 1746 0364 3903     		.2byte	0x339
 1747 0366 76000000 		.4byte	0x76
 1748 036a 02       		.byte	0x2
 1749 036b 91       		.byte	0x91
 1750 036c 77       		.sleb128 -9
 1751 036d 00       		.byte	0x0
 1752 036e 09       		.uleb128 0x9
 1753 036f 01       		.byte	0x1
 1754 0370 20030000 		.4byte	.LASF37
 1755 0374 01       		.byte	0x1
 1756 0375 6503     		.2byte	0x365
 1757 0377 01       		.byte	0x1
 1758 0378 00000000 		.4byte	.LFB9
 1759 037c 86000000 		.4byte	.LFE9
 1760 0380 EF010000 		.4byte	.LLST9
 1761 0384 D4030000 		.4byte	0x3d4
 1762 0388 0B       		.uleb128 0xb
 1763 0389 19030000 		.4byte	.LASF17
 1764 038d 01       		.byte	0x1
 1765 038e 6503     		.2byte	0x365
ARM GAS  C:\Users\CHARLI~1\AppData\Local\Temp\ccF9CHT0.s 			page 50


 1766 0390 76000000 		.4byte	0x76
 1767 0394 02       		.byte	0x2
 1768 0395 91       		.byte	0x91
 1769 0396 6F       		.sleb128 -17
 1770 0397 0A       		.uleb128 0xa
 1771 0398 706F7300 		.ascii	"pos\000"
 1772 039c 01       		.byte	0x1
 1773 039d 6703     		.2byte	0x367
 1774 039f 76000000 		.4byte	0x76
 1775 03a3 02       		.byte	0x2
 1776 03a4 91       		.byte	0x91
 1777 03a5 74       		.sleb128 -12
 1778 03a6 0C       		.uleb128 0xc
 1779 03a7 D4010000 		.4byte	.LASF24
 1780 03ab 01       		.byte	0x1
 1781 03ac 6803     		.2byte	0x368
 1782 03ae 76000000 		.4byte	0x76
 1783 03b2 02       		.byte	0x2
 1784 03b3 91       		.byte	0x91
 1785 03b4 75       		.sleb128 -11
 1786 03b5 0C       		.uleb128 0xc
 1787 03b6 3B010000 		.4byte	.LASF32
 1788 03ba 01       		.byte	0x1
 1789 03bb 6903     		.2byte	0x369
 1790 03bd 76000000 		.4byte	0x76
 1791 03c1 02       		.byte	0x2
 1792 03c2 91       		.byte	0x91
 1793 03c3 76       		.sleb128 -10
 1794 03c4 0C       		.uleb128 0xc
 1795 03c5 88020000 		.4byte	.LASF33
 1796 03c9 01       		.byte	0x1
 1797 03ca 6A03     		.2byte	0x36a
 1798 03cc 76000000 		.4byte	0x76
 1799 03d0 02       		.byte	0x2
 1800 03d1 91       		.byte	0x91
 1801 03d2 77       		.sleb128 -9
 1802 03d3 00       		.byte	0x0
 1803 03d4 0D       		.uleb128 0xd
 1804 03d5 01       		.byte	0x1
 1805 03d6 4A020000 		.4byte	.LASF38
 1806 03da 01       		.byte	0x1
 1807 03db F503     		.2byte	0x3f5
 1808 03dd 01       		.byte	0x1
 1809 03de 81000000 		.4byte	0x81
 1810 03e2 00000000 		.4byte	.LFB10
 1811 03e6 3A000000 		.4byte	.LFE10
 1812 03ea 26020000 		.4byte	.LLST10
 1813 03ee 1E040000 		.4byte	0x41e
 1814 03f2 0E       		.uleb128 0xe
 1815 03f3 783100   		.ascii	"x1\000"
 1816 03f6 01       		.byte	0x1
 1817 03f7 F503     		.2byte	0x3f5
 1818 03f9 81000000 		.4byte	0x81
 1819 03fd 02       		.byte	0x2
 1820 03fe 91       		.byte	0x91
 1821 03ff 6E       		.sleb128 -18
 1822 0400 0E       		.uleb128 0xe
ARM GAS  C:\Users\CHARLI~1\AppData\Local\Temp\ccF9CHT0.s 			page 51


 1823 0401 783200   		.ascii	"x2\000"
 1824 0404 01       		.byte	0x1
 1825 0405 F503     		.2byte	0x3f5
 1826 0407 81000000 		.4byte	0x81
 1827 040b 02       		.byte	0x2
 1828 040c 91       		.byte	0x91
 1829 040d 6C       		.sleb128 -20
 1830 040e 0A       		.uleb128 0xa
 1831 040f 746D7000 		.ascii	"tmp\000"
 1832 0413 01       		.byte	0x1
 1833 0414 F803     		.2byte	0x3f8
 1834 0416 8C000000 		.4byte	0x8c
 1835 041a 02       		.byte	0x2
 1836 041b 91       		.byte	0x91
 1837 041c 74       		.sleb128 -12
 1838 041d 00       		.byte	0x0
 1839 041e 0F       		.uleb128 0xf
 1840 041f 81000000 		.4byte	0x81
 1841 0423 2E040000 		.4byte	0x42e
 1842 0427 10       		.uleb128 0x10
 1843 0428 97000000 		.4byte	0x97
 1844 042c 00       		.byte	0x0
 1845 042d 00       		.byte	0x0
 1846 042e 11       		.uleb128 0x11
 1847 042f D3000000 		.4byte	.LASF39
 1848 0433 01       		.byte	0x1
 1849 0434 50       		.byte	0x50
 1850 0435 1E040000 		.4byte	0x41e
 1851 0439 01       		.byte	0x1
 1852 043a 05       		.byte	0x5
 1853 043b 03       		.byte	0x3
 1854 043c 00000000 		.4byte	CapSense_1_rawFilterData1
 1855 0440 12       		.uleb128 0x12
 1856 0441 23040000 		.4byte	.LASF40
 1857 0445 01       		.byte	0x1
 1858 0446 56       		.byte	0x56
 1859 0447 1E040000 		.4byte	0x41e
 1860 044b 01       		.byte	0x1
 1861 044c 01       		.byte	0x1
 1862 044d 0F       		.uleb128 0xf
 1863 044e 76000000 		.4byte	0x76
 1864 0452 5D040000 		.4byte	0x45d
 1865 0456 10       		.uleb128 0x10
 1866 0457 97000000 		.4byte	0x97
 1867 045b 00       		.byte	0x0
 1868 045c 00       		.byte	0x0
 1869 045d 12       		.uleb128 0x12
 1870 045e 8D000000 		.4byte	.LASF41
 1871 0462 01       		.byte	0x1
 1872 0463 57       		.byte	0x57
 1873 0464 4D040000 		.4byte	0x44d
 1874 0468 01       		.byte	0x1
 1875 0469 01       		.byte	0x1
 1876 046a 0F       		.uleb128 0xf
 1877 046b 76000000 		.4byte	0x76
 1878 046f 75040000 		.4byte	0x475
 1879 0473 13       		.uleb128 0x13
ARM GAS  C:\Users\CHARLI~1\AppData\Local\Temp\ccF9CHT0.s 			page 52


 1880 0474 00       		.byte	0x0
 1881 0475 12       		.uleb128 0x12
 1882 0476 BD020000 		.4byte	.LASF42
 1883 047a 01       		.byte	0x1
 1884 047b 58       		.byte	0x58
 1885 047c 82040000 		.4byte	0x482
 1886 0480 01       		.byte	0x1
 1887 0481 01       		.byte	0x1
 1888 0482 14       		.uleb128 0x14
 1889 0483 6A040000 		.4byte	0x46a
 1890 0487 11       		.uleb128 0x11
 1891 0488 B9000000 		.4byte	.LASF43
 1892 048c 01       		.byte	0x1
 1893 048d 5A       		.byte	0x5a
 1894 048e 1E040000 		.4byte	0x41e
 1895 0492 01       		.byte	0x1
 1896 0493 05       		.byte	0x5
 1897 0494 03       		.byte	0x3
 1898 0495 00000000 		.4byte	CapSense_1_SensorBaseline
 1899 0499 11       		.uleb128 0x11
 1900 049a 16010000 		.4byte	.LASF44
 1901 049e 01       		.byte	0x1
 1902 049f 5B       		.byte	0x5b
 1903 04a0 4D040000 		.4byte	0x44d
 1904 04a4 01       		.byte	0x1
 1905 04a5 05       		.byte	0x5
 1906 04a6 03       		.byte	0x3
 1907 04a7 00000000 		.4byte	CapSense_1_SensorBaselineLow
 1908 04ab 11       		.uleb128 0x11
 1909 04ac 13020000 		.4byte	.LASF45
 1910 04b0 01       		.byte	0x1
 1911 04b1 5C       		.byte	0x5c
 1912 04b2 4D040000 		.4byte	0x44d
 1913 04b6 01       		.byte	0x1
 1914 04b7 05       		.byte	0x5
 1915 04b8 03       		.byte	0x3
 1916 04b9 00000000 		.4byte	CapSense_1_SensorSignal
 1917 04bd 11       		.uleb128 0x11
 1918 04be 2E000000 		.4byte	.LASF46
 1919 04c2 01       		.byte	0x1
 1920 04c3 5D       		.byte	0x5d
 1921 04c4 4D040000 		.4byte	0x44d
 1922 04c8 01       		.byte	0x1
 1923 04c9 05       		.byte	0x5
 1924 04ca 03       		.byte	0x3
 1925 04cb 00000000 		.4byte	CapSense_1_SensorOnMask
 1926 04cf 11       		.uleb128 0x11
 1927 04d0 8D030000 		.4byte	.LASF47
 1928 04d4 01       		.byte	0x1
 1929 04d5 65       		.byte	0x65
 1930 04d6 E1040000 		.4byte	0x4e1
 1931 04da 01       		.byte	0x1
 1932 04db 05       		.byte	0x5
 1933 04dc 03       		.byte	0x3
 1934 04dd 00000000 		.4byte	CapSense_1_fingerThreshold
 1935 04e1 14       		.uleb128 0x14
 1936 04e2 4D040000 		.4byte	0x44d
ARM GAS  C:\Users\CHARLI~1\AppData\Local\Temp\ccF9CHT0.s 			page 53


 1937 04e6 11       		.uleb128 0x11
 1938 04e7 67020000 		.4byte	.LASF48
 1939 04eb 01       		.byte	0x1
 1940 04ec 69       		.byte	0x69
 1941 04ed F8040000 		.4byte	0x4f8
 1942 04f1 01       		.byte	0x1
 1943 04f2 05       		.byte	0x5
 1944 04f3 03       		.byte	0x3
 1945 04f4 00000000 		.4byte	CapSense_1_noiseThreshold
 1946 04f8 14       		.uleb128 0x14
 1947 04f9 4D040000 		.4byte	0x44d
 1948 04fd 11       		.uleb128 0x11
 1949 04fe ED000000 		.4byte	.LASF49
 1950 0502 01       		.byte	0x1
 1951 0503 6D       		.byte	0x6d
 1952 0504 0F050000 		.4byte	0x50f
 1953 0508 01       		.byte	0x1
 1954 0509 05       		.byte	0x5
 1955 050a 03       		.byte	0x3
 1956 050b 00000000 		.4byte	CapSense_1_hysteresis
 1957 050f 14       		.uleb128 0x14
 1958 0510 4D040000 		.4byte	0x44d
 1959 0514 11       		.uleb128 0x11
 1960 0515 53040000 		.4byte	.LASF50
 1961 0519 01       		.byte	0x1
 1962 051a 71       		.byte	0x71
 1963 051b 26050000 		.4byte	0x526
 1964 051f 01       		.byte	0x1
 1965 0520 05       		.byte	0x5
 1966 0521 03       		.byte	0x3
 1967 0522 00000000 		.4byte	CapSense_1_debounce
 1968 0526 14       		.uleb128 0x14
 1969 0527 4D040000 		.4byte	0x44d
 1970 052b 0F       		.uleb128 0xf
 1971 052c 76000000 		.4byte	0x76
 1972 0530 3B050000 		.4byte	0x53b
 1973 0534 10       		.uleb128 0x10
 1974 0535 97000000 		.4byte	0x97
 1975 0539 01       		.byte	0x1
 1976 053a 00       		.byte	0x0
 1977 053b 11       		.uleb128 0x11
 1978 053c 0E000000 		.4byte	.LASF51
 1979 0540 01       		.byte	0x1
 1980 0541 75       		.byte	0x75
 1981 0542 2B050000 		.4byte	0x52b
 1982 0546 01       		.byte	0x1
 1983 0547 05       		.byte	0x5
 1984 0548 03       		.byte	0x3
 1985 0549 00000000 		.4byte	CapSense_1_debounceCounter
 1986 054d 11       		.uleb128 0x11
 1987 054e 98020000 		.4byte	.LASF52
 1988 0552 01       		.byte	0x1
 1989 0553 79       		.byte	0x79
 1990 0554 5F050000 		.4byte	0x55f
 1991 0558 01       		.byte	0x1
 1992 0559 05       		.byte	0x5
 1993 055a 03       		.byte	0x3
ARM GAS  C:\Users\CHARLI~1\AppData\Local\Temp\ccF9CHT0.s 			page 54


 1994 055b 00000000 		.4byte	CapSense_1_rawDataIndex
 1995 055f 14       		.uleb128 0x14
 1996 0560 4D040000 		.4byte	0x44d
 1997 0564 11       		.uleb128 0x11
 1998 0565 DB010000 		.4byte	.LASF53
 1999 0569 01       		.byte	0x1
 2000 056a 7E       		.byte	0x7e
 2001 056b 76050000 		.4byte	0x576
 2002 056f 01       		.byte	0x1
 2003 0570 05       		.byte	0x5
 2004 0571 03       		.byte	0x3
 2005 0572 00000000 		.4byte	CapSense_1_numberOfSensors
 2006 0576 14       		.uleb128 0x14
 2007 0577 4D040000 		.4byte	0x44d
 2008 057b 00       		.byte	0x0
 2009              		.section	.debug_abbrev
 2010 0000 01       		.uleb128 0x1
 2011 0001 11       		.uleb128 0x11
 2012 0002 01       		.byte	0x1
 2013 0003 25       		.uleb128 0x25
 2014 0004 0E       		.uleb128 0xe
 2015 0005 13       		.uleb128 0x13
 2016 0006 0B       		.uleb128 0xb
 2017 0007 03       		.uleb128 0x3
 2018 0008 0E       		.uleb128 0xe
 2019 0009 1B       		.uleb128 0x1b
 2020 000a 0E       		.uleb128 0xe
 2021 000b 11       		.uleb128 0x11
 2022 000c 01       		.uleb128 0x1
 2023 000d 52       		.uleb128 0x52
 2024 000e 01       		.uleb128 0x1
 2025 000f 55       		.uleb128 0x55
 2026 0010 06       		.uleb128 0x6
 2027 0011 10       		.uleb128 0x10
 2028 0012 06       		.uleb128 0x6
 2029 0013 00       		.byte	0x0
 2030 0014 00       		.byte	0x0
 2031 0015 02       		.uleb128 0x2
 2032 0016 24       		.uleb128 0x24
 2033 0017 00       		.byte	0x0
 2034 0018 0B       		.uleb128 0xb
 2035 0019 0B       		.uleb128 0xb
 2036 001a 3E       		.uleb128 0x3e
 2037 001b 0B       		.uleb128 0xb
 2038 001c 03       		.uleb128 0x3
 2039 001d 0E       		.uleb128 0xe
 2040 001e 00       		.byte	0x0
 2041 001f 00       		.byte	0x0
 2042 0020 03       		.uleb128 0x3
 2043 0021 24       		.uleb128 0x24
 2044 0022 00       		.byte	0x0
 2045 0023 0B       		.uleb128 0xb
 2046 0024 0B       		.uleb128 0xb
 2047 0025 3E       		.uleb128 0x3e
 2048 0026 0B       		.uleb128 0xb
 2049 0027 03       		.uleb128 0x3
 2050 0028 08       		.uleb128 0x8
ARM GAS  C:\Users\CHARLI~1\AppData\Local\Temp\ccF9CHT0.s 			page 55


 2051 0029 00       		.byte	0x0
 2052 002a 00       		.byte	0x0
 2053 002b 04       		.uleb128 0x4
 2054 002c 16       		.uleb128 0x16
 2055 002d 00       		.byte	0x0
 2056 002e 03       		.uleb128 0x3
 2057 002f 0E       		.uleb128 0xe
 2058 0030 3A       		.uleb128 0x3a
 2059 0031 0B       		.uleb128 0xb
 2060 0032 3B       		.uleb128 0x3b
 2061 0033 0B       		.uleb128 0xb
 2062 0034 49       		.uleb128 0x49
 2063 0035 13       		.uleb128 0x13
 2064 0036 00       		.byte	0x0
 2065 0037 00       		.byte	0x0
 2066 0038 05       		.uleb128 0x5
 2067 0039 24       		.uleb128 0x24
 2068 003a 00       		.byte	0x0
 2069 003b 0B       		.uleb128 0xb
 2070 003c 0B       		.uleb128 0xb
 2071 003d 3E       		.uleb128 0x3e
 2072 003e 0B       		.uleb128 0xb
 2073 003f 00       		.byte	0x0
 2074 0040 00       		.byte	0x0
 2075 0041 06       		.uleb128 0x6
 2076 0042 2E       		.uleb128 0x2e
 2077 0043 01       		.byte	0x1
 2078 0044 3F       		.uleb128 0x3f
 2079 0045 0C       		.uleb128 0xc
 2080 0046 03       		.uleb128 0x3
 2081 0047 0E       		.uleb128 0xe
 2082 0048 3A       		.uleb128 0x3a
 2083 0049 0B       		.uleb128 0xb
 2084 004a 3B       		.uleb128 0x3b
 2085 004b 0B       		.uleb128 0xb
 2086 004c 27       		.uleb128 0x27
 2087 004d 0C       		.uleb128 0xc
 2088 004e 11       		.uleb128 0x11
 2089 004f 01       		.uleb128 0x1
 2090 0050 12       		.uleb128 0x12
 2091 0051 01       		.uleb128 0x1
 2092 0052 40       		.uleb128 0x40
 2093 0053 06       		.uleb128 0x6
 2094 0054 01       		.uleb128 0x1
 2095 0055 13       		.uleb128 0x13
 2096 0056 00       		.byte	0x0
 2097 0057 00       		.byte	0x0
 2098 0058 07       		.uleb128 0x7
 2099 0059 05       		.uleb128 0x5
 2100 005a 00       		.byte	0x0
 2101 005b 03       		.uleb128 0x3
 2102 005c 0E       		.uleb128 0xe
 2103 005d 3A       		.uleb128 0x3a
 2104 005e 0B       		.uleb128 0xb
 2105 005f 3B       		.uleb128 0x3b
 2106 0060 0B       		.uleb128 0xb
 2107 0061 49       		.uleb128 0x49
ARM GAS  C:\Users\CHARLI~1\AppData\Local\Temp\ccF9CHT0.s 			page 56


 2108 0062 13       		.uleb128 0x13
 2109 0063 02       		.uleb128 0x2
 2110 0064 0A       		.uleb128 0xa
 2111 0065 00       		.byte	0x0
 2112 0066 00       		.byte	0x0
 2113 0067 08       		.uleb128 0x8
 2114 0068 34       		.uleb128 0x34
 2115 0069 00       		.byte	0x0
 2116 006a 03       		.uleb128 0x3
 2117 006b 0E       		.uleb128 0xe
 2118 006c 3A       		.uleb128 0x3a
 2119 006d 0B       		.uleb128 0xb
 2120 006e 3B       		.uleb128 0x3b
 2121 006f 0B       		.uleb128 0xb
 2122 0070 49       		.uleb128 0x49
 2123 0071 13       		.uleb128 0x13
 2124 0072 02       		.uleb128 0x2
 2125 0073 0A       		.uleb128 0xa
 2126 0074 00       		.byte	0x0
 2127 0075 00       		.byte	0x0
 2128 0076 09       		.uleb128 0x9
 2129 0077 2E       		.uleb128 0x2e
 2130 0078 01       		.byte	0x1
 2131 0079 3F       		.uleb128 0x3f
 2132 007a 0C       		.uleb128 0xc
 2133 007b 03       		.uleb128 0x3
 2134 007c 0E       		.uleb128 0xe
 2135 007d 3A       		.uleb128 0x3a
 2136 007e 0B       		.uleb128 0xb
 2137 007f 3B       		.uleb128 0x3b
 2138 0080 05       		.uleb128 0x5
 2139 0081 27       		.uleb128 0x27
 2140 0082 0C       		.uleb128 0xc
 2141 0083 11       		.uleb128 0x11
 2142 0084 01       		.uleb128 0x1
 2143 0085 12       		.uleb128 0x12
 2144 0086 01       		.uleb128 0x1
 2145 0087 40       		.uleb128 0x40
 2146 0088 06       		.uleb128 0x6
 2147 0089 01       		.uleb128 0x1
 2148 008a 13       		.uleb128 0x13
 2149 008b 00       		.byte	0x0
 2150 008c 00       		.byte	0x0
 2151 008d 0A       		.uleb128 0xa
 2152 008e 34       		.uleb128 0x34
 2153 008f 00       		.byte	0x0
 2154 0090 03       		.uleb128 0x3
 2155 0091 08       		.uleb128 0x8
 2156 0092 3A       		.uleb128 0x3a
 2157 0093 0B       		.uleb128 0xb
 2158 0094 3B       		.uleb128 0x3b
 2159 0095 05       		.uleb128 0x5
 2160 0096 49       		.uleb128 0x49
 2161 0097 13       		.uleb128 0x13
 2162 0098 02       		.uleb128 0x2
 2163 0099 0A       		.uleb128 0xa
 2164 009a 00       		.byte	0x0
ARM GAS  C:\Users\CHARLI~1\AppData\Local\Temp\ccF9CHT0.s 			page 57


 2165 009b 00       		.byte	0x0
 2166 009c 0B       		.uleb128 0xb
 2167 009d 05       		.uleb128 0x5
 2168 009e 00       		.byte	0x0
 2169 009f 03       		.uleb128 0x3
 2170 00a0 0E       		.uleb128 0xe
 2171 00a1 3A       		.uleb128 0x3a
 2172 00a2 0B       		.uleb128 0xb
 2173 00a3 3B       		.uleb128 0x3b
 2174 00a4 05       		.uleb128 0x5
 2175 00a5 49       		.uleb128 0x49
 2176 00a6 13       		.uleb128 0x13
 2177 00a7 02       		.uleb128 0x2
 2178 00a8 0A       		.uleb128 0xa
 2179 00a9 00       		.byte	0x0
 2180 00aa 00       		.byte	0x0
 2181 00ab 0C       		.uleb128 0xc
 2182 00ac 34       		.uleb128 0x34
 2183 00ad 00       		.byte	0x0
 2184 00ae 03       		.uleb128 0x3
 2185 00af 0E       		.uleb128 0xe
 2186 00b0 3A       		.uleb128 0x3a
 2187 00b1 0B       		.uleb128 0xb
 2188 00b2 3B       		.uleb128 0x3b
 2189 00b3 05       		.uleb128 0x5
 2190 00b4 49       		.uleb128 0x49
 2191 00b5 13       		.uleb128 0x13
 2192 00b6 02       		.uleb128 0x2
 2193 00b7 0A       		.uleb128 0xa
 2194 00b8 00       		.byte	0x0
 2195 00b9 00       		.byte	0x0
 2196 00ba 0D       		.uleb128 0xd
 2197 00bb 2E       		.uleb128 0x2e
 2198 00bc 01       		.byte	0x1
 2199 00bd 3F       		.uleb128 0x3f
 2200 00be 0C       		.uleb128 0xc
 2201 00bf 03       		.uleb128 0x3
 2202 00c0 0E       		.uleb128 0xe
 2203 00c1 3A       		.uleb128 0x3a
 2204 00c2 0B       		.uleb128 0xb
 2205 00c3 3B       		.uleb128 0x3b
 2206 00c4 05       		.uleb128 0x5
 2207 00c5 27       		.uleb128 0x27
 2208 00c6 0C       		.uleb128 0xc
 2209 00c7 49       		.uleb128 0x49
 2210 00c8 13       		.uleb128 0x13
 2211 00c9 11       		.uleb128 0x11
 2212 00ca 01       		.uleb128 0x1
 2213 00cb 12       		.uleb128 0x12
 2214 00cc 01       		.uleb128 0x1
 2215 00cd 40       		.uleb128 0x40
 2216 00ce 06       		.uleb128 0x6
 2217 00cf 01       		.uleb128 0x1
 2218 00d0 13       		.uleb128 0x13
 2219 00d1 00       		.byte	0x0
 2220 00d2 00       		.byte	0x0
 2221 00d3 0E       		.uleb128 0xe
ARM GAS  C:\Users\CHARLI~1\AppData\Local\Temp\ccF9CHT0.s 			page 58


 2222 00d4 05       		.uleb128 0x5
 2223 00d5 00       		.byte	0x0
 2224 00d6 03       		.uleb128 0x3
 2225 00d7 08       		.uleb128 0x8
 2226 00d8 3A       		.uleb128 0x3a
 2227 00d9 0B       		.uleb128 0xb
 2228 00da 3B       		.uleb128 0x3b
 2229 00db 05       		.uleb128 0x5
 2230 00dc 49       		.uleb128 0x49
 2231 00dd 13       		.uleb128 0x13
 2232 00de 02       		.uleb128 0x2
 2233 00df 0A       		.uleb128 0xa
 2234 00e0 00       		.byte	0x0
 2235 00e1 00       		.byte	0x0
 2236 00e2 0F       		.uleb128 0xf
 2237 00e3 01       		.uleb128 0x1
 2238 00e4 01       		.byte	0x1
 2239 00e5 49       		.uleb128 0x49
 2240 00e6 13       		.uleb128 0x13
 2241 00e7 01       		.uleb128 0x1
 2242 00e8 13       		.uleb128 0x13
 2243 00e9 00       		.byte	0x0
 2244 00ea 00       		.byte	0x0
 2245 00eb 10       		.uleb128 0x10
 2246 00ec 21       		.uleb128 0x21
 2247 00ed 00       		.byte	0x0
 2248 00ee 49       		.uleb128 0x49
 2249 00ef 13       		.uleb128 0x13
 2250 00f0 2F       		.uleb128 0x2f
 2251 00f1 0B       		.uleb128 0xb
 2252 00f2 00       		.byte	0x0
 2253 00f3 00       		.byte	0x0
 2254 00f4 11       		.uleb128 0x11
 2255 00f5 34       		.uleb128 0x34
 2256 00f6 00       		.byte	0x0
 2257 00f7 03       		.uleb128 0x3
 2258 00f8 0E       		.uleb128 0xe
 2259 00f9 3A       		.uleb128 0x3a
 2260 00fa 0B       		.uleb128 0xb
 2261 00fb 3B       		.uleb128 0x3b
 2262 00fc 0B       		.uleb128 0xb
 2263 00fd 49       		.uleb128 0x49
 2264 00fe 13       		.uleb128 0x13
 2265 00ff 3F       		.uleb128 0x3f
 2266 0100 0C       		.uleb128 0xc
 2267 0101 02       		.uleb128 0x2
 2268 0102 0A       		.uleb128 0xa
 2269 0103 00       		.byte	0x0
 2270 0104 00       		.byte	0x0
 2271 0105 12       		.uleb128 0x12
 2272 0106 34       		.uleb128 0x34
 2273 0107 00       		.byte	0x0
 2274 0108 03       		.uleb128 0x3
 2275 0109 0E       		.uleb128 0xe
 2276 010a 3A       		.uleb128 0x3a
 2277 010b 0B       		.uleb128 0xb
 2278 010c 3B       		.uleb128 0x3b
ARM GAS  C:\Users\CHARLI~1\AppData\Local\Temp\ccF9CHT0.s 			page 59


 2279 010d 0B       		.uleb128 0xb
 2280 010e 49       		.uleb128 0x49
 2281 010f 13       		.uleb128 0x13
 2282 0110 3F       		.uleb128 0x3f
 2283 0111 0C       		.uleb128 0xc
 2284 0112 3C       		.uleb128 0x3c
 2285 0113 0C       		.uleb128 0xc
 2286 0114 00       		.byte	0x0
 2287 0115 00       		.byte	0x0
 2288 0116 13       		.uleb128 0x13
 2289 0117 21       		.uleb128 0x21
 2290 0118 00       		.byte	0x0
 2291 0119 00       		.byte	0x0
 2292 011a 00       		.byte	0x0
 2293 011b 14       		.uleb128 0x14
 2294 011c 26       		.uleb128 0x26
 2295 011d 00       		.byte	0x0
 2296 011e 49       		.uleb128 0x49
 2297 011f 13       		.uleb128 0x13
 2298 0120 00       		.byte	0x0
 2299 0121 00       		.byte	0x0
 2300 0122 00       		.byte	0x0
 2301              		.section	.debug_pubnames,"",%progbits
 2302 0000 DB020000 		.4byte	0x2db
 2303 0004 0200     		.2byte	0x2
 2304 0006 00000000 		.4byte	.Ldebug_info0
 2305 000a 7C050000 		.4byte	0x57c
 2306 000e 9A000000 		.4byte	0x9a
 2307 0012 43617053 		.ascii	"CapSense_1_BaseInit\000"
 2307      656E7365 
 2307      5F315F42 
 2307      61736549 
 2307      6E697400 
 2308 0026 D0000000 		.4byte	0xd0
 2309 002a 43617053 		.ascii	"CapSense_1_InitializeSensorBaseline\000"
 2309      656E7365 
 2309      5F315F49 
 2309      6E697469 
 2309      616C697A 
 2310 004e F8000000 		.4byte	0xf8
 2311 0052 43617053 		.ascii	"CapSense_1_InitializeAllBaselines\000"
 2311      656E7365 
 2311      5F315F49 
 2311      6E697469 
 2311      616C697A 
 2312 0074 20010000 		.4byte	0x120
 2313 0078 43617053 		.ascii	"CapSense_1_UpdateSensorBaseline\000"
 2313      656E7365 
 2313      5F315F55 
 2313      70646174 
 2313      6553656E 
 2314 0098 95010000 		.4byte	0x195
 2315 009c 43617053 		.ascii	"CapSense_1_UpdateEnabledBaselines\000"
 2315      656E7365 
 2315      5F315F55 
 2315      70646174 
 2315      65456E61 
ARM GAS  C:\Users\CHARLI~1\AppData\Local\Temp\ccF9CHT0.s 			page 60


 2316 00be DB010000 		.4byte	0x1db
 2317 00c2 43617053 		.ascii	"CapSense_1_CheckIsSensorActive\000"
 2317      656E7365 
 2317      5F315F43 
 2317      6865636B 
 2317      49735365 
 2318 00e1 72020000 		.4byte	0x272
 2319 00e5 43617053 		.ascii	"CapSense_1_CheckIsWidgetActive\000"
 2319      656E7365 
 2319      5F315F43 
 2319      6865636B 
 2319      49735769 
 2320 0104 CD020000 		.4byte	0x2cd
 2321 0108 43617053 		.ascii	"CapSense_1_CheckIsAnyWidgetActive\000"
 2321      656E7365 
 2321      5F315F43 
 2321      6865636B 
 2321      4973416E 
 2322 012a 08030000 		.4byte	0x308
 2323 012e 43617053 		.ascii	"CapSense_1_EnableWidget\000"
 2323      656E7365 
 2323      5F315F45 
 2323      6E61626C 
 2323      65576964 
 2324 0146 6E030000 		.4byte	0x36e
 2325 014a 43617053 		.ascii	"CapSense_1_DisableWidget\000"
 2325      656E7365 
 2325      5F315F44 
 2325      69736162 
 2325      6C655769 
 2326 0163 D4030000 		.4byte	0x3d4
 2327 0167 43617053 		.ascii	"CapSense_1_IIR4Filter\000"
 2327      656E7365 
 2327      5F315F49 
 2327      49523446 
 2327      696C7465 
 2328 017d 2E040000 		.4byte	0x42e
 2329 0181 43617053 		.ascii	"CapSense_1_rawFilterData1\000"
 2329      656E7365 
 2329      5F315F72 
 2329      61774669 
 2329      6C746572 
 2330 019b 87040000 		.4byte	0x487
 2331 019f 43617053 		.ascii	"CapSense_1_SensorBaseline\000"
 2331      656E7365 
 2331      5F315F53 
 2331      656E736F 
 2331      72426173 
 2332 01b9 99040000 		.4byte	0x499
 2333 01bd 43617053 		.ascii	"CapSense_1_SensorBaselineLow\000"
 2333      656E7365 
 2333      5F315F53 
 2333      656E736F 
 2333      72426173 
 2334 01da AB040000 		.4byte	0x4ab
 2335 01de 43617053 		.ascii	"CapSense_1_SensorSignal\000"
 2335      656E7365 
ARM GAS  C:\Users\CHARLI~1\AppData\Local\Temp\ccF9CHT0.s 			page 61


 2335      5F315F53 
 2335      656E736F 
 2335      72536967 
 2336 01f6 BD040000 		.4byte	0x4bd
 2337 01fa 43617053 		.ascii	"CapSense_1_SensorOnMask\000"
 2337      656E7365 
 2337      5F315F53 
 2337      656E736F 
 2337      724F6E4D 
 2338 0212 CF040000 		.4byte	0x4cf
 2339 0216 43617053 		.ascii	"CapSense_1_fingerThreshold\000"
 2339      656E7365 
 2339      5F315F66 
 2339      696E6765 
 2339      72546872 
 2340 0231 E6040000 		.4byte	0x4e6
 2341 0235 43617053 		.ascii	"CapSense_1_noiseThreshold\000"
 2341      656E7365 
 2341      5F315F6E 
 2341      6F697365 
 2341      54687265 
 2342 024f FD040000 		.4byte	0x4fd
 2343 0253 43617053 		.ascii	"CapSense_1_hysteresis\000"
 2343      656E7365 
 2343      5F315F68 
 2343      79737465 
 2343      72657369 
 2344 0269 14050000 		.4byte	0x514
 2345 026d 43617053 		.ascii	"CapSense_1_debounce\000"
 2345      656E7365 
 2345      5F315F64 
 2345      65626F75 
 2345      6E636500 
 2346 0281 3B050000 		.4byte	0x53b
 2347 0285 43617053 		.ascii	"CapSense_1_debounceCounter\000"
 2347      656E7365 
 2347      5F315F64 
 2347      65626F75 
 2347      6E636543 
 2348 02a0 4D050000 		.4byte	0x54d
 2349 02a4 43617053 		.ascii	"CapSense_1_rawDataIndex\000"
 2349      656E7365 
 2349      5F315F72 
 2349      61774461 
 2349      7461496E 
 2350 02bc 64050000 		.4byte	0x564
 2351 02c0 43617053 		.ascii	"CapSense_1_numberOfSensors\000"
 2351      656E7365 
 2351      5F315F6E 
 2351      756D6265 
 2351      724F6653 
 2352 02db 00000000 		.4byte	0x0
 2353              		.section	.debug_aranges,"",%progbits
 2354 0000 6C000000 		.4byte	0x6c
 2355 0004 0200     		.2byte	0x2
 2356 0006 00000000 		.4byte	.Ldebug_info0
 2357 000a 04       		.byte	0x4
ARM GAS  C:\Users\CHARLI~1\AppData\Local\Temp\ccF9CHT0.s 			page 62


 2358 000b 00       		.byte	0x0
 2359 000c 0000     		.2byte	0x0
 2360 000e 0000     		.2byte	0x0
 2361 0010 00000000 		.4byte	.LFB0
 2362 0014 92000000 		.4byte	.LFE0-.LFB0
 2363 0018 00000000 		.4byte	.LFB1
 2364 001c 2C000000 		.4byte	.LFE1-.LFB1
 2365 0020 00000000 		.4byte	.LFB2
 2366 0024 2C000000 		.4byte	.LFE2-.LFB2
 2367 0028 00000000 		.4byte	.LFB3
 2368 002c 9E010000 		.4byte	.LFE3-.LFB3
 2369 0030 00000000 		.4byte	.LFB4
 2370 0034 5C000000 		.4byte	.LFE4-.LFB4
 2371 0038 00000000 		.4byte	.LFB5
 2372 003c 72010000 		.4byte	.LFE5-.LFB5
 2373 0040 00000000 		.4byte	.LFB6
 2374 0044 60000000 		.4byte	.LFE6-.LFB6
 2375 0048 00000000 		.4byte	.LFB7
 2376 004c 42000000 		.4byte	.LFE7-.LFB7
 2377 0050 00000000 		.4byte	.LFB8
 2378 0054 7C000000 		.4byte	.LFE8-.LFB8
 2379 0058 00000000 		.4byte	.LFB9
 2380 005c 86000000 		.4byte	.LFE9-.LFB9
 2381 0060 00000000 		.4byte	.LFB10
 2382 0064 3A000000 		.4byte	.LFE10-.LFB10
 2383 0068 00000000 		.4byte	0x0
 2384 006c 00000000 		.4byte	0x0
 2385              		.section	.debug_ranges,"",%progbits
 2386              	.Ldebug_ranges0:
 2387 0000 00000000 		.4byte	.Ltext0
 2388 0004 00000000 		.4byte	.Letext0
 2389 0008 00000000 		.4byte	.LFB0
 2390 000c 92000000 		.4byte	.LFE0
 2391 0010 00000000 		.4byte	.LFB1
 2392 0014 2C000000 		.4byte	.LFE1
 2393 0018 00000000 		.4byte	.LFB2
 2394 001c 2C000000 		.4byte	.LFE2
 2395 0020 00000000 		.4byte	.LFB3
 2396 0024 9E010000 		.4byte	.LFE3
 2397 0028 00000000 		.4byte	.LFB4
 2398 002c 5C000000 		.4byte	.LFE4
 2399 0030 00000000 		.4byte	.LFB5
 2400 0034 72010000 		.4byte	.LFE5
 2401 0038 00000000 		.4byte	.LFB6
 2402 003c 60000000 		.4byte	.LFE6
 2403 0040 00000000 		.4byte	.LFB7
 2404 0044 42000000 		.4byte	.LFE7
 2405 0048 00000000 		.4byte	.LFB8
 2406 004c 7C000000 		.4byte	.LFE8
 2407 0050 00000000 		.4byte	.LFB9
 2408 0054 86000000 		.4byte	.LFE9
 2409 0058 00000000 		.4byte	.LFB10
 2410 005c 3A000000 		.4byte	.LFE10
 2411 0060 00000000 		.4byte	0x0
 2412 0064 00000000 		.4byte	0x0
 2413              		.section	.debug_str,"MS",%progbits,1
 2414              	.LASF6:
ARM GAS  C:\Users\CHARLI~1\AppData\Local\Temp\ccF9CHT0.s 			page 63


 2415 0000 6C6F6E67 		.ascii	"long long int\000"
 2415      206C6F6E 
 2415      6720696E 
 2415      7400
 2416              	.LASF51:
 2417 000e 43617053 		.ascii	"CapSense_1_debounceCounter\000"
 2417      656E7365 
 2417      5F315F64 
 2417      65626F75 
 2417      6E636543 
 2418              	.LASF9:
 2419 0029 63686172 		.ascii	"char\000"
 2419      00
 2420              	.LASF46:
 2421 002e 43617053 		.ascii	"CapSense_1_SensorOnMask\000"
 2421      656E7365 
 2421      5F315F53 
 2421      656E736F 
 2421      724F6E4D 
 2422              	.LASF30:
 2423 0046 43617053 		.ascii	"CapSense_1_CheckIsSensorActive\000"
 2423      656E7365 
 2423      5F315F43 
 2423      6865636B 
 2423      49735365 
 2424              	.LASF35:
 2425 0065 43617053 		.ascii	"CapSense_1_CheckIsAnyWidgetActive\000"
 2425      656E7365 
 2425      5F315F43 
 2425      6865636B 
 2425      4973416E 
 2426              	.LASF34:
 2427 0087 73746174 		.ascii	"state\000"
 2427      6500
 2428              	.LASF41:
 2429 008d 43617053 		.ascii	"CapSense_1_SensorEnableMask\000"
 2429      656E7365 
 2429      5F315F53 
 2429      656E736F 
 2429      72456E61 
 2430              	.LASF21:
 2431 00a9 66696C74 		.ascii	"filteredRawData\000"
 2431      65726564 
 2431      52617744 
 2431      61746100 
 2432              	.LASF43:
 2433 00b9 43617053 		.ascii	"CapSense_1_SensorBaseline\000"
 2433      656E7365 
 2433      5F315F53 
 2433      656E736F 
 2433      72426173 
 2434              	.LASF39:
 2435 00d3 43617053 		.ascii	"CapSense_1_rawFilterData1\000"
 2435      656E7365 
 2435      5F315F72 
 2435      61774669 
 2435      6C746572 
ARM GAS  C:\Users\CHARLI~1\AppData\Local\Temp\ccF9CHT0.s 			page 64


 2436              	.LASF49:
 2437 00ed 43617053 		.ascii	"CapSense_1_hysteresis\000"
 2437      656E7365 
 2437      5F315F68 
 2437      79737465 
 2437      72657369 
 2438              	.LASF3:
 2439 0103 73686F72 		.ascii	"short unsigned int\000"
 2439      7420756E 
 2439      7369676E 
 2439      65642069 
 2439      6E7400
 2440              	.LASF44:
 2441 0116 43617053 		.ascii	"CapSense_1_SensorBaselineLow\000"
 2441      656E7365 
 2441      5F315F53 
 2441      656E736F 
 2441      72426173 
 2442              	.LASF20:
 2443 0133 74656D70 		.ascii	"tempRaw\000"
 2443      52617700 
 2444              	.LASF32:
 2445 013b 72617749 		.ascii	"rawIndex\000"
 2445      6E646578 
 2445      00
 2446              	.LASF18:
 2447 0144 43617053 		.ascii	"CapSense_1_UpdateSensorBaseline\000"
 2447      656E7365 
 2447      5F315F55 
 2447      70646174 
 2447      6553656E 
 2448              	.LASF1:
 2449 0164 756E7369 		.ascii	"unsigned char\000"
 2449      676E6564 
 2449      20636861 
 2449      7200
 2450              	.LASF56:
 2451 0172 453A5C43 		.ascii	"E:\\ControllerKinect\\capController\\Transmitter\\T"
 2451      6F6E7472 
 2451      6F6C6C65 
 2451      724B696E 
 2451      6563745C 
 2452 01a1 72616E73 		.ascii	"ransmitter.cydsn\000"
 2452      6D697474 
 2452      65722E63 
 2452      7964736E 
 2452      00
 2453              	.LASF16:
 2454 01b2 43617053 		.ascii	"CapSense_1_InitializeAllBaselines\000"
 2454      656E7365 
 2454      5F315F49 
 2454      6E697469 
 2454      616C697A 
 2455              	.LASF24:
 2456 01d4 656E4D61 		.ascii	"enMask\000"
 2456      736B00
 2457              	.LASF53:
ARM GAS  C:\Users\CHARLI~1\AppData\Local\Temp\ccF9CHT0.s 			page 65


 2458 01db 43617053 		.ascii	"CapSense_1_numberOfSensors\000"
 2458      656E7365 
 2458      5F315F6E 
 2458      756D6265 
 2458      724F6653 
 2459              	.LASF5:
 2460 01f6 6C6F6E67 		.ascii	"long unsigned int\000"
 2460      20756E73 
 2460      69676E65 
 2460      6420696E 
 2460      7400
 2461              	.LASF10:
 2462 0208 75696E74 		.ascii	"uint8\000"
 2462      3800
 2463              	.LASF19:
 2464 020e 63616C63 		.ascii	"calc\000"
 2464      00
 2465              	.LASF45:
 2466 0213 43617053 		.ascii	"CapSense_1_SensorSignal\000"
 2466      656E7365 
 2466      5F315F53 
 2466      656E736F 
 2466      72536967 
 2467              	.LASF36:
 2468 022b 43617053 		.ascii	"CapSense_1_EnableWidget\000"
 2468      656E7365 
 2468      5F315F45 
 2468      6E61626C 
 2468      65576964 
 2469              	.LASF26:
 2470 0243 6F6E4D61 		.ascii	"onMask\000"
 2470      736B00
 2471              	.LASF38:
 2472 024a 43617053 		.ascii	"CapSense_1_IIR4Filter\000"
 2472      656E7365 
 2472      5F315F49 
 2472      49523446 
 2472      696C7465 
 2473              	.LASF11:
 2474 0260 75696E74 		.ascii	"uint16\000"
 2474      313600
 2475              	.LASF48:
 2476 0267 43617053 		.ascii	"CapSense_1_noiseThreshold\000"
 2476      656E7365 
 2476      5F315F6E 
 2476      6F697365 
 2476      54687265 
 2477              	.LASF12:
 2478 0281 75696E74 		.ascii	"uint32\000"
 2478      333200
 2479              	.LASF33:
 2480 0288 6E756D62 		.ascii	"numberOfSensors\000"
 2480      65724F66 
 2480      53656E73 
 2480      6F727300 
 2481              	.LASF52:
 2482 0298 43617053 		.ascii	"CapSense_1_rawDataIndex\000"
ARM GAS  C:\Users\CHARLI~1\AppData\Local\Temp\ccF9CHT0.s 			page 66


 2482      656E7365 
 2482      5F315F72 
 2482      61774461 
 2482      7461496E 
 2483              	.LASF8:
 2484 02b0 756E7369 		.ascii	"unsigned int\000"
 2484      676E6564 
 2484      20696E74 
 2484      00
 2485              	.LASF42:
 2486 02bd 43617053 		.ascii	"CapSense_1_widgetNumber\000"
 2486      656E7365 
 2486      5F315F77 
 2486      69646765 
 2486      744E756D 
 2487              	.LASF7:
 2488 02d5 6C6F6E67 		.ascii	"long long unsigned int\000"
 2488      206C6F6E 
 2488      6720756E 
 2488      7369676E 
 2488      65642069 
 2489              	.LASF14:
 2490 02ec 43617053 		.ascii	"CapSense_1_InitializeSensorBaseline\000"
 2490      656E7365 
 2490      5F315F49 
 2490      6E697469 
 2490      616C697A 
 2491              	.LASF29:
 2492 0310 6465626F 		.ascii	"debounce\000"
 2492      756E6365 
 2492      00
 2493              	.LASF17:
 2494 0319 77696467 		.ascii	"widget\000"
 2494      657400
 2495              	.LASF37:
 2496 0320 43617053 		.ascii	"CapSense_1_DisableWidget\000"
 2496      656E7365 
 2496      5F315F44 
 2496      69736162 
 2496      6C655769 
 2497              	.LASF28:
 2498 0339 68797374 		.ascii	"hysteresis\000"
 2498      65726573 
 2498      697300
 2499              	.LASF25:
 2500 0344 6465626F 		.ascii	"debounceIndex\000"
 2500      756E6365 
 2500      496E6465 
 2500      7800
 2501              	.LASF54:
 2502 0352 474E5520 		.ascii	"GNU C 4.4.1\000"
 2502      4320342E 
 2502      342E3100 
 2503              	.LASF31:
 2504 035e 43617053 		.ascii	"CapSense_1_CheckIsWidgetActive\000"
 2504      656E7365 
 2504      5F315F43 
ARM GAS  C:\Users\CHARLI~1\AppData\Local\Temp\ccF9CHT0.s 			page 67


 2504      6865636B 
 2504      49735769 
 2505              	.LASF27:
 2506 037d 66696E67 		.ascii	"fingerThreshold\000"
 2506      65725468 
 2506      72657368 
 2506      6F6C6400 
 2507              	.LASF47:
 2508 038d 43617053 		.ascii	"CapSense_1_fingerThreshold\000"
 2508      656E7365 
 2508      5F315F66 
 2508      696E6765 
 2508      72546872 
 2509              	.LASF15:
 2510 03a8 73656E73 		.ascii	"sensor\000"
 2510      6F7200
 2511              	.LASF2:
 2512 03af 73686F72 		.ascii	"short int\000"
 2512      7420696E 
 2512      7400
 2513              	.LASF55:
 2514 03b9 2E2F4765 		.ascii	"./Generated_Source/PSoC5/CapSense_1_CSHL.c\000"
 2514      6E657261 
 2514      7465645F 
 2514      536F7572 
 2514      63652F50 
 2515              	.LASF23:
 2516 03e4 43617053 		.ascii	"CapSense_1_UpdateEnabledBaselines\000"
 2516      656E7365 
 2516      5F315F55 
 2516      70646174 
 2516      65456E61 
 2517              	.LASF13:
 2518 0406 43617053 		.ascii	"CapSense_1_BaseInit\000"
 2518      656E7365 
 2518      5F315F42 
 2518      61736549 
 2518      6E697400 
 2519              	.LASF4:
 2520 041a 6C6F6E67 		.ascii	"long int\000"
 2520      20696E74 
 2520      00
 2521              	.LASF40:
 2522 0423 43617053 		.ascii	"CapSense_1_SensorRaw\000"
 2522      656E7365 
 2522      5F315F53 
 2522      656E736F 
 2522      72526177 
 2523              	.LASF22:
 2524 0438 6E6F6973 		.ascii	"noiseThreshold\000"
 2524      65546872 
 2524      6573686F 
 2524      6C6400
 2525              	.LASF0:
 2526 0447 7369676E 		.ascii	"signed char\000"
 2526      65642063 
 2526      68617200 
ARM GAS  C:\Users\CHARLI~1\AppData\Local\Temp\ccF9CHT0.s 			page 68


 2527              	.LASF50:
 2528 0453 43617053 		.ascii	"CapSense_1_debounce\000"
 2528      656E7365 
 2528      5F315F64 
 2528      65626F75 
 2528      6E636500 
 2529              		.ident	"GCC: (Sourcery G++ Lite 2010q1-188) 4.4.1"
