ARM GAS  C:\Users\CHARLI~1\AppData\Local\Temp\ccF9CHT0.s 			page 1


   1              		.syntax unified
   2              		.cpu cortex-m3
   3              		.fpu softvfp
   4              		.eabi_attribute 20, 1
   5              		.eabi_attribute 21, 1
   6              		.eabi_attribute 23, 3
   7              		.eabi_attribute 24, 1
   8              		.eabi_attribute 25, 1
   9              		.eabi_attribute 26, 1
  10              		.eabi_attribute 30, 6
  11              		.eabi_attribute 18, 4
  12              		.thumb
  13              		.file	"CapSense_1_CSHL.c"
  20 0000 8D010000 		.text
  20      02004E00 
  20      00000201 
  20      FB0E0D00 
  20      01010101 
  21              	.Ltext0:
  22              		.cfi_sections	.debug_frame
  23              		.comm	CapSense_1_rawFilterData1,2,4
  24              		.global	CapSense_1_SensorBaseline
  25              		.bss
  26              		.align	2
  27              		.type	CapSense_1_SensorBaseline, %object
  28              		.size	CapSense_1_SensorBaseline, 2
  29              	CapSense_1_SensorBaseline:
  30 0000 0000     		.space	2
  31              		.global	CapSense_1_SensorBaselineLow
  32 0002 0000     		.align	2
  33              		.type	CapSense_1_SensorBaselineLow, %object
  34              		.size	CapSense_1_SensorBaselineLow, 1
  35              	CapSense_1_SensorBaselineLow:
  36 0004 00       		.space	1
  37              		.global	CapSense_1_SensorSignal
  38 0005 000000   		.align	2
  39              		.type	CapSense_1_SensorSignal, %object
  40              		.size	CapSense_1_SensorSignal, 1
  41              	CapSense_1_SensorSignal:
  42 0008 00       		.space	1
  43              		.global	CapSense_1_SensorOnMask
  44 0009 000000   		.align	2
  45              		.type	CapSense_1_SensorOnMask, %object
  46              		.size	CapSense_1_SensorOnMask, 1
  47              	CapSense_1_SensorOnMask:
  48 000c 00       		.space	1
  49              		.global	CapSense_1_fingerThreshold
  50              		.section	.rodata
  51              		.align	2
  52              		.type	CapSense_1_fingerThreshold, %object
  53              		.size	CapSense_1_fingerThreshold, 1
ARM GAS  C:\Users\CHARLI~1\AppData\Local\Temp\ccF9CHT0.s 			page 2


  54              	CapSense_1_fingerThreshold:
  55 0000 64       		.byte	100
  56              		.global	CapSense_1_noiseThreshold
  57 0001 000000   		.align	2
  58              		.type	CapSense_1_noiseThreshold, %object
  59              		.size	CapSense_1_noiseThreshold, 1
  60              	CapSense_1_noiseThreshold:
  61 0004 14       		.byte	20
  62              		.global	CapSense_1_hysteresis
  63 0005 000000   		.align	2
  64              		.type	CapSense_1_hysteresis, %object
  65              		.size	CapSense_1_hysteresis, 1
  66              	CapSense_1_hysteresis:
  67 0008 0A       		.byte	10
  68              		.global	CapSense_1_debounce
  69 0009 000000   		.align	2
  70              		.type	CapSense_1_debounce, %object
  71              		.size	CapSense_1_debounce, 1
  72              	CapSense_1_debounce:
  73 000c 05       		.byte	5
  74              		.global	CapSense_1_debounceCounter
  75              		.bss
  76 000d 000000   		.align	2
  77              		.type	CapSense_1_debounceCounter, %object
  78              		.size	CapSense_1_debounceCounter, 2
  79              	CapSense_1_debounceCounter:
  80 0010 0000     		.space	2
  81              		.global	CapSense_1_rawDataIndex
  82 0012 0000     		.section	.rodata
  83 000d 000000   		.align	2
  84              		.type	CapSense_1_rawDataIndex, %object
  85              		.size	CapSense_1_rawDataIndex, 1
  86              	CapSense_1_rawDataIndex:
  87 0010 00       		.space	1
  88              		.global	CapSense_1_numberOfSensors
  89 0011 000000   		.align	2
  90              		.type	CapSense_1_numberOfSensors, %object
  91              		.size	CapSense_1_numberOfSensors, 1
  92              	CapSense_1_numberOfSensors:
  93 0014 01       		.byte	1
  94 0015 000000   		.section	.text.CapSense_1_BaseInit,"ax",%progbits
  95              		.align	2
  96              		.global	CapSense_1_BaseInit
  97              		.thumb
  98              		.thumb_func
  99              		.type	CapSense_1_BaseInit, %function
 100              	CapSense_1_BaseInit:
 101              	.LFB0:
 102              		.file 1 "./Generated_Source/PSoC5/CapSense_1_CSHL.c"
   1:./Generated_Source/PSoC5/CapSense_1_CSHL.c **** /*******************************************************************************
   2:./Generated_Source/PSoC5/CapSense_1_CSHL.c **** * File Name: CapSense_1_CSHL.c
   3:./Generated_Source/PSoC5/CapSense_1_CSHL.c **** * Version 2.10
   4:./Generated_Source/PSoC5/CapSense_1_CSHL.c **** *
   5:./Generated_Source/PSoC5/CapSense_1_CSHL.c **** * Description:
   6:./Generated_Source/PSoC5/CapSense_1_CSHL.c **** *  This file provides the source code to the High Level APIs for the CapSesne
   7:./Generated_Source/PSoC5/CapSense_1_CSHL.c **** *  CSD component.
   8:./Generated_Source/PSoC5/CapSense_1_CSHL.c **** *
ARM GAS  C:\Users\CHARLI~1\AppData\Local\Temp\ccF9CHT0.s 			page 3


   9:./Generated_Source/PSoC5/CapSense_1_CSHL.c **** * Note:
  10:./Generated_Source/PSoC5/CapSense_1_CSHL.c **** *
  11:./Generated_Source/PSoC5/CapSense_1_CSHL.c **** ********************************************************************************
  12:./Generated_Source/PSoC5/CapSense_1_CSHL.c **** * Copyright 2008-2010, Cypress Semiconductor Corporation.  All rights reserved.
  13:./Generated_Source/PSoC5/CapSense_1_CSHL.c **** * You may use this file only in accordance with the license, terms, conditions,
  14:./Generated_Source/PSoC5/CapSense_1_CSHL.c **** * disclaimers, and limitations in the end user license agreement accompanying
  15:./Generated_Source/PSoC5/CapSense_1_CSHL.c **** * the software package with which this file was provided.
  16:./Generated_Source/PSoC5/CapSense_1_CSHL.c **** *******************************************************************************/
  17:./Generated_Source/PSoC5/CapSense_1_CSHL.c **** 
  18:./Generated_Source/PSoC5/CapSense_1_CSHL.c **** #include "CapSense_1_CSHL.h"
  19:./Generated_Source/PSoC5/CapSense_1_CSHL.c **** 
  20:./Generated_Source/PSoC5/CapSense_1_CSHL.c **** /* SmartSense functions */
  21:./Generated_Source/PSoC5/CapSense_1_CSHL.c **** #if (CapSense_1_TUNING_METHOD == CapSense_1_AUTO_TUNING)
  22:./Generated_Source/PSoC5/CapSense_1_CSHL.c ****     extern void CapSense_1_CalculateThresholds(uint8 SensorNumber);
  23:./Generated_Source/PSoC5/CapSense_1_CSHL.c **** #endif /* End (CapSense_1_TUNING_METHOD == CapSense_1_AUTO_TUNING) */
  24:./Generated_Source/PSoC5/CapSense_1_CSHL.c **** 
  25:./Generated_Source/PSoC5/CapSense_1_CSHL.c **** /* Median filter function prototype */
  26:./Generated_Source/PSoC5/CapSense_1_CSHL.c **** #if ( (CapSense_1_RAW_FILTER_MASK & CapSense_1_MEDIAN_FILTER) || \
  27:./Generated_Source/PSoC5/CapSense_1_CSHL.c ****       (CapSense_1_POS_FILTERS_MASK & CapSense_1_MEDIAN_FILTER) )
  28:./Generated_Source/PSoC5/CapSense_1_CSHL.c ****     uint16 CapSense_1_MedianFilter(uint16 x1, uint16 x2, uint16 x3) \
  29:./Generated_Source/PSoC5/CapSense_1_CSHL.c ****     ;
  30:./Generated_Source/PSoC5/CapSense_1_CSHL.c **** #endif /* End CapSense_1_RAW_FILTER_MASK && CapSense_1_POS_FILTERS_MASK */
  31:./Generated_Source/PSoC5/CapSense_1_CSHL.c **** 
  32:./Generated_Source/PSoC5/CapSense_1_CSHL.c **** /* Averaging filter function prototype */
  33:./Generated_Source/PSoC5/CapSense_1_CSHL.c **** #if ( (CapSense_1_RAW_FILTER_MASK & CapSense_1_AVERAGING_FILTER) || \
  34:./Generated_Source/PSoC5/CapSense_1_CSHL.c ****       (CapSense_1_POS_FILTERS_MASK & CapSense_1_AVERAGING_FILTER) )
  35:./Generated_Source/PSoC5/CapSense_1_CSHL.c ****     uint16 CapSense_1_AveragingFilter(uint16 x1, uint16 x2, uint16 x3) \
  36:./Generated_Source/PSoC5/CapSense_1_CSHL.c ****     ;
  37:./Generated_Source/PSoC5/CapSense_1_CSHL.c **** #endif /* End CapSense_1_RAW_FILTER_MASK && CapSense_1_POS_FILTERS_MASK */
  38:./Generated_Source/PSoC5/CapSense_1_CSHL.c **** 
  39:./Generated_Source/PSoC5/CapSense_1_CSHL.c **** /* IIR2Filter(1/2prev + 1/2cur) filter function prototype */
  40:./Generated_Source/PSoC5/CapSense_1_CSHL.c **** #if ( (CapSense_1_RAW_FILTER_MASK & CapSense_1_IIR2_FILTER) || \
  41:./Generated_Source/PSoC5/CapSense_1_CSHL.c ****       (CapSense_1_POS_FILTERS_MASK & CapSense_1_IIR2_FILTER) )
  42:./Generated_Source/PSoC5/CapSense_1_CSHL.c **** uint16 CapSense_1_IIR2Filter(uint16 x1, uint16 x2) ;
  43:./Generated_Source/PSoC5/CapSense_1_CSHL.c **** #endif /* End CapSense_1_RAW_FILTER_MASK && CapSense_1_POS_FILTERS_MASK */
  44:./Generated_Source/PSoC5/CapSense_1_CSHL.c **** 
  45:./Generated_Source/PSoC5/CapSense_1_CSHL.c **** /* IIR4Filter(3/4prev + 1/4cur) filter function prototype */
  46:./Generated_Source/PSoC5/CapSense_1_CSHL.c **** #if ( (CapSense_1_RAW_FILTER_MASK & CapSense_1_IIR4_FILTER) || \
  47:./Generated_Source/PSoC5/CapSense_1_CSHL.c ****       (CapSense_1_POS_FILTERS_MASK & CapSense_1_IIR4_FILTER) )
  48:./Generated_Source/PSoC5/CapSense_1_CSHL.c ****     uint16 CapSense_1_IIR4Filter(uint16 x1, uint16 x2) ;
  49:./Generated_Source/PSoC5/CapSense_1_CSHL.c **** #endif /* End CapSense_1_RAW_FILTER_MASK && CapSense_1_POS_FILTERS_MASK */
  50:./Generated_Source/PSoC5/CapSense_1_CSHL.c **** 
  51:./Generated_Source/PSoC5/CapSense_1_CSHL.c **** /* IIR8Filter(7/8prev + 1/8cur) filter function prototype - RawCounts only */
  52:./Generated_Source/PSoC5/CapSense_1_CSHL.c **** #if (CapSense_1_RAW_FILTER_MASK & CapSense_1_IIR8_FILTER)
  53:./Generated_Source/PSoC5/CapSense_1_CSHL.c ****     uint16 CapSense_1_IIR8Filter(uint16 x1, uint16 x2) ;
  54:./Generated_Source/PSoC5/CapSense_1_CSHL.c **** #endif /* End CapSense_1_RAW_FILTER_MASK */
  55:./Generated_Source/PSoC5/CapSense_1_CSHL.c **** 
  56:./Generated_Source/PSoC5/CapSense_1_CSHL.c **** /* IIR16Filter(15/16prev + 1/16cur) filter function prototype - RawCounts only */
  57:./Generated_Source/PSoC5/CapSense_1_CSHL.c **** #if (CapSense_1_RAW_FILTER_MASK & CapSense_1_IIR16_FILTER)
  58:./Generated_Source/PSoC5/CapSense_1_CSHL.c ****     uint16 CapSense_1_IIR16Filter(uint16 x1, uint16 x2) ;
  59:./Generated_Source/PSoC5/CapSense_1_CSHL.c **** #endif /* End CapSense_1_RAW_FILTER_MASK */
  60:./Generated_Source/PSoC5/CapSense_1_CSHL.c **** 
  61:./Generated_Source/PSoC5/CapSense_1_CSHL.c **** /* JitterFilter filter function prototype */
  62:./Generated_Source/PSoC5/CapSense_1_CSHL.c **** #if ( (CapSense_1_RAW_FILTER_MASK & CapSense_1_JITTER_FILTER) || \
  63:./Generated_Source/PSoC5/CapSense_1_CSHL.c ****       (CapSense_1_POS_FILTERS_MASK & CapSense_1_JITTER_FILTER) )
  64:./Generated_Source/PSoC5/CapSense_1_CSHL.c ****     uint16 CapSense_1_JitterFilter(uint16 x1, uint16 x2) ;
  65:./Generated_Source/PSoC5/CapSense_1_CSHL.c **** #endif /* End CapSense_1_RAW_FILTER_MASK && CapSense_1_POS_FILTERS_MASK */
ARM GAS  C:\Users\CHARLI~1\AppData\Local\Temp\ccF9CHT0.s 			page 4


  66:./Generated_Source/PSoC5/CapSense_1_CSHL.c **** 
  67:./Generated_Source/PSoC5/CapSense_1_CSHL.c **** /* Storage of filters data */
  68:./Generated_Source/PSoC5/CapSense_1_CSHL.c **** #if ( (CapSense_1_RAW_FILTER_MASK & CapSense_1_MEDIAN_FILTER) || \
  69:./Generated_Source/PSoC5/CapSense_1_CSHL.c ****       (CapSense_1_RAW_FILTER_MASK & CapSense_1_AVERAGING_FILTER) )
  70:./Generated_Source/PSoC5/CapSense_1_CSHL.c **** 
  71:./Generated_Source/PSoC5/CapSense_1_CSHL.c ****     uint16 CapSense_1_rawFilterData1[CapSense_1_TOTAL_SENSOR_COUNT];
  72:./Generated_Source/PSoC5/CapSense_1_CSHL.c ****     uint16 CapSense_1_rawFilterData2[CapSense_1_TOTAL_SENSOR_COUNT];
  73:./Generated_Source/PSoC5/CapSense_1_CSHL.c **** 
  74:./Generated_Source/PSoC5/CapSense_1_CSHL.c **** #elif ( (CapSense_1_RAW_FILTER_MASK & CapSense_1_IIR2_FILTER)   || \
  75:./Generated_Source/PSoC5/CapSense_1_CSHL.c ****         (CapSense_1_RAW_FILTER_MASK & CapSense_1_IIR4_FILTER)   || \
  76:./Generated_Source/PSoC5/CapSense_1_CSHL.c ****         (CapSense_1_RAW_FILTER_MASK & CapSense_1_JITTER_FILTER) || \
  77:./Generated_Source/PSoC5/CapSense_1_CSHL.c ****         (CapSense_1_RAW_FILTER_MASK & CapSense_1_IIR8_FILTER)   || \
  78:./Generated_Source/PSoC5/CapSense_1_CSHL.c ****         (CapSense_1_RAW_FILTER_MASK & CapSense_1_IIR16_FILTER) )
  79:./Generated_Source/PSoC5/CapSense_1_CSHL.c ****         
  80:./Generated_Source/PSoC5/CapSense_1_CSHL.c ****     uint16 CapSense_1_rawFilterData1[CapSense_1_TOTAL_SENSOR_COUNT];
  81:./Generated_Source/PSoC5/CapSense_1_CSHL.c **** 
  82:./Generated_Source/PSoC5/CapSense_1_CSHL.c **** #else
  83:./Generated_Source/PSoC5/CapSense_1_CSHL.c ****     /* No Raw filters */
  84:./Generated_Source/PSoC5/CapSense_1_CSHL.c **** #endif  /* End CapSense_1_RAW_FILTER_MASK */
  85:./Generated_Source/PSoC5/CapSense_1_CSHL.c **** 
  86:./Generated_Source/PSoC5/CapSense_1_CSHL.c **** extern uint16 CapSense_1_SensorRaw[CapSense_1_TOTAL_SENSOR_COUNT];
  87:./Generated_Source/PSoC5/CapSense_1_CSHL.c **** extern uint8 CapSense_1_SensorEnableMask[(((CapSense_1_TOTAL_SENSOR_COUNT - 1u) / 8u) + 1u)];
  88:./Generated_Source/PSoC5/CapSense_1_CSHL.c **** extern const uint8 CYCODE CapSense_1_widgetNumber[];
  89:./Generated_Source/PSoC5/CapSense_1_CSHL.c **** 
  90:./Generated_Source/PSoC5/CapSense_1_CSHL.c **** uint16 CapSense_1_SensorBaseline[CapSense_1_TOTAL_SENSOR_COUNT] = {0u};
  91:./Generated_Source/PSoC5/CapSense_1_CSHL.c **** uint8 CapSense_1_SensorBaselineLow[CapSense_1_TOTAL_SENSOR_COUNT] = {0u};
  92:./Generated_Source/PSoC5/CapSense_1_CSHL.c **** uint8 CapSense_1_SensorSignal[CapSense_1_TOTAL_SENSOR_COUNT] = {0u};
  93:./Generated_Source/PSoC5/CapSense_1_CSHL.c **** uint8 CapSense_1_SensorOnMask[(((CapSense_1_TOTAL_SENSOR_COUNT - 1u) / 8u) + 1u)] = {0u};
  94:./Generated_Source/PSoC5/CapSense_1_CSHL.c **** 
  95:./Generated_Source/PSoC5/CapSense_1_CSHL.c **** /* Helps while centroid calulation */
  96:./Generated_Source/PSoC5/CapSense_1_CSHL.c **** #if (CapSense_1_TOTAL_CENTROIDS_COUNT)
  97:./Generated_Source/PSoC5/CapSense_1_CSHL.c ****     static uint8 CapSense_1_centroid[3];
  98:./Generated_Source/PSoC5/CapSense_1_CSHL.c **** #endif  /* End (CapSense_1_TOTAL_CENTROIDS_COUNT) */
  99:./Generated_Source/PSoC5/CapSense_1_CSHL.c **** 
 100:./Generated_Source/PSoC5/CapSense_1_CSHL.c **** 
 101:./Generated_Source/PSoC5/CapSense_1_CSHL.c **** const uint8 CYCODE CapSense_1_fingerThreshold[] = {
 102:./Generated_Source/PSoC5/CapSense_1_CSHL.c ****     100u, 
 103:./Generated_Source/PSoC5/CapSense_1_CSHL.c **** };
 104:./Generated_Source/PSoC5/CapSense_1_CSHL.c **** 
 105:./Generated_Source/PSoC5/CapSense_1_CSHL.c **** const uint8 CYCODE CapSense_1_noiseThreshold[] = {
 106:./Generated_Source/PSoC5/CapSense_1_CSHL.c ****     20u, 
 107:./Generated_Source/PSoC5/CapSense_1_CSHL.c **** };
 108:./Generated_Source/PSoC5/CapSense_1_CSHL.c **** 
 109:./Generated_Source/PSoC5/CapSense_1_CSHL.c **** const uint8 CYCODE CapSense_1_hysteresis[] = {
 110:./Generated_Source/PSoC5/CapSense_1_CSHL.c ****     10u, 
 111:./Generated_Source/PSoC5/CapSense_1_CSHL.c **** };
 112:./Generated_Source/PSoC5/CapSense_1_CSHL.c **** 
 113:./Generated_Source/PSoC5/CapSense_1_CSHL.c **** const uint8 CYCODE CapSense_1_debounce[] = {
 114:./Generated_Source/PSoC5/CapSense_1_CSHL.c ****     5u, 
 115:./Generated_Source/PSoC5/CapSense_1_CSHL.c **** };
 116:./Generated_Source/PSoC5/CapSense_1_CSHL.c **** 
 117:./Generated_Source/PSoC5/CapSense_1_CSHL.c **** uint8 CapSense_1_debounceCounter[] = {
 118:./Generated_Source/PSoC5/CapSense_1_CSHL.c ****     0u, 0u, 
 119:./Generated_Source/PSoC5/CapSense_1_CSHL.c **** };
 120:./Generated_Source/PSoC5/CapSense_1_CSHL.c **** 
 121:./Generated_Source/PSoC5/CapSense_1_CSHL.c **** const uint8 CYCODE CapSense_1_rawDataIndex[] = {
 122:./Generated_Source/PSoC5/CapSense_1_CSHL.c ****     0u, /* DummyWidget__BTN */
ARM GAS  C:\Users\CHARLI~1\AppData\Local\Temp\ccF9CHT0.s 			page 5


 123:./Generated_Source/PSoC5/CapSense_1_CSHL.c **** 
 124:./Generated_Source/PSoC5/CapSense_1_CSHL.c **** };
 125:./Generated_Source/PSoC5/CapSense_1_CSHL.c **** 
 126:./Generated_Source/PSoC5/CapSense_1_CSHL.c **** const uint8 CYCODE CapSense_1_numberOfSensors[] = {
 127:./Generated_Source/PSoC5/CapSense_1_CSHL.c ****     1u, /* DummyWidget__BTN */
 128:./Generated_Source/PSoC5/CapSense_1_CSHL.c **** 
 129:./Generated_Source/PSoC5/CapSense_1_CSHL.c **** };
 130:./Generated_Source/PSoC5/CapSense_1_CSHL.c **** 
 131:./Generated_Source/PSoC5/CapSense_1_CSHL.c **** 
 132:./Generated_Source/PSoC5/CapSense_1_CSHL.c **** 
 133:./Generated_Source/PSoC5/CapSense_1_CSHL.c **** #if (CapSense_1_TOTAL_TOUCH_PADS_COUNT)
 134:./Generated_Source/PSoC5/CapSense_1_CSHL.c ****     uint8 CapSense_1_position[CapSense_1_TOTAL_CENTROIDS_COUNT] = {0xFFu};
 135:./Generated_Source/PSoC5/CapSense_1_CSHL.c **** #endif  /* End (CapSense_1_TOTAL_TOUCH_PADS_COUNT) */
 136:./Generated_Source/PSoC5/CapSense_1_CSHL.c **** 
 137:./Generated_Source/PSoC5/CapSense_1_CSHL.c **** 
 138:./Generated_Source/PSoC5/CapSense_1_CSHL.c **** /*******************************************************************************
 139:./Generated_Source/PSoC5/CapSense_1_CSHL.c **** * Function Name: CapSense_1_BaseInit
 140:./Generated_Source/PSoC5/CapSense_1_CSHL.c **** ********************************************************************************
 141:./Generated_Source/PSoC5/CapSense_1_CSHL.c **** *
 142:./Generated_Source/PSoC5/CapSense_1_CSHL.c **** * Summary:
 143:./Generated_Source/PSoC5/CapSense_1_CSHL.c **** *  Loads the CapSense_1_SensorBaseline[sensor] array element with an 
 144:./Generated_Source/PSoC5/CapSense_1_CSHL.c **** *  initial value which qual raw count value. 
 145:./Generated_Source/PSoC5/CapSense_1_CSHL.c **** *  Resets to zero CapSense_1_SensorBaselineLow[senesor] and 
 146:./Generated_Source/PSoC5/CapSense_1_CSHL.c **** *  CapSense_1_SensorSignal[sensor] array element.
 147:./Generated_Source/PSoC5/CapSense_1_CSHL.c **** *  Loads CapSense_1_debounceCounter[sensor] array element with initial 
 148:./Generated_Source/PSoC5/CapSense_1_CSHL.c **** *  value equal CapSense_1_debounce[].
 149:./Generated_Source/PSoC5/CapSense_1_CSHL.c **** *  Loads the CapSense_1_rawFilterData2[sensor] and 
 150:./Generated_Source/PSoC5/CapSense_1_CSHL.c **** *  CapSense_1_rawFilterData2[sensor] array element with an 
 151:./Generated_Source/PSoC5/CapSense_1_CSHL.c **** *  initial value which qual raw count value if raw data filter is enabled.
 152:./Generated_Source/PSoC5/CapSense_1_CSHL.c **** *
 153:./Generated_Source/PSoC5/CapSense_1_CSHL.c **** * Parameters:
 154:./Generated_Source/PSoC5/CapSense_1_CSHL.c **** *  sensor:  Sensor number.
 155:./Generated_Source/PSoC5/CapSense_1_CSHL.c **** *
 156:./Generated_Source/PSoC5/CapSense_1_CSHL.c **** * Return:
 157:./Generated_Source/PSoC5/CapSense_1_CSHL.c **** *  None
 158:./Generated_Source/PSoC5/CapSense_1_CSHL.c **** *
 159:./Generated_Source/PSoC5/CapSense_1_CSHL.c **** * Global Variables:
 160:./Generated_Source/PSoC5/CapSense_1_CSHL.c **** *  CapSense_1_SensorBaseline[]    - used to store baseline value.
 161:./Generated_Source/PSoC5/CapSense_1_CSHL.c **** *  CapSense_1_SensorBaselineLow[] - used to store fraction byte of 
 162:./Generated_Source/PSoC5/CapSense_1_CSHL.c **** *  baseline value.
 163:./Generated_Source/PSoC5/CapSense_1_CSHL.c **** *  CapSense_1_SensorSignal[]      - used to store diffence between 
 164:./Generated_Source/PSoC5/CapSense_1_CSHL.c **** *  current value of raw data and previous value of baseline.
 165:./Generated_Source/PSoC5/CapSense_1_CSHL.c **** *  CapSense_1_debounceCounter[]   - used to store current debounce 
 166:./Generated_Source/PSoC5/CapSense_1_CSHL.c **** *  counter of sensor. Widget which has this parameter are buttons, matrix 
 167:./Generated_Source/PSoC5/CapSense_1_CSHL.c **** *  buttons, proximity, guard. All other widgets haven't debounce parameter
 168:./Generated_Source/PSoC5/CapSense_1_CSHL.c **** *  and use the last element of this array with value 0 (it means no debounce).
 169:./Generated_Source/PSoC5/CapSense_1_CSHL.c **** *  CapSense_1_rawFilterData1[]    - used to store previous sample of 
 170:./Generated_Source/PSoC5/CapSense_1_CSHL.c **** *  any enabled raw data filter.
 171:./Generated_Source/PSoC5/CapSense_1_CSHL.c **** *  CapSense_1_rawFilterData2[]    - used to store before previous sample
 172:./Generated_Source/PSoC5/CapSense_1_CSHL.c **** *  of enabled raw data filter. Only required for median or average filters.
 173:./Generated_Source/PSoC5/CapSense_1_CSHL.c **** *
 174:./Generated_Source/PSoC5/CapSense_1_CSHL.c **** * Reentrant:
 175:./Generated_Source/PSoC5/CapSense_1_CSHL.c **** *  No
 176:./Generated_Source/PSoC5/CapSense_1_CSHL.c **** *
 177:./Generated_Source/PSoC5/CapSense_1_CSHL.c **** *******************************************************************************/
 178:./Generated_Source/PSoC5/CapSense_1_CSHL.c **** void CapSense_1_BaseInit(uint8 sensor)
 179:./Generated_Source/PSoC5/CapSense_1_CSHL.c **** {
ARM GAS  C:\Users\CHARLI~1\AppData\Local\Temp\ccF9CHT0.s 			page 6


 103              		.loc 1 179 0
 104              		.cfi_startproc
 105              		@ args = 0, pretend = 0, frame = 16
 106              		@ frame_needed = 1, uses_anonymous_args = 0
 107              		@ link register save eliminated.
 108 0000 80B4     		push	{r7}
 109              	.LCFI0:
 110              		.cfi_def_cfa_offset 4
 111 0002 85B0     		sub	sp, sp, #20
 112              	.LCFI1:
 113              		.cfi_def_cfa_offset 24
 114 0004 00AF     		add	r7, sp, #0
 115              		.cfi_offset 7, -4
 116              	.LCFI2:
 117              		.cfi_def_cfa_register 7
 118 0006 0346     		mov	r3, r0
 119 0008 FB71     		strb	r3, [r7, #7]
 180:./Generated_Source/PSoC5/CapSense_1_CSHL.c ****     #if ((CapSense_1_TOTAL_BUTTONS_COUNT) || (CapSense_1_TOTAL_MATRIX_BUTTONS_COUNT) || \
 181:./Generated_Source/PSoC5/CapSense_1_CSHL.c ****          (CapSense_1_TOTAL_GENERICS_COUNT))
 182:./Generated_Source/PSoC5/CapSense_1_CSHL.c ****         uint8 widget = CapSense_1_widgetNumber[sensor];
 120              		.loc 1 182 0
 121 000a FA79     		ldrb	r2, [r7, #7]	@ zero_extendqisi2
 122 000c 40F20003 		movw	r3, #:lower16:CapSense_1_widgetNumber
 123 0010 C0F20003 		movt	r3, #:upper16:CapSense_1_widgetNumber
 124 0014 9B5C     		ldrb	r3, [r3, r2]
 125 0016 FB73     		strb	r3, [r7, #15]
 183:./Generated_Source/PSoC5/CapSense_1_CSHL.c ****     #endif /* ((CapSense_1_TOTAL_MATRIX_BUTTONS_COUNT) || (CapSense_1_TOTAL_MATRIX_BUTTONS_COUNT)) 
 184:./Generated_Source/PSoC5/CapSense_1_CSHL.c ****     
 185:./Generated_Source/PSoC5/CapSense_1_CSHL.c ****     #if (CapSense_1_TOTAL_MATRIX_BUTTONS_COUNT)
 186:./Generated_Source/PSoC5/CapSense_1_CSHL.c ****         uint8 debounceIndex;
 187:./Generated_Source/PSoC5/CapSense_1_CSHL.c ****     #endif  /* End (CapSense_1_TOTAL_MATRIX_BUTTONS_COUNT != 0u) */
 188:./Generated_Source/PSoC5/CapSense_1_CSHL.c ****     
 189:./Generated_Source/PSoC5/CapSense_1_CSHL.c ****     #if (CapSense_1_TOTAL_GENERICS_COUNT)
 190:./Generated_Source/PSoC5/CapSense_1_CSHL.c ****         /* Exclude generic widget */
 191:./Generated_Source/PSoC5/CapSense_1_CSHL.c ****         if(widget < CapSense_1_END_OF_WIDGETS_INDEX)
 192:./Generated_Source/PSoC5/CapSense_1_CSHL.c ****         {
 193:./Generated_Source/PSoC5/CapSense_1_CSHL.c ****     #endif  /* End CapSense_1_TOTAL_GENERICS_COUNT */
 194:./Generated_Source/PSoC5/CapSense_1_CSHL.c ****     
 195:./Generated_Source/PSoC5/CapSense_1_CSHL.c ****     /* Initialize Baseline */
 196:./Generated_Source/PSoC5/CapSense_1_CSHL.c ****     CapSense_1_SensorBaseline[sensor] = CapSense_1_SensorRaw[sensor];
 126              		.loc 1 196 0
 127 0018 FA79     		ldrb	r2, [r7, #7]	@ zero_extendqisi2
 128 001a F979     		ldrb	r1, [r7, #7]	@ zero_extendqisi2
 129 001c 40F20003 		movw	r3, #:lower16:CapSense_1_SensorRaw
 130 0020 C0F20003 		movt	r3, #:upper16:CapSense_1_SensorRaw
 131 0024 33F81110 		ldrh	r1, [r3, r1, lsl #1]
 132 0028 40F20003 		movw	r3, #:lower16:CapSense_1_SensorBaseline
 133 002c C0F20003 		movt	r3, #:upper16:CapSense_1_SensorBaseline
 134 0030 23F81210 		strh	r1, [r3, r2, lsl #1]	@ movhi
 197:./Generated_Source/PSoC5/CapSense_1_CSHL.c ****     CapSense_1_SensorBaselineLow[sensor] = 0u;
 135              		.loc 1 197 0
 136 0034 FA79     		ldrb	r2, [r7, #7]	@ zero_extendqisi2
 137 0036 40F20003 		movw	r3, #:lower16:CapSense_1_SensorBaselineLow
 138 003a C0F20003 		movt	r3, #:upper16:CapSense_1_SensorBaselineLow
 139 003e 4FF00001 		mov	r1, #0
 140 0042 9954     		strb	r1, [r3, r2]
 198:./Generated_Source/PSoC5/CapSense_1_CSHL.c ****     CapSense_1_SensorSignal[sensor] = 0u;
ARM GAS  C:\Users\CHARLI~1\AppData\Local\Temp\ccF9CHT0.s 			page 7


 141              		.loc 1 198 0
 142 0044 FA79     		ldrb	r2, [r7, #7]	@ zero_extendqisi2
 143 0046 40F20003 		movw	r3, #:lower16:CapSense_1_SensorSignal
 144 004a C0F20003 		movt	r3, #:upper16:CapSense_1_SensorSignal
 145 004e 4FF00001 		mov	r1, #0
 146 0052 9954     		strb	r1, [r3, r2]
 199:./Generated_Source/PSoC5/CapSense_1_CSHL.c ****         
 200:./Generated_Source/PSoC5/CapSense_1_CSHL.c ****     CapSense_1_debounceCounter[widget] =  CapSense_1_debounce[widget];
 147              		.loc 1 200 0
 148 0054 FA7B     		ldrb	r2, [r7, #15]	@ zero_extendqisi2
 149 0056 F97B     		ldrb	r1, [r7, #15]	@ zero_extendqisi2
 150 0058 40F20003 		movw	r3, #:lower16:CapSense_1_debounce
 151 005c C0F20003 		movt	r3, #:upper16:CapSense_1_debounce
 152 0060 595C     		ldrb	r1, [r3, r1]	@ zero_extendqisi2
 153 0062 40F20003 		movw	r3, #:lower16:CapSense_1_debounceCounter
 154 0066 C0F20003 		movt	r3, #:upper16:CapSense_1_debounceCounter
 155 006a 9954     		strb	r1, [r3, r2]
 201:./Generated_Source/PSoC5/CapSense_1_CSHL.c **** 
 202:./Generated_Source/PSoC5/CapSense_1_CSHL.c ****     
 203:./Generated_Source/PSoC5/CapSense_1_CSHL.c ****     #if ( (CapSense_1_RAW_FILTER_MASK & CapSense_1_MEDIAN_FILTER) || \
 204:./Generated_Source/PSoC5/CapSense_1_CSHL.c ****           (CapSense_1_RAW_FILTER_MASK & CapSense_1_AVERAGING_FILTER) )
 205:./Generated_Source/PSoC5/CapSense_1_CSHL.c ****     
 206:./Generated_Source/PSoC5/CapSense_1_CSHL.c ****         CapSense_1_rawFilterData1[sensor] = CapSense_1_SensorRaw[sensor];
 207:./Generated_Source/PSoC5/CapSense_1_CSHL.c ****         CapSense_1_rawFilterData2[sensor] = CapSense_1_SensorRaw[sensor];
 208:./Generated_Source/PSoC5/CapSense_1_CSHL.c ****     
 209:./Generated_Source/PSoC5/CapSense_1_CSHL.c ****     #elif ( (CapSense_1_RAW_FILTER_MASK & CapSense_1_IIR2_FILTER)   || \
 210:./Generated_Source/PSoC5/CapSense_1_CSHL.c ****             (CapSense_1_RAW_FILTER_MASK & CapSense_1_IIR4_FILTER)   || \
 211:./Generated_Source/PSoC5/CapSense_1_CSHL.c ****             (CapSense_1_RAW_FILTER_MASK & CapSense_1_JITTER_FILTER) || \
 212:./Generated_Source/PSoC5/CapSense_1_CSHL.c ****             (CapSense_1_RAW_FILTER_MASK & CapSense_1_IIR8_FILTER)   || \
 213:./Generated_Source/PSoC5/CapSense_1_CSHL.c ****             (CapSense_1_RAW_FILTER_MASK & CapSense_1_IIR16_FILTER) )
 214:./Generated_Source/PSoC5/CapSense_1_CSHL.c ****             
 215:./Generated_Source/PSoC5/CapSense_1_CSHL.c ****         CapSense_1_rawFilterData1[sensor] = CapSense_1_SensorRaw[sensor];
 156              		.loc 1 215 0
 157 006c FA79     		ldrb	r2, [r7, #7]	@ zero_extendqisi2
 158 006e F979     		ldrb	r1, [r7, #7]	@ zero_extendqisi2
 159 0070 40F20003 		movw	r3, #:lower16:CapSense_1_SensorRaw
 160 0074 C0F20003 		movt	r3, #:upper16:CapSense_1_SensorRaw
 161 0078 33F81110 		ldrh	r1, [r3, r1, lsl #1]
 162 007c 40F20003 		movw	r3, #:lower16:CapSense_1_rawFilterData1
 163 0080 C0F20003 		movt	r3, #:upper16:CapSense_1_rawFilterData1
 164 0084 23F81210 		strh	r1, [r3, r2, lsl #1]	@ movhi
 216:./Generated_Source/PSoC5/CapSense_1_CSHL.c ****     
 217:./Generated_Source/PSoC5/CapSense_1_CSHL.c ****     #else
 218:./Generated_Source/PSoC5/CapSense_1_CSHL.c ****         /* No Raw filters */
 219:./Generated_Source/PSoC5/CapSense_1_CSHL.c ****     #endif  /* End CapSense_1_RAW_FILTER_MASK */
 220:./Generated_Source/PSoC5/CapSense_1_CSHL.c ****     
 221:./Generated_Source/PSoC5/CapSense_1_CSHL.c ****     #if (CapSense_1_TOTAL_GENERICS_COUNT)
 222:./Generated_Source/PSoC5/CapSense_1_CSHL.c ****         /* Exclude generic widget */
 223:./Generated_Source/PSoC5/CapSense_1_CSHL.c ****         }
 224:./Generated_Source/PSoC5/CapSense_1_CSHL.c ****     #endif  /* End CapSense_1_TOTAL_GENERICS_COUNT */
 225:./Generated_Source/PSoC5/CapSense_1_CSHL.c **** }
 165              		.loc 1 225 0
 166 0088 07F11407 		add	r7, r7, #20
 167 008c BD46     		mov	sp, r7
 168 008e 80BC     		pop	{r7}
 169 0090 7047     		bx	lr
 170              		.cfi_endproc
ARM GAS  C:\Users\CHARLI~1\AppData\Local\Temp\ccF9CHT0.s 			page 8


 171              	.LFE0:
 172              		.size	CapSense_1_BaseInit, .-CapSense_1_BaseInit
 173 0092 00BF     		.section	.text.CapSense_1_InitializeSensorBaseline,"ax",%progbits
 174              		.align	2
 175              		.global	CapSense_1_InitializeSensorBaseline
 176              		.thumb
 177              		.thumb_func
 178              		.type	CapSense_1_InitializeSensorBaseline, %function
 179              	CapSense_1_InitializeSensorBaseline:
 180              	.LFB1:
 226:./Generated_Source/PSoC5/CapSense_1_CSHL.c **** 
 227:./Generated_Source/PSoC5/CapSense_1_CSHL.c **** 
 228:./Generated_Source/PSoC5/CapSense_1_CSHL.c **** /*******************************************************************************
 229:./Generated_Source/PSoC5/CapSense_1_CSHL.c **** * Function Name: CapSense_1_InitializeSensorBaseline
 230:./Generated_Source/PSoC5/CapSense_1_CSHL.c **** ********************************************************************************
 231:./Generated_Source/PSoC5/CapSense_1_CSHL.c **** *
 232:./Generated_Source/PSoC5/CapSense_1_CSHL.c **** * Summary:
 233:./Generated_Source/PSoC5/CapSense_1_CSHL.c **** *  Loads the CapSense_1_SensorBaseline[sensor] array element with an 
 234:./Generated_Source/PSoC5/CapSense_1_CSHL.c **** *  initial value by scanning the selected sensor (one channel design) or pair 
 235:./Generated_Source/PSoC5/CapSense_1_CSHL.c **** *  of sensors (two channels designs). The raw count value is copied into the 
 236:./Generated_Source/PSoC5/CapSense_1_CSHL.c **** *  baseline array for each sensor. The raw data filters are initialized if 
 237:./Generated_Source/PSoC5/CapSense_1_CSHL.c **** *  enabled.
 238:./Generated_Source/PSoC5/CapSense_1_CSHL.c **** *
 239:./Generated_Source/PSoC5/CapSense_1_CSHL.c **** * Parameters:
 240:./Generated_Source/PSoC5/CapSense_1_CSHL.c **** *  sensor:  Sensor number.
 241:./Generated_Source/PSoC5/CapSense_1_CSHL.c **** *
 242:./Generated_Source/PSoC5/CapSense_1_CSHL.c **** * Return:
 243:./Generated_Source/PSoC5/CapSense_1_CSHL.c **** *  None
 244:./Generated_Source/PSoC5/CapSense_1_CSHL.c **** *
 245:./Generated_Source/PSoC5/CapSense_1_CSHL.c **** * Reentrant:
 246:./Generated_Source/PSoC5/CapSense_1_CSHL.c **** *  No
 247:./Generated_Source/PSoC5/CapSense_1_CSHL.c **** *
 248:./Generated_Source/PSoC5/CapSense_1_CSHL.c **** *******************************************************************************/
 249:./Generated_Source/PSoC5/CapSense_1_CSHL.c **** void CapSense_1_InitializeSensorBaseline(uint8 sensor)
 250:./Generated_Source/PSoC5/CapSense_1_CSHL.c **** {
 181              		.loc 1 250 0
 182              		.cfi_startproc
 183              		@ args = 0, pretend = 0, frame = 8
 184              		@ frame_needed = 1, uses_anonymous_args = 0
 185 0000 80B5     		push	{r7, lr}
 186              	.LCFI3:
 187              		.cfi_def_cfa_offset 8
 188 0002 82B0     		sub	sp, sp, #8
 189              	.LCFI4:
 190              		.cfi_def_cfa_offset 16
 191 0004 00AF     		add	r7, sp, #0
 192              		.cfi_offset 14, -4
 193              		.cfi_offset 7, -8
 194              	.LCFI5:
 195              		.cfi_def_cfa_register 7
 196 0006 0346     		mov	r3, r0
 197 0008 FB71     		strb	r3, [r7, #7]
 251:./Generated_Source/PSoC5/CapSense_1_CSHL.c ****     /* Scan sensor */
 252:./Generated_Source/PSoC5/CapSense_1_CSHL.c ****     CapSense_1_ScanSensor(sensor);
 198              		.loc 1 252 0
 199 000a FB79     		ldrb	r3, [r7, #7]	@ zero_extendqisi2
 200 000c 1846     		mov	r0, r3
ARM GAS  C:\Users\CHARLI~1\AppData\Local\Temp\ccF9CHT0.s 			page 9


 201 000e FFF7FEFF 		bl	CapSense_1_ScanSensor
 202              	.L4:
 253:./Generated_Source/PSoC5/CapSense_1_CSHL.c ****         while(CapSense_1_IsBusy() != 0u) {;}
 203              		.loc 1 253 0
 204 0012 FFF7FEFF 		bl	CapSense_1_IsBusy
 205 0016 0346     		mov	r3, r0
 206 0018 002B     		cmp	r3, #0
 207 001a FAD1     		bne	.L4
 254:./Generated_Source/PSoC5/CapSense_1_CSHL.c ****     
 255:./Generated_Source/PSoC5/CapSense_1_CSHL.c ****     #if (CapSense_1_DESIGN_TYPE == CapSense_1_ONE_CHANNEL_DESIGN)
 256:./Generated_Source/PSoC5/CapSense_1_CSHL.c ****         /* Initialize Baseline, Signal and debounce counters */       
 257:./Generated_Source/PSoC5/CapSense_1_CSHL.c ****         CapSense_1_BaseInit(sensor);
 208              		.loc 1 257 0
 209 001c FB79     		ldrb	r3, [r7, #7]	@ zero_extendqisi2
 210 001e 1846     		mov	r0, r3
 211 0020 FFF7FEFF 		bl	CapSense_1_BaseInit
 258:./Generated_Source/PSoC5/CapSense_1_CSHL.c ****         
 259:./Generated_Source/PSoC5/CapSense_1_CSHL.c ****     #else
 260:./Generated_Source/PSoC5/CapSense_1_CSHL.c ****     
 261:./Generated_Source/PSoC5/CapSense_1_CSHL.c ****         if(sensor < CapSense_1_TOTAL_SENSOR_COUNT__CH0)
 262:./Generated_Source/PSoC5/CapSense_1_CSHL.c ****         {
 263:./Generated_Source/PSoC5/CapSense_1_CSHL.c ****             /* Initialize Baseline, Signal and debounce counters */ 
 264:./Generated_Source/PSoC5/CapSense_1_CSHL.c ****             CapSense_1_BaseInit(sensor);
 265:./Generated_Source/PSoC5/CapSense_1_CSHL.c ****         }
 266:./Generated_Source/PSoC5/CapSense_1_CSHL.c ****         
 267:./Generated_Source/PSoC5/CapSense_1_CSHL.c ****         if(sensor < CapSense_1_TOTAL_SENSOR_COUNT__CH1)
 268:./Generated_Source/PSoC5/CapSense_1_CSHL.c ****         {
 269:./Generated_Source/PSoC5/CapSense_1_CSHL.c ****             /* Initialize Baseline, Signal and debounce counters */
 270:./Generated_Source/PSoC5/CapSense_1_CSHL.c ****             CapSense_1_BaseInit(sensor + CapSense_1_TOTAL_SENSOR_COUNT__CH0);
 271:./Generated_Source/PSoC5/CapSense_1_CSHL.c ****         }
 272:./Generated_Source/PSoC5/CapSense_1_CSHL.c ****     
 273:./Generated_Source/PSoC5/CapSense_1_CSHL.c ****     #endif  /* End (CapSense_1_DESIGN_TYPE == CapSense_1_ONE_CHANNEL_DESIGN) */
 274:./Generated_Source/PSoC5/CapSense_1_CSHL.c **** }
 212              		.loc 1 274 0
 213 0024 07F10807 		add	r7, r7, #8
 214 0028 BD46     		mov	sp, r7
 215 002a 80BD     		pop	{r7, pc}
 216              		.cfi_endproc
 217              	.LFE1:
 218              		.size	CapSense_1_InitializeSensorBaseline, .-CapSense_1_InitializeSensorBaseline
 219              		.section	.text.CapSense_1_InitializeAllBaselines,"ax",%progbits
 220              		.align	2
 221              		.global	CapSense_1_InitializeAllBaselines
 222              		.thumb
 223              		.thumb_func
 224              		.type	CapSense_1_InitializeAllBaselines, %function
 225              	CapSense_1_InitializeAllBaselines:
 226              	.LFB2:
 275:./Generated_Source/PSoC5/CapSense_1_CSHL.c **** 
 276:./Generated_Source/PSoC5/CapSense_1_CSHL.c **** 
 277:./Generated_Source/PSoC5/CapSense_1_CSHL.c **** /*******************************************************************************
 278:./Generated_Source/PSoC5/CapSense_1_CSHL.c **** * Function Name: CapSense_1_InitializeAllBaselines
 279:./Generated_Source/PSoC5/CapSense_1_CSHL.c **** ********************************************************************************
 280:./Generated_Source/PSoC5/CapSense_1_CSHL.c **** *
 281:./Generated_Source/PSoC5/CapSense_1_CSHL.c **** * Summary:
 282:./Generated_Source/PSoC5/CapSense_1_CSHL.c **** *  Uses the CapSense_1_InitializeSensorBaseline function to loads the 
 283:./Generated_Source/PSoC5/CapSense_1_CSHL.c **** *  CapSense_1_SensorBaseline[] array with an initial values by scanning 
ARM GAS  C:\Users\CHARLI~1\AppData\Local\Temp\ccF9CHT0.s 			page 10


 284:./Generated_Source/PSoC5/CapSense_1_CSHL.c **** *  all sensors. The raw count values are copied into the baseline array for 
 285:./Generated_Source/PSoC5/CapSense_1_CSHL.c **** *  all sensors. The raw data filters are initialized if enabled.
 286:./Generated_Source/PSoC5/CapSense_1_CSHL.c **** *
 287:./Generated_Source/PSoC5/CapSense_1_CSHL.c **** * Parameters:
 288:./Generated_Source/PSoC5/CapSense_1_CSHL.c **** *  None
 289:./Generated_Source/PSoC5/CapSense_1_CSHL.c **** *
 290:./Generated_Source/PSoC5/CapSense_1_CSHL.c **** * Return:
 291:./Generated_Source/PSoC5/CapSense_1_CSHL.c **** *  None
 292:./Generated_Source/PSoC5/CapSense_1_CSHL.c **** *
 293:./Generated_Source/PSoC5/CapSense_1_CSHL.c **** * Reentrant:
 294:./Generated_Source/PSoC5/CapSense_1_CSHL.c **** *  No
 295:./Generated_Source/PSoC5/CapSense_1_CSHL.c **** *
 296:./Generated_Source/PSoC5/CapSense_1_CSHL.c **** *******************************************************************************/
 297:./Generated_Source/PSoC5/CapSense_1_CSHL.c **** void CapSense_1_InitializeAllBaselines(void)
 298:./Generated_Source/PSoC5/CapSense_1_CSHL.c **** {
 227              		.loc 1 298 0
 228              		.cfi_startproc
 229              		@ args = 0, pretend = 0, frame = 8
 230              		@ frame_needed = 1, uses_anonymous_args = 0
 231 0000 80B5     		push	{r7, lr}
 232              	.LCFI6:
 233              		.cfi_def_cfa_offset 8
 234 0002 82B0     		sub	sp, sp, #8
 235              	.LCFI7:
 236              		.cfi_def_cfa_offset 16
 237 0004 00AF     		add	r7, sp, #0
 238              		.cfi_offset 14, -4
 239              		.cfi_offset 7, -8
 240              	.LCFI8:
 241              		.cfi_def_cfa_register 7
 299:./Generated_Source/PSoC5/CapSense_1_CSHL.c ****     uint8 i;
 300:./Generated_Source/PSoC5/CapSense_1_CSHL.c ****     
 301:./Generated_Source/PSoC5/CapSense_1_CSHL.c ****     /* The baseline initialize by sensor of sensor pair */
 302:./Generated_Source/PSoC5/CapSense_1_CSHL.c ****     for(i = 0u; i < CapSense_1_TOTAL_SCANSLOT_COUNT; i++)
 242              		.loc 1 302 0
 243 0006 4FF00003 		mov	r3, #0
 244 000a FB71     		strb	r3, [r7, #7]
 245 000c 07E0     		b	.L7
 246              	.L8:
 303:./Generated_Source/PSoC5/CapSense_1_CSHL.c ****     {
 304:./Generated_Source/PSoC5/CapSense_1_CSHL.c ****         CapSense_1_InitializeSensorBaseline(i);
 247              		.loc 1 304 0
 248 000e FB79     		ldrb	r3, [r7, #7]	@ zero_extendqisi2
 249 0010 1846     		mov	r0, r3
 250 0012 FFF7FEFF 		bl	CapSense_1_InitializeSensorBaseline
 251              		.loc 1 302 0
 252 0016 FB79     		ldrb	r3, [r7, #7]
 253 0018 03F10103 		add	r3, r3, #1
 254 001c FB71     		strb	r3, [r7, #7]
 255              	.L7:
 256 001e FB79     		ldrb	r3, [r7, #7]	@ zero_extendqisi2
 257 0020 002B     		cmp	r3, #0
 258 0022 F4D0     		beq	.L8
 305:./Generated_Source/PSoC5/CapSense_1_CSHL.c ****     }
 306:./Generated_Source/PSoC5/CapSense_1_CSHL.c **** }
 259              		.loc 1 306 0
 260 0024 07F10807 		add	r7, r7, #8
ARM GAS  C:\Users\CHARLI~1\AppData\Local\Temp\ccF9CHT0.s 			page 11


 261 0028 BD46     		mov	sp, r7
 262 002a 80BD     		pop	{r7, pc}
 263              		.cfi_endproc
 264              	.LFE2:
 265              		.size	CapSense_1_InitializeAllBaselines, .-CapSense_1_InitializeAllBaselines
 266              		.section	.text.CapSense_1_UpdateSensorBaseline,"ax",%progbits
 267              		.align	2
 268              		.global	CapSense_1_UpdateSensorBaseline
 269              		.thumb
 270              		.thumb_func
 271              		.type	CapSense_1_UpdateSensorBaseline, %function
 272              	CapSense_1_UpdateSensorBaseline:
 273              	.LFB3:
 307:./Generated_Source/PSoC5/CapSense_1_CSHL.c **** 
 308:./Generated_Source/PSoC5/CapSense_1_CSHL.c **** 
 309:./Generated_Source/PSoC5/CapSense_1_CSHL.c **** #if (CapSense_1_DESIGN_TYPE == CapSense_1_TWO_CHANNELS_DESIGN)
 310:./Generated_Source/PSoC5/CapSense_1_CSHL.c ****     /*******************************************************************************
 311:./Generated_Source/PSoC5/CapSense_1_CSHL.c ****     * Function Name: CapSense_1_InitializeEnabledBaselines
 312:./Generated_Source/PSoC5/CapSense_1_CSHL.c ****     ********************************************************************************
 313:./Generated_Source/PSoC5/CapSense_1_CSHL.c ****     *
 314:./Generated_Source/PSoC5/CapSense_1_CSHL.c ****     * Summary:
 315:./Generated_Source/PSoC5/CapSense_1_CSHL.c ****     *  Scans all enabled widgets and the raw count values are copied into the 
 316:./Generated_Source/PSoC5/CapSense_1_CSHL.c ****     *  baseline array for all sensors enabled in scanning process. Baselines 
 317:./Generated_Source/PSoC5/CapSense_1_CSHL.c ****     *  initialize with zero values for sensors disabled from scanning process. 
 318:./Generated_Source/PSoC5/CapSense_1_CSHL.c ****     *  The raw data filters are initialized if enabled.
 319:./Generated_Source/PSoC5/CapSense_1_CSHL.c ****     *
 320:./Generated_Source/PSoC5/CapSense_1_CSHL.c ****     * Parameters:
 321:./Generated_Source/PSoC5/CapSense_1_CSHL.c ****     *  None
 322:./Generated_Source/PSoC5/CapSense_1_CSHL.c ****     *
 323:./Generated_Source/PSoC5/CapSense_1_CSHL.c ****     * Return:
 324:./Generated_Source/PSoC5/CapSense_1_CSHL.c ****     *  None
 325:./Generated_Source/PSoC5/CapSense_1_CSHL.c ****     *
 326:./Generated_Source/PSoC5/CapSense_1_CSHL.c ****     * Reentrant:
 327:./Generated_Source/PSoC5/CapSense_1_CSHL.c ****     *  No
 328:./Generated_Source/PSoC5/CapSense_1_CSHL.c ****     *
 329:./Generated_Source/PSoC5/CapSense_1_CSHL.c ****     *******************************************************************************/
 330:./Generated_Source/PSoC5/CapSense_1_CSHL.c ****     void CapSense_1_InitializeEnabledBaselines(void)
 331:./Generated_Source/PSoC5/CapSense_1_CSHL.c ****     {
 332:./Generated_Source/PSoC5/CapSense_1_CSHL.c ****         uint8 i;
 333:./Generated_Source/PSoC5/CapSense_1_CSHL.c ****         uint8 pos;
 334:./Generated_Source/PSoC5/CapSense_1_CSHL.c ****         uint8 enMask;
 335:./Generated_Source/PSoC5/CapSense_1_CSHL.c ****         
 336:./Generated_Source/PSoC5/CapSense_1_CSHL.c ****         CapSense_1_ScanEnabledWidgets();
 337:./Generated_Source/PSoC5/CapSense_1_CSHL.c ****         while(CapSense_1_IsBusy() != 0u){;}
 338:./Generated_Source/PSoC5/CapSense_1_CSHL.c ****         
 339:./Generated_Source/PSoC5/CapSense_1_CSHL.c ****         for(i = 0u; i < CapSense_1_TOTAL_SENSOR_COUNT; i++)
 340:./Generated_Source/PSoC5/CapSense_1_CSHL.c ****         {
 341:./Generated_Source/PSoC5/CapSense_1_CSHL.c ****             pos = (i >> 3u);
 342:./Generated_Source/PSoC5/CapSense_1_CSHL.c ****             enMask = 0x01u << (i & 0x07u);
 343:./Generated_Source/PSoC5/CapSense_1_CSHL.c ****             
 344:./Generated_Source/PSoC5/CapSense_1_CSHL.c ****             /* Clear raw data if sensor is disabled from scanning process */
 345:./Generated_Source/PSoC5/CapSense_1_CSHL.c ****             if((CapSense_1_SensorEnableMask[pos] & enMask) == 0u)
 346:./Generated_Source/PSoC5/CapSense_1_CSHL.c ****             {
 347:./Generated_Source/PSoC5/CapSense_1_CSHL.c ****                 CapSense_1_SensorRaw[i] = 0u;
 348:./Generated_Source/PSoC5/CapSense_1_CSHL.c ****             }
 349:./Generated_Source/PSoC5/CapSense_1_CSHL.c ****             
 350:./Generated_Source/PSoC5/CapSense_1_CSHL.c ****             /* Initialize baselines */
ARM GAS  C:\Users\CHARLI~1\AppData\Local\Temp\ccF9CHT0.s 			page 12


 351:./Generated_Source/PSoC5/CapSense_1_CSHL.c ****             CapSense_1_BaseInit(i);
 352:./Generated_Source/PSoC5/CapSense_1_CSHL.c ****         }
 353:./Generated_Source/PSoC5/CapSense_1_CSHL.c ****     }  
 354:./Generated_Source/PSoC5/CapSense_1_CSHL.c **** #endif  /* End (CapSense_1_DESIGN_TYPE == CapSense_1_TWO_CHANNELS_DESIGN) */
 355:./Generated_Source/PSoC5/CapSense_1_CSHL.c **** 
 356:./Generated_Source/PSoC5/CapSense_1_CSHL.c **** 
 357:./Generated_Source/PSoC5/CapSense_1_CSHL.c **** /*******************************************************************************
 358:./Generated_Source/PSoC5/CapSense_1_CSHL.c **** * Function Name: CapSense_1_UpdateSensorBaseline
 359:./Generated_Source/PSoC5/CapSense_1_CSHL.c **** ********************************************************************************
 360:./Generated_Source/PSoC5/CapSense_1_CSHL.c **** *
 361:./Generated_Source/PSoC5/CapSense_1_CSHL.c **** * Summary:
 362:./Generated_Source/PSoC5/CapSense_1_CSHL.c **** *  Updates the CapSense_1_SensorBaseline[sensor] array element using the 
 363:./Generated_Source/PSoC5/CapSense_1_CSHL.c **** *  LP filter with k = 256. The signal calculates the difference of count by 
 364:./Generated_Source/PSoC5/CapSense_1_CSHL.c **** *  subtracting the previous baseline from the current raw count value and stores
 365:./Generated_Source/PSoC5/CapSense_1_CSHL.c **** *  it in CapSense_1_SensorSignal[sensor]. 
 366:./Generated_Source/PSoC5/CapSense_1_CSHL.c **** *  If auto reset option is enabled the baseline updated regards noise threshold. 
 367:./Generated_Source/PSoC5/CapSense_1_CSHL.c **** *  If auto reset option is disabled the baseline stops updating if signal is 
 368:./Generated_Source/PSoC5/CapSense_1_CSHL.c **** *  greater that zero and baseline loads with raw count value if signal is less 
 369:./Generated_Source/PSoC5/CapSense_1_CSHL.c **** *  that noise threshold.
 370:./Generated_Source/PSoC5/CapSense_1_CSHL.c **** *  Raw data filters are applied to the values if enabled before baseline 
 371:./Generated_Source/PSoC5/CapSense_1_CSHL.c **** *  calculation.
 372:./Generated_Source/PSoC5/CapSense_1_CSHL.c **** *
 373:./Generated_Source/PSoC5/CapSense_1_CSHL.c **** * Parameters:
 374:./Generated_Source/PSoC5/CapSense_1_CSHL.c **** *  sensor:  Sensor number.
 375:./Generated_Source/PSoC5/CapSense_1_CSHL.c **** *
 376:./Generated_Source/PSoC5/CapSense_1_CSHL.c **** * Return:
 377:./Generated_Source/PSoC5/CapSense_1_CSHL.c **** *  None
 378:./Generated_Source/PSoC5/CapSense_1_CSHL.c **** *
 379:./Generated_Source/PSoC5/CapSense_1_CSHL.c **** * Global Variables:
 380:./Generated_Source/PSoC5/CapSense_1_CSHL.c **** *  CapSense_1_SensorBaseline[]    - used to store baseline value.
 381:./Generated_Source/PSoC5/CapSense_1_CSHL.c **** *  CapSense_1_SensorBaselineLow[] - used to store fraction byte of 
 382:./Generated_Source/PSoC5/CapSense_1_CSHL.c **** *  baseline value.
 383:./Generated_Source/PSoC5/CapSense_1_CSHL.c **** *  CapSense_1_SensorSignal[]      - used to store diffence between 
 384:./Generated_Source/PSoC5/CapSense_1_CSHL.c **** *  current value of raw data and previous value of baseline.
 385:./Generated_Source/PSoC5/CapSense_1_CSHL.c **** *  CapSense_1_rawFilterData1[]    - used to store previous sample of 
 386:./Generated_Source/PSoC5/CapSense_1_CSHL.c **** *  any enabled raw data filter.
 387:./Generated_Source/PSoC5/CapSense_1_CSHL.c **** *  CapSense_1_rawFilterData2[]    - used to store before previous sample
 388:./Generated_Source/PSoC5/CapSense_1_CSHL.c **** *  of enabled raw data filter. Only required for median or average filters.
 389:./Generated_Source/PSoC5/CapSense_1_CSHL.c **** *
 390:./Generated_Source/PSoC5/CapSense_1_CSHL.c **** * Reentrant:
 391:./Generated_Source/PSoC5/CapSense_1_CSHL.c **** *  No
 392:./Generated_Source/PSoC5/CapSense_1_CSHL.c **** *
 393:./Generated_Source/PSoC5/CapSense_1_CSHL.c **** *******************************************************************************/
 394:./Generated_Source/PSoC5/CapSense_1_CSHL.c ****  void CapSense_1_UpdateSensorBaseline(uint8 sensor)
 395:./Generated_Source/PSoC5/CapSense_1_CSHL.c **** {
 274              		.loc 1 395 0
 275              		.cfi_startproc
 276              		@ args = 0, pretend = 0, frame = 24
 277              		@ frame_needed = 1, uses_anonymous_args = 0
 278 0000 80B5     		push	{r7, lr}
 279              	.LCFI9:
 280              		.cfi_def_cfa_offset 8
 281 0002 86B0     		sub	sp, sp, #24
 282              	.LCFI10:
 283              		.cfi_def_cfa_offset 32
 284 0004 00AF     		add	r7, sp, #0
 285              		.cfi_offset 14, -4
ARM GAS  C:\Users\CHARLI~1\AppData\Local\Temp\ccF9CHT0.s 			page 13


 286              		.cfi_offset 7, -8
 287              	.LCFI11:
 288              		.cfi_def_cfa_register 7
 289 0006 0346     		mov	r3, r0
 290 0008 FB71     		strb	r3, [r7, #7]
 396:./Generated_Source/PSoC5/CapSense_1_CSHL.c ****     uint32 calc;
 397:./Generated_Source/PSoC5/CapSense_1_CSHL.c ****     uint16 tempRaw;
 398:./Generated_Source/PSoC5/CapSense_1_CSHL.c ****     uint16 filteredRawData;
 399:./Generated_Source/PSoC5/CapSense_1_CSHL.c ****     uint8 widget = CapSense_1_widgetNumber[sensor];
 291              		.loc 1 399 0
 292 000a FA79     		ldrb	r2, [r7, #7]	@ zero_extendqisi2
 293 000c 40F20003 		movw	r3, #:lower16:CapSense_1_widgetNumber
 294 0010 C0F20003 		movt	r3, #:upper16:CapSense_1_widgetNumber
 295 0014 9B5C     		ldrb	r3, [r3, r2]
 296 0016 BB75     		strb	r3, [r7, #22]
 400:./Generated_Source/PSoC5/CapSense_1_CSHL.c ****     uint8 noiseThreshold = CapSense_1_noiseThreshold[widget];
 297              		.loc 1 400 0
 298 0018 BA7D     		ldrb	r2, [r7, #22]	@ zero_extendqisi2
 299 001a 40F20003 		movw	r3, #:lower16:CapSense_1_noiseThreshold
 300 001e C0F20003 		movt	r3, #:upper16:CapSense_1_noiseThreshold
 301 0022 9B5C     		ldrb	r3, [r3, r2]
 302 0024 FB75     		strb	r3, [r7, #23]
 401:./Generated_Source/PSoC5/CapSense_1_CSHL.c ****     
 402:./Generated_Source/PSoC5/CapSense_1_CSHL.c ****     #if (CapSense_1_TOTAL_GENERICS_COUNT)
 403:./Generated_Source/PSoC5/CapSense_1_CSHL.c ****         /* Exclude generic widget */
 404:./Generated_Source/PSoC5/CapSense_1_CSHL.c ****         if(widget < CapSense_1_END_OF_WIDGETS_INDEX)
 405:./Generated_Source/PSoC5/CapSense_1_CSHL.c ****         {
 406:./Generated_Source/PSoC5/CapSense_1_CSHL.c ****     #endif  /* End CapSense_1_TOTAL_GENERICS_COUNT */
 407:./Generated_Source/PSoC5/CapSense_1_CSHL.c ****     
 408:./Generated_Source/PSoC5/CapSense_1_CSHL.c ****     filteredRawData = CapSense_1_SensorRaw[sensor];
 303              		.loc 1 408 0
 304 0026 FA79     		ldrb	r2, [r7, #7]	@ zero_extendqisi2
 305 0028 40F20003 		movw	r3, #:lower16:CapSense_1_SensorRaw
 306 002c C0F20003 		movt	r3, #:upper16:CapSense_1_SensorRaw
 307 0030 33F81230 		ldrh	r3, [r3, r2, lsl #1]	@ movhi
 308 0034 BB82     		strh	r3, [r7, #20]	@ movhi
 409:./Generated_Source/PSoC5/CapSense_1_CSHL.c ****     
 410:./Generated_Source/PSoC5/CapSense_1_CSHL.c ****     #if (CapSense_1_RAW_FILTER_MASK & CapSense_1_MEDIAN_FILTER)
 411:./Generated_Source/PSoC5/CapSense_1_CSHL.c ****         tempRaw = filteredRawData;
 412:./Generated_Source/PSoC5/CapSense_1_CSHL.c ****         filteredRawData = CapSense_1_MedianFilter(filteredRawData, CapSense_1_rawFilterData1[sensor
 413:./Generated_Source/PSoC5/CapSense_1_CSHL.c ****                                                         CapSense_1_rawFilterData2[sensor]);
 414:./Generated_Source/PSoC5/CapSense_1_CSHL.c ****         CapSense_1_rawFilterData2[sensor] = CapSense_1_rawFilterData1[sensor];
 415:./Generated_Source/PSoC5/CapSense_1_CSHL.c ****         CapSense_1_rawFilterData1[sensor] = tempRaw;
 416:./Generated_Source/PSoC5/CapSense_1_CSHL.c ****         
 417:./Generated_Source/PSoC5/CapSense_1_CSHL.c ****     #elif (CapSense_1_RAW_FILTER_MASK & CapSense_1_AVERAGING_FILTER)
 418:./Generated_Source/PSoC5/CapSense_1_CSHL.c ****         tempRaw = filteredRawData;
 419:./Generated_Source/PSoC5/CapSense_1_CSHL.c ****         filteredRawData = CapSense_1_AveragingFilter(filteredRawData, CapSense_1_rawFilterData1[sen
 420:./Generated_Source/PSoC5/CapSense_1_CSHL.c ****                                                            CapSense_1_rawFilterData2[sensor]);
 421:./Generated_Source/PSoC5/CapSense_1_CSHL.c ****         CapSense_1_rawFilterData2[sensor] = CapSense_1_rawFilterData1[sensor];
 422:./Generated_Source/PSoC5/CapSense_1_CSHL.c ****         CapSense_1_rawFilterData1[sensor] = tempRaw;
 423:./Generated_Source/PSoC5/CapSense_1_CSHL.c ****         
 424:./Generated_Source/PSoC5/CapSense_1_CSHL.c ****     #elif (CapSense_1_RAW_FILTER_MASK & CapSense_1_IIR2_FILTER)
 425:./Generated_Source/PSoC5/CapSense_1_CSHL.c ****         filteredRawData = CapSense_1_IIR2Filter(filteredRawData, CapSense_1_rawFilterData1[sensor])
 426:./Generated_Source/PSoC5/CapSense_1_CSHL.c ****         CapSense_1_rawFilterData1[sensor] = filteredRawData;
 427:./Generated_Source/PSoC5/CapSense_1_CSHL.c ****         
 428:./Generated_Source/PSoC5/CapSense_1_CSHL.c ****     #elif (CapSense_1_RAW_FILTER_MASK & CapSense_1_IIR4_FILTER)
 429:./Generated_Source/PSoC5/CapSense_1_CSHL.c ****         filteredRawData = CapSense_1_IIR4Filter(filteredRawData, CapSense_1_rawFilterData1[sensor])
ARM GAS  C:\Users\CHARLI~1\AppData\Local\Temp\ccF9CHT0.s 			page 14


 309              		.loc 1 429 0
 310 0036 FA79     		ldrb	r2, [r7, #7]	@ zero_extendqisi2
 311 0038 40F20003 		movw	r3, #:lower16:CapSense_1_rawFilterData1
 312 003c C0F20003 		movt	r3, #:upper16:CapSense_1_rawFilterData1
 313 0040 33F81230 		ldrh	r3, [r3, r2, lsl #1]
 314 0044 BA8A     		ldrh	r2, [r7, #20]
 315 0046 1046     		mov	r0, r2
 316 0048 1946     		mov	r1, r3
 317 004a FFF7FEFF 		bl	CapSense_1_IIR4Filter
 318 004e 0346     		mov	r3, r0
 319 0050 BB82     		strh	r3, [r7, #20]	@ movhi
 430:./Generated_Source/PSoC5/CapSense_1_CSHL.c ****         CapSense_1_rawFilterData1[sensor] = filteredRawData;
 320              		.loc 1 430 0
 321 0052 FA79     		ldrb	r2, [r7, #7]	@ zero_extendqisi2
 322 0054 40F20003 		movw	r3, #:lower16:CapSense_1_rawFilterData1
 323 0058 C0F20003 		movt	r3, #:upper16:CapSense_1_rawFilterData1
 324 005c B98A     		ldrh	r1, [r7, #20]	@ movhi
 325 005e 23F81210 		strh	r1, [r3, r2, lsl #1]	@ movhi
 431:./Generated_Source/PSoC5/CapSense_1_CSHL.c ****             
 432:./Generated_Source/PSoC5/CapSense_1_CSHL.c ****     #elif (CapSense_1_RAW_FILTER_MASK & CapSense_1_JITTER_FILTER)
 433:./Generated_Source/PSoC5/CapSense_1_CSHL.c ****         filteredRawData = CapSense_1_JitterFilter(filteredRawData, CapSense_1_rawFilterData1[sensor
 434:./Generated_Source/PSoC5/CapSense_1_CSHL.c ****         CapSense_1_rawFilterData1[sensor] = filteredRawData;
 435:./Generated_Source/PSoC5/CapSense_1_CSHL.c ****         
 436:./Generated_Source/PSoC5/CapSense_1_CSHL.c ****     #elif (CapSense_1_RAW_FILTER_MASK & CapSense_1_IIR8_FILTER)
 437:./Generated_Source/PSoC5/CapSense_1_CSHL.c ****         filteredRawData = CapSense_1_IIR8Filter(filteredRawData, CapSense_1_rawFilterData1[sensor])
 438:./Generated_Source/PSoC5/CapSense_1_CSHL.c ****         CapSense_1_rawFilterData1[sensor] = filteredRawData;
 439:./Generated_Source/PSoC5/CapSense_1_CSHL.c ****         
 440:./Generated_Source/PSoC5/CapSense_1_CSHL.c ****     #elif (CapSense_1_RAW_FILTER_MASK & CapSense_1_IIR16_FILTER)
 441:./Generated_Source/PSoC5/CapSense_1_CSHL.c ****         filteredRawData = CapSense_1_IIR16Filter(filteredRawData, CapSense_1_rawFilterData1[sensor]
 442:./Generated_Source/PSoC5/CapSense_1_CSHL.c ****         CapSense_1_rawFilterData1[sensor] = filteredRawData;
 443:./Generated_Source/PSoC5/CapSense_1_CSHL.c ****         
 444:./Generated_Source/PSoC5/CapSense_1_CSHL.c ****     #else
 445:./Generated_Source/PSoC5/CapSense_1_CSHL.c ****         /* No Raw filters */
 446:./Generated_Source/PSoC5/CapSense_1_CSHL.c ****     #endif  /* End CapSense_1_RAW_FILTER_MASK */
 447:./Generated_Source/PSoC5/CapSense_1_CSHL.c ****     
 448:./Generated_Source/PSoC5/CapSense_1_CSHL.c ****     #if (CapSense_1_TUNING_METHOD == CapSense_1_AUTO_TUNING)
 449:./Generated_Source/PSoC5/CapSense_1_CSHL.c ****         CapSense_1_CalculateThresholds(sensor);
 450:./Generated_Source/PSoC5/CapSense_1_CSHL.c ****     #endif /* End (CapSense_1_TUNING_METHOD == CapSense_1_AUTO_TUNING) */
 451:./Generated_Source/PSoC5/CapSense_1_CSHL.c ****     
 452:./Generated_Source/PSoC5/CapSense_1_CSHL.c ****     /* Baseline calculation */
 453:./Generated_Source/PSoC5/CapSense_1_CSHL.c ****     #if (CapSense_1_AUTO_RESET == CapSense_1_AUTO_RESET_DISABLE)
 454:./Generated_Source/PSoC5/CapSense_1_CSHL.c ****         
 455:./Generated_Source/PSoC5/CapSense_1_CSHL.c ****         /* Calculate difference RawData[cur] - Baseline[prev] */
 456:./Generated_Source/PSoC5/CapSense_1_CSHL.c ****         if(filteredRawData >= CapSense_1_SensorBaseline[sensor])
 326              		.loc 1 456 0
 327 0062 FA79     		ldrb	r2, [r7, #7]	@ zero_extendqisi2
 328 0064 40F20003 		movw	r3, #:lower16:CapSense_1_SensorBaseline
 329 0068 C0F20003 		movt	r3, #:upper16:CapSense_1_SensorBaseline
 330 006c 33F81230 		ldrh	r3, [r3, r2, lsl #1]
 331 0070 BA8A     		ldrh	r2, [r7, #20]
 332 0072 9A42     		cmp	r2, r3
 333 0074 0ED3     		bcc	.L11
 457:./Generated_Source/PSoC5/CapSense_1_CSHL.c ****         {
 458:./Generated_Source/PSoC5/CapSense_1_CSHL.c ****             tempRaw = filteredRawData - CapSense_1_SensorBaseline[sensor];
 334              		.loc 1 458 0
 335 0076 FA79     		ldrb	r2, [r7, #7]	@ zero_extendqisi2
 336 0078 40F20003 		movw	r3, #:lower16:CapSense_1_SensorBaseline
ARM GAS  C:\Users\CHARLI~1\AppData\Local\Temp\ccF9CHT0.s 			page 15


 337 007c C0F20003 		movt	r3, #:upper16:CapSense_1_SensorBaseline
 338 0080 33F81230 		ldrh	r3, [r3, r2, lsl #1]
 339 0084 BA8A     		ldrh	r2, [r7, #20]	@ movhi
 340 0086 C3EB0203 		rsb	r3, r3, r2
 341 008a 7B82     		strh	r3, [r7, #18]	@ movhi
 459:./Generated_Source/PSoC5/CapSense_1_CSHL.c ****             widget = 1u;        /* Positive difference */
 342              		.loc 1 459 0
 343 008c 4FF00103 		mov	r3, #1
 344 0090 BB75     		strb	r3, [r7, #22]
 345 0092 0DE0     		b	.L12
 346              	.L11:
 460:./Generated_Source/PSoC5/CapSense_1_CSHL.c ****         }
 461:./Generated_Source/PSoC5/CapSense_1_CSHL.c ****         else
 462:./Generated_Source/PSoC5/CapSense_1_CSHL.c ****         {
 463:./Generated_Source/PSoC5/CapSense_1_CSHL.c ****             tempRaw = CapSense_1_SensorBaseline[sensor] - filteredRawData;
 347              		.loc 1 463 0
 348 0094 FA79     		ldrb	r2, [r7, #7]	@ zero_extendqisi2
 349 0096 40F20003 		movw	r3, #:lower16:CapSense_1_SensorBaseline
 350 009a C0F20003 		movt	r3, #:upper16:CapSense_1_SensorBaseline
 351 009e 33F81220 		ldrh	r2, [r3, r2, lsl #1]
 352 00a2 BB8A     		ldrh	r3, [r7, #20]	@ movhi
 353 00a4 C3EB0203 		rsb	r3, r3, r2
 354 00a8 7B82     		strh	r3, [r7, #18]	@ movhi
 464:./Generated_Source/PSoC5/CapSense_1_CSHL.c ****             widget = 0u;        /* Negative difference */
 355              		.loc 1 464 0
 356 00aa 4FF00003 		mov	r3, #0
 357 00ae BB75     		strb	r3, [r7, #22]
 358              	.L12:
 465:./Generated_Source/PSoC5/CapSense_1_CSHL.c ****         }
 466:./Generated_Source/PSoC5/CapSense_1_CSHL.c ****         
 467:./Generated_Source/PSoC5/CapSense_1_CSHL.c ****         /* Update Baseline if lower that noiseThreshold */
 468:./Generated_Source/PSoC5/CapSense_1_CSHL.c ****         if (tempRaw <= (uint16) noiseThreshold)
 359              		.loc 1 468 0
 360 00b0 FB7D     		ldrb	r3, [r7, #23]	@ zero_extendqisi2
 361 00b2 7A8A     		ldrh	r2, [r7, #18]
 362 00b4 9A42     		cmp	r2, r3
 363 00b6 3ED8     		bhi	.L13
 469:./Generated_Source/PSoC5/CapSense_1_CSHL.c ****         {
 470:./Generated_Source/PSoC5/CapSense_1_CSHL.c ****             /* Make full Baseline 23 bits */
 471:./Generated_Source/PSoC5/CapSense_1_CSHL.c ****             calc = (uint32) CapSense_1_SensorBaseline[sensor] << 8u;
 364              		.loc 1 471 0
 365 00b8 FA79     		ldrb	r2, [r7, #7]	@ zero_extendqisi2
 366 00ba 40F20003 		movw	r3, #:lower16:CapSense_1_SensorBaseline
 367 00be C0F20003 		movt	r3, #:upper16:CapSense_1_SensorBaseline
 368 00c2 33F81230 		ldrh	r3, [r3, r2, lsl #1]
 369 00c6 4FEA0323 		lsl	r3, r3, #8
 370 00ca FB60     		str	r3, [r7, #12]
 472:./Generated_Source/PSoC5/CapSense_1_CSHL.c ****             calc |= (uint32) CapSense_1_SensorBaselineLow[sensor];
 371              		.loc 1 472 0
 372 00cc FA79     		ldrb	r2, [r7, #7]	@ zero_extendqisi2
 373 00ce 40F20003 		movw	r3, #:lower16:CapSense_1_SensorBaselineLow
 374 00d2 C0F20003 		movt	r3, #:upper16:CapSense_1_SensorBaselineLow
 375 00d6 9B5C     		ldrb	r3, [r3, r2]	@ zero_extendqisi2
 376 00d8 FA68     		ldr	r2, [r7, #12]
 377 00da 42EA0303 		orr	r3, r2, r3
 378 00de FB60     		str	r3, [r7, #12]
 473:./Generated_Source/PSoC5/CapSense_1_CSHL.c ****             
ARM GAS  C:\Users\CHARLI~1\AppData\Local\Temp\ccF9CHT0.s 			page 16


 474:./Generated_Source/PSoC5/CapSense_1_CSHL.c ****             /* Add Raw Data to Baseline */
 475:./Generated_Source/PSoC5/CapSense_1_CSHL.c ****             calc += filteredRawData;
 379              		.loc 1 475 0
 380 00e0 BB8A     		ldrh	r3, [r7, #20]
 381 00e2 FA68     		ldr	r2, [r7, #12]
 382 00e4 1344     		add	r3, r2, r3
 383 00e6 FB60     		str	r3, [r7, #12]
 476:./Generated_Source/PSoC5/CapSense_1_CSHL.c ****             
 477:./Generated_Source/PSoC5/CapSense_1_CSHL.c ****             /* Sub the high Baseline */
 478:./Generated_Source/PSoC5/CapSense_1_CSHL.c ****             calc -= CapSense_1_SensorBaseline[sensor];
 384              		.loc 1 478 0
 385 00e8 FA79     		ldrb	r2, [r7, #7]	@ zero_extendqisi2
 386 00ea 40F20003 		movw	r3, #:lower16:CapSense_1_SensorBaseline
 387 00ee C0F20003 		movt	r3, #:upper16:CapSense_1_SensorBaseline
 388 00f2 33F81230 		ldrh	r3, [r3, r2, lsl #1]
 389 00f6 FA68     		ldr	r2, [r7, #12]
 390 00f8 C3EB0203 		rsb	r3, r3, r2
 391 00fc FB60     		str	r3, [r7, #12]
 479:./Generated_Source/PSoC5/CapSense_1_CSHL.c ****             
 480:./Generated_Source/PSoC5/CapSense_1_CSHL.c ****             /* Put Baseline and BaselineLow */
 481:./Generated_Source/PSoC5/CapSense_1_CSHL.c ****             CapSense_1_SensorBaseline[sensor] = ((uint16) (calc >> 8u));
 392              		.loc 1 481 0
 393 00fe FA79     		ldrb	r2, [r7, #7]	@ zero_extendqisi2
 394 0100 FB68     		ldr	r3, [r7, #12]
 395 0102 4FEA1323 		lsr	r3, r3, #8
 396 0106 99B2     		uxth	r1, r3
 397 0108 40F20003 		movw	r3, #:lower16:CapSense_1_SensorBaseline
 398 010c C0F20003 		movt	r3, #:upper16:CapSense_1_SensorBaseline
 399 0110 23F81210 		strh	r1, [r3, r2, lsl #1]	@ movhi
 482:./Generated_Source/PSoC5/CapSense_1_CSHL.c ****             CapSense_1_SensorBaselineLow[sensor] = ((uint8) calc);
 400              		.loc 1 482 0
 401 0114 FA79     		ldrb	r2, [r7, #7]	@ zero_extendqisi2
 402 0116 FB68     		ldr	r3, [r7, #12]
 403 0118 D9B2     		uxtb	r1, r3
 404 011a 40F20003 		movw	r3, #:lower16:CapSense_1_SensorBaselineLow
 405 011e C0F20003 		movt	r3, #:upper16:CapSense_1_SensorBaselineLow
 406 0122 9954     		strb	r1, [r3, r2]
 483:./Generated_Source/PSoC5/CapSense_1_CSHL.c ****             
 484:./Generated_Source/PSoC5/CapSense_1_CSHL.c ****             /* Signal is zero */
 485:./Generated_Source/PSoC5/CapSense_1_CSHL.c ****             CapSense_1_SensorSignal[sensor] = 0u;
 407              		.loc 1 485 0
 408 0124 FA79     		ldrb	r2, [r7, #7]	@ zero_extendqisi2
 409 0126 40F20003 		movw	r3, #:lower16:CapSense_1_SensorSignal
 410 012a C0F20003 		movt	r3, #:upper16:CapSense_1_SensorSignal
 411 012e 4FF00001 		mov	r1, #0
 412 0132 9954     		strb	r1, [r3, r2]
 413 0134 2FE0     		b	.L18
 414              	.L13:
 486:./Generated_Source/PSoC5/CapSense_1_CSHL.c ****         }
 487:./Generated_Source/PSoC5/CapSense_1_CSHL.c ****         /* Calculate Signal if possitive difference > noiseThreshold */
 488:./Generated_Source/PSoC5/CapSense_1_CSHL.c ****         else if (widget != 0u)
 415              		.loc 1 488 0
 416 0136 BB7D     		ldrb	r3, [r7, #22]	@ zero_extendqisi2
 417 0138 002B     		cmp	r3, #0
 418 013a 14D0     		beq	.L15
 489:./Generated_Source/PSoC5/CapSense_1_CSHL.c ****         {
 490:./Generated_Source/PSoC5/CapSense_1_CSHL.c ****             #if (CapSense_1_SIGNAL_SIZE == CapSense_1_SIGNAL_SIZE_UINT8)
ARM GAS  C:\Users\CHARLI~1\AppData\Local\Temp\ccF9CHT0.s 			page 17


 491:./Generated_Source/PSoC5/CapSense_1_CSHL.c ****                 /* Over flow defence for uint8 */
 492:./Generated_Source/PSoC5/CapSense_1_CSHL.c ****                 if (tempRaw > 0xFFu)
 419              		.loc 1 492 0
 420 013c 7B8A     		ldrh	r3, [r7, #18]
 421 013e FF2B     		cmp	r3, #255
 422 0140 08D9     		bls	.L16
 493:./Generated_Source/PSoC5/CapSense_1_CSHL.c ****                 {
 494:./Generated_Source/PSoC5/CapSense_1_CSHL.c ****                     CapSense_1_SensorSignal[sensor] = 0xFFu;
 423              		.loc 1 494 0
 424 0142 FA79     		ldrb	r2, [r7, #7]	@ zero_extendqisi2
 425 0144 40F20003 		movw	r3, #:lower16:CapSense_1_SensorSignal
 426 0148 C0F20003 		movt	r3, #:upper16:CapSense_1_SensorSignal
 427 014c 4FF0FF31 		mov	r1, #-1
 428 0150 9954     		strb	r1, [r3, r2]
 495:./Generated_Source/PSoC5/CapSense_1_CSHL.c ****                 }    
 496:./Generated_Source/PSoC5/CapSense_1_CSHL.c ****                 else 
 497:./Generated_Source/PSoC5/CapSense_1_CSHL.c ****                 {
 498:./Generated_Source/PSoC5/CapSense_1_CSHL.c ****                     CapSense_1_SensorSignal[sensor] = ((uint8) tempRaw);
 429              		.loc 1 498 0
 430 0152 20E0     		b	.L18
 431              	.L16:
 432 0154 FA79     		ldrb	r2, [r7, #7]	@ zero_extendqisi2
 433 0156 7B8A     		ldrh	r3, [r7, #18]	@ movhi
 434 0158 D9B2     		uxtb	r1, r3
 435 015a 40F20003 		movw	r3, #:lower16:CapSense_1_SensorSignal
 436 015e C0F20003 		movt	r3, #:upper16:CapSense_1_SensorSignal
 437 0162 9954     		strb	r1, [r3, r2]
 438 0164 17E0     		b	.L18
 439              	.L15:
 499:./Generated_Source/PSoC5/CapSense_1_CSHL.c ****                 }
 500:./Generated_Source/PSoC5/CapSense_1_CSHL.c ****             #else
 501:./Generated_Source/PSoC5/CapSense_1_CSHL.c ****                 CapSense_1_SensorSignal[sensor] = ((uint16) tempRaw);
 502:./Generated_Source/PSoC5/CapSense_1_CSHL.c ****                 
 503:./Generated_Source/PSoC5/CapSense_1_CSHL.c ****             #endif  /* End CapSense_1_SIGNAL_SIZE */
 504:./Generated_Source/PSoC5/CapSense_1_CSHL.c ****         }
 505:./Generated_Source/PSoC5/CapSense_1_CSHL.c ****         /* Reinitialize if negative difference > noiseThreshold */
 506:./Generated_Source/PSoC5/CapSense_1_CSHL.c ****         else
 507:./Generated_Source/PSoC5/CapSense_1_CSHL.c ****         {
 508:./Generated_Source/PSoC5/CapSense_1_CSHL.c ****             /* Baseline and BaselineLow re-init */
 509:./Generated_Source/PSoC5/CapSense_1_CSHL.c ****             CapSense_1_SensorBaseline[sensor] = filteredRawData;
 440              		.loc 1 509 0
 441 0166 FA79     		ldrb	r2, [r7, #7]	@ zero_extendqisi2
 442 0168 40F20003 		movw	r3, #:lower16:CapSense_1_SensorBaseline
 443 016c C0F20003 		movt	r3, #:upper16:CapSense_1_SensorBaseline
 444 0170 B98A     		ldrh	r1, [r7, #20]	@ movhi
 445 0172 23F81210 		strh	r1, [r3, r2, lsl #1]	@ movhi
 510:./Generated_Source/PSoC5/CapSense_1_CSHL.c ****             CapSense_1_SensorBaselineLow[sensor] = 0u;
 446              		.loc 1 510 0
 447 0176 FA79     		ldrb	r2, [r7, #7]	@ zero_extendqisi2
 448 0178 40F20003 		movw	r3, #:lower16:CapSense_1_SensorBaselineLow
 449 017c C0F20003 		movt	r3, #:upper16:CapSense_1_SensorBaselineLow
 450 0180 4FF00001 		mov	r1, #0
 451 0184 9954     		strb	r1, [r3, r2]
 511:./Generated_Source/PSoC5/CapSense_1_CSHL.c ****             
 512:./Generated_Source/PSoC5/CapSense_1_CSHL.c ****             /* Signal is zero */
 513:./Generated_Source/PSoC5/CapSense_1_CSHL.c ****             CapSense_1_SensorSignal[sensor] = 0u;
 452              		.loc 1 513 0
ARM GAS  C:\Users\CHARLI~1\AppData\Local\Temp\ccF9CHT0.s 			page 18


 453 0186 FA79     		ldrb	r2, [r7, #7]	@ zero_extendqisi2
 454 0188 40F20003 		movw	r3, #:lower16:CapSense_1_SensorSignal
 455 018c C0F20003 		movt	r3, #:upper16:CapSense_1_SensorSignal
 456 0190 4FF00001 		mov	r1, #0
 457 0194 9954     		strb	r1, [r3, r2]
 458              	.L18:
 514:./Generated_Source/PSoC5/CapSense_1_CSHL.c ****         }
 515:./Generated_Source/PSoC5/CapSense_1_CSHL.c ****     
 516:./Generated_Source/PSoC5/CapSense_1_CSHL.c ****     #else
 517:./Generated_Source/PSoC5/CapSense_1_CSHL.c ****         /* Calculate difference RawData[cur] - Baseline[prev] */
 518:./Generated_Source/PSoC5/CapSense_1_CSHL.c ****         if(filteredRawData >= CapSense_1_SensorBaseline[sensor])
 519:./Generated_Source/PSoC5/CapSense_1_CSHL.c ****         {
 520:./Generated_Source/PSoC5/CapSense_1_CSHL.c ****             tempRaw = filteredRawData - CapSense_1_SensorBaseline[sensor];
 521:./Generated_Source/PSoC5/CapSense_1_CSHL.c ****             widget = 1u;    /* Calculate the Signal */
 522:./Generated_Source/PSoC5/CapSense_1_CSHL.c ****         }
 523:./Generated_Source/PSoC5/CapSense_1_CSHL.c ****         else
 524:./Generated_Source/PSoC5/CapSense_1_CSHL.c ****         {
 525:./Generated_Source/PSoC5/CapSense_1_CSHL.c ****             tempRaw = CapSense_1_SensorBaseline[sensor] - filteredRawData;
 526:./Generated_Source/PSoC5/CapSense_1_CSHL.c ****             widget = 0u;    /* Do NOT calculate the Signal */
 527:./Generated_Source/PSoC5/CapSense_1_CSHL.c ****         }
 528:./Generated_Source/PSoC5/CapSense_1_CSHL.c ****         
 529:./Generated_Source/PSoC5/CapSense_1_CSHL.c ****         if((tempRaw > (uint16) noiseThreshold) && (widget != 0u))
 530:./Generated_Source/PSoC5/CapSense_1_CSHL.c ****         {
 531:./Generated_Source/PSoC5/CapSense_1_CSHL.c ****             #if (CapSense_1_SIGNAL_SIZE == CapSense_1_SIGNAL_SIZE_UINT8)
 532:./Generated_Source/PSoC5/CapSense_1_CSHL.c ****                 /* Over flow defence for uint8 */
 533:./Generated_Source/PSoC5/CapSense_1_CSHL.c ****                 if (tempRaw > 0xFFu)
 534:./Generated_Source/PSoC5/CapSense_1_CSHL.c ****                 {
 535:./Generated_Source/PSoC5/CapSense_1_CSHL.c ****                     CapSense_1_SensorSignal[sensor] = 0xFFu;
 536:./Generated_Source/PSoC5/CapSense_1_CSHL.c ****                 }    
 537:./Generated_Source/PSoC5/CapSense_1_CSHL.c ****                 else 
 538:./Generated_Source/PSoC5/CapSense_1_CSHL.c ****                 {
 539:./Generated_Source/PSoC5/CapSense_1_CSHL.c ****                     CapSense_1_SensorSignal[sensor] = ((uint8) tempRaw);
 540:./Generated_Source/PSoC5/CapSense_1_CSHL.c ****                 }
 541:./Generated_Source/PSoC5/CapSense_1_CSHL.c ****             #else
 542:./Generated_Source/PSoC5/CapSense_1_CSHL.c ****                 CapSense_1_SensorSignal[sensor] = ((uint16) tempRaw);
 543:./Generated_Source/PSoC5/CapSense_1_CSHL.c ****                 
 544:./Generated_Source/PSoC5/CapSense_1_CSHL.c ****             #endif  /* End CapSense_1_SIGNAL_SIZE */
 545:./Generated_Source/PSoC5/CapSense_1_CSHL.c ****         }
 546:./Generated_Source/PSoC5/CapSense_1_CSHL.c ****         else
 547:./Generated_Source/PSoC5/CapSense_1_CSHL.c ****         {
 548:./Generated_Source/PSoC5/CapSense_1_CSHL.c ****             /* Signal is zero */
 549:./Generated_Source/PSoC5/CapSense_1_CSHL.c ****             CapSense_1_SensorSignal[sensor] = 0u;
 550:./Generated_Source/PSoC5/CapSense_1_CSHL.c ****         }
 551:./Generated_Source/PSoC5/CapSense_1_CSHL.c ****         
 552:./Generated_Source/PSoC5/CapSense_1_CSHL.c ****         /* Update Baseline */
 553:./Generated_Source/PSoC5/CapSense_1_CSHL.c ****         /* Make full Baseline 23 bits */
 554:./Generated_Source/PSoC5/CapSense_1_CSHL.c ****         calc = (uint32) CapSense_1_SensorBaseline[sensor] << 8u;
 555:./Generated_Source/PSoC5/CapSense_1_CSHL.c ****         calc |= (uint32) CapSense_1_SensorBaselineLow[sensor];
 556:./Generated_Source/PSoC5/CapSense_1_CSHL.c ****         
 557:./Generated_Source/PSoC5/CapSense_1_CSHL.c ****         /* Add Raw Data to Baseline */
 558:./Generated_Source/PSoC5/CapSense_1_CSHL.c ****         calc += filteredRawData;
 559:./Generated_Source/PSoC5/CapSense_1_CSHL.c ****         
 560:./Generated_Source/PSoC5/CapSense_1_CSHL.c ****         /* Sub the high Baseline */
 561:./Generated_Source/PSoC5/CapSense_1_CSHL.c ****         calc -= CapSense_1_SensorBaseline[sensor];
 562:./Generated_Source/PSoC5/CapSense_1_CSHL.c ****         
 563:./Generated_Source/PSoC5/CapSense_1_CSHL.c ****         /* Put Baseline and BaselineLow */
 564:./Generated_Source/PSoC5/CapSense_1_CSHL.c ****         CapSense_1_SensorBaseline[sensor] = ((uint16) (calc >> 8u));
ARM GAS  C:\Users\CHARLI~1\AppData\Local\Temp\ccF9CHT0.s 			page 19


 565:./Generated_Source/PSoC5/CapSense_1_CSHL.c ****         CapSense_1_SensorBaselineLow[sensor] = ((uint8) calc);
 566:./Generated_Source/PSoC5/CapSense_1_CSHL.c ****      
 567:./Generated_Source/PSoC5/CapSense_1_CSHL.c ****     #endif  /* End (CapSense_1_AUTO_RESET == CapSense_1_AUTO_RESET_DISABLE) */
 568:./Generated_Source/PSoC5/CapSense_1_CSHL.c ****     
 569:./Generated_Source/PSoC5/CapSense_1_CSHL.c ****     #if (CapSense_1_TOTAL_GENERICS_COUNT)
 570:./Generated_Source/PSoC5/CapSense_1_CSHL.c ****         /* Exclude generic widget */
 571:./Generated_Source/PSoC5/CapSense_1_CSHL.c ****         }
 572:./Generated_Source/PSoC5/CapSense_1_CSHL.c ****     #endif  /* End CapSense_1_TOTAL_GENERICS_COUNT */
 573:./Generated_Source/PSoC5/CapSense_1_CSHL.c **** }
 459              		.loc 1 573 0
 460 0196 07F11807 		add	r7, r7, #24
 461 019a BD46     		mov	sp, r7
 462 019c 80BD     		pop	{r7, pc}
 463              		.cfi_endproc
 464              	.LFE3:
 465              		.size	CapSense_1_UpdateSensorBaseline, .-CapSense_1_UpdateSensorBaseline
 466 019e 00BF     		.section	.text.CapSense_1_UpdateEnabledBaselines,"ax",%progbits
 467              		.align	2
 468              		.global	CapSense_1_UpdateEnabledBaselines
 469              		.thumb
 470              		.thumb_func
 471              		.type	CapSense_1_UpdateEnabledBaselines, %function
 472              	CapSense_1_UpdateEnabledBaselines:
 473              	.LFB4:
 574:./Generated_Source/PSoC5/CapSense_1_CSHL.c **** 
 575:./Generated_Source/PSoC5/CapSense_1_CSHL.c **** 
 576:./Generated_Source/PSoC5/CapSense_1_CSHL.c **** /*******************************************************************************
 577:./Generated_Source/PSoC5/CapSense_1_CSHL.c **** * Function Name: CapSense_1_UpdateEnabledBaselines
 578:./Generated_Source/PSoC5/CapSense_1_CSHL.c **** ********************************************************************************
 579:./Generated_Source/PSoC5/CapSense_1_CSHL.c **** *
 580:./Generated_Source/PSoC5/CapSense_1_CSHL.c **** * Summary:
 581:./Generated_Source/PSoC5/CapSense_1_CSHL.c **** *  Checks CapSense_1_SensorEnableMask[] array and calls the 
 582:./Generated_Source/PSoC5/CapSense_1_CSHL.c **** *  CapSense_1_UpdateSensorBaseline function to update the baselines 
 583:./Generated_Source/PSoC5/CapSense_1_CSHL.c **** *  for enabled sensors.
 584:./Generated_Source/PSoC5/CapSense_1_CSHL.c **** *
 585:./Generated_Source/PSoC5/CapSense_1_CSHL.c **** * Parameters:
 586:./Generated_Source/PSoC5/CapSense_1_CSHL.c **** *  None
 587:./Generated_Source/PSoC5/CapSense_1_CSHL.c **** *
 588:./Generated_Source/PSoC5/CapSense_1_CSHL.c **** * Return:
 589:./Generated_Source/PSoC5/CapSense_1_CSHL.c **** *  None
 590:./Generated_Source/PSoC5/CapSense_1_CSHL.c **** *
 591:./Generated_Source/PSoC5/CapSense_1_CSHL.c **** * Global Variables:
 592:./Generated_Source/PSoC5/CapSense_1_CSHL.c **** *  CapSense_1_SensorEnableMask[] - used to store the sensor scanning 
 593:./Generated_Source/PSoC5/CapSense_1_CSHL.c **** *  state.
 594:./Generated_Source/PSoC5/CapSense_1_CSHL.c **** *  CapSense_1_SensorEnableMask[0] contains the masked bits for sensors 
 595:./Generated_Source/PSoC5/CapSense_1_CSHL.c **** *   0 through 7 (sensor 0 is bit 0, sensor 1 is bit 1).
 596:./Generated_Source/PSoC5/CapSense_1_CSHL.c **** *  CapSense_1_SensorEnableMask[1] contains the masked bits for 
 597:./Generated_Source/PSoC5/CapSense_1_CSHL.c **** *  sensors 8 through 15 (if needed), and so on.
 598:./Generated_Source/PSoC5/CapSense_1_CSHL.c **** *  0 - sensor doesn't scan by CapSense_1_ScanEnabledWidgets().
 599:./Generated_Source/PSoC5/CapSense_1_CSHL.c **** *  1 - sensor scans by CapSense_1_ScanEnabledWidgets().
 600:./Generated_Source/PSoC5/CapSense_1_CSHL.c **** *
 601:./Generated_Source/PSoC5/CapSense_1_CSHL.c **** * Reentrant:
 602:./Generated_Source/PSoC5/CapSense_1_CSHL.c **** *  No
 603:./Generated_Source/PSoC5/CapSense_1_CSHL.c **** *
 604:./Generated_Source/PSoC5/CapSense_1_CSHL.c **** *******************************************************************************/
 605:./Generated_Source/PSoC5/CapSense_1_CSHL.c ****  void CapSense_1_UpdateEnabledBaselines(void)
 606:./Generated_Source/PSoC5/CapSense_1_CSHL.c **** {
ARM GAS  C:\Users\CHARLI~1\AppData\Local\Temp\ccF9CHT0.s 			page 20


 474              		.loc 1 606 0
 475              		.cfi_startproc
 476              		@ args = 0, pretend = 0, frame = 8
 477              		@ frame_needed = 1, uses_anonymous_args = 0
 478 0000 80B5     		push	{r7, lr}
 479              	.LCFI12:
 480              		.cfi_def_cfa_offset 8
 481 0002 82B0     		sub	sp, sp, #8
 482              	.LCFI13:
 483              		.cfi_def_cfa_offset 16
 484 0004 00AF     		add	r7, sp, #0
 485              		.cfi_offset 14, -4
 486              		.cfi_offset 7, -8
 487              	.LCFI14:
 488              		.cfi_def_cfa_register 7
 607:./Generated_Source/PSoC5/CapSense_1_CSHL.c ****     uint8 i;
 608:./Generated_Source/PSoC5/CapSense_1_CSHL.c ****     uint8 pos;
 609:./Generated_Source/PSoC5/CapSense_1_CSHL.c ****     uint8 enMask;
 610:./Generated_Source/PSoC5/CapSense_1_CSHL.c ****     
 611:./Generated_Source/PSoC5/CapSense_1_CSHL.c ****     for(i = 0; i < CapSense_1_TOTAL_SENSOR_COUNT; i++)
 489              		.loc 1 611 0
 490 0006 4FF00003 		mov	r3, #0
 491 000a 7B71     		strb	r3, [r7, #5]
 492 000c 1FE0     		b	.L20
 493              	.L22:
 612:./Generated_Source/PSoC5/CapSense_1_CSHL.c ****     {
 613:./Generated_Source/PSoC5/CapSense_1_CSHL.c ****         pos = (i >> 3u);
 494              		.loc 1 613 0
 495 000e 7B79     		ldrb	r3, [r7, #5]	@ zero_extendqisi2
 496 0010 4FEAD303 		lsr	r3, r3, #3
 497 0014 BB71     		strb	r3, [r7, #6]
 614:./Generated_Source/PSoC5/CapSense_1_CSHL.c ****         enMask = 0x01u << (i & 0x07u);
 498              		.loc 1 614 0
 499 0016 7B79     		ldrb	r3, [r7, #5]	@ zero_extendqisi2
 500 0018 03F00703 		and	r3, r3, #7
 501 001c 4FF00102 		mov	r2, #1
 502 0020 02FA03F3 		lsl	r3, r2, r3
 503 0024 FB71     		strb	r3, [r7, #7]
 615:./Generated_Source/PSoC5/CapSense_1_CSHL.c ****         if((CapSense_1_SensorEnableMask[pos] & enMask) != 0u)
 504              		.loc 1 615 0
 505 0026 BA79     		ldrb	r2, [r7, #6]	@ zero_extendqisi2
 506 0028 40F20003 		movw	r3, #:lower16:CapSense_1_SensorEnableMask
 507 002c C0F20003 		movt	r3, #:upper16:CapSense_1_SensorEnableMask
 508 0030 9A5C     		ldrb	r2, [r3, r2]	@ zero_extendqisi2
 509 0032 FB79     		ldrb	r3, [r7, #7]
 510 0034 02EA0303 		and	r3, r2, r3
 511 0038 DBB2     		uxtb	r3, r3
 512 003a 002B     		cmp	r3, #0
 513 003c 03D0     		beq	.L21
 616:./Generated_Source/PSoC5/CapSense_1_CSHL.c ****         {
 617:./Generated_Source/PSoC5/CapSense_1_CSHL.c ****             CapSense_1_UpdateSensorBaseline(i);
 514              		.loc 1 617 0
 515 003e 7B79     		ldrb	r3, [r7, #5]	@ zero_extendqisi2
 516 0040 1846     		mov	r0, r3
 517 0042 FFF7FEFF 		bl	CapSense_1_UpdateSensorBaseline
 518              	.L21:
 519              		.loc 1 611 0
ARM GAS  C:\Users\CHARLI~1\AppData\Local\Temp\ccF9CHT0.s 			page 21


 520 0046 7B79     		ldrb	r3, [r7, #5]
 521 0048 03F10103 		add	r3, r3, #1
 522 004c 7B71     		strb	r3, [r7, #5]
 523              	.L20:
 524 004e 7B79     		ldrb	r3, [r7, #5]	@ zero_extendqisi2
 525 0050 002B     		cmp	r3, #0
 526 0052 DCD0     		beq	.L22
 618:./Generated_Source/PSoC5/CapSense_1_CSHL.c ****         }
 619:./Generated_Source/PSoC5/CapSense_1_CSHL.c ****     }
 620:./Generated_Source/PSoC5/CapSense_1_CSHL.c **** }
 527              		.loc 1 620 0
 528 0054 07F10807 		add	r7, r7, #8
 529 0058 BD46     		mov	sp, r7
 530 005a 80BD     		pop	{r7, pc}
 531              		.cfi_endproc
 532              	.LFE4:
 533              		.size	CapSense_1_UpdateEnabledBaselines, .-CapSense_1_UpdateEnabledBaselines
 534              		.section	.text.CapSense_1_CheckIsSensorActive,"ax",%progbits
 535              		.align	2
 536              		.global	CapSense_1_CheckIsSensorActive
 537              		.thumb
 538              		.thumb_func
 539              		.type	CapSense_1_CheckIsSensorActive, %function
 540              	CapSense_1_CheckIsSensorActive:
 541              	.LFB5:
 621:./Generated_Source/PSoC5/CapSense_1_CSHL.c **** 
 622:./Generated_Source/PSoC5/CapSense_1_CSHL.c **** 
 623:./Generated_Source/PSoC5/CapSense_1_CSHL.c **** /*******************************************************************************
 624:./Generated_Source/PSoC5/CapSense_1_CSHL.c **** * Function Name: CapSense_1_CheckIsSensorActive
 625:./Generated_Source/PSoC5/CapSense_1_CSHL.c **** ********************************************************************************
 626:./Generated_Source/PSoC5/CapSense_1_CSHL.c **** *
 627:./Generated_Source/PSoC5/CapSense_1_CSHL.c **** * Summary:
 628:./Generated_Source/PSoC5/CapSense_1_CSHL.c **** *  Compares the CapSense_1_SensorSignal[sensor] array element to finger
 629:./Generated_Source/PSoC5/CapSense_1_CSHL.c **** *  threshold of widget it belongs to. The hysteresis and debounce are taken into 
 630:./Generated_Source/PSoC5/CapSense_1_CSHL.c **** *  account. The hysteresis is added or subtracted from the finger threshold 
 631:./Generated_Source/PSoC5/CapSense_1_CSHL.c **** *  based on whether the sensor is currently active. 
 632:./Generated_Source/PSoC5/CapSense_1_CSHL.c **** *  If the sensor is active, the threshold is lowered by the hysteresis amount.
 633:./Generated_Source/PSoC5/CapSense_1_CSHL.c **** *  If the sensor is inactive, the threshold is raised by the hysteresis amount.
 634:./Generated_Source/PSoC5/CapSense_1_CSHL.c **** *  The debounce counter added to the sensor active transition.
 635:./Generated_Source/PSoC5/CapSense_1_CSHL.c **** *  This function updates CapSense_1_SensorOnMask[] array element.
 636:./Generated_Source/PSoC5/CapSense_1_CSHL.c **** *
 637:./Generated_Source/PSoC5/CapSense_1_CSHL.c **** * Parameters:
 638:./Generated_Source/PSoC5/CapSense_1_CSHL.c **** *  sensor:  Sensor number.
 639:./Generated_Source/PSoC5/CapSense_1_CSHL.c **** *
 640:./Generated_Source/PSoC5/CapSense_1_CSHL.c **** * Return:
 641:./Generated_Source/PSoC5/CapSense_1_CSHL.c **** *  Returns sensor state 1 if active, 0 if not active.
 642:./Generated_Source/PSoC5/CapSense_1_CSHL.c **** *
 643:./Generated_Source/PSoC5/CapSense_1_CSHL.c **** * Global Variables:
 644:./Generated_Source/PSoC5/CapSense_1_CSHL.c **** *  CapSense_1_SensorSignal[]      - used to store diffence between 
 645:./Generated_Source/PSoC5/CapSense_1_CSHL.c **** *  current value of raw data and previous value of baseline.
 646:./Generated_Source/PSoC5/CapSense_1_CSHL.c **** *  CapSense_1_debounceCounter[]   - used to store current debounce 
 647:./Generated_Source/PSoC5/CapSense_1_CSHL.c **** *  counter of sensor. Widget which has this parameter are buttons, matrix 
 648:./Generated_Source/PSoC5/CapSense_1_CSHL.c **** *  buttons, proximity, guard. All other widgets haven't debounce parameter
 649:./Generated_Source/PSoC5/CapSense_1_CSHL.c **** *  and use the last element of this array with value 0 (it means no debounce).
 650:./Generated_Source/PSoC5/CapSense_1_CSHL.c **** *  CapSense_1_SensorOnMask[] - used to store sensors on/off state.
 651:./Generated_Source/PSoC5/CapSense_1_CSHL.c **** *  CapSense_1_SensorOnMask[0] contains the masked bits for sensors 
 652:./Generated_Source/PSoC5/CapSense_1_CSHL.c **** *   0 through 7 (sensor 0 is bit 0, sensor 1 is bit 1).
ARM GAS  C:\Users\CHARLI~1\AppData\Local\Temp\ccF9CHT0.s 			page 22


 653:./Generated_Source/PSoC5/CapSense_1_CSHL.c **** *  CapSense_1_SensorEnableMask[1] contains the masked bits for 
 654:./Generated_Source/PSoC5/CapSense_1_CSHL.c **** *  sensors 8 through 15 (if needed), and so on.
 655:./Generated_Source/PSoC5/CapSense_1_CSHL.c **** *  0 - sensor is inactive.
 656:./Generated_Source/PSoC5/CapSense_1_CSHL.c **** *  1 - sensor is active.
 657:./Generated_Source/PSoC5/CapSense_1_CSHL.c **** *
 658:./Generated_Source/PSoC5/CapSense_1_CSHL.c **** * Reentrant:
 659:./Generated_Source/PSoC5/CapSense_1_CSHL.c **** *  No
 660:./Generated_Source/PSoC5/CapSense_1_CSHL.c **** *
 661:./Generated_Source/PSoC5/CapSense_1_CSHL.c **** *******************************************************************************/
 662:./Generated_Source/PSoC5/CapSense_1_CSHL.c **** uint8 CapSense_1_CheckIsSensorActive(uint8 sensor)
 663:./Generated_Source/PSoC5/CapSense_1_CSHL.c **** {
 542              		.loc 1 663 0
 543              		.cfi_startproc
 544              		@ args = 0, pretend = 0, frame = 16
 545              		@ frame_needed = 1, uses_anonymous_args = 0
 546              		@ link register save eliminated.
 547 0000 80B4     		push	{r7}
 548              	.LCFI15:
 549              		.cfi_def_cfa_offset 4
 550 0002 85B0     		sub	sp, sp, #20
 551              	.LCFI16:
 552              		.cfi_def_cfa_offset 24
 553 0004 00AF     		add	r7, sp, #0
 554              		.cfi_offset 7, -4
 555              	.LCFI17:
 556              		.cfi_def_cfa_register 7
 557 0006 0346     		mov	r3, r0
 558 0008 FB71     		strb	r3, [r7, #7]
 664:./Generated_Source/PSoC5/CapSense_1_CSHL.c ****     uint8 debounceIndex;
 665:./Generated_Source/PSoC5/CapSense_1_CSHL.c ****     /* Get On/Off mask */
 666:./Generated_Source/PSoC5/CapSense_1_CSHL.c ****     uint8 pos = (sensor >> 3u);
 559              		.loc 1 666 0
 560 000a FB79     		ldrb	r3, [r7, #7]	@ zero_extendqisi2
 561 000c 4FEAD303 		lsr	r3, r3, #3
 562 0010 BB72     		strb	r3, [r7, #10]
 667:./Generated_Source/PSoC5/CapSense_1_CSHL.c ****     uint8 onMask = 0x01u << (sensor & 0x07u);
 563              		.loc 1 667 0
 564 0012 FB79     		ldrb	r3, [r7, #7]	@ zero_extendqisi2
 565 0014 03F00703 		and	r3, r3, #7
 566 0018 4FF00102 		mov	r2, #1
 567 001c 02FA03F3 		lsl	r3, r2, r3
 568 0020 FB72     		strb	r3, [r7, #11]
 668:./Generated_Source/PSoC5/CapSense_1_CSHL.c ****     /* Prepare to find debounce counter index */
 669:./Generated_Source/PSoC5/CapSense_1_CSHL.c ****     uint8 widget = CapSense_1_widgetNumber[sensor];
 569              		.loc 1 669 0
 570 0022 FA79     		ldrb	r2, [r7, #7]	@ zero_extendqisi2
 571 0024 40F20003 		movw	r3, #:lower16:CapSense_1_widgetNumber
 572 0028 C0F20003 		movt	r3, #:upper16:CapSense_1_widgetNumber
 573 002c 9B5C     		ldrb	r3, [r3, r2]
 574 002e 3B73     		strb	r3, [r7, #12]
 670:./Generated_Source/PSoC5/CapSense_1_CSHL.c ****     uint8 fingerThreshold = CapSense_1_fingerThreshold[widget];
 575              		.loc 1 670 0
 576 0030 3A7B     		ldrb	r2, [r7, #12]	@ zero_extendqisi2
 577 0032 40F20003 		movw	r3, #:lower16:CapSense_1_fingerThreshold
 578 0036 C0F20003 		movt	r3, #:upper16:CapSense_1_fingerThreshold
 579 003a 9B5C     		ldrb	r3, [r3, r2]
 580 003c 7B73     		strb	r3, [r7, #13]
ARM GAS  C:\Users\CHARLI~1\AppData\Local\Temp\ccF9CHT0.s 			page 23


 671:./Generated_Source/PSoC5/CapSense_1_CSHL.c ****     uint8 hysteresis = CapSense_1_hysteresis[widget];
 581              		.loc 1 671 0
 582 003e 3A7B     		ldrb	r2, [r7, #12]	@ zero_extendqisi2
 583 0040 40F20003 		movw	r3, #:lower16:CapSense_1_hysteresis
 584 0044 C0F20003 		movt	r3, #:upper16:CapSense_1_hysteresis
 585 0048 9B5C     		ldrb	r3, [r3, r2]
 586 004a BB73     		strb	r3, [r7, #14]
 672:./Generated_Source/PSoC5/CapSense_1_CSHL.c ****     uint8 debounce = CapSense_1_debounce[widget];
 587              		.loc 1 672 0
 588 004c 3A7B     		ldrb	r2, [r7, #12]	@ zero_extendqisi2
 589 004e 40F20003 		movw	r3, #:lower16:CapSense_1_debounce
 590 0052 C0F20003 		movt	r3, #:upper16:CapSense_1_debounce
 591 0056 9B5C     		ldrb	r3, [r3, r2]
 592 0058 FB73     		strb	r3, [r7, #15]
 673:./Generated_Source/PSoC5/CapSense_1_CSHL.c ****     
 674:./Generated_Source/PSoC5/CapSense_1_CSHL.c ****     debounceIndex = widget;
 593              		.loc 1 674 0
 594 005a 3B7B     		ldrb	r3, [r7, #12]
 595 005c 7B72     		strb	r3, [r7, #9]
 675:./Generated_Source/PSoC5/CapSense_1_CSHL.c **** 
 676:./Generated_Source/PSoC5/CapSense_1_CSHL.c ****     
 677:./Generated_Source/PSoC5/CapSense_1_CSHL.c ****     /* Was on */
 678:./Generated_Source/PSoC5/CapSense_1_CSHL.c ****     if (CapSense_1_SensorOnMask[pos] & onMask)
 596              		.loc 1 678 0
 597 005e BA7A     		ldrb	r2, [r7, #10]	@ zero_extendqisi2
 598 0060 40F20003 		movw	r3, #:lower16:CapSense_1_SensorOnMask
 599 0064 C0F20003 		movt	r3, #:upper16:CapSense_1_SensorOnMask
 600 0068 9A5C     		ldrb	r2, [r3, r2]	@ zero_extendqisi2
 601 006a FB7A     		ldrb	r3, [r7, #11]
 602 006c 02EA0303 		and	r3, r2, r3
 603 0070 DBB2     		uxtb	r3, r3
 604 0072 002B     		cmp	r3, #0
 605 0074 29D0     		beq	.L25
 679:./Generated_Source/PSoC5/CapSense_1_CSHL.c ****     {
 680:./Generated_Source/PSoC5/CapSense_1_CSHL.c ****         /* Hysteresis minus */
 681:./Generated_Source/PSoC5/CapSense_1_CSHL.c ****         if (CapSense_1_SensorSignal[sensor] < (fingerThreshold - hysteresis))
 606              		.loc 1 681 0
 607 0076 FA79     		ldrb	r2, [r7, #7]	@ zero_extendqisi2
 608 0078 40F20003 		movw	r3, #:lower16:CapSense_1_SensorSignal
 609 007c C0F20003 		movt	r3, #:upper16:CapSense_1_SensorSignal
 610 0080 9B5C     		ldrb	r3, [r3, r2]	@ zero_extendqisi2
 611 0082 1A46     		mov	r2, r3
 612 0084 797B     		ldrb	r1, [r7, #13]	@ zero_extendqisi2
 613 0086 BB7B     		ldrb	r3, [r7, #14]	@ zero_extendqisi2
 614 0088 C3EB0103 		rsb	r3, r3, r1
 615 008c 9A42     		cmp	r2, r3
 616 008e 56DA     		bge	.L33
 682:./Generated_Source/PSoC5/CapSense_1_CSHL.c ****         {
 683:./Generated_Source/PSoC5/CapSense_1_CSHL.c ****             CapSense_1_SensorOnMask[pos] &= ~onMask;
 617              		.loc 1 683 0
 618 0090 BA7A     		ldrb	r2, [r7, #10]	@ zero_extendqisi2
 619 0092 B97A     		ldrb	r1, [r7, #10]	@ zero_extendqisi2
 620 0094 40F20003 		movw	r3, #:lower16:CapSense_1_SensorOnMask
 621 0098 C0F20003 		movt	r3, #:upper16:CapSense_1_SensorOnMask
 622 009c 5B5C     		ldrb	r3, [r3, r1]	@ zero_extendqisi2
 623 009e 1946     		mov	r1, r3
 624 00a0 FB7A     		ldrb	r3, [r7, #11]	@ zero_extendqisi2
ARM GAS  C:\Users\CHARLI~1\AppData\Local\Temp\ccF9CHT0.s 			page 24


 625 00a2 6FEA0303 		mvn	r3, r3
 626 00a6 DBB2     		uxtb	r3, r3
 627 00a8 01EA0303 		and	r3, r1, r3
 628 00ac DBB2     		uxtb	r3, r3
 629 00ae D9B2     		uxtb	r1, r3
 630 00b0 40F20003 		movw	r3, #:lower16:CapSense_1_SensorOnMask
 631 00b4 C0F20003 		movt	r3, #:upper16:CapSense_1_SensorOnMask
 632 00b8 9954     		strb	r1, [r3, r2]
 684:./Generated_Source/PSoC5/CapSense_1_CSHL.c ****             CapSense_1_debounceCounter[debounceIndex] = debounce; 
 633              		.loc 1 684 0
 634 00ba 7A7A     		ldrb	r2, [r7, #9]	@ zero_extendqisi2
 635 00bc 40F20003 		movw	r3, #:lower16:CapSense_1_debounceCounter
 636 00c0 C0F20003 		movt	r3, #:upper16:CapSense_1_debounceCounter
 637 00c4 F97B     		ldrb	r1, [r7, #15]
 638 00c6 9954     		strb	r1, [r3, r2]
 639 00c8 3CE0     		b	.L27
 640              	.L25:
 685:./Generated_Source/PSoC5/CapSense_1_CSHL.c ****         }
 686:./Generated_Source/PSoC5/CapSense_1_CSHL.c ****     }
 687:./Generated_Source/PSoC5/CapSense_1_CSHL.c ****     else    /* Was off */
 688:./Generated_Source/PSoC5/CapSense_1_CSHL.c ****     {
 689:./Generated_Source/PSoC5/CapSense_1_CSHL.c ****         /* Hysteresis plus */
 690:./Generated_Source/PSoC5/CapSense_1_CSHL.c ****         if (CapSense_1_SensorSignal[sensor] > (fingerThreshold + hysteresis))
 641              		.loc 1 690 0
 642 00ca FA79     		ldrb	r2, [r7, #7]	@ zero_extendqisi2
 643 00cc 40F20003 		movw	r3, #:lower16:CapSense_1_SensorSignal
 644 00d0 C0F20003 		movt	r3, #:upper16:CapSense_1_SensorSignal
 645 00d4 9B5C     		ldrb	r3, [r3, r2]	@ zero_extendqisi2
 646 00d6 1A46     		mov	r2, r3
 647 00d8 797B     		ldrb	r1, [r7, #13]	@ zero_extendqisi2
 648 00da BB7B     		ldrb	r3, [r7, #14]	@ zero_extendqisi2
 649 00dc 0B44     		add	r3, r1, r3
 650 00de 9A42     		cmp	r2, r3
 651 00e0 25DD     		ble	.L28
 691:./Generated_Source/PSoC5/CapSense_1_CSHL.c ****         {
 692:./Generated_Source/PSoC5/CapSense_1_CSHL.c ****             /* Sensor active, decrement debounce counter */
 693:./Generated_Source/PSoC5/CapSense_1_CSHL.c ****             if (CapSense_1_debounceCounter[debounceIndex]-- == 0)
 652              		.loc 1 693 0
 653 00e2 7A7A     		ldrb	r2, [r7, #9]	@ zero_extendqisi2
 654 00e4 40F20003 		movw	r3, #:lower16:CapSense_1_debounceCounter
 655 00e8 C0F20003 		movt	r3, #:upper16:CapSense_1_debounceCounter
 656 00ec 9B5C     		ldrb	r3, [r3, r2]	@ zero_extendqisi2
 657 00ee 002B     		cmp	r3, #0
 658 00f0 14BF     		ite	ne
 659 00f2 0021     		movne	r1, #0
 660 00f4 0121     		moveq	r1, #1
 661 00f6 C9B2     		uxtb	r1, r1
 662 00f8 03F1FF33 		add	r3, r3, #-1
 663 00fc D8B2     		uxtb	r0, r3
 664 00fe 40F20003 		movw	r3, #:lower16:CapSense_1_debounceCounter
 665 0102 C0F20003 		movt	r3, #:upper16:CapSense_1_debounceCounter
 666 0106 9854     		strb	r0, [r3, r2]
 667 0108 0029     		cmp	r1, #0
 668 010a 1AD0     		beq	.L34
 694:./Generated_Source/PSoC5/CapSense_1_CSHL.c ****             {
 695:./Generated_Source/PSoC5/CapSense_1_CSHL.c ****                 CapSense_1_SensorOnMask[pos] |= onMask; 
 669              		.loc 1 695 0
ARM GAS  C:\Users\CHARLI~1\AppData\Local\Temp\ccF9CHT0.s 			page 25


 670 010c BA7A     		ldrb	r2, [r7, #10]	@ zero_extendqisi2
 671 010e B97A     		ldrb	r1, [r7, #10]	@ zero_extendqisi2
 672 0110 40F20003 		movw	r3, #:lower16:CapSense_1_SensorOnMask
 673 0114 C0F20003 		movt	r3, #:upper16:CapSense_1_SensorOnMask
 674 0118 595C     		ldrb	r1, [r3, r1]	@ zero_extendqisi2
 675 011a FB7A     		ldrb	r3, [r7, #11]
 676 011c 41EA0303 		orr	r3, r1, r3
 677 0120 D9B2     		uxtb	r1, r3
 678 0122 40F20003 		movw	r3, #:lower16:CapSense_1_SensorOnMask
 679 0126 C0F20003 		movt	r3, #:upper16:CapSense_1_SensorOnMask
 680 012a 9954     		strb	r1, [r3, r2]
 681 012c 0AE0     		b	.L27
 682              	.L28:
 696:./Generated_Source/PSoC5/CapSense_1_CSHL.c ****             }
 697:./Generated_Source/PSoC5/CapSense_1_CSHL.c ****         }
 698:./Generated_Source/PSoC5/CapSense_1_CSHL.c ****         else
 699:./Generated_Source/PSoC5/CapSense_1_CSHL.c ****         {
 700:./Generated_Source/PSoC5/CapSense_1_CSHL.c ****             /* Sensor inactive - reset Debounce counter */
 701:./Generated_Source/PSoC5/CapSense_1_CSHL.c ****             CapSense_1_debounceCounter[debounceIndex] = debounce;
 683              		.loc 1 701 0
 684 012e 7A7A     		ldrb	r2, [r7, #9]	@ zero_extendqisi2
 685 0130 40F20003 		movw	r3, #:lower16:CapSense_1_debounceCounter
 686 0134 C0F20003 		movt	r3, #:upper16:CapSense_1_debounceCounter
 687 0138 F97B     		ldrb	r1, [r7, #15]
 688 013a 9954     		strb	r1, [r3, r2]
 689 013c 02E0     		b	.L27
 690              	.L33:
 691              		.loc 1 684 0
 692 013e 00BF     		nop
 693 0140 00E0     		b	.L27
 694              	.L34:
 695              		.loc 1 695 0
 696 0142 00BF     		nop
 697              	.L27:
 702:./Generated_Source/PSoC5/CapSense_1_CSHL.c ****         }
 703:./Generated_Source/PSoC5/CapSense_1_CSHL.c ****     }
 704:./Generated_Source/PSoC5/CapSense_1_CSHL.c ****     
 705:./Generated_Source/PSoC5/CapSense_1_CSHL.c ****     return (CapSense_1_SensorOnMask[pos] & onMask) ? 1u : 0u;
 698              		.loc 1 705 0
 699 0144 BA7A     		ldrb	r2, [r7, #10]	@ zero_extendqisi2
 700 0146 40F20003 		movw	r3, #:lower16:CapSense_1_SensorOnMask
 701 014a C0F20003 		movt	r3, #:upper16:CapSense_1_SensorOnMask
 702 014e 9A5C     		ldrb	r2, [r3, r2]	@ zero_extendqisi2
 703 0150 FB7A     		ldrb	r3, [r7, #11]
 704 0152 02EA0303 		and	r3, r2, r3
 705 0156 DBB2     		uxtb	r3, r3
 706 0158 002B     		cmp	r3, #0
 707 015a 02D0     		beq	.L30
 708 015c 4FF00103 		mov	r3, #1
 709 0160 01E0     		b	.L31
 710              	.L30:
 711 0162 4FF00003 		mov	r3, #0
 712              	.L31:
 706:./Generated_Source/PSoC5/CapSense_1_CSHL.c **** }
 713              		.loc 1 706 0
 714 0166 1846     		mov	r0, r3
 715 0168 07F11407 		add	r7, r7, #20
ARM GAS  C:\Users\CHARLI~1\AppData\Local\Temp\ccF9CHT0.s 			page 26


 716 016c BD46     		mov	sp, r7
 717 016e 80BC     		pop	{r7}
 718 0170 7047     		bx	lr
 719              		.cfi_endproc
 720              	.LFE5:
 721              		.size	CapSense_1_CheckIsSensorActive, .-CapSense_1_CheckIsSensorActive
 722 0172 00BF     		.section	.text.CapSense_1_CheckIsWidgetActive,"ax",%progbits
 723              		.align	2
 724              		.global	CapSense_1_CheckIsWidgetActive
 725              		.thumb
 726              		.thumb_func
 727              		.type	CapSense_1_CheckIsWidgetActive, %function
 728              	CapSense_1_CheckIsWidgetActive:
 729              	.LFB6:
 707:./Generated_Source/PSoC5/CapSense_1_CSHL.c **** 
 708:./Generated_Source/PSoC5/CapSense_1_CSHL.c **** 
 709:./Generated_Source/PSoC5/CapSense_1_CSHL.c **** /*******************************************************************************
 710:./Generated_Source/PSoC5/CapSense_1_CSHL.c **** * Function Name: CapSense_1_CheckIsWidgetActive
 711:./Generated_Source/PSoC5/CapSense_1_CSHL.c **** ********************************************************************************
 712:./Generated_Source/PSoC5/CapSense_1_CSHL.c **** *
 713:./Generated_Source/PSoC5/CapSense_1_CSHL.c **** * Summary:
 714:./Generated_Source/PSoC5/CapSense_1_CSHL.c **** *  Use function CapSense_1_CheckIsSensorActive() to update 
 715:./Generated_Source/PSoC5/CapSense_1_CSHL.c **** *  CapSense_1_SensorOnMask[] for all sensors within the widget.
 716:./Generated_Source/PSoC5/CapSense_1_CSHL.c **** *  If one of sensors within widget is active the function return that widget is 
 717:./Generated_Source/PSoC5/CapSense_1_CSHL.c **** *  active.
 718:./Generated_Source/PSoC5/CapSense_1_CSHL.c **** *  The touch pad and matrix buttons widgets need to have active sensor within 
 719:./Generated_Source/PSoC5/CapSense_1_CSHL.c **** *  col and row to return widget active status.
 720:./Generated_Source/PSoC5/CapSense_1_CSHL.c **** *
 721:./Generated_Source/PSoC5/CapSense_1_CSHL.c **** * Parameters:
 722:./Generated_Source/PSoC5/CapSense_1_CSHL.c **** *  widget:  widget number.
 723:./Generated_Source/PSoC5/CapSense_1_CSHL.c **** *
 724:./Generated_Source/PSoC5/CapSense_1_CSHL.c **** * Return:
 725:./Generated_Source/PSoC5/CapSense_1_CSHL.c **** *  Returns widget sensor state 1 if one or more sensors within widget is/are 
 726:./Generated_Source/PSoC5/CapSense_1_CSHL.c **** *  active, 0 if all sensors within widget are inactive.
 727:./Generated_Source/PSoC5/CapSense_1_CSHL.c **** *
 728:./Generated_Source/PSoC5/CapSense_1_CSHL.c **** * Reentrant:
 729:./Generated_Source/PSoC5/CapSense_1_CSHL.c **** *  No
 730:./Generated_Source/PSoC5/CapSense_1_CSHL.c **** *
 731:./Generated_Source/PSoC5/CapSense_1_CSHL.c **** *******************************************************************************/
 732:./Generated_Source/PSoC5/CapSense_1_CSHL.c **** uint8 CapSense_1_CheckIsWidgetActive(uint8 widget)
 733:./Generated_Source/PSoC5/CapSense_1_CSHL.c **** {
 730              		.loc 1 733 0
 731              		.cfi_startproc
 732              		@ args = 0, pretend = 0, frame = 16
 733              		@ frame_needed = 1, uses_anonymous_args = 0
 734 0000 80B5     		push	{r7, lr}
 735              	.LCFI18:
 736              		.cfi_def_cfa_offset 8
 737 0002 84B0     		sub	sp, sp, #16
 738              	.LCFI19:
 739              		.cfi_def_cfa_offset 24
 740 0004 00AF     		add	r7, sp, #0
 741              		.cfi_offset 14, -4
 742              		.cfi_offset 7, -8
 743              	.LCFI20:
 744              		.cfi_def_cfa_register 7
 745 0006 0346     		mov	r3, r0
ARM GAS  C:\Users\CHARLI~1\AppData\Local\Temp\ccF9CHT0.s 			page 27


 746 0008 FB71     		strb	r3, [r7, #7]
 734:./Generated_Source/PSoC5/CapSense_1_CSHL.c ****     uint8 rawIndex = CapSense_1_rawDataIndex[widget];
 747              		.loc 1 734 0
 748 000a FA79     		ldrb	r2, [r7, #7]	@ zero_extendqisi2
 749 000c 40F20003 		movw	r3, #:lower16:CapSense_1_rawDataIndex
 750 0010 C0F20003 		movt	r3, #:upper16:CapSense_1_rawDataIndex
 751 0014 9B5C     		ldrb	r3, [r3, r2]
 752 0016 7B73     		strb	r3, [r7, #13]
 735:./Generated_Source/PSoC5/CapSense_1_CSHL.c ****     uint8 numberOfSensors = CapSense_1_numberOfSensors[widget] + rawIndex;
 753              		.loc 1 735 0
 754 0018 FA79     		ldrb	r2, [r7, #7]	@ zero_extendqisi2
 755 001a 40F20003 		movw	r3, #:lower16:CapSense_1_numberOfSensors
 756 001e C0F20003 		movt	r3, #:upper16:CapSense_1_numberOfSensors
 757 0022 9A5C     		ldrb	r2, [r3, r2]	@ zero_extendqisi2
 758 0024 7B7B     		ldrb	r3, [r7, #13]
 759 0026 1344     		add	r3, r2, r3
 760 0028 BB73     		strb	r3, [r7, #14]
 736:./Generated_Source/PSoC5/CapSense_1_CSHL.c ****     uint8 state = 0u;
 761              		.loc 1 736 0
 762 002a 4FF00003 		mov	r3, #0
 763 002e FB73     		strb	r3, [r7, #15]
 764              	.L37:
 737:./Generated_Source/PSoC5/CapSense_1_CSHL.c **** 
 738:./Generated_Source/PSoC5/CapSense_1_CSHL.c ****     /* Check all sensors of the widget */
 739:./Generated_Source/PSoC5/CapSense_1_CSHL.c ****     do
 740:./Generated_Source/PSoC5/CapSense_1_CSHL.c ****     {
 741:./Generated_Source/PSoC5/CapSense_1_CSHL.c ****         if(CapSense_1_CheckIsSensorActive(rawIndex) != 0u)
 765              		.loc 1 741 0
 766 0030 7B7B     		ldrb	r3, [r7, #13]	@ zero_extendqisi2
 767 0032 1846     		mov	r0, r3
 768 0034 FFF7FEFF 		bl	CapSense_1_CheckIsSensorActive
 769 0038 0346     		mov	r3, r0
 770 003a 002B     		cmp	r3, #0
 771 003c 02D0     		beq	.L36
 742:./Generated_Source/PSoC5/CapSense_1_CSHL.c ****         {
 743:./Generated_Source/PSoC5/CapSense_1_CSHL.c ****             state = CapSense_1_SENSOR_1_IS_ACTIVE;
 772              		.loc 1 743 0
 773 003e 4FF00103 		mov	r3, #1
 774 0042 FB73     		strb	r3, [r7, #15]
 775              	.L36:
 744:./Generated_Source/PSoC5/CapSense_1_CSHL.c ****         }
 745:./Generated_Source/PSoC5/CapSense_1_CSHL.c ****         rawIndex++;
 776              		.loc 1 745 0
 777 0044 7B7B     		ldrb	r3, [r7, #13]
 778 0046 03F10103 		add	r3, r3, #1
 779 004a 7B73     		strb	r3, [r7, #13]
 746:./Generated_Source/PSoC5/CapSense_1_CSHL.c ****     }
 747:./Generated_Source/PSoC5/CapSense_1_CSHL.c ****     while(rawIndex < numberOfSensors);
 780              		.loc 1 747 0
 781 004c 7A7B     		ldrb	r2, [r7, #13]	@ zero_extendqisi2
 782 004e BB7B     		ldrb	r3, [r7, #14]	@ zero_extendqisi2
 783 0050 9A42     		cmp	r2, r3
 784 0052 EDD3     		bcc	.L37
 748:./Generated_Source/PSoC5/CapSense_1_CSHL.c ****     
 749:./Generated_Source/PSoC5/CapSense_1_CSHL.c **** 
 750:./Generated_Source/PSoC5/CapSense_1_CSHL.c ****     
 751:./Generated_Source/PSoC5/CapSense_1_CSHL.c ****     return state;
ARM GAS  C:\Users\CHARLI~1\AppData\Local\Temp\ccF9CHT0.s 			page 28


 785              		.loc 1 751 0
 786 0054 FB7B     		ldrb	r3, [r7, #15]	@ zero_extendqisi2
 752:./Generated_Source/PSoC5/CapSense_1_CSHL.c **** }
 787              		.loc 1 752 0
 788 0056 1846     		mov	r0, r3
 789 0058 07F11007 		add	r7, r7, #16
 790 005c BD46     		mov	sp, r7
 791 005e 80BD     		pop	{r7, pc}
 792              		.cfi_endproc
 793              	.LFE6:
 794              		.size	CapSense_1_CheckIsWidgetActive, .-CapSense_1_CheckIsWidgetActive
 795              		.section	.text.CapSense_1_CheckIsAnyWidgetActive,"ax",%progbits
 796              		.align	2
 797              		.global	CapSense_1_CheckIsAnyWidgetActive
 798              		.thumb
 799              		.thumb_func
 800              		.type	CapSense_1_CheckIsAnyWidgetActive, %function
 801              	CapSense_1_CheckIsAnyWidgetActive:
 802              	.LFB7:
 753:./Generated_Source/PSoC5/CapSense_1_CSHL.c **** 
 754:./Generated_Source/PSoC5/CapSense_1_CSHL.c **** 
 755:./Generated_Source/PSoC5/CapSense_1_CSHL.c **** /*******************************************************************************
 756:./Generated_Source/PSoC5/CapSense_1_CSHL.c **** * Function Name: CapSense_1_CheckIsAnyWidgetActive
 757:./Generated_Source/PSoC5/CapSense_1_CSHL.c **** ********************************************************************************
 758:./Generated_Source/PSoC5/CapSense_1_CSHL.c **** *
 759:./Generated_Source/PSoC5/CapSense_1_CSHL.c **** * Summary:
 760:./Generated_Source/PSoC5/CapSense_1_CSHL.c **** *  Compares all sensors of the CapSense_1_Signal[] array to their finger 
 761:./Generated_Source/PSoC5/CapSense_1_CSHL.c **** *  threshold. Calls CapSense_1_CheckIsWidgetActive() for each widget so 
 762:./Generated_Source/PSoC5/CapSense_1_CSHL.c **** *  the CapSense_1_SensorOnMask[] array is up to date after calling this 
 763:./Generated_Source/PSoC5/CapSense_1_CSHL.c **** *  function.
 764:./Generated_Source/PSoC5/CapSense_1_CSHL.c **** *
 765:./Generated_Source/PSoC5/CapSense_1_CSHL.c **** * Parameters:
 766:./Generated_Source/PSoC5/CapSense_1_CSHL.c **** *  widget:  widget number.
 767:./Generated_Source/PSoC5/CapSense_1_CSHL.c **** *
 768:./Generated_Source/PSoC5/CapSense_1_CSHL.c **** * Return:
 769:./Generated_Source/PSoC5/CapSense_1_CSHL.c **** *  Returns 1 if any widget is active, 0 none of widgets are active.
 770:./Generated_Source/PSoC5/CapSense_1_CSHL.c **** *
 771:./Generated_Source/PSoC5/CapSense_1_CSHL.c **** * Reentrant:
 772:./Generated_Source/PSoC5/CapSense_1_CSHL.c **** *  No
 773:./Generated_Source/PSoC5/CapSense_1_CSHL.c **** *
 774:./Generated_Source/PSoC5/CapSense_1_CSHL.c **** *******************************************************************************/
 775:./Generated_Source/PSoC5/CapSense_1_CSHL.c **** uint8 CapSense_1_CheckIsAnyWidgetActive(void)
 776:./Generated_Source/PSoC5/CapSense_1_CSHL.c **** {
 803              		.loc 1 776 0
 804              		.cfi_startproc
 805              		@ args = 0, pretend = 0, frame = 8
 806              		@ frame_needed = 1, uses_anonymous_args = 0
 807 0000 80B5     		push	{r7, lr}
 808              	.LCFI21:
 809              		.cfi_def_cfa_offset 8
 810 0002 82B0     		sub	sp, sp, #8
 811              	.LCFI22:
 812              		.cfi_def_cfa_offset 16
 813 0004 00AF     		add	r7, sp, #0
 814              		.cfi_offset 14, -4
 815              		.cfi_offset 7, -8
 816              	.LCFI23:
ARM GAS  C:\Users\CHARLI~1\AppData\Local\Temp\ccF9CHT0.s 			page 29


 817              		.cfi_def_cfa_register 7
 777:./Generated_Source/PSoC5/CapSense_1_CSHL.c ****     uint8 i;
 778:./Generated_Source/PSoC5/CapSense_1_CSHL.c ****     uint8 state = 0u;
 818              		.loc 1 778 0
 819 0006 4FF00003 		mov	r3, #0
 820 000a FB71     		strb	r3, [r7, #7]
 779:./Generated_Source/PSoC5/CapSense_1_CSHL.c ****     
 780:./Generated_Source/PSoC5/CapSense_1_CSHL.c ****     for(i = 0u; i < CapSense_1_TOTAL_WIDGET_COUNT; i++)
 821              		.loc 1 780 0
 822 000c 4FF00003 		mov	r3, #0
 823 0010 BB71     		strb	r3, [r7, #6]
 824 0012 0DE0     		b	.L40
 825              	.L42:
 781:./Generated_Source/PSoC5/CapSense_1_CSHL.c ****     {
 782:./Generated_Source/PSoC5/CapSense_1_CSHL.c ****         if (CapSense_1_CheckIsWidgetActive(i) != 0u)
 826              		.loc 1 782 0
 827 0014 BB79     		ldrb	r3, [r7, #6]	@ zero_extendqisi2
 828 0016 1846     		mov	r0, r3
 829 0018 FFF7FEFF 		bl	CapSense_1_CheckIsWidgetActive
 830 001c 0346     		mov	r3, r0
 831 001e 002B     		cmp	r3, #0
 832 0020 02D0     		beq	.L41
 783:./Generated_Source/PSoC5/CapSense_1_CSHL.c ****         {
 784:./Generated_Source/PSoC5/CapSense_1_CSHL.c ****             state = CapSense_1_WIDGET_IS_ACTIVE;
 833              		.loc 1 784 0
 834 0022 4FF00103 		mov	r3, #1
 835 0026 FB71     		strb	r3, [r7, #7]
 836              	.L41:
 837              		.loc 1 780 0
 838 0028 BB79     		ldrb	r3, [r7, #6]
 839 002a 03F10103 		add	r3, r3, #1
 840 002e BB71     		strb	r3, [r7, #6]
 841              	.L40:
 842 0030 BB79     		ldrb	r3, [r7, #6]	@ zero_extendqisi2
 843 0032 002B     		cmp	r3, #0
 844 0034 EED0     		beq	.L42
 785:./Generated_Source/PSoC5/CapSense_1_CSHL.c ****         }
 786:./Generated_Source/PSoC5/CapSense_1_CSHL.c ****     }
 787:./Generated_Source/PSoC5/CapSense_1_CSHL.c ****     
 788:./Generated_Source/PSoC5/CapSense_1_CSHL.c **** 
 789:./Generated_Source/PSoC5/CapSense_1_CSHL.c ****     return state;
 845              		.loc 1 789 0
 846 0036 FB79     		ldrb	r3, [r7, #7]	@ zero_extendqisi2
 790:./Generated_Source/PSoC5/CapSense_1_CSHL.c **** }
 847              		.loc 1 790 0
 848 0038 1846     		mov	r0, r3
 849 003a 07F10807 		add	r7, r7, #8
 850 003e BD46     		mov	sp, r7
 851 0040 80BD     		pop	{r7, pc}
 852              		.cfi_endproc
 853              	.LFE7:
 854              		.size	CapSense_1_CheckIsAnyWidgetActive, .-CapSense_1_CheckIsAnyWidgetActive
 855 0042 00BF     		.section	.text.CapSense_1_EnableWidget,"ax",%progbits
 856              		.align	2
 857              		.global	CapSense_1_EnableWidget
 858              		.thumb
 859              		.thumb_func
ARM GAS  C:\Users\CHARLI~1\AppData\Local\Temp\ccF9CHT0.s 			page 30


 860              		.type	CapSense_1_EnableWidget, %function
 861              	CapSense_1_EnableWidget:
 862              	.LFB8:
 791:./Generated_Source/PSoC5/CapSense_1_CSHL.c **** 
 792:./Generated_Source/PSoC5/CapSense_1_CSHL.c **** 
 793:./Generated_Source/PSoC5/CapSense_1_CSHL.c **** /*******************************************************************************
 794:./Generated_Source/PSoC5/CapSense_1_CSHL.c **** * Function Name: CapSense_1_EnableWidget
 795:./Generated_Source/PSoC5/CapSense_1_CSHL.c **** ********************************************************************************
 796:./Generated_Source/PSoC5/CapSense_1_CSHL.c **** *
 797:./Generated_Source/PSoC5/CapSense_1_CSHL.c **** * Summary:
 798:./Generated_Source/PSoC5/CapSense_1_CSHL.c **** *  Enable all widget elements (sensors) to scanning process.
 799:./Generated_Source/PSoC5/CapSense_1_CSHL.c **** *
 800:./Generated_Source/PSoC5/CapSense_1_CSHL.c **** * Parameters:
 801:./Generated_Source/PSoC5/CapSense_1_CSHL.c **** *  widget:  widget number.
 802:./Generated_Source/PSoC5/CapSense_1_CSHL.c **** *
 803:./Generated_Source/PSoC5/CapSense_1_CSHL.c **** * Return:
 804:./Generated_Source/PSoC5/CapSense_1_CSHL.c **** *  None
 805:./Generated_Source/PSoC5/CapSense_1_CSHL.c **** *
 806:./Generated_Source/PSoC5/CapSense_1_CSHL.c **** * Global Variables:
 807:./Generated_Source/PSoC5/CapSense_1_CSHL.c **** *  CapSense_1_SensorEnableMask[] - used to store the sensor scanning 
 808:./Generated_Source/PSoC5/CapSense_1_CSHL.c **** *  state.
 809:./Generated_Source/PSoC5/CapSense_1_CSHL.c **** *  CapSense_1_SensorEnableMask[0] contains the masked bits for sensors 
 810:./Generated_Source/PSoC5/CapSense_1_CSHL.c **** *  0 through 7 (sensor 0 is bit 0, sensor 1 is bit 1).
 811:./Generated_Source/PSoC5/CapSense_1_CSHL.c **** *  CapSense_1_SensorEnableMask[1] contains the masked bits for 
 812:./Generated_Source/PSoC5/CapSense_1_CSHL.c **** *  sensors 8 through 15 (if needed), and so on.
 813:./Generated_Source/PSoC5/CapSense_1_CSHL.c **** *  0 - sensor doesn't scan by CapSense_1_ScanEnabledWidgets().
 814:./Generated_Source/PSoC5/CapSense_1_CSHL.c **** *  1 - sensor scans by CapSense_1_ScanEnabledWidgets().
 815:./Generated_Source/PSoC5/CapSense_1_CSHL.c **** *
 816:./Generated_Source/PSoC5/CapSense_1_CSHL.c **** * Reentrant:
 817:./Generated_Source/PSoC5/CapSense_1_CSHL.c **** *  No
 818:./Generated_Source/PSoC5/CapSense_1_CSHL.c **** *
 819:./Generated_Source/PSoC5/CapSense_1_CSHL.c **** *******************************************************************************/
 820:./Generated_Source/PSoC5/CapSense_1_CSHL.c **** void CapSense_1_EnableWidget(uint8 widget)
 821:./Generated_Source/PSoC5/CapSense_1_CSHL.c **** {
 863              		.loc 1 821 0
 864              		.cfi_startproc
 865              		@ args = 0, pretend = 0, frame = 16
 866              		@ frame_needed = 1, uses_anonymous_args = 0
 867              		@ link register save eliminated.
 868 0000 80B4     		push	{r7}
 869              	.LCFI24:
 870              		.cfi_def_cfa_offset 4
 871 0002 85B0     		sub	sp, sp, #20
 872              	.LCFI25:
 873              		.cfi_def_cfa_offset 24
 874 0004 00AF     		add	r7, sp, #0
 875              		.cfi_offset 7, -4
 876              	.LCFI26:
 877              		.cfi_def_cfa_register 7
 878 0006 0346     		mov	r3, r0
 879 0008 FB71     		strb	r3, [r7, #7]
 822:./Generated_Source/PSoC5/CapSense_1_CSHL.c ****     uint8 pos;
 823:./Generated_Source/PSoC5/CapSense_1_CSHL.c ****     uint8 enMask;
 824:./Generated_Source/PSoC5/CapSense_1_CSHL.c ****     uint8 rawIndex = CapSense_1_rawDataIndex[widget];
 880              		.loc 1 824 0
 881 000a FA79     		ldrb	r2, [r7, #7]	@ zero_extendqisi2
 882 000c 40F20003 		movw	r3, #:lower16:CapSense_1_rawDataIndex
ARM GAS  C:\Users\CHARLI~1\AppData\Local\Temp\ccF9CHT0.s 			page 31


 883 0010 C0F20003 		movt	r3, #:upper16:CapSense_1_rawDataIndex
 884 0014 9B5C     		ldrb	r3, [r3, r2]
 885 0016 BB73     		strb	r3, [r7, #14]
 825:./Generated_Source/PSoC5/CapSense_1_CSHL.c ****     uint8 numberOfSensors = CapSense_1_numberOfSensors[widget] + rawIndex;
 886              		.loc 1 825 0
 887 0018 FA79     		ldrb	r2, [r7, #7]	@ zero_extendqisi2
 888 001a 40F20003 		movw	r3, #:lower16:CapSense_1_numberOfSensors
 889 001e C0F20003 		movt	r3, #:upper16:CapSense_1_numberOfSensors
 890 0022 9A5C     		ldrb	r2, [r3, r2]	@ zero_extendqisi2
 891 0024 BB7B     		ldrb	r3, [r7, #14]
 892 0026 1344     		add	r3, r2, r3
 893 0028 FB73     		strb	r3, [r7, #15]
 894              	.L45:
 826:./Generated_Source/PSoC5/CapSense_1_CSHL.c ****     
 827:./Generated_Source/PSoC5/CapSense_1_CSHL.c ****     /* Enable all sensors of the widget */
 828:./Generated_Source/PSoC5/CapSense_1_CSHL.c ****     do
 829:./Generated_Source/PSoC5/CapSense_1_CSHL.c ****     {
 830:./Generated_Source/PSoC5/CapSense_1_CSHL.c ****         pos = (rawIndex >> 3u);
 895              		.loc 1 830 0
 896 002a BB7B     		ldrb	r3, [r7, #14]	@ zero_extendqisi2
 897 002c 4FEAD303 		lsr	r3, r3, #3
 898 0030 3B73     		strb	r3, [r7, #12]
 831:./Generated_Source/PSoC5/CapSense_1_CSHL.c ****         enMask = 0x01u << (rawIndex & 0x07u);
 899              		.loc 1 831 0
 900 0032 BB7B     		ldrb	r3, [r7, #14]	@ zero_extendqisi2
 901 0034 03F00703 		and	r3, r3, #7
 902 0038 4FF00102 		mov	r2, #1
 903 003c 02FA03F3 		lsl	r3, r2, r3
 904 0040 7B73     		strb	r3, [r7, #13]
 832:./Generated_Source/PSoC5/CapSense_1_CSHL.c ****         
 833:./Generated_Source/PSoC5/CapSense_1_CSHL.c ****         CapSense_1_SensorEnableMask[pos] |= enMask;
 905              		.loc 1 833 0
 906 0042 3A7B     		ldrb	r2, [r7, #12]	@ zero_extendqisi2
 907 0044 397B     		ldrb	r1, [r7, #12]	@ zero_extendqisi2
 908 0046 40F20003 		movw	r3, #:lower16:CapSense_1_SensorEnableMask
 909 004a C0F20003 		movt	r3, #:upper16:CapSense_1_SensorEnableMask
 910 004e 595C     		ldrb	r1, [r3, r1]	@ zero_extendqisi2
 911 0050 7B7B     		ldrb	r3, [r7, #13]
 912 0052 41EA0303 		orr	r3, r1, r3
 913 0056 D9B2     		uxtb	r1, r3
 914 0058 40F20003 		movw	r3, #:lower16:CapSense_1_SensorEnableMask
 915 005c C0F20003 		movt	r3, #:upper16:CapSense_1_SensorEnableMask
 916 0060 9954     		strb	r1, [r3, r2]
 834:./Generated_Source/PSoC5/CapSense_1_CSHL.c ****         rawIndex++;
 917              		.loc 1 834 0
 918 0062 BB7B     		ldrb	r3, [r7, #14]
 919 0064 03F10103 		add	r3, r3, #1
 920 0068 BB73     		strb	r3, [r7, #14]
 835:./Generated_Source/PSoC5/CapSense_1_CSHL.c ****     }
 836:./Generated_Source/PSoC5/CapSense_1_CSHL.c ****     while(rawIndex < numberOfSensors);
 921              		.loc 1 836 0
 922 006a BA7B     		ldrb	r2, [r7, #14]	@ zero_extendqisi2
 923 006c FB7B     		ldrb	r3, [r7, #15]	@ zero_extendqisi2
 924 006e 9A42     		cmp	r2, r3
 925 0070 DBD3     		bcc	.L45
 837:./Generated_Source/PSoC5/CapSense_1_CSHL.c ****     
 838:./Generated_Source/PSoC5/CapSense_1_CSHL.c **** 
ARM GAS  C:\Users\CHARLI~1\AppData\Local\Temp\ccF9CHT0.s 			page 32


 839:./Generated_Source/PSoC5/CapSense_1_CSHL.c **** }
 926              		.loc 1 839 0
 927 0072 07F11407 		add	r7, r7, #20
 928 0076 BD46     		mov	sp, r7
 929 0078 80BC     		pop	{r7}
 930 007a 7047     		bx	lr
 931              		.cfi_endproc
 932              	.LFE8:
 933              		.size	CapSense_1_EnableWidget, .-CapSense_1_EnableWidget
 934              		.section	.text.CapSense_1_DisableWidget,"ax",%progbits
 935              		.align	2
 936              		.global	CapSense_1_DisableWidget
 937              		.thumb
 938              		.thumb_func
 939              		.type	CapSense_1_DisableWidget, %function
 940              	CapSense_1_DisableWidget:
 941              	.LFB9:
 840:./Generated_Source/PSoC5/CapSense_1_CSHL.c **** 
 841:./Generated_Source/PSoC5/CapSense_1_CSHL.c **** 
 842:./Generated_Source/PSoC5/CapSense_1_CSHL.c **** /*******************************************************************************
 843:./Generated_Source/PSoC5/CapSense_1_CSHL.c **** * Function Name: CapSense_1_DisableWidget
 844:./Generated_Source/PSoC5/CapSense_1_CSHL.c **** ********************************************************************************
 845:./Generated_Source/PSoC5/CapSense_1_CSHL.c **** *
 846:./Generated_Source/PSoC5/CapSense_1_CSHL.c **** * Summary:
 847:./Generated_Source/PSoC5/CapSense_1_CSHL.c **** *  Disable all widget elements (sensors) from scanning process.
 848:./Generated_Source/PSoC5/CapSense_1_CSHL.c **** *
 849:./Generated_Source/PSoC5/CapSense_1_CSHL.c **** * Parameters:
 850:./Generated_Source/PSoC5/CapSense_1_CSHL.c **** *  widget:  widget number.
 851:./Generated_Source/PSoC5/CapSense_1_CSHL.c **** *
 852:./Generated_Source/PSoC5/CapSense_1_CSHL.c **** * Return:
 853:./Generated_Source/PSoC5/CapSense_1_CSHL.c **** *  None
 854:./Generated_Source/PSoC5/CapSense_1_CSHL.c **** *
 855:./Generated_Source/PSoC5/CapSense_1_CSHL.c **** * Global Variables:
 856:./Generated_Source/PSoC5/CapSense_1_CSHL.c **** *  CapSense_1_SensorEnableMask[] - used to store the sensor scanning 
 857:./Generated_Source/PSoC5/CapSense_1_CSHL.c **** *  state.
 858:./Generated_Source/PSoC5/CapSense_1_CSHL.c **** *  CapSense_1_SensorEnableMask[0] contains the masked bits for sensors 
 859:./Generated_Source/PSoC5/CapSense_1_CSHL.c **** *  0 through 7 (sensor 0 is bit 0, sensor 1 is bit 1).
 860:./Generated_Source/PSoC5/CapSense_1_CSHL.c **** *  CapSense_1_SensorEnableMask[1] contains the masked bits for 
 861:./Generated_Source/PSoC5/CapSense_1_CSHL.c **** *  sensors 8 through 15 (if needed), and so on.
 862:./Generated_Source/PSoC5/CapSense_1_CSHL.c **** *  0 - sensor doesn't scan by CapSense_1_ScanEnabledWidgets().
 863:./Generated_Source/PSoC5/CapSense_1_CSHL.c **** *  1 - sensor scans by CapSense_1_ScanEnabledWidgets().
 864:./Generated_Source/PSoC5/CapSense_1_CSHL.c **** *
 865:./Generated_Source/PSoC5/CapSense_1_CSHL.c **** * Reentrant:
 866:./Generated_Source/PSoC5/CapSense_1_CSHL.c **** *  No
 867:./Generated_Source/PSoC5/CapSense_1_CSHL.c **** *
 868:./Generated_Source/PSoC5/CapSense_1_CSHL.c **** *******************************************************************************/
 869:./Generated_Source/PSoC5/CapSense_1_CSHL.c **** void CapSense_1_DisableWidget(uint8 widget)
 870:./Generated_Source/PSoC5/CapSense_1_CSHL.c **** {
 942              		.loc 1 870 0
 943              		.cfi_startproc
 944              		@ args = 0, pretend = 0, frame = 16
 945              		@ frame_needed = 1, uses_anonymous_args = 0
 946              		@ link register save eliminated.
 947 0000 80B4     		push	{r7}
 948              	.LCFI27:
 949              		.cfi_def_cfa_offset 4
 950 0002 85B0     		sub	sp, sp, #20
ARM GAS  C:\Users\CHARLI~1\AppData\Local\Temp\ccF9CHT0.s 			page 33


 951              	.LCFI28:
 952              		.cfi_def_cfa_offset 24
 953 0004 00AF     		add	r7, sp, #0
 954              		.cfi_offset 7, -4
 955              	.LCFI29:
 956              		.cfi_def_cfa_register 7
 957 0006 0346     		mov	r3, r0
 958 0008 FB71     		strb	r3, [r7, #7]
 871:./Generated_Source/PSoC5/CapSense_1_CSHL.c ****     uint8 pos;
 872:./Generated_Source/PSoC5/CapSense_1_CSHL.c ****     uint8 enMask;
 873:./Generated_Source/PSoC5/CapSense_1_CSHL.c ****     uint8 rawIndex = CapSense_1_rawDataIndex[widget];
 959              		.loc 1 873 0
 960 000a FA79     		ldrb	r2, [r7, #7]	@ zero_extendqisi2
 961 000c 40F20003 		movw	r3, #:lower16:CapSense_1_rawDataIndex
 962 0010 C0F20003 		movt	r3, #:upper16:CapSense_1_rawDataIndex
 963 0014 9B5C     		ldrb	r3, [r3, r2]
 964 0016 BB73     		strb	r3, [r7, #14]
 874:./Generated_Source/PSoC5/CapSense_1_CSHL.c ****     uint8 numberOfSensors = CapSense_1_numberOfSensors[widget] + rawIndex;
 965              		.loc 1 874 0
 966 0018 FA79     		ldrb	r2, [r7, #7]	@ zero_extendqisi2
 967 001a 40F20003 		movw	r3, #:lower16:CapSense_1_numberOfSensors
 968 001e C0F20003 		movt	r3, #:upper16:CapSense_1_numberOfSensors
 969 0022 9A5C     		ldrb	r2, [r3, r2]	@ zero_extendqisi2
 970 0024 BB7B     		ldrb	r3, [r7, #14]
 971 0026 1344     		add	r3, r2, r3
 972 0028 FB73     		strb	r3, [r7, #15]
 973              	.L48:
 875:./Generated_Source/PSoC5/CapSense_1_CSHL.c ****    
 876:./Generated_Source/PSoC5/CapSense_1_CSHL.c ****     /* Disable all sensors of the widget */
 877:./Generated_Source/PSoC5/CapSense_1_CSHL.c ****     do
 878:./Generated_Source/PSoC5/CapSense_1_CSHL.c ****     {
 879:./Generated_Source/PSoC5/CapSense_1_CSHL.c ****         pos = (rawIndex >> 3u);
 974              		.loc 1 879 0
 975 002a BB7B     		ldrb	r3, [r7, #14]	@ zero_extendqisi2
 976 002c 4FEAD303 		lsr	r3, r3, #3
 977 0030 3B73     		strb	r3, [r7, #12]
 880:./Generated_Source/PSoC5/CapSense_1_CSHL.c ****         enMask = 0x01u << (rawIndex & 0x07u);
 978              		.loc 1 880 0
 979 0032 BB7B     		ldrb	r3, [r7, #14]	@ zero_extendqisi2
 980 0034 03F00703 		and	r3, r3, #7
 981 0038 4FF00102 		mov	r2, #1
 982 003c 02FA03F3 		lsl	r3, r2, r3
 983 0040 7B73     		strb	r3, [r7, #13]
 881:./Generated_Source/PSoC5/CapSense_1_CSHL.c ****         
 882:./Generated_Source/PSoC5/CapSense_1_CSHL.c ****         CapSense_1_SensorEnableMask[pos] &= ~enMask;
 984              		.loc 1 882 0
 985 0042 3A7B     		ldrb	r2, [r7, #12]	@ zero_extendqisi2
 986 0044 397B     		ldrb	r1, [r7, #12]	@ zero_extendqisi2
 987 0046 40F20003 		movw	r3, #:lower16:CapSense_1_SensorEnableMask
 988 004a C0F20003 		movt	r3, #:upper16:CapSense_1_SensorEnableMask
 989 004e 5B5C     		ldrb	r3, [r3, r1]	@ zero_extendqisi2
 990 0050 1946     		mov	r1, r3
 991 0052 7B7B     		ldrb	r3, [r7, #13]	@ zero_extendqisi2
 992 0054 6FEA0303 		mvn	r3, r3
 993 0058 DBB2     		uxtb	r3, r3
 994 005a 01EA0303 		and	r3, r1, r3
 995 005e DBB2     		uxtb	r3, r3
ARM GAS  C:\Users\CHARLI~1\AppData\Local\Temp\ccF9CHT0.s 			page 34


 996 0060 D9B2     		uxtb	r1, r3
 997 0062 40F20003 		movw	r3, #:lower16:CapSense_1_SensorEnableMask
 998 0066 C0F20003 		movt	r3, #:upper16:CapSense_1_SensorEnableMask
 999 006a 9954     		strb	r1, [r3, r2]
 883:./Generated_Source/PSoC5/CapSense_1_CSHL.c ****         rawIndex++;
 1000              		.loc 1 883 0
 1001 006c BB7B     		ldrb	r3, [r7, #14]
 1002 006e 03F10103 		add	r3, r3, #1
 1003 0072 BB73     		strb	r3, [r7, #14]
 884:./Generated_Source/PSoC5/CapSense_1_CSHL.c ****     }
 885:./Generated_Source/PSoC5/CapSense_1_CSHL.c ****     while(rawIndex < numberOfSensors);
 1004              		.loc 1 885 0
 1005 0074 BA7B     		ldrb	r2, [r7, #14]	@ zero_extendqisi2
 1006 0076 FB7B     		ldrb	r3, [r7, #15]	@ zero_extendqisi2
 1007 0078 9A42     		cmp	r2, r3
 1008 007a D6D3     		bcc	.L48
 886:./Generated_Source/PSoC5/CapSense_1_CSHL.c ****     
 887:./Generated_Source/PSoC5/CapSense_1_CSHL.c **** 
 888:./Generated_Source/PSoC5/CapSense_1_CSHL.c **** }
 1009              		.loc 1 888 0
 1010 007c 07F11407 		add	r7, r7, #20
 1011 0080 BD46     		mov	sp, r7
 1012 0082 80BC     		pop	{r7}
 1013 0084 7047     		bx	lr
 1014              		.cfi_endproc
 1015              	.LFE9:
 1016              		.size	CapSense_1_DisableWidget, .-CapSense_1_DisableWidget
 1017 0086 00BF     		.section	.text.CapSense_1_IIR4Filter,"ax",%progbits
 1018              		.align	2
 1019              		.global	CapSense_1_IIR4Filter
 1020              		.thumb
 1021              		.thumb_func
 1022              		.type	CapSense_1_IIR4Filter, %function
 1023              	CapSense_1_IIR4Filter:
 1024              	.LFB10:
 889:./Generated_Source/PSoC5/CapSense_1_CSHL.c **** 
 890:./Generated_Source/PSoC5/CapSense_1_CSHL.c **** 
 891:./Generated_Source/PSoC5/CapSense_1_CSHL.c **** 
 892:./Generated_Source/PSoC5/CapSense_1_CSHL.c **** 
 893:./Generated_Source/PSoC5/CapSense_1_CSHL.c **** #if ( (CapSense_1_RAW_FILTER_MASK & CapSense_1_MEDIAN_FILTER) || \
 894:./Generated_Source/PSoC5/CapSense_1_CSHL.c ****       (CapSense_1_POS_FILTERS_MASK & CapSense_1_MEDIAN_FILTER) )
 895:./Generated_Source/PSoC5/CapSense_1_CSHL.c ****     /*******************************************************************************
 896:./Generated_Source/PSoC5/CapSense_1_CSHL.c ****     * Function Name: CapSense_1_MedianFilter
 897:./Generated_Source/PSoC5/CapSense_1_CSHL.c ****     ********************************************************************************
 898:./Generated_Source/PSoC5/CapSense_1_CSHL.c ****     *
 899:./Generated_Source/PSoC5/CapSense_1_CSHL.c ****     * Summary:
 900:./Generated_Source/PSoC5/CapSense_1_CSHL.c ****     *  Median filter function. 
 901:./Generated_Source/PSoC5/CapSense_1_CSHL.c ****     *  The median filter looks at the three most recent samples and reports the 
 902:./Generated_Source/PSoC5/CapSense_1_CSHL.c ****     *  median value.
 903:./Generated_Source/PSoC5/CapSense_1_CSHL.c ****     *
 904:./Generated_Source/PSoC5/CapSense_1_CSHL.c ****     * Parameters:
 905:./Generated_Source/PSoC5/CapSense_1_CSHL.c ****     *  x1:  Current value.
 906:./Generated_Source/PSoC5/CapSense_1_CSHL.c ****     *  x2:  Previous value.
 907:./Generated_Source/PSoC5/CapSense_1_CSHL.c ****     *  x3:  Before previous value.
 908:./Generated_Source/PSoC5/CapSense_1_CSHL.c ****     *
 909:./Generated_Source/PSoC5/CapSense_1_CSHL.c ****     * Return:
 910:./Generated_Source/PSoC5/CapSense_1_CSHL.c ****     *  Returns filtered value.
ARM GAS  C:\Users\CHARLI~1\AppData\Local\Temp\ccF9CHT0.s 			page 35


 911:./Generated_Source/PSoC5/CapSense_1_CSHL.c ****     *
 912:./Generated_Source/PSoC5/CapSense_1_CSHL.c ****     *******************************************************************************/
 913:./Generated_Source/PSoC5/CapSense_1_CSHL.c ****     uint16 CapSense_1_MedianFilter(uint16 x1, uint16 x2, uint16 x3) \
 914:./Generated_Source/PSoC5/CapSense_1_CSHL.c ****                                          
 915:./Generated_Source/PSoC5/CapSense_1_CSHL.c ****     {
 916:./Generated_Source/PSoC5/CapSense_1_CSHL.c ****         uint16 tmp;
 917:./Generated_Source/PSoC5/CapSense_1_CSHL.c ****         
 918:./Generated_Source/PSoC5/CapSense_1_CSHL.c ****         if (x1 > x2)
 919:./Generated_Source/PSoC5/CapSense_1_CSHL.c ****         {
 920:./Generated_Source/PSoC5/CapSense_1_CSHL.c ****             tmp = x2;
 921:./Generated_Source/PSoC5/CapSense_1_CSHL.c ****             x2 = x1;
 922:./Generated_Source/PSoC5/CapSense_1_CSHL.c ****             x1 = tmp;
 923:./Generated_Source/PSoC5/CapSense_1_CSHL.c ****         }
 924:./Generated_Source/PSoC5/CapSense_1_CSHL.c ****         
 925:./Generated_Source/PSoC5/CapSense_1_CSHL.c ****         if (x2 > x3)
 926:./Generated_Source/PSoC5/CapSense_1_CSHL.c ****         {
 927:./Generated_Source/PSoC5/CapSense_1_CSHL.c ****             x2 = x3;
 928:./Generated_Source/PSoC5/CapSense_1_CSHL.c ****         }
 929:./Generated_Source/PSoC5/CapSense_1_CSHL.c ****         
 930:./Generated_Source/PSoC5/CapSense_1_CSHL.c ****         return ((x1 > x2) ? x1 : x2);
 931:./Generated_Source/PSoC5/CapSense_1_CSHL.c ****     }
 932:./Generated_Source/PSoC5/CapSense_1_CSHL.c **** #endif /* End CapSense_1_RAW_FILTER_MASK && CapSense_1_POS_FILTERS_MASK */
 933:./Generated_Source/PSoC5/CapSense_1_CSHL.c **** 
 934:./Generated_Source/PSoC5/CapSense_1_CSHL.c **** 
 935:./Generated_Source/PSoC5/CapSense_1_CSHL.c **** #if ( (CapSense_1_RAW_FILTER_MASK & CapSense_1_AVERAGING_FILTER) || \
 936:./Generated_Source/PSoC5/CapSense_1_CSHL.c ****       (CapSense_1_POS_FILTERS_MASK & CapSense_1_AVERAGING_FILTER) )
 937:./Generated_Source/PSoC5/CapSense_1_CSHL.c ****     /*******************************************************************************
 938:./Generated_Source/PSoC5/CapSense_1_CSHL.c ****     * Function Name: CapSense_1_AveragingFilter
 939:./Generated_Source/PSoC5/CapSense_1_CSHL.c ****     ********************************************************************************
 940:./Generated_Source/PSoC5/CapSense_1_CSHL.c ****     *
 941:./Generated_Source/PSoC5/CapSense_1_CSHL.c ****     * Summary:
 942:./Generated_Source/PSoC5/CapSense_1_CSHL.c ****     *  Averaging filter function.
 943:./Generated_Source/PSoC5/CapSense_1_CSHL.c ****     *  The averaging filter looks at the three most recent samples of position and
 944:./Generated_Source/PSoC5/CapSense_1_CSHL.c ****     *  reports the averaging value.
 945:./Generated_Source/PSoC5/CapSense_1_CSHL.c ****     *
 946:./Generated_Source/PSoC5/CapSense_1_CSHL.c ****     * Parameters:
 947:./Generated_Source/PSoC5/CapSense_1_CSHL.c ****     *  x1:  Current value.
 948:./Generated_Source/PSoC5/CapSense_1_CSHL.c ****     *  x2:  Previous value.
 949:./Generated_Source/PSoC5/CapSense_1_CSHL.c ****     *  x3:  Before previous value.
 950:./Generated_Source/PSoC5/CapSense_1_CSHL.c ****     *
 951:./Generated_Source/PSoC5/CapSense_1_CSHL.c ****     * Return:
 952:./Generated_Source/PSoC5/CapSense_1_CSHL.c ****     *  Returns filtered value.
 953:./Generated_Source/PSoC5/CapSense_1_CSHL.c ****     *
 954:./Generated_Source/PSoC5/CapSense_1_CSHL.c ****     *******************************************************************************/
 955:./Generated_Source/PSoC5/CapSense_1_CSHL.c ****     uint16 CapSense_1_AveragingFilter(uint16 x1, uint16 x2, uint16 x3) \
 956:./Generated_Source/PSoC5/CapSense_1_CSHL.c ****                                             
 957:./Generated_Source/PSoC5/CapSense_1_CSHL.c ****     {
 958:./Generated_Source/PSoC5/CapSense_1_CSHL.c ****         uint32 tmp = ((uint32)x1 + (uint32)x2 + (uint32)x3) / 3u;
 959:./Generated_Source/PSoC5/CapSense_1_CSHL.c ****         
 960:./Generated_Source/PSoC5/CapSense_1_CSHL.c ****         return ((uint16) tmp);
 961:./Generated_Source/PSoC5/CapSense_1_CSHL.c ****     }
 962:./Generated_Source/PSoC5/CapSense_1_CSHL.c **** #endif /* End CapSense_1_RAW_FILTER_MASK && CapSense_1_POS_FILTERS_MASK */
 963:./Generated_Source/PSoC5/CapSense_1_CSHL.c **** 
 964:./Generated_Source/PSoC5/CapSense_1_CSHL.c **** 
 965:./Generated_Source/PSoC5/CapSense_1_CSHL.c **** #if ( (CapSense_1_RAW_FILTER_MASK & CapSense_1_IIR2_FILTER) || \
 966:./Generated_Source/PSoC5/CapSense_1_CSHL.c ****       (CapSense_1_POS_FILTERS_MASK & CapSense_1_IIR2_FILTER) )
 967:./Generated_Source/PSoC5/CapSense_1_CSHL.c ****     /*******************************************************************************
ARM GAS  C:\Users\CHARLI~1\AppData\Local\Temp\ccF9CHT0.s 			page 36


 968:./Generated_Source/PSoC5/CapSense_1_CSHL.c ****     * Function Name: CapSense_1_IIR2Filter
 969:./Generated_Source/PSoC5/CapSense_1_CSHL.c ****     ********************************************************************************
 970:./Generated_Source/PSoC5/CapSense_1_CSHL.c ****     *
 971:./Generated_Source/PSoC5/CapSense_1_CSHL.c ****     * Summary:
 972:./Generated_Source/PSoC5/CapSense_1_CSHL.c ****     *  IIR1/2 filter function. IIR1/2 = 1/2current + 1/2previous.
 973:./Generated_Source/PSoC5/CapSense_1_CSHL.c ****     *
 974:./Generated_Source/PSoC5/CapSense_1_CSHL.c ****     * Parameters:
 975:./Generated_Source/PSoC5/CapSense_1_CSHL.c ****     *  x1:  Current value.
 976:./Generated_Source/PSoC5/CapSense_1_CSHL.c ****     *  x2:  Previous value.
 977:./Generated_Source/PSoC5/CapSense_1_CSHL.c ****     *
 978:./Generated_Source/PSoC5/CapSense_1_CSHL.c ****     * Return:
 979:./Generated_Source/PSoC5/CapSense_1_CSHL.c ****     *  Returns filtered value.
 980:./Generated_Source/PSoC5/CapSense_1_CSHL.c ****     *
 981:./Generated_Source/PSoC5/CapSense_1_CSHL.c ****     *******************************************************************************/
 982:./Generated_Source/PSoC5/CapSense_1_CSHL.c ****     uint16 CapSense_1_IIR2Filter(uint16 x1, uint16 x2) \
 983:./Generated_Source/PSoC5/CapSense_1_CSHL.c ****                                        
 984:./Generated_Source/PSoC5/CapSense_1_CSHL.c ****     {
 985:./Generated_Source/PSoC5/CapSense_1_CSHL.c ****         uint32 tmp;
 986:./Generated_Source/PSoC5/CapSense_1_CSHL.c ****         
 987:./Generated_Source/PSoC5/CapSense_1_CSHL.c ****         /* IIR = 1/2 Current Value+ 1/2 Previous Value */
 988:./Generated_Source/PSoC5/CapSense_1_CSHL.c ****         tmp = (uint32)x1 + (uint32)x2;
 989:./Generated_Source/PSoC5/CapSense_1_CSHL.c ****         tmp >>= 1u;
 990:./Generated_Source/PSoC5/CapSense_1_CSHL.c ****     
 991:./Generated_Source/PSoC5/CapSense_1_CSHL.c ****         return ((uint16) tmp);
 992:./Generated_Source/PSoC5/CapSense_1_CSHL.c ****     }
 993:./Generated_Source/PSoC5/CapSense_1_CSHL.c **** #endif /* End CapSense_1_RAW_FILTER_MASK && CapSense_1_POS_FILTERS_MASK */
 994:./Generated_Source/PSoC5/CapSense_1_CSHL.c **** 
 995:./Generated_Source/PSoC5/CapSense_1_CSHL.c **** 
 996:./Generated_Source/PSoC5/CapSense_1_CSHL.c **** #if ( (CapSense_1_RAW_FILTER_MASK & CapSense_1_IIR4_FILTER) || \
 997:./Generated_Source/PSoC5/CapSense_1_CSHL.c ****       (CapSense_1_POS_FILTERS_MASK & CapSense_1_IIR4_FILTER) )
 998:./Generated_Source/PSoC5/CapSense_1_CSHL.c ****     /*******************************************************************************
 999:./Generated_Source/PSoC5/CapSense_1_CSHL.c ****     * Function Name: CapSense_1_IIR4Filter
1000:./Generated_Source/PSoC5/CapSense_1_CSHL.c ****     ********************************************************************************
1001:./Generated_Source/PSoC5/CapSense_1_CSHL.c ****     *
1002:./Generated_Source/PSoC5/CapSense_1_CSHL.c ****     * Summary:
1003:./Generated_Source/PSoC5/CapSense_1_CSHL.c ****     *  IIR1/4 filter function. IIR1/4 = 1/4current + 3/4previous.
1004:./Generated_Source/PSoC5/CapSense_1_CSHL.c ****     *
1005:./Generated_Source/PSoC5/CapSense_1_CSHL.c ****     * Parameters:
1006:./Generated_Source/PSoC5/CapSense_1_CSHL.c ****     *  x1:  Current value.
1007:./Generated_Source/PSoC5/CapSense_1_CSHL.c ****     *  x2:  Previous value.
1008:./Generated_Source/PSoC5/CapSense_1_CSHL.c ****     *
1009:./Generated_Source/PSoC5/CapSense_1_CSHL.c ****     * Return:
1010:./Generated_Source/PSoC5/CapSense_1_CSHL.c ****     *  Returns filtered value.
1011:./Generated_Source/PSoC5/CapSense_1_CSHL.c ****     *
1012:./Generated_Source/PSoC5/CapSense_1_CSHL.c ****     *******************************************************************************/
1013:./Generated_Source/PSoC5/CapSense_1_CSHL.c ****     uint16 CapSense_1_IIR4Filter(uint16 x1, uint16 x2) \
1014:./Generated_Source/PSoC5/CapSense_1_CSHL.c ****                                        
1015:./Generated_Source/PSoC5/CapSense_1_CSHL.c ****     {
 1025              		.loc 1 1015 0
 1026              		.cfi_startproc
 1027              		@ args = 0, pretend = 0, frame = 16
 1028              		@ frame_needed = 1, uses_anonymous_args = 0
 1029              		@ link register save eliminated.
 1030 0000 80B4     		push	{r7}
 1031              	.LCFI30:
 1032              		.cfi_def_cfa_offset 4
 1033 0002 85B0     		sub	sp, sp, #20
ARM GAS  C:\Users\CHARLI~1\AppData\Local\Temp\ccF9CHT0.s 			page 37


 1034              	.LCFI31:
 1035              		.cfi_def_cfa_offset 24
 1036 0004 00AF     		add	r7, sp, #0
 1037              		.cfi_offset 7, -4
 1038              	.LCFI32:
 1039              		.cfi_def_cfa_register 7
 1040 0006 0246     		mov	r2, r0
 1041 0008 0B46     		mov	r3, r1
 1042 000a FA80     		strh	r2, [r7, #6]	@ movhi
 1043 000c BB80     		strh	r3, [r7, #4]	@ movhi
1016:./Generated_Source/PSoC5/CapSense_1_CSHL.c ****         uint32 tmp;
1017:./Generated_Source/PSoC5/CapSense_1_CSHL.c ****         
1018:./Generated_Source/PSoC5/CapSense_1_CSHL.c ****         /* IIR = 1/4 Current Value + 3/4 Previous Value */
1019:./Generated_Source/PSoC5/CapSense_1_CSHL.c ****         tmp = (uint32)x1 + (uint32)x2;
 1044              		.loc 1 1019 0
 1045 000e FA88     		ldrh	r2, [r7, #6]
 1046 0010 BB88     		ldrh	r3, [r7, #4]
 1047 0012 1344     		add	r3, r2, r3
 1048 0014 FB60     		str	r3, [r7, #12]
1020:./Generated_Source/PSoC5/CapSense_1_CSHL.c ****         tmp += ((uint32)x2 << 1u);
 1049              		.loc 1 1020 0
 1050 0016 BB88     		ldrh	r3, [r7, #4]
 1051 0018 4FEA4303 		lsl	r3, r3, #1
 1052 001c FA68     		ldr	r2, [r7, #12]
 1053 001e 1344     		add	r3, r2, r3
 1054 0020 FB60     		str	r3, [r7, #12]
1021:./Generated_Source/PSoC5/CapSense_1_CSHL.c ****         tmp >>= 2u;
 1055              		.loc 1 1021 0
 1056 0022 FB68     		ldr	r3, [r7, #12]
 1057 0024 4FEA9303 		lsr	r3, r3, #2
 1058 0028 FB60     		str	r3, [r7, #12]
1022:./Generated_Source/PSoC5/CapSense_1_CSHL.c ****         
1023:./Generated_Source/PSoC5/CapSense_1_CSHL.c ****         return ((uint16) tmp);
 1059              		.loc 1 1023 0
 1060 002a FB68     		ldr	r3, [r7, #12]
 1061 002c 9BB2     		uxth	r3, r3
1024:./Generated_Source/PSoC5/CapSense_1_CSHL.c ****     }
 1062              		.loc 1 1024 0
 1063 002e 1846     		mov	r0, r3
 1064 0030 07F11407 		add	r7, r7, #20
 1065 0034 BD46     		mov	sp, r7
 1066 0036 80BC     		pop	{r7}
 1067 0038 7047     		bx	lr
 1068              		.cfi_endproc
 1069              	.LFE10:
 1070              		.size	CapSense_1_IIR4Filter, .-CapSense_1_IIR4Filter
 1071 003a 00BF     		.text
 1072              	.Letext0: