ARM GAS  C:\Users\CHARLI~1\AppData\Local\Temp\ccjZK1iR.s 			page 1


   1              		.syntax unified
   2              		.cpu cortex-m3
   3              		.fpu softvfp
   4              		.eabi_attribute 20, 1
   5              		.eabi_attribute 21, 1
   6              		.eabi_attribute 23, 3
   7              		.eabi_attribute 24, 1
   8              		.eabi_attribute 25, 1
   9              		.eabi_attribute 26, 1
  10              		.eabi_attribute 30, 6
  11              		.eabi_attribute 18, 4
  12              		.thumb
  13              		.file	"CapSense_PM.c"
  20 0000 C9000000 		.text
  20      02005800 
  20      00000201 
  20      FB0E0D00 
  20      01010101 
  21              	.Ltext0:
  22              		.cfi_sections	.debug_frame
  23              		.global	CapSense_backup
  24              		.data
  25              		.align	2
  26              		.type	CapSense_backup, %object
  27              		.size	CapSense_backup, 3
  28              	CapSense_backup:
  29 0000 00       		.byte	0
  30 0001 0B       		.byte	11
  31 0002 07       		.byte	7
  32 0003 00       		.section	.text.CapSense_SaveConfig,"ax",%progbits
  33              		.align	2
  34              		.global	CapSense_SaveConfig
  35              		.thumb
  36              		.thumb_func
  37              		.type	CapSense_SaveConfig, %function
  38              	CapSense_SaveConfig:
  39              	.LFB0:
  40              		.file 1 "./Generated_Source/PSoC5/CapSense_PM.c"
   1:./Generated_Source/PSoC5/CapSense_PM.c **** /*******************************************************************************
   2:./Generated_Source/PSoC5/CapSense_PM.c **** * File Name: CapSense_PM.c
   3:./Generated_Source/PSoC5/CapSense_PM.c **** * Version 2.10
   4:./Generated_Source/PSoC5/CapSense_PM.c **** *
   5:./Generated_Source/PSoC5/CapSense_PM.c **** * Description:
   6:./Generated_Source/PSoC5/CapSense_PM.c **** *  This file provides Sleep APIs for CapSense CSD Component.
   7:./Generated_Source/PSoC5/CapSense_PM.c **** *
   8:./Generated_Source/PSoC5/CapSense_PM.c **** * Note:
   9:./Generated_Source/PSoC5/CapSense_PM.c **** *
  10:./Generated_Source/PSoC5/CapSense_PM.c **** ********************************************************************************
  11:./Generated_Source/PSoC5/CapSense_PM.c **** * Copyright 2008-2010, Cypress Semiconductor Corporation.  All rights reserved.
  12:./Generated_Source/PSoC5/CapSense_PM.c **** * You may use this file only in accordance with the license, terms, conditions, 
  13:./Generated_Source/PSoC5/CapSense_PM.c **** * disclaimers, and limitations in the end user license agreement accompanying 
ARM GAS  C:\Users\CHARLI~1\AppData\Local\Temp\ccjZK1iR.s 			page 2


  14:./Generated_Source/PSoC5/CapSense_PM.c **** * the software package with which this file was provided.
  15:./Generated_Source/PSoC5/CapSense_PM.c **** *******************************************************************************/
  16:./Generated_Source/PSoC5/CapSense_PM.c **** 
  17:./Generated_Source/PSoC5/CapSense_PM.c **** #include "CapSense.h"
  18:./Generated_Source/PSoC5/CapSense_PM.c **** 
  19:./Generated_Source/PSoC5/CapSense_PM.c **** CapSense_BACKUP_STRUCT CapSense_backup =
  20:./Generated_Source/PSoC5/CapSense_PM.c **** {   
  21:./Generated_Source/PSoC5/CapSense_PM.c ****     0x00u, /* enableState; */
  22:./Generated_Source/PSoC5/CapSense_PM.c ****     #if (CapSense_PRESCALER_OPTIONS == CapSense_PRESCALER_UDB)
  23:./Generated_Source/PSoC5/CapSense_PM.c ****         #if (CapSense_PSOC3_ES2 || CapSense_PSOC5_ES1)
  24:./Generated_Source/PSoC5/CapSense_PM.c ****             CapSense_PRESCALER_VALUE, /* prescaler value */ 
  25:./Generated_Source/PSoC5/CapSense_PM.c ****         #endif  /* End (CapSense_PSOC3_ES2 || CapSense_PSOC5_ES1) */
  26:./Generated_Source/PSoC5/CapSense_PM.c ****     #endif  /* End (CapSense_PRESCALER_OPTIONS == CapSense_PRESCALER_UDB) */
  27:./Generated_Source/PSoC5/CapSense_PM.c ****     
  28:./Generated_Source/PSoC5/CapSense_PM.c ****     /* Set ScanSpeed */
  29:./Generated_Source/PSoC5/CapSense_PM.c ****     #if (CapSense_PSOC3_ES2 || CapSense_PSOC5_ES1)
  30:./Generated_Source/PSoC5/CapSense_PM.c ****         CapSense_SCANSPEED_VALUE,  /* scan speed value */
  31:./Generated_Source/PSoC5/CapSense_PM.c ****     #endif  /* End (CapSense_PSOC3_ES2 || CapSense_PSOC5_ES1) */
  32:./Generated_Source/PSoC5/CapSense_PM.c **** };
  33:./Generated_Source/PSoC5/CapSense_PM.c **** 
  34:./Generated_Source/PSoC5/CapSense_PM.c **** 
  35:./Generated_Source/PSoC5/CapSense_PM.c **** /*******************************************************************************
  36:./Generated_Source/PSoC5/CapSense_PM.c **** * Function Name: CapSense_SaveConfig
  37:./Generated_Source/PSoC5/CapSense_PM.c **** ********************************************************************************
  38:./Generated_Source/PSoC5/CapSense_PM.c **** *
  39:./Generated_Source/PSoC5/CapSense_PM.c **** * Summary:
  40:./Generated_Source/PSoC5/CapSense_PM.c **** *  Saves customer configuration of CapSense none-retention registers. Resets 
  41:./Generated_Source/PSoC5/CapSense_PM.c **** *  all sensors to an inactive state.
  42:./Generated_Source/PSoC5/CapSense_PM.c **** *
  43:./Generated_Source/PSoC5/CapSense_PM.c **** * Parameters:
  44:./Generated_Source/PSoC5/CapSense_PM.c **** *  None
  45:./Generated_Source/PSoC5/CapSense_PM.c **** *
  46:./Generated_Source/PSoC5/CapSense_PM.c **** * Return:
  47:./Generated_Source/PSoC5/CapSense_PM.c **** *  None
  48:./Generated_Source/PSoC5/CapSense_PM.c **** *
  49:./Generated_Source/PSoC5/CapSense_PM.c **** * Global Variables:
  50:./Generated_Source/PSoC5/CapSense_PM.c **** *  CapSense_backup - used to save component state before enter sleep 
  51:./Generated_Source/PSoC5/CapSense_PM.c **** *  mode and none-retention registers.
  52:./Generated_Source/PSoC5/CapSense_PM.c **** *
  53:./Generated_Source/PSoC5/CapSense_PM.c **** * Reentrant:
  54:./Generated_Source/PSoC5/CapSense_PM.c **** *  No - for PSoC3 ES2 and PSoC5 ES1 silicon, Yes - for PSoC3 ES3.
  55:./Generated_Source/PSoC5/CapSense_PM.c **** *
  56:./Generated_Source/PSoC5/CapSense_PM.c **** *******************************************************************************/
  57:./Generated_Source/PSoC5/CapSense_PM.c **** #if (CapSense_PSOC3_ES2 || CapSense_PSOC5_ES1)
  58:./Generated_Source/PSoC5/CapSense_PM.c ****     void CapSense_SaveConfig(void)
  59:./Generated_Source/PSoC5/CapSense_PM.c **** #else
  60:./Generated_Source/PSoC5/CapSense_PM.c ****     void CapSense_SaveConfig(void) 
  61:./Generated_Source/PSoC5/CapSense_PM.c **** #endif  /* End (CapSense_PSOC3_ES2 || CapSense_PSOC5_ES1) */
  62:./Generated_Source/PSoC5/CapSense_PM.c **** {    
  41              		.loc 1 62 0
  42              		.cfi_startproc
  43              		@ args = 0, pretend = 0, frame = 0
  44              		@ frame_needed = 1, uses_anonymous_args = 0
  45 0000 80B5     		push	{r7, lr}
  46              	.LCFI0:
  47              		.cfi_def_cfa_offset 8
  48 0002 00AF     		add	r7, sp, #0
ARM GAS  C:\Users\CHARLI~1\AppData\Local\Temp\ccjZK1iR.s 			page 3


  49              		.cfi_offset 14, -4
  50              		.cfi_offset 7, -8
  51              	.LCFI1:
  52              		.cfi_def_cfa_register 7
  63:./Generated_Source/PSoC5/CapSense_PM.c ****     /* Set Prescaler */
  64:./Generated_Source/PSoC5/CapSense_PM.c ****     #if (CapSense_PRESCALER_OPTIONS == CapSense_PRESCALER_UDB)
  65:./Generated_Source/PSoC5/CapSense_PM.c ****         #if (CapSense_PSOC3_ES2 || CapSense_PSOC5_ES1)
  66:./Generated_Source/PSoC5/CapSense_PM.c ****             CapSense_backup.prescaler  = CapSense_PRESCALER_PERIOD_REG; 
  53              		.loc 1 66 0
  54 0004 46F22953 		movw	r3, #:lower16:1073767721
  55 0008 C4F20003 		movt	r3, #:upper16:1073767721
  56 000c 1B78     		ldrb	r3, [r3, #0]
  57 000e DAB2     		uxtb	r2, r3
  58 0010 40F20003 		movw	r3, #:lower16:CapSense_backup
  59 0014 C0F20003 		movt	r3, #:upper16:CapSense_backup
  60 0018 5A70     		strb	r2, [r3, #1]
  67:./Generated_Source/PSoC5/CapSense_PM.c ****         #endif  /* End (CapSense_PSOC3_ES2 || CapSense_PSOC5_ES1) */
  68:./Generated_Source/PSoC5/CapSense_PM.c ****     #endif  /* End (CapSense_PRESCALER_OPTIONS == CapSense_PRESCALER_UDB) */
  69:./Generated_Source/PSoC5/CapSense_PM.c ****     
  70:./Generated_Source/PSoC5/CapSense_PM.c ****     /* Set ScanSpeed */
  71:./Generated_Source/PSoC5/CapSense_PM.c ****     #if (CapSense_PSOC3_ES2 || CapSense_PSOC5_ES1)
  72:./Generated_Source/PSoC5/CapSense_PM.c ****         CapSense_backup.scanspeed = CapSense_SCANSPEED_PERIOD_REG;
  61              		.loc 1 72 0
  62 001a 46F28843 		movw	r3, #:lower16:1073767560
  63 001e C4F20003 		movt	r3, #:upper16:1073767560
  64 0022 1B78     		ldrb	r3, [r3, #0]
  65 0024 DAB2     		uxtb	r2, r3
  66 0026 40F20003 		movw	r3, #:lower16:CapSense_backup
  67 002a C0F20003 		movt	r3, #:upper16:CapSense_backup
  68 002e 9A70     		strb	r2, [r3, #2]
  73:./Generated_Source/PSoC5/CapSense_PM.c ****     #endif  /* End (CapSense_PSOC3_ES2 || CapSense_PSOC5_ES1) */
  74:./Generated_Source/PSoC5/CapSense_PM.c ****     
  75:./Generated_Source/PSoC5/CapSense_PM.c ****     /* Clear all sensors */
  76:./Generated_Source/PSoC5/CapSense_PM.c ****     CapSense_ClearSensors();
  69              		.loc 1 76 0
  70 0030 FFF7FEFF 		bl	CapSense_ClearSensors
  77:./Generated_Source/PSoC5/CapSense_PM.c ****     
  78:./Generated_Source/PSoC5/CapSense_PM.c ****     /* The pins disable is customer concern: Cmod and Rb */
  79:./Generated_Source/PSoC5/CapSense_PM.c **** }
  71              		.loc 1 79 0
  72 0034 80BD     		pop	{r7, pc}
  73              		.cfi_endproc
  74              	.LFE0:
  75              		.size	CapSense_SaveConfig, .-CapSense_SaveConfig
  76 0036 00BF     		.section	.text.CapSense_Sleep,"ax",%progbits
  77              		.align	2
  78              		.global	CapSense_Sleep
  79              		.thumb
  80              		.thumb_func
  81              		.type	CapSense_Sleep, %function
  82              	CapSense_Sleep:
  83              	.LFB1:
  80:./Generated_Source/PSoC5/CapSense_PM.c **** 
  81:./Generated_Source/PSoC5/CapSense_PM.c **** 
  82:./Generated_Source/PSoC5/CapSense_PM.c **** /*******************************************************************************
  83:./Generated_Source/PSoC5/CapSense_PM.c **** * Function Name: CapSense_Sleep
  84:./Generated_Source/PSoC5/CapSense_PM.c **** ********************************************************************************
ARM GAS  C:\Users\CHARLI~1\AppData\Local\Temp\ccjZK1iR.s 			page 4


  85:./Generated_Source/PSoC5/CapSense_PM.c **** *
  86:./Generated_Source/PSoC5/CapSense_PM.c **** * Summary:
  87:./Generated_Source/PSoC5/CapSense_PM.c **** *  Disables Active mode power template bits for number of component used within 
  88:./Generated_Source/PSoC5/CapSense_PM.c **** *  CapSense. Calls CapSense_SaveConfig() function to save customer 
  89:./Generated_Source/PSoC5/CapSense_PM.c **** *  configuration of CapSense none-retention registers and resets all sensors 
  90:./Generated_Source/PSoC5/CapSense_PM.c **** *  to an inactive state.
  91:./Generated_Source/PSoC5/CapSense_PM.c **** *
  92:./Generated_Source/PSoC5/CapSense_PM.c **** * Parameters:
  93:./Generated_Source/PSoC5/CapSense_PM.c **** *  None
  94:./Generated_Source/PSoC5/CapSense_PM.c **** *
  95:./Generated_Source/PSoC5/CapSense_PM.c **** * Return:
  96:./Generated_Source/PSoC5/CapSense_PM.c **** *  None
  97:./Generated_Source/PSoC5/CapSense_PM.c **** *
  98:./Generated_Source/PSoC5/CapSense_PM.c **** * Global Variables:
  99:./Generated_Source/PSoC5/CapSense_PM.c **** *  CapSense_backup - used to save component state before enter sleep 
 100:./Generated_Source/PSoC5/CapSense_PM.c **** *  mode and none-retention registers.
 101:./Generated_Source/PSoC5/CapSense_PM.c **** *
 102:./Generated_Source/PSoC5/CapSense_PM.c **** * Reentrant:
 103:./Generated_Source/PSoC5/CapSense_PM.c **** *  No
 104:./Generated_Source/PSoC5/CapSense_PM.c **** *
 105:./Generated_Source/PSoC5/CapSense_PM.c **** *******************************************************************************/
 106:./Generated_Source/PSoC5/CapSense_PM.c **** void CapSense_Sleep(void)
 107:./Generated_Source/PSoC5/CapSense_PM.c **** {
  84              		.loc 1 107 0
  85              		.cfi_startproc
  86              		@ args = 0, pretend = 0, frame = 0
  87              		@ frame_needed = 1, uses_anonymous_args = 0
  88 0000 80B5     		push	{r7, lr}
  89              	.LCFI2:
  90              		.cfi_def_cfa_offset 8
  91 0002 00AF     		add	r7, sp, #0
  92              		.cfi_offset 14, -4
  93              		.cfi_offset 7, -8
  94              	.LCFI3:
  95              		.cfi_def_cfa_register 7
 108:./Generated_Source/PSoC5/CapSense_PM.c ****     /* Check and save enable state */
 109:./Generated_Source/PSoC5/CapSense_PM.c ****     if(CapSense_IS_CAPSENSE_ENABLE(CapSense_CONTROL_REG))
  96              		.loc 1 109 0
  97 0004 46F27943 		movw	r3, #:lower16:1073767545
  98 0008 C4F20003 		movt	r3, #:upper16:1073767545
  99 000c 1B78     		ldrb	r3, [r3, #0]
 100 000e DBB2     		uxtb	r3, r3
 101 0010 5BB2     		sxtb	r3, r3
 102 0012 002B     		cmp	r3, #0
 103 0014 09DA     		bge	.L4
 110:./Generated_Source/PSoC5/CapSense_PM.c ****     {
 111:./Generated_Source/PSoC5/CapSense_PM.c ****         CapSense_backup.enableState = 1u;
 104              		.loc 1 111 0
 105 0016 40F20003 		movw	r3, #:lower16:CapSense_backup
 106 001a C0F20003 		movt	r3, #:upper16:CapSense_backup
 107 001e 4FF00102 		mov	r2, #1
 108 0022 1A70     		strb	r2, [r3, #0]
 112:./Generated_Source/PSoC5/CapSense_PM.c ****         CapSense_Stop();
 109              		.loc 1 112 0
 110 0024 FFF7FEFF 		bl	CapSense_Stop
 111 0028 06E0     		b	.L5
 112              	.L4:
ARM GAS  C:\Users\CHARLI~1\AppData\Local\Temp\ccjZK1iR.s 			page 5


 113:./Generated_Source/PSoC5/CapSense_PM.c ****     }
 114:./Generated_Source/PSoC5/CapSense_PM.c ****     else
 115:./Generated_Source/PSoC5/CapSense_PM.c ****     {
 116:./Generated_Source/PSoC5/CapSense_PM.c ****         CapSense_backup.enableState = 0u;
 113              		.loc 1 116 0
 114 002a 40F20003 		movw	r3, #:lower16:CapSense_backup
 115 002e C0F20003 		movt	r3, #:upper16:CapSense_backup
 116 0032 4FF00002 		mov	r2, #0
 117 0036 1A70     		strb	r2, [r3, #0]
 118              	.L5:
 117:./Generated_Source/PSoC5/CapSense_PM.c ****     }
 118:./Generated_Source/PSoC5/CapSense_PM.c ****     
 119:./Generated_Source/PSoC5/CapSense_PM.c ****     CapSense_SaveConfig();
 119              		.loc 1 119 0
 120 0038 FFF7FEFF 		bl	CapSense_SaveConfig
 120:./Generated_Source/PSoC5/CapSense_PM.c **** }
 121              		.loc 1 120 0
 122 003c 80BD     		pop	{r7, pc}
 123              		.cfi_endproc
 124              	.LFE1:
 125              		.size	CapSense_Sleep, .-CapSense_Sleep
 126 003e 00BF     		.section	.text.CapSense_RestoreConfig,"ax",%progbits
 127              		.align	2
 128              		.global	CapSense_RestoreConfig
 129              		.thumb
 130              		.thumb_func
 131              		.type	CapSense_RestoreConfig, %function
 132              	CapSense_RestoreConfig:
 133              	.LFB2:
 121:./Generated_Source/PSoC5/CapSense_PM.c **** 
 122:./Generated_Source/PSoC5/CapSense_PM.c **** 
 123:./Generated_Source/PSoC5/CapSense_PM.c **** /*******************************************************************************
 124:./Generated_Source/PSoC5/CapSense_PM.c **** * Function Name: CapSense_RestoreConfig
 125:./Generated_Source/PSoC5/CapSense_PM.c **** ********************************************************************************
 126:./Generated_Source/PSoC5/CapSense_PM.c **** *
 127:./Generated_Source/PSoC5/CapSense_PM.c **** * Summary:
 128:./Generated_Source/PSoC5/CapSense_PM.c **** *  Restores CapSense configuration and non-retention register values.
 129:./Generated_Source/PSoC5/CapSense_PM.c **** *
 130:./Generated_Source/PSoC5/CapSense_PM.c **** * Parameters:
 131:./Generated_Source/PSoC5/CapSense_PM.c **** *  None
 132:./Generated_Source/PSoC5/CapSense_PM.c **** *
 133:./Generated_Source/PSoC5/CapSense_PM.c **** * Return:
 134:./Generated_Source/PSoC5/CapSense_PM.c **** *  None
 135:./Generated_Source/PSoC5/CapSense_PM.c **** *
 136:./Generated_Source/PSoC5/CapSense_PM.c **** * Side Effects:
 137:./Generated_Source/PSoC5/CapSense_PM.c **** *  Must be called only after CapSense_SaveConfig() routine. Otherwise 
 138:./Generated_Source/PSoC5/CapSense_PM.c **** *  the component configuration will be overwritten with its initial setting.  
 139:./Generated_Source/PSoC5/CapSense_PM.c **** *
 140:./Generated_Source/PSoC5/CapSense_PM.c **** * Global Variables:
 141:./Generated_Source/PSoC5/CapSense_PM.c **** *  CapSense_backup - used to save component state before enter sleep 
 142:./Generated_Source/PSoC5/CapSense_PM.c **** *  mode and none-retention registers.
 143:./Generated_Source/PSoC5/CapSense_PM.c **** *
 144:./Generated_Source/PSoC5/CapSense_PM.c **** *******************************************************************************/
 145:./Generated_Source/PSoC5/CapSense_PM.c **** void CapSense_RestoreConfig(void) 
 146:./Generated_Source/PSoC5/CapSense_PM.c **** {   
 134              		.loc 1 146 0
 135              		.cfi_startproc
ARM GAS  C:\Users\CHARLI~1\AppData\Local\Temp\ccjZK1iR.s 			page 6


 136              		@ args = 0, pretend = 0, frame = 8
 137              		@ frame_needed = 1, uses_anonymous_args = 0
 138 0000 80B5     		push	{r7, lr}
 139              	.LCFI4:
 140              		.cfi_def_cfa_offset 8
 141 0002 82B0     		sub	sp, sp, #8
 142              	.LCFI5:
 143              		.cfi_def_cfa_offset 16
 144 0004 00AF     		add	r7, sp, #0
 145              		.cfi_offset 14, -4
 146              		.cfi_offset 7, -8
 147              	.LCFI6:
 148              		.cfi_def_cfa_register 7
 147:./Generated_Source/PSoC5/CapSense_PM.c ****     #if ( ((CapSense_PRS_OPTIONS) || \
 148:./Generated_Source/PSoC5/CapSense_PM.c ****            (CapSense_IMPLEMENTATION_CH0 == CapSense_MEASURE_IMPLEMENTATION_UDB) || \
 149:./Generated_Source/PSoC5/CapSense_PM.c ****            ( (CapSense_DESIGN_TYPE == CapSense_TWO_CHANNELS_DESIGN) && \
 150:./Generated_Source/PSoC5/CapSense_PM.c ****              (CapSense_IMPLEMENTATION_CH1 == CapSense_MEASURE_IMPLEMENTATION_UDB))) && \
 151:./Generated_Source/PSoC5/CapSense_PM.c ****           (CapSense_PSOC3_ES2 || CapSense_PSOC5_ES1) )
 152:./Generated_Source/PSoC5/CapSense_PM.c ****         
 153:./Generated_Source/PSoC5/CapSense_PM.c ****         uint8 enableInterrupts;
 154:./Generated_Source/PSoC5/CapSense_PM.c ****     #endif /* End ( ((CapSense_PRS_OPTIONS) || \
 155:./Generated_Source/PSoC5/CapSense_PM.c ****                      (CapSense_IMPLEMENTATION_CH0 == CapSense_MEASURE_IMPLEMENTATION_UDB) || \
 156:./Generated_Source/PSoC5/CapSense_PM.c ****                      ( (CapSense_DESIGN_TYPE == CapSense_TWO_CHANNELS_DESIGN) && \
 157:./Generated_Source/PSoC5/CapSense_PM.c ****                        (CapSense_IMPLEMENTATION_CH1 == CapSense_MEASURE_IMPLEMENTATION_UDB))) && \
 158:./Generated_Source/PSoC5/CapSense_PM.c ****                     (CapSense_PSOC3_ES2 || CapSense_PSOC5_ES1) ) */
 159:./Generated_Source/PSoC5/CapSense_PM.c ****     
 160:./Generated_Source/PSoC5/CapSense_PM.c ****     /* Set Prescaler */
 161:./Generated_Source/PSoC5/CapSense_PM.c ****     #if (CapSense_PRESCALER_OPTIONS == CapSense_PRESCALER_UDB)
 162:./Generated_Source/PSoC5/CapSense_PM.c ****         #if (CapSense_PSOC3_ES2 || CapSense_PSOC5_ES1)
 163:./Generated_Source/PSoC5/CapSense_PM.c ****             CapSense_PRESCALER_PERIOD_REG  = CapSense_backup.prescaler;              /* D0 register
 149              		.loc 1 163 0
 150 0006 46F22953 		movw	r3, #:lower16:1073767721
 151 000a C4F20003 		movt	r3, #:upper16:1073767721
 152 000e 40F20002 		movw	r2, #:lower16:CapSense_backup
 153 0012 C0F20002 		movt	r2, #:upper16:CapSense_backup
 154 0016 5278     		ldrb	r2, [r2, #1]	@ zero_extendqisi2
 155 0018 1A70     		strb	r2, [r3, #0]
 164:./Generated_Source/PSoC5/CapSense_PM.c ****             CapSense_PRESCALER_COMPARE_REG = (CapSense_backup.prescaler >> 0x01u);   /* D1 register
 156              		.loc 1 164 0
 157 001a 46F23953 		movw	r3, #:lower16:1073767737
 158 001e C4F20003 		movt	r3, #:upper16:1073767737
 159 0022 40F20002 		movw	r2, #:lower16:CapSense_backup
 160 0026 C0F20002 		movt	r2, #:upper16:CapSense_backup
 161 002a 5278     		ldrb	r2, [r2, #1]	@ zero_extendqisi2
 162 002c 4FEA5202 		lsr	r2, r2, #1
 163 0030 D2B2     		uxtb	r2, r2
 164 0032 1A70     		strb	r2, [r3, #0]
 165:./Generated_Source/PSoC5/CapSense_PM.c ****         #endif  /* End (CapSense_PSOC3_ES2 || CapSense_PSOC5_ES1) */
 166:./Generated_Source/PSoC5/CapSense_PM.c ****         
 167:./Generated_Source/PSoC5/CapSense_PM.c ****     #elif (CapSense_PRESCALER_OPTIONS == CapSense_PRESCALER_FF)
 168:./Generated_Source/PSoC5/CapSense_PM.c ****         /* FF Timer register are retention */
 169:./Generated_Source/PSoC5/CapSense_PM.c ****     #else
 170:./Generated_Source/PSoC5/CapSense_PM.c ****         /* Do nothing = config without prescaler */
 171:./Generated_Source/PSoC5/CapSense_PM.c ****     #endif  /* End (CapSense_PRESCALER_OPTIONS == CapSense_PRESCALER_UDB) */   
 172:./Generated_Source/PSoC5/CapSense_PM.c ****     
 173:./Generated_Source/PSoC5/CapSense_PM.c ****     /* Set PRS */
 174:./Generated_Source/PSoC5/CapSense_PM.c ****     #if (CapSense_PRS_OPTIONS == CapSense_PRS_8BITS)
ARM GAS  C:\Users\CHARLI~1\AppData\Local\Temp\ccjZK1iR.s 			page 7


 175:./Generated_Source/PSoC5/CapSense_PM.c ****         #if (CapSense_PSOC3_ES2 || CapSense_PSOC5_ES1)
 176:./Generated_Source/PSoC5/CapSense_PM.c ****             /* Aux control set FIFO as REG */ 
 177:./Generated_Source/PSoC5/CapSense_PM.c ****             enableInterrupts = CyEnterCriticalSection();
 178:./Generated_Source/PSoC5/CapSense_PM.c ****             CapSense_AUX_CONTROL_A_REG |= CapSense_AUXCTRL_FIFO_SINGLE_REG;
 179:./Generated_Source/PSoC5/CapSense_PM.c ****             CyExitCriticalSection(enableInterrupts);
 180:./Generated_Source/PSoC5/CapSense_PM.c ****             
 181:./Generated_Source/PSoC5/CapSense_PM.c ****             /* Write polynomial */
 182:./Generated_Source/PSoC5/CapSense_PM.c ****             CapSense_POLYNOM_REG   = CapSense_PRS8_DEFAULT_POLYNOM;             /* D0 register */
 183:./Generated_Source/PSoC5/CapSense_PM.c ****         #endif  /* End (CapSense_PSOC3_ES2 || CapSense_PSOC5_ES1) */
 184:./Generated_Source/PSoC5/CapSense_PM.c ****         
 185:./Generated_Source/PSoC5/CapSense_PM.c ****         /* Write FIFO with seed */
 186:./Generated_Source/PSoC5/CapSense_PM.c ****         CapSense_SEED_COPY_REG = CapSense_MEASURE_FULL_RANGE_LOW;               /* F0 register */
 187:./Generated_Source/PSoC5/CapSense_PM.c ****     
 188:./Generated_Source/PSoC5/CapSense_PM.c ****     #elif (CapSense_PRS_OPTIONS == CapSense_PRS_16BITS)
 189:./Generated_Source/PSoC5/CapSense_PM.c ****         #if (CapSense_PSOC3_ES2 || CapSense_PSOC5_ES1)
 190:./Generated_Source/PSoC5/CapSense_PM.c ****             /* Aux control set FIFO as REG */
 191:./Generated_Source/PSoC5/CapSense_PM.c ****             enableInterrupts = CyEnterCriticalSection();
 165              		.loc 1 191 0
 166 0034 FFF7FEFF 		bl	CyEnterCriticalSection
 167 0038 0346     		mov	r3, r0
 168 003a FB71     		strb	r3, [r7, #7]
 192:./Generated_Source/PSoC5/CapSense_PM.c ****             CapSense_AUX_CONTROL_A_REG |= CapSense_AUXCTRL_FIFO_SINGLE_REG;
 169              		.loc 1 192 0
 170 003c 46F29843 		movw	r3, #:lower16:1073767576
 171 0040 C4F20003 		movt	r3, #:upper16:1073767576
 172 0044 46F29842 		movw	r2, #:lower16:1073767576
 173 0048 C4F20002 		movt	r2, #:upper16:1073767576
 174 004c 1278     		ldrb	r2, [r2, #0]
 175 004e D2B2     		uxtb	r2, r2
 176 0050 42F00302 		orr	r2, r2, #3
 177 0054 D2B2     		uxtb	r2, r2
 178 0056 1A70     		strb	r2, [r3, #0]
 193:./Generated_Source/PSoC5/CapSense_PM.c ****             CapSense_AUX_CONTROL_B_REG |= CapSense_AUXCTRL_FIFO_SINGLE_REG;
 179              		.loc 1 193 0
 180 0058 46F29943 		movw	r3, #:lower16:1073767577
 181 005c C4F20003 		movt	r3, #:upper16:1073767577
 182 0060 46F29942 		movw	r2, #:lower16:1073767577
 183 0064 C4F20002 		movt	r2, #:upper16:1073767577
 184 0068 1278     		ldrb	r2, [r2, #0]
 185 006a D2B2     		uxtb	r2, r2
 186 006c 42F00302 		orr	r2, r2, #3
 187 0070 D2B2     		uxtb	r2, r2
 188 0072 1A70     		strb	r2, [r3, #0]
 194:./Generated_Source/PSoC5/CapSense_PM.c ****             CyExitCriticalSection(enableInterrupts);
 189              		.loc 1 194 0
 190 0074 FB79     		ldrb	r3, [r7, #7]	@ zero_extendqisi2
 191 0076 1846     		mov	r0, r3
 192 0078 FFF7FEFF 		bl	CyExitCriticalSection
 195:./Generated_Source/PSoC5/CapSense_PM.c ****             
 196:./Generated_Source/PSoC5/CapSense_PM.c ****             /* Write polynomial */
 197:./Generated_Source/PSoC5/CapSense_PM.c ****             CY_SET_REG16(CapSense_POLYNOM_PTR, CapSense_PRS16_DEFAULT_POLYNOM); /* D0 register */
 193              		.loc 1 197 0
 194 007c 46F22843 		movw	r3, #:lower16:1073767464
 195 0080 C4F20003 		movt	r3, #:upper16:1073767464
 196 0084 4FF43442 		mov	r2, #46080
 197 0088 1A80     		strh	r2, [r3, #0]	@ movhi
 198:./Generated_Source/PSoC5/CapSense_PM.c ****         #endif  /* End (CapSense_PSOC3_ES2 || CapSense_PSOC5_ES1) */
ARM GAS  C:\Users\CHARLI~1\AppData\Local\Temp\ccjZK1iR.s 			page 8


 199:./Generated_Source/PSoC5/CapSense_PM.c ****         
 200:./Generated_Source/PSoC5/CapSense_PM.c ****         /* Write FIFO with seed */
 201:./Generated_Source/PSoC5/CapSense_PM.c ****         CY_SET_REG16(CapSense_SEED_COPY_PTR, CapSense_MEASURE_FULL_RANGE);      /* F0 register */
 198              		.loc 1 201 0
 199 008a 46F24843 		movw	r3, #:lower16:1073767496
 200 008e C4F20003 		movt	r3, #:upper16:1073767496
 201 0092 4FF6FF72 		movw	r2, #65535
 202 0096 1A80     		strh	r2, [r3, #0]	@ movhi
 202:./Generated_Source/PSoC5/CapSense_PM.c ****                 
 203:./Generated_Source/PSoC5/CapSense_PM.c ****     #elif (CapSense_PRS_OPTIONS == CapSense_PRS_16BITS_4X)
 204:./Generated_Source/PSoC5/CapSense_PM.c ****         #if (CapSense_PSOC3_ES2 || CapSense_PSOC5_ES1)
 205:./Generated_Source/PSoC5/CapSense_PM.c ****             /* Aux control set FIFO as REG */
 206:./Generated_Source/PSoC5/CapSense_PM.c ****             enableInterrupts = CyEnterCriticalSection();
 207:./Generated_Source/PSoC5/CapSense_PM.c ****             CapSense_AUX_CONTROL_A_REG  |= CapSense_AUXCTRL_FIFO_SINGLE_REG;
 208:./Generated_Source/PSoC5/CapSense_PM.c ****             CyExitCriticalSection(enableInterrupts);
 209:./Generated_Source/PSoC5/CapSense_PM.c ****             
 210:./Generated_Source/PSoC5/CapSense_PM.c ****             /* Write polynomial */
 211:./Generated_Source/PSoC5/CapSense_PM.c ****             CapSense_POLYNOM_A__D1_REG   = HI8(CapSense_PRS16_DEFAULT_POLYNOM); /* D0 register */
 212:./Generated_Source/PSoC5/CapSense_PM.c ****             CapSense_POLYNOM_A__D0_REG   = LO8(CapSense_PRS16_DEFAULT_POLYNOM); /* D1 register */
 213:./Generated_Source/PSoC5/CapSense_PM.c ****         #endif  /* End (CapSense_PSOC3_ES2 || CapSense_PSOC5_ES1) */
 214:./Generated_Source/PSoC5/CapSense_PM.c ****         
 215:./Generated_Source/PSoC5/CapSense_PM.c ****         /* Write FIFO with seed */
 216:./Generated_Source/PSoC5/CapSense_PM.c ****         CapSense_SEED_COPY_A__F1_REG = CapSense_MEASURE_FULL_RANGE_LOW;         /* F0 register */
 217:./Generated_Source/PSoC5/CapSense_PM.c ****         CapSense_SEED_COPY_A__F0_REG =CapSense_MEASURE_FULL_RANGE_LOW;          /* F1 register */
 218:./Generated_Source/PSoC5/CapSense_PM.c ****         
 219:./Generated_Source/PSoC5/CapSense_PM.c ****     #else
 220:./Generated_Source/PSoC5/CapSense_PM.c ****         /* Do nothing = config without PRS */
 221:./Generated_Source/PSoC5/CapSense_PM.c ****     #endif  /* End (CapSense_PRS_OPTIONS == CapSense_PRS_8BITS) */
 222:./Generated_Source/PSoC5/CapSense_PM.c ****     
 223:./Generated_Source/PSoC5/CapSense_PM.c ****     #if (CapSense_PSOC3_ES2 || CapSense_PSOC5_ES1)
 224:./Generated_Source/PSoC5/CapSense_PM.c ****         /* Set ScanSpeed */
 225:./Generated_Source/PSoC5/CapSense_PM.c ****         CapSense_SCANSPEED_PERIOD_REG = CapSense_backup.scanspeed;       /* Counter7_PERIOD registe
 203              		.loc 1 225 0
 204 0098 46F28843 		movw	r3, #:lower16:1073767560
 205 009c C4F20003 		movt	r3, #:upper16:1073767560
 206 00a0 40F20002 		movw	r2, #:lower16:CapSense_backup
 207 00a4 C0F20002 		movt	r2, #:upper16:CapSense_backup
 208 00a8 9278     		ldrb	r2, [r2, #2]	@ zero_extendqisi2
 209 00aa 1A70     		strb	r2, [r3, #0]
 226:./Generated_Source/PSoC5/CapSense_PM.c ****     #endif  /* End (CapSense_PSOC3_ES2 || CapSense_PSOC5_ES1) */
 227:./Generated_Source/PSoC5/CapSense_PM.c ****     
 228:./Generated_Source/PSoC5/CapSense_PM.c ****     /* Set the Measure */
 229:./Generated_Source/PSoC5/CapSense_PM.c ****     #if (CapSense_IMPLEMENTATION_CH0 == CapSense_MEASURE_IMPLEMENTATION_FF)
 230:./Generated_Source/PSoC5/CapSense_PM.c ****         /* Window PWM  - FF Timer register are retention */
 231:./Generated_Source/PSoC5/CapSense_PM.c ****         /* Raw Counter - FF Timer register are retention */
 232:./Generated_Source/PSoC5/CapSense_PM.c ****     #else
 233:./Generated_Source/PSoC5/CapSense_PM.c ****         /* Window PWM and Raw Counter AUX and D0 set */ 
 234:./Generated_Source/PSoC5/CapSense_PM.c ****         #if (CapSense_PSOC3_ES2 || CapSense_PSOC5_ES1)
 235:./Generated_Source/PSoC5/CapSense_PM.c ****             enableInterrupts = CyEnterCriticalSection();
 210              		.loc 1 235 0
 211 00ac FFF7FEFF 		bl	CyEnterCriticalSection
 212 00b0 0346     		mov	r3, r0
 213 00b2 FB71     		strb	r3, [r7, #7]
 236:./Generated_Source/PSoC5/CapSense_PM.c ****             CapSense_PWM_CH0_AUX_CONTROL_REG |= CapSense_AUXCTRL_FIFO_SINGLE_REG;   /* AUX register
 214              		.loc 1 236 0
 215 00b4 46F29B53 		movw	r3, #:lower16:1073767835
 216 00b8 C4F20003 		movt	r3, #:upper16:1073767835
ARM GAS  C:\Users\CHARLI~1\AppData\Local\Temp\ccjZK1iR.s 			page 9


 217 00bc 46F29B52 		movw	r2, #:lower16:1073767835
 218 00c0 C4F20002 		movt	r2, #:upper16:1073767835
 219 00c4 1278     		ldrb	r2, [r2, #0]
 220 00c6 D2B2     		uxtb	r2, r2
 221 00c8 42F00302 		orr	r2, r2, #3
 222 00cc D2B2     		uxtb	r2, r2
 223 00ce 1A70     		strb	r2, [r3, #0]
 237:./Generated_Source/PSoC5/CapSense_PM.c ****             CapSense_RAW_CH0_AUX_CONTROL_REG |= CapSense_AUXCTRL_FIFO_SINGLE_REG;   /* AUX register
 224              		.loc 1 237 0
 225 00d0 46F29853 		movw	r3, #:lower16:1073767832
 226 00d4 C4F20003 		movt	r3, #:upper16:1073767832
 227 00d8 46F29852 		movw	r2, #:lower16:1073767832
 228 00dc C4F20002 		movt	r2, #:upper16:1073767832
 229 00e0 1278     		ldrb	r2, [r2, #0]
 230 00e2 D2B2     		uxtb	r2, r2
 231 00e4 42F00302 		orr	r2, r2, #3
 232 00e8 D2B2     		uxtb	r2, r2
 233 00ea 1A70     		strb	r2, [r3, #0]
 238:./Generated_Source/PSoC5/CapSense_PM.c ****             CyExitCriticalSection(enableInterrupts);
 234              		.loc 1 238 0
 235 00ec FB79     		ldrb	r3, [r7, #7]	@ zero_extendqisi2
 236 00ee 1846     		mov	r0, r3
 237 00f0 FFF7FEFF 		bl	CyExitCriticalSection
 239:./Generated_Source/PSoC5/CapSense_PM.c ****             
 240:./Generated_Source/PSoC5/CapSense_PM.c ****             CapSense_PWM_CH0_ADD_VALUE_REG    = CapSense_MEASURE_FULL_RANGE_LOW;    /* D0 register 
 238              		.loc 1 240 0
 239 00f4 46F22B53 		movw	r3, #:lower16:1073767723
 240 00f8 C4F20003 		movt	r3, #:upper16:1073767723
 241 00fc 4FF0FF32 		mov	r2, #-1
 242 0100 1A70     		strb	r2, [r3, #0]
 241:./Generated_Source/PSoC5/CapSense_PM.c ****             CapSense_RAW_CH0_ADD_VALUE_REG    = CapSense_MEASURE_FULL_RANGE_LOW;    /* D0 register 
 243              		.loc 1 241 0
 244 0102 46F22853 		movw	r3, #:lower16:1073767720
 245 0106 C4F20003 		movt	r3, #:upper16:1073767720
 246 010a 4FF0FF32 		mov	r2, #-1
 247 010e 1A70     		strb	r2, [r3, #0]
 242:./Generated_Source/PSoC5/CapSense_PM.c ****             
 243:./Generated_Source/PSoC5/CapSense_PM.c ****         #endif  /* End (CapSense_PSOC3_ES2 || CapSense_PSOC5_ES1) */
 244:./Generated_Source/PSoC5/CapSense_PM.c ****         
 245:./Generated_Source/PSoC5/CapSense_PM.c ****         /* Window PWM */
 246:./Generated_Source/PSoC5/CapSense_PM.c ****         CapSense_PWM_CH0_PERIOD_LO_REG    = CapSense_MEASURE_FULL_RANGE_LOW;        /* F0 register 
 248              		.loc 1 246 0
 249 0110 46F24B53 		movw	r3, #:lower16:1073767755
 250 0114 C4F20003 		movt	r3, #:upper16:1073767755
 251 0118 4FF0FF32 		mov	r2, #-1
 252 011c 1A70     		strb	r2, [r3, #0]
 247:./Generated_Source/PSoC5/CapSense_PM.c ****         
 248:./Generated_Source/PSoC5/CapSense_PM.c ****         /* Raw Counter */
 249:./Generated_Source/PSoC5/CapSense_PM.c ****         CapSense_RAW_CH0_PERIOD_HI_REG    = CapSense_MEASURE_FULL_RANGE_LOW;        /* F1 register 
 253              		.loc 1 249 0
 254 011e 46F25853 		movw	r3, #:lower16:1073767768
 255 0122 C4F20003 		movt	r3, #:upper16:1073767768
 256 0126 4FF0FF32 		mov	r2, #-1
 257 012a 1A70     		strb	r2, [r3, #0]
 250:./Generated_Source/PSoC5/CapSense_PM.c ****         CapSense_RAW_CH0_PERIOD_LO_REG    = CapSense_MEASURE_FULL_RANGE_LOW;        /* F0 register 
 258              		.loc 1 250 0
 259 012c 46F24853 		movw	r3, #:lower16:1073767752
ARM GAS  C:\Users\CHARLI~1\AppData\Local\Temp\ccjZK1iR.s 			page 10


 260 0130 C4F20003 		movt	r3, #:upper16:1073767752
 261 0134 4FF0FF32 		mov	r2, #-1
 262 0138 1A70     		strb	r2, [r3, #0]
 251:./Generated_Source/PSoC5/CapSense_PM.c ****     
 252:./Generated_Source/PSoC5/CapSense_PM.c ****     #endif  /* (CapSense_IMPLEMENTATION_CH0 == CapSense_MEASURE_IMPLEMENTATION_FF) */ 
 253:./Generated_Source/PSoC5/CapSense_PM.c ****     
 254:./Generated_Source/PSoC5/CapSense_PM.c ****     #if (CapSense_DESIGN_TYPE == CapSense_TWO_CHANNELS_DESIGN)
 255:./Generated_Source/PSoC5/CapSense_PM.c ****         #if (CapSense_IMPLEMENTATION_CH1 == CapSense_MEASURE_IMPLEMENTATION_FF)
 256:./Generated_Source/PSoC5/CapSense_PM.c ****             /* Window PWM  - FF Timer register are retention */
 257:./Generated_Source/PSoC5/CapSense_PM.c ****             /* Raw Counter - FF Timer register are retention */
 258:./Generated_Source/PSoC5/CapSense_PM.c ****         #else
 259:./Generated_Source/PSoC5/CapSense_PM.c ****             /* Window PWM and Raw Counter AUX and D0 set */ 
 260:./Generated_Source/PSoC5/CapSense_PM.c ****             #if (CapSense_PSOC3_ES2 || CapSense_PSOC5_ES1)
 261:./Generated_Source/PSoC5/CapSense_PM.c ****                 enableInterrupts = CyEnterCriticalSection();
 262:./Generated_Source/PSoC5/CapSense_PM.c ****                 CapSense_PWM_CH1_AUX_CONTROL_REG |= CapSense_AUXCTRL_FIFO_SINGLE_REG; /* AUX regist
 263:./Generated_Source/PSoC5/CapSense_PM.c ****                 CapSense_RAW_CH1_AUX_CONTROL_REG |= CapSense_AUXCTRL_FIFO_SINGLE_REG; /* AUX regist
 264:./Generated_Source/PSoC5/CapSense_PM.c ****                 CyExitCriticalSection(enableInterrupts);
 265:./Generated_Source/PSoC5/CapSense_PM.c ****                 
 266:./Generated_Source/PSoC5/CapSense_PM.c ****                 CapSense_RAW_CH1_ADD_VALUE_REG    = CapSense_MEASURE_FULL_RANGE_LOW;   /* D0 regist
 267:./Generated_Source/PSoC5/CapSense_PM.c ****                 CapSense_PWM_CH1_ADD_VALUE_REG    = CapSense_MEASURE_FULL_RANGE_LOW;   /* D0 regist
 268:./Generated_Source/PSoC5/CapSense_PM.c ****             #endif  /* End (CapSense_PSOC3_ES2 || CapSense_PSOC5_ES1) */
 269:./Generated_Source/PSoC5/CapSense_PM.c ****             
 270:./Generated_Source/PSoC5/CapSense_PM.c ****             /* Window PWM */
 271:./Generated_Source/PSoC5/CapSense_PM.c ****             CapSense_PWM_CH1_PERIOD_LO_REG    = CapSense_MEASURE_FULL_RANGE_LOW;       /* F0 regist
 272:./Generated_Source/PSoC5/CapSense_PM.c ****             
 273:./Generated_Source/PSoC5/CapSense_PM.c ****             /* Raw Counter */
 274:./Generated_Source/PSoC5/CapSense_PM.c ****             CapSense_RAW_CH1_PERIOD_HI_REG    = CapSense_MEASURE_FULL_RANGE_LOW;       /* F1 regist
 275:./Generated_Source/PSoC5/CapSense_PM.c ****             CapSense_RAW_CH1_PERIOD_LO_REG    = CapSense_MEASURE_FULL_RANGE_LOW;       /* F0 regist
 276:./Generated_Source/PSoC5/CapSense_PM.c ****             
 277:./Generated_Source/PSoC5/CapSense_PM.c ****         #endif  /* End (CapSense_IMPLEMENTATION_CH1 == CapSense_MEASURE_IMPLEMENTATION_FF) */
 278:./Generated_Source/PSoC5/CapSense_PM.c ****     
 279:./Generated_Source/PSoC5/CapSense_PM.c ****     #endif  /* End (CapSense_DESIGN_TYPE == TWO_CHANNELS_DESIGN)*/
 280:./Generated_Source/PSoC5/CapSense_PM.c ****     
 281:./Generated_Source/PSoC5/CapSense_PM.c ****     /* Enable window generation */
 282:./Generated_Source/PSoC5/CapSense_PM.c ****     CapSense_CONTROL_REG = CapSense_CTRL_WINDOW_EN__CH0;
 263              		.loc 1 282 0
 264 013a 46F27943 		movw	r3, #:lower16:1073767545
 265 013e C4F20003 		movt	r3, #:upper16:1073767545
 266 0142 4FF00402 		mov	r2, #4
 267 0146 1A70     		strb	r2, [r3, #0]
 283:./Generated_Source/PSoC5/CapSense_PM.c ****     #if (CapSense_DESIGN_TYPE == CapSense_TWO_CHANNELS_DESIGN) 
 284:./Generated_Source/PSoC5/CapSense_PM.c ****         CapSense_CONTROL_REG |= CapSense_CTRL_WINDOW_EN__CH1; 
 285:./Generated_Source/PSoC5/CapSense_PM.c ****     #endif  /* End CapSense_DESIGN_TYPE */
 286:./Generated_Source/PSoC5/CapSense_PM.c ****  
 287:./Generated_Source/PSoC5/CapSense_PM.c ****     /* The pins enable are customer concern: Cmod and Rb */
 288:./Generated_Source/PSoC5/CapSense_PM.c ****  }
 268              		.loc 1 288 0
 269 0148 07F10807 		add	r7, r7, #8
 270 014c BD46     		mov	sp, r7
 271 014e 80BD     		pop	{r7, pc}
 272              		.cfi_endproc
 273              	.LFE2:
 274              		.size	CapSense_RestoreConfig, .-CapSense_RestoreConfig
 275              		.section	.text.CapSense_Wakeup,"ax",%progbits
 276              		.align	2
 277              		.global	CapSense_Wakeup
 278              		.thumb
ARM GAS  C:\Users\CHARLI~1\AppData\Local\Temp\ccjZK1iR.s 			page 11


 279              		.thumb_func
 280              		.type	CapSense_Wakeup, %function
 281              	CapSense_Wakeup:
 282              	.LFB3:
 289:./Generated_Source/PSoC5/CapSense_PM.c ****  
 290:./Generated_Source/PSoC5/CapSense_PM.c **** 
 291:./Generated_Source/PSoC5/CapSense_PM.c **** /*******************************************************************************
 292:./Generated_Source/PSoC5/CapSense_PM.c **** * Function Name: CapSense_Wakeup
 293:./Generated_Source/PSoC5/CapSense_PM.c **** ********************************************************************************
 294:./Generated_Source/PSoC5/CapSense_PM.c **** *
 295:./Generated_Source/PSoC5/CapSense_PM.c **** * Summary:
 296:./Generated_Source/PSoC5/CapSense_PM.c **** *  Restores CapSense configuration and non-retention register values. 
 297:./Generated_Source/PSoC5/CapSense_PM.c **** *  Restores enabled state of component by setting Active mode power template 
 298:./Generated_Source/PSoC5/CapSense_PM.c **** *  bits for number of component used within CapSense.
 299:./Generated_Source/PSoC5/CapSense_PM.c **** *
 300:./Generated_Source/PSoC5/CapSense_PM.c **** * Parameters:
 301:./Generated_Source/PSoC5/CapSense_PM.c **** *  None
 302:./Generated_Source/PSoC5/CapSense_PM.c **** *
 303:./Generated_Source/PSoC5/CapSense_PM.c **** * Return:
 304:./Generated_Source/PSoC5/CapSense_PM.c **** *  None
 305:./Generated_Source/PSoC5/CapSense_PM.c **** *
 306:./Generated_Source/PSoC5/CapSense_PM.c **** * Global Variables:
 307:./Generated_Source/PSoC5/CapSense_PM.c **** *  CapSense_backup - used to save component state before enter sleep 
 308:./Generated_Source/PSoC5/CapSense_PM.c **** *  mode and none-retention registers.
 309:./Generated_Source/PSoC5/CapSense_PM.c **** *
 310:./Generated_Source/PSoC5/CapSense_PM.c **** *******************************************************************************/
 311:./Generated_Source/PSoC5/CapSense_PM.c **** void CapSense_Wakeup(void) 
 312:./Generated_Source/PSoC5/CapSense_PM.c **** {
 283              		.loc 1 312 0
 284              		.cfi_startproc
 285              		@ args = 0, pretend = 0, frame = 0
 286              		@ frame_needed = 1, uses_anonymous_args = 0
 287 0000 80B5     		push	{r7, lr}
 288              	.LCFI7:
 289              		.cfi_def_cfa_offset 8
 290 0002 00AF     		add	r7, sp, #0
 291              		.cfi_offset 14, -4
 292              		.cfi_offset 7, -8
 293              	.LCFI8:
 294              		.cfi_def_cfa_register 7
 313:./Generated_Source/PSoC5/CapSense_PM.c ****     CapSense_RestoreConfig();
 295              		.loc 1 313 0
 296 0004 FFF7FEFF 		bl	CapSense_RestoreConfig
 314:./Generated_Source/PSoC5/CapSense_PM.c ****     
 315:./Generated_Source/PSoC5/CapSense_PM.c ****     /* Restore CapSense Enable state */
 316:./Generated_Source/PSoC5/CapSense_PM.c ****     if (CapSense_backup.enableState != 0u)
 297              		.loc 1 316 0
 298 0008 40F20003 		movw	r3, #:lower16:CapSense_backup
 299 000c C0F20003 		movt	r3, #:upper16:CapSense_backup
 300 0010 1B78     		ldrb	r3, [r3, #0]	@ zero_extendqisi2
 301 0012 002B     		cmp	r3, #0
 302 0014 01D0     		beq	.L11
 317:./Generated_Source/PSoC5/CapSense_PM.c ****     {
 318:./Generated_Source/PSoC5/CapSense_PM.c ****         CapSense_Enable();
 303              		.loc 1 318 0
 304 0016 FFF7FEFF 		bl	CapSense_Enable
 305              	.L11:
ARM GAS  C:\Users\CHARLI~1\AppData\Local\Temp\ccjZK1iR.s 			page 12


 319:./Generated_Source/PSoC5/CapSense_PM.c ****     }
 320:./Generated_Source/PSoC5/CapSense_PM.c **** }
 306              		.loc 1 320 0
 307 001a 80BD     		pop	{r7, pc}
 308              		.cfi_endproc
 309              	.LFE3:
 310              		.size	CapSense_Wakeup, .-CapSense_Wakeup
 311              		.text
 312              	.Letext0: