ARM GAS  C:\Users\CHARLI~1\AppData\Local\Temp\ccRk2EmB.s 			page 1


   1              		.syntax unified
   2              		.cpu cortex-m3
   3              		.fpu softvfp
   4              		.eabi_attribute 20, 1
   5              		.eabi_attribute 21, 1
   6              		.eabi_attribute 23, 3
   7              		.eabi_attribute 24, 1
   8              		.eabi_attribute 25, 1
   9              		.eabi_attribute 26, 1
  10              		.eabi_attribute 30, 6
  11              		.eabi_attribute 18, 4
  12              		.thumb
  13              		.file	"CapSense_Pins.c"
  20 0000 83000000 		.text
  20      02004C00 
  20      00000201 
  20      FB0E0D00 
  20      01010101 
  21              	.Ltext0:
  22              		.cfi_sections	.debug_frame
  23              		.section	.text.CapSense_SetAllSensorsDriveMode,"ax",%progbits
  24              		.align	2
  25              		.global	CapSense_SetAllSensorsDriveMode
  26              		.thumb
  27              		.thumb_func
  28              		.type	CapSense_SetAllSensorsDriveMode, %function
  29              	CapSense_SetAllSensorsDriveMode:
  30              	.LFB0:
  31              		.file 1 "./Generated_Source/PSoC5/CapSense_Pins.c"
   1:./Generated_Source/PSoC5/CapSense_Pins.c **** /*******************************************************************************
   2:./Generated_Source/PSoC5/CapSense_Pins.c **** * File Name: CapSense_Pins.c
   3:./Generated_Source/PSoC5/CapSense_Pins.c **** * Version 2.10
   4:./Generated_Source/PSoC5/CapSense_Pins.c **** *
   5:./Generated_Source/PSoC5/CapSense_Pins.c **** * Description:
   6:./Generated_Source/PSoC5/CapSense_Pins.c **** *  This file contains API to enable firmware control of a Pins component.
   7:./Generated_Source/PSoC5/CapSense_Pins.c **** *
   8:./Generated_Source/PSoC5/CapSense_Pins.c **** * Note:
   9:./Generated_Source/PSoC5/CapSense_Pins.c **** *
  10:./Generated_Source/PSoC5/CapSense_Pins.c **** ********************************************************************************
  11:./Generated_Source/PSoC5/CapSense_Pins.c **** * Copyright 2008-2010, Cypress Semiconductor Corporation.  All rights reserved.
  12:./Generated_Source/PSoC5/CapSense_Pins.c **** * You may use this file only in accordance with the license, terms, conditions,
  13:./Generated_Source/PSoC5/CapSense_Pins.c **** * disclaimers, and limitations in the end user license agreement accompanying
  14:./Generated_Source/PSoC5/CapSense_Pins.c **** * the software package with which this file was provided.
  15:./Generated_Source/PSoC5/CapSense_Pins.c **** *******************************************************************************/
  16:./Generated_Source/PSoC5/CapSense_Pins.c **** 
  17:./Generated_Source/PSoC5/CapSense_Pins.c **** #include "CapSense_Pins.h"
  18:./Generated_Source/PSoC5/CapSense_Pins.c **** 
  19:./Generated_Source/PSoC5/CapSense_Pins.c **** 
  20:./Generated_Source/PSoC5/CapSense_Pins.c **** /*******************************************************************************
  21:./Generated_Source/PSoC5/CapSense_Pins.c **** * Function Name: CapSense_SetAllSensorsDriveMode
  22:./Generated_Source/PSoC5/CapSense_Pins.c **** ********************************************************************************
ARM GAS  C:\Users\CHARLI~1\AppData\Local\Temp\ccRk2EmB.s 			page 2


  23:./Generated_Source/PSoC5/CapSense_Pins.c **** *
  24:./Generated_Source/PSoC5/CapSense_Pins.c **** * Summary:
  25:./Generated_Source/PSoC5/CapSense_Pins.c **** *  Sets the drive mode for the all pins used by capacitive sensors within 
  26:./Generated_Source/PSoC5/CapSense_Pins.c **** *  CapSense component.
  27:./Generated_Source/PSoC5/CapSense_Pins.c **** * 
  28:./Generated_Source/PSoC5/CapSense_Pins.c **** * Parameters:  
  29:./Generated_Source/PSoC5/CapSense_Pins.c **** *  mode: Desired drive mode.
  30:./Generated_Source/PSoC5/CapSense_Pins.c **** *
  31:./Generated_Source/PSoC5/CapSense_Pins.c **** * Return: 
  32:./Generated_Source/PSoC5/CapSense_Pins.c **** *  None
  33:./Generated_Source/PSoC5/CapSense_Pins.c **** *
  34:./Generated_Source/PSoC5/CapSense_Pins.c **** *******************************************************************************/
  35:./Generated_Source/PSoC5/CapSense_Pins.c **** void CapSense_SetAllSensorsDriveMode(uint8 mode) 
  36:./Generated_Source/PSoC5/CapSense_Pins.c **** {
  32              		.loc 1 36 0
  33              		.cfi_startproc
  34              		@ args = 0, pretend = 0, frame = 8
  35              		@ frame_needed = 1, uses_anonymous_args = 0
  36              		@ link register save eliminated.
  37 0000 80B4     		push	{r7}
  38              	.LCFI0:
  39              		.cfi_def_cfa_offset 4
  40 0002 83B0     		sub	sp, sp, #12
  41              	.LCFI1:
  42              		.cfi_def_cfa_offset 16
  43 0004 00AF     		add	r7, sp, #0
  44              		.cfi_offset 7, -4
  45              	.LCFI2:
  46              		.cfi_def_cfa_register 7
  47 0006 0346     		mov	r3, r0
  48 0008 FB71     		strb	r3, [r7, #7]
  37:./Generated_Source/PSoC5/CapSense_Pins.c ****     /* Set pins drive mode */
  38:./Generated_Source/PSoC5/CapSense_Pins.c ****     CyPins_SetPinDriveMode(CapSense_PortCH0__Button0__BTN, mode);
  49              		.loc 1 38 0
  50 000a 45F20503 		movw	r3, #:lower16:1073762309
  51 000e C4F20003 		movt	r3, #:upper16:1073762309
  52 0012 45F20502 		movw	r2, #:lower16:1073762309
  53 0016 C4F20002 		movt	r2, #:upper16:1073762309
  54 001a 1278     		ldrb	r2, [r2, #0]
  55 001c D2B2     		uxtb	r2, r2
  56 001e 1146     		mov	r1, r2
  57 0020 01F0F101 		and	r1, r1, #241
  58 0024 FA79     		ldrb	r2, [r7, #7]	@ zero_extendqisi2
  59 0026 02F00E02 		and	r2, r2, #14
  60 002a 41EA0202 		orr	r2, r1, r2
  61 002e D2B2     		uxtb	r2, r2
  62 0030 1A70     		strb	r2, [r3, #0]
  39:./Generated_Source/PSoC5/CapSense_Pins.c ****     CyPins_SetPinDriveMode(CapSense_PortCH0__Button1__BTN, mode);
  63              		.loc 1 39 0
  64 0032 45F20603 		movw	r3, #:lower16:1073762310
  65 0036 C4F20003 		movt	r3, #:upper16:1073762310
  66 003a 45F20602 		movw	r2, #:lower16:1073762310
  67 003e C4F20002 		movt	r2, #:upper16:1073762310
  68 0042 1278     		ldrb	r2, [r2, #0]
  69 0044 D2B2     		uxtb	r2, r2
  70 0046 1146     		mov	r1, r2
  71 0048 01F0F101 		and	r1, r1, #241
ARM GAS  C:\Users\CHARLI~1\AppData\Local\Temp\ccRk2EmB.s 			page 3


  72 004c FA79     		ldrb	r2, [r7, #7]	@ zero_extendqisi2
  73 004e 02F00E02 		and	r2, r2, #14
  74 0052 41EA0202 		orr	r2, r1, r2
  75 0056 D2B2     		uxtb	r2, r2
  76 0058 1A70     		strb	r2, [r3, #0]
  40:./Generated_Source/PSoC5/CapSense_Pins.c ****     CyPins_SetPinDriveMode(CapSense_PortCH0__LinearSlider0_e0__LS, mode);
  77              		.loc 1 40 0
  78 005a 45F20003 		movw	r3, #:lower16:1073762304
  79 005e C4F20003 		movt	r3, #:upper16:1073762304
  80 0062 45F20002 		movw	r2, #:lower16:1073762304
  81 0066 C4F20002 		movt	r2, #:upper16:1073762304
  82 006a 1278     		ldrb	r2, [r2, #0]
  83 006c D2B2     		uxtb	r2, r2
  84 006e 1146     		mov	r1, r2
  85 0070 01F0F101 		and	r1, r1, #241
  86 0074 FA79     		ldrb	r2, [r7, #7]	@ zero_extendqisi2
  87 0076 02F00E02 		and	r2, r2, #14
  88 007a 41EA0202 		orr	r2, r1, r2
  89 007e D2B2     		uxtb	r2, r2
  90 0080 1A70     		strb	r2, [r3, #0]
  41:./Generated_Source/PSoC5/CapSense_Pins.c ****     CyPins_SetPinDriveMode(CapSense_PortCH0__LinearSlider0_e1__LS, mode);
  91              		.loc 1 41 0
  92 0082 45F20103 		movw	r3, #:lower16:1073762305
  93 0086 C4F20003 		movt	r3, #:upper16:1073762305
  94 008a 45F20102 		movw	r2, #:lower16:1073762305
  95 008e C4F20002 		movt	r2, #:upper16:1073762305
  96 0092 1278     		ldrb	r2, [r2, #0]
  97 0094 D2B2     		uxtb	r2, r2
  98 0096 1146     		mov	r1, r2
  99 0098 01F0F101 		and	r1, r1, #241
 100 009c FA79     		ldrb	r2, [r7, #7]	@ zero_extendqisi2
 101 009e 02F00E02 		and	r2, r2, #14
 102 00a2 41EA0202 		orr	r2, r1, r2
 103 00a6 D2B2     		uxtb	r2, r2
 104 00a8 1A70     		strb	r2, [r3, #0]
  42:./Generated_Source/PSoC5/CapSense_Pins.c ****     CyPins_SetPinDriveMode(CapSense_PortCH0__LinearSlider0_e2__LS, mode);
 105              		.loc 1 42 0
 106 00aa 45F20203 		movw	r3, #:lower16:1073762306
 107 00ae C4F20003 		movt	r3, #:upper16:1073762306
 108 00b2 45F20202 		movw	r2, #:lower16:1073762306
 109 00b6 C4F20002 		movt	r2, #:upper16:1073762306
 110 00ba 1278     		ldrb	r2, [r2, #0]
 111 00bc D2B2     		uxtb	r2, r2
 112 00be 1146     		mov	r1, r2
 113 00c0 01F0F101 		and	r1, r1, #241
 114 00c4 FA79     		ldrb	r2, [r7, #7]	@ zero_extendqisi2
 115 00c6 02F00E02 		and	r2, r2, #14
 116 00ca 41EA0202 		orr	r2, r1, r2
 117 00ce D2B2     		uxtb	r2, r2
 118 00d0 1A70     		strb	r2, [r3, #0]
  43:./Generated_Source/PSoC5/CapSense_Pins.c ****     CyPins_SetPinDriveMode(CapSense_PortCH0__LinearSlider0_e3__LS, mode);
 119              		.loc 1 43 0
 120 00d2 45F20303 		movw	r3, #:lower16:1073762307
 121 00d6 C4F20003 		movt	r3, #:upper16:1073762307
 122 00da 45F20302 		movw	r2, #:lower16:1073762307
 123 00de C4F20002 		movt	r2, #:upper16:1073762307
 124 00e2 1278     		ldrb	r2, [r2, #0]
ARM GAS  C:\Users\CHARLI~1\AppData\Local\Temp\ccRk2EmB.s 			page 4


 125 00e4 D2B2     		uxtb	r2, r2
 126 00e6 1146     		mov	r1, r2
 127 00e8 01F0F101 		and	r1, r1, #241
 128 00ec FA79     		ldrb	r2, [r7, #7]	@ zero_extendqisi2
 129 00ee 02F00E02 		and	r2, r2, #14
 130 00f2 41EA0202 		orr	r2, r1, r2
 131 00f6 D2B2     		uxtb	r2, r2
 132 00f8 1A70     		strb	r2, [r3, #0]
  44:./Generated_Source/PSoC5/CapSense_Pins.c ****     CyPins_SetPinDriveMode(CapSense_PortCH0__LinearSlider0_e4__LS, mode);
 133              		.loc 1 44 0
 134 00fa 45F20403 		movw	r3, #:lower16:1073762308
 135 00fe C4F20003 		movt	r3, #:upper16:1073762308
 136 0102 45F20402 		movw	r2, #:lower16:1073762308
 137 0106 C4F20002 		movt	r2, #:upper16:1073762308
 138 010a 1278     		ldrb	r2, [r2, #0]
 139 010c D2B2     		uxtb	r2, r2
 140 010e 1146     		mov	r1, r2
 141 0110 01F0F101 		and	r1, r1, #241
 142 0114 FA79     		ldrb	r2, [r7, #7]	@ zero_extendqisi2
 143 0116 02F00E02 		and	r2, r2, #14
 144 011a 41EA0202 		orr	r2, r1, r2
 145 011e D2B2     		uxtb	r2, r2
 146 0120 1A70     		strb	r2, [r3, #0]
  45:./Generated_Source/PSoC5/CapSense_Pins.c **** 
  46:./Generated_Source/PSoC5/CapSense_Pins.c **** }
 147              		.loc 1 46 0
 148 0122 07F10C07 		add	r7, r7, #12
 149 0126 BD46     		mov	sp, r7
 150 0128 80BC     		pop	{r7}
 151 012a 7047     		bx	lr
 152              		.cfi_endproc
 153              	.LFE0:
 154              		.size	CapSense_SetAllSensorsDriveMode, .-CapSense_SetAllSensorsDriveMode
 155              		.section	.text.CapSense_SetAllCmodsDriveMode,"ax",%progbits
 156              		.align	2
 157              		.global	CapSense_SetAllCmodsDriveMode
 158              		.thumb
 159              		.thumb_func
 160              		.type	CapSense_SetAllCmodsDriveMode, %function
 161              	CapSense_SetAllCmodsDriveMode:
 162              	.LFB1:
  47:./Generated_Source/PSoC5/CapSense_Pins.c **** 
  48:./Generated_Source/PSoC5/CapSense_Pins.c **** 
  49:./Generated_Source/PSoC5/CapSense_Pins.c **** 
  50:./Generated_Source/PSoC5/CapSense_Pins.c **** /*******************************************************************************
  51:./Generated_Source/PSoC5/CapSense_Pins.c **** * Function Name: CapSense_SetAllCmodsDriveMode
  52:./Generated_Source/PSoC5/CapSense_Pins.c **** ********************************************************************************
  53:./Generated_Source/PSoC5/CapSense_Pins.c **** *
  54:./Generated_Source/PSoC5/CapSense_Pins.c **** * Summary:
  55:./Generated_Source/PSoC5/CapSense_Pins.c **** *  Sets the drive mode for the all pins used by Cmod capacitors within CapSense 
  56:./Generated_Source/PSoC5/CapSense_Pins.c **** *  component.
  57:./Generated_Source/PSoC5/CapSense_Pins.c **** * 
  58:./Generated_Source/PSoC5/CapSense_Pins.c **** * Parameters:  
  59:./Generated_Source/PSoC5/CapSense_Pins.c **** *  mode: Desired drive mode.
  60:./Generated_Source/PSoC5/CapSense_Pins.c **** *
  61:./Generated_Source/PSoC5/CapSense_Pins.c **** * Return: 
  62:./Generated_Source/PSoC5/CapSense_Pins.c **** *  None
ARM GAS  C:\Users\CHARLI~1\AppData\Local\Temp\ccRk2EmB.s 			page 5


  63:./Generated_Source/PSoC5/CapSense_Pins.c **** *
  64:./Generated_Source/PSoC5/CapSense_Pins.c **** *******************************************************************************/
  65:./Generated_Source/PSoC5/CapSense_Pins.c **** void CapSense_SetAllCmodsDriveMode(uint8 mode) 
  66:./Generated_Source/PSoC5/CapSense_Pins.c **** {
 163              		.loc 1 66 0
 164              		.cfi_startproc
 165              		@ args = 0, pretend = 0, frame = 8
 166              		@ frame_needed = 1, uses_anonymous_args = 0
 167              		@ link register save eliminated.
 168 0000 80B4     		push	{r7}
 169              	.LCFI3:
 170              		.cfi_def_cfa_offset 4
 171 0002 83B0     		sub	sp, sp, #12
 172              	.LCFI4:
 173              		.cfi_def_cfa_offset 16
 174 0004 00AF     		add	r7, sp, #0
 175              		.cfi_offset 7, -4
 176              	.LCFI5:
 177              		.cfi_def_cfa_register 7
 178 0006 0346     		mov	r3, r0
 179 0008 FB71     		strb	r3, [r7, #7]
  67:./Generated_Source/PSoC5/CapSense_Pins.c ****    /* Set pins drive mode */
  68:./Generated_Source/PSoC5/CapSense_Pins.c ****     CyPins_SetPinDriveMode(CapSense_CmodCH0_Cmod_CH0, mode);
 180              		.loc 1 68 0
 181 000a 45F27D03 		movw	r3, #:lower16:1073762429
 182 000e C4F20003 		movt	r3, #:upper16:1073762429
 183 0012 45F27D02 		movw	r2, #:lower16:1073762429
 184 0016 C4F20002 		movt	r2, #:upper16:1073762429
 185 001a 1278     		ldrb	r2, [r2, #0]
 186 001c D2B2     		uxtb	r2, r2
 187 001e 1146     		mov	r1, r2
 188 0020 01F0F101 		and	r1, r1, #241
 189 0024 FA79     		ldrb	r2, [r7, #7]	@ zero_extendqisi2
 190 0026 02F00E02 		and	r2, r2, #14
 191 002a 41EA0202 		orr	r2, r1, r2
 192 002e D2B2     		uxtb	r2, r2
 193 0030 1A70     		strb	r2, [r3, #0]
  69:./Generated_Source/PSoC5/CapSense_Pins.c **** 
  70:./Generated_Source/PSoC5/CapSense_Pins.c **** }
 194              		.loc 1 70 0
 195 0032 07F10C07 		add	r7, r7, #12
 196 0036 BD46     		mov	sp, r7
 197 0038 80BC     		pop	{r7}
 198 003a 7047     		bx	lr
 199              		.cfi_endproc
 200              	.LFE1:
 201              		.size	CapSense_SetAllCmodsDriveMode, .-CapSense_SetAllCmodsDriveMode
 202              		.text
 203              	.Letext0: