ARM GAS  C:\Users\CHARLI~1\AppData\Local\Temp\ccytbmiF.s 			page 1


   1              		.syntax unified
   2              		.cpu cortex-m3
   3              		.fpu softvfp
   4              		.eabi_attribute 20, 1
   5              		.eabi_attribute 21, 1
   6              		.eabi_attribute 23, 3
   7              		.eabi_attribute 24, 1
   8              		.eabi_attribute 25, 1
   9              		.eabi_attribute 26, 1
  10              		.eabi_attribute 30, 6
  11              		.eabi_attribute 18, 4
  12              		.thumb
  13              		.file	"CapSense_1_Pins.c"
  20 0000 77000000 		.text
  20      02004E00 
  20      00000201 
  20      FB0E0D00 
  20      01010101 
  21              	.Ltext0:
  22              		.cfi_sections	.debug_frame
  23              		.section	.text.CapSense_1_SetAllSensorsDriveMode,"ax",%progbits
  24              		.align	2
  25              		.global	CapSense_1_SetAllSensorsDriveMode
  26              		.thumb
  27              		.thumb_func
  28              		.type	CapSense_1_SetAllSensorsDriveMode, %function
  29              	CapSense_1_SetAllSensorsDriveMode:
  30              	.LFB0:
  31              		.file 1 "./Generated_Source/PSoC5/CapSense_1_Pins.c"
   1:./Generated_Source/PSoC5/CapSense_1_Pins.c **** /*******************************************************************************
   2:./Generated_Source/PSoC5/CapSense_1_Pins.c **** * File Name: CapSense_1_Pins.c
   3:./Generated_Source/PSoC5/CapSense_1_Pins.c **** * Version 2.10
   4:./Generated_Source/PSoC5/CapSense_1_Pins.c **** *
   5:./Generated_Source/PSoC5/CapSense_1_Pins.c **** * Description:
   6:./Generated_Source/PSoC5/CapSense_1_Pins.c **** *  This file contains API to enable firmware control of a Pins component.
   7:./Generated_Source/PSoC5/CapSense_1_Pins.c **** *
   8:./Generated_Source/PSoC5/CapSense_1_Pins.c **** * Note:
   9:./Generated_Source/PSoC5/CapSense_1_Pins.c **** *
  10:./Generated_Source/PSoC5/CapSense_1_Pins.c **** ********************************************************************************
  11:./Generated_Source/PSoC5/CapSense_1_Pins.c **** * Copyright 2008-2010, Cypress Semiconductor Corporation.  All rights reserved.
  12:./Generated_Source/PSoC5/CapSense_1_Pins.c **** * You may use this file only in accordance with the license, terms, conditions,
  13:./Generated_Source/PSoC5/CapSense_1_Pins.c **** * disclaimers, and limitations in the end user license agreement accompanying
  14:./Generated_Source/PSoC5/CapSense_1_Pins.c **** * the software package with which this file was provided.
  15:./Generated_Source/PSoC5/CapSense_1_Pins.c **** *******************************************************************************/
  16:./Generated_Source/PSoC5/CapSense_1_Pins.c **** 
  17:./Generated_Source/PSoC5/CapSense_1_Pins.c **** #include "CapSense_1_Pins.h"
  18:./Generated_Source/PSoC5/CapSense_1_Pins.c **** 
  19:./Generated_Source/PSoC5/CapSense_1_Pins.c **** 
  20:./Generated_Source/PSoC5/CapSense_1_Pins.c **** /*******************************************************************************
  21:./Generated_Source/PSoC5/CapSense_1_Pins.c **** * Function Name: CapSense_1_SetAllSensorsDriveMode
  22:./Generated_Source/PSoC5/CapSense_1_Pins.c **** ********************************************************************************
ARM GAS  C:\Users\CHARLI~1\AppData\Local\Temp\ccytbmiF.s 			page 2


  23:./Generated_Source/PSoC5/CapSense_1_Pins.c **** *
  24:./Generated_Source/PSoC5/CapSense_1_Pins.c **** * Summary:
  25:./Generated_Source/PSoC5/CapSense_1_Pins.c **** *  Sets the drive mode for the all pins used by capacitive sensors within 
  26:./Generated_Source/PSoC5/CapSense_1_Pins.c **** *  CapSense component.
  27:./Generated_Source/PSoC5/CapSense_1_Pins.c **** * 
  28:./Generated_Source/PSoC5/CapSense_1_Pins.c **** * Parameters:  
  29:./Generated_Source/PSoC5/CapSense_1_Pins.c **** *  mode: Desired drive mode.
  30:./Generated_Source/PSoC5/CapSense_1_Pins.c **** *
  31:./Generated_Source/PSoC5/CapSense_1_Pins.c **** * Return: 
  32:./Generated_Source/PSoC5/CapSense_1_Pins.c **** *  None
  33:./Generated_Source/PSoC5/CapSense_1_Pins.c **** *
  34:./Generated_Source/PSoC5/CapSense_1_Pins.c **** *******************************************************************************/
  35:./Generated_Source/PSoC5/CapSense_1_Pins.c **** void CapSense_1_SetAllSensorsDriveMode(uint8 mode) 
  36:./Generated_Source/PSoC5/CapSense_1_Pins.c **** {
  32              		.loc 1 36 0
  33              		.cfi_startproc
  34              		@ args = 0, pretend = 0, frame = 8
  35              		@ frame_needed = 1, uses_anonymous_args = 0
  36              		@ link register save eliminated.
  37 0000 80B4     		push	{r7}
  38              	.LCFI0:
  39              		.cfi_def_cfa_offset 4
  40 0002 83B0     		sub	sp, sp, #12
  41              	.LCFI1:
  42              		.cfi_def_cfa_offset 16
  43 0004 00AF     		add	r7, sp, #0
  44              		.cfi_offset 7, -4
  45              	.LCFI2:
  46              		.cfi_def_cfa_register 7
  47 0006 0346     		mov	r3, r0
  48 0008 FB71     		strb	r3, [r7, #7]
  37:./Generated_Source/PSoC5/CapSense_1_Pins.c ****     /* Set pins drive mode */
  38:./Generated_Source/PSoC5/CapSense_1_Pins.c ****     CyPins_SetPinDriveMode(CapSense_1_PortCH0__DummyWidget__BTN, mode);
  49              		.loc 1 38 0
  50 000a 4FF00001 		mov	r1, #0
  51 000e 4FF00003 		mov	r3, #0
  52 0012 1B78     		ldrb	r3, [r3, #0]
  53 0014 DBB2     		uxtb	r3, r3
  54 0016 1A46     		mov	r2, r3
  55 0018 02F0F102 		and	r2, r2, #241
  56 001c FB79     		ldrb	r3, [r7, #7]	@ zero_extendqisi2
  57 001e 03F00E03 		and	r3, r3, #14
  58 0022 42EA0303 		orr	r3, r2, r3
  59 0026 DBB2     		uxtb	r3, r3
  60 0028 0B70     		strb	r3, [r1, #0]
  39:./Generated_Source/PSoC5/CapSense_1_Pins.c **** 
  40:./Generated_Source/PSoC5/CapSense_1_Pins.c **** }
  61              		.loc 1 40 0
  62 002a 07F10C07 		add	r7, r7, #12
  63 002e BD46     		mov	sp, r7
  64 0030 80BC     		pop	{r7}
  65 0032 7047     		bx	lr
  66              		.cfi_endproc
  67              	.LFE0:
  68              		.size	CapSense_1_SetAllSensorsDriveMode, .-CapSense_1_SetAllSensorsDriveMode
  69              		.section	.text.CapSense_1_SetAllCmodsDriveMode,"ax",%progbits
  70              		.align	2
ARM GAS  C:\Users\CHARLI~1\AppData\Local\Temp\ccytbmiF.s 			page 3


  71              		.global	CapSense_1_SetAllCmodsDriveMode
  72              		.thumb
  73              		.thumb_func
  74              		.type	CapSense_1_SetAllCmodsDriveMode, %function
  75              	CapSense_1_SetAllCmodsDriveMode:
  76              	.LFB1:
  41:./Generated_Source/PSoC5/CapSense_1_Pins.c **** 
  42:./Generated_Source/PSoC5/CapSense_1_Pins.c **** 
  43:./Generated_Source/PSoC5/CapSense_1_Pins.c **** 
  44:./Generated_Source/PSoC5/CapSense_1_Pins.c **** /*******************************************************************************
  45:./Generated_Source/PSoC5/CapSense_1_Pins.c **** * Function Name: CapSense_1_SetAllCmodsDriveMode
  46:./Generated_Source/PSoC5/CapSense_1_Pins.c **** ********************************************************************************
  47:./Generated_Source/PSoC5/CapSense_1_Pins.c **** *
  48:./Generated_Source/PSoC5/CapSense_1_Pins.c **** * Summary:
  49:./Generated_Source/PSoC5/CapSense_1_Pins.c **** *  Sets the drive mode for the all pins used by Cmod capacitors within CapSense 
  50:./Generated_Source/PSoC5/CapSense_1_Pins.c **** *  component.
  51:./Generated_Source/PSoC5/CapSense_1_Pins.c **** * 
  52:./Generated_Source/PSoC5/CapSense_1_Pins.c **** * Parameters:  
  53:./Generated_Source/PSoC5/CapSense_1_Pins.c **** *  mode: Desired drive mode.
  54:./Generated_Source/PSoC5/CapSense_1_Pins.c **** *
  55:./Generated_Source/PSoC5/CapSense_1_Pins.c **** * Return: 
  56:./Generated_Source/PSoC5/CapSense_1_Pins.c **** *  None
  57:./Generated_Source/PSoC5/CapSense_1_Pins.c **** *
  58:./Generated_Source/PSoC5/CapSense_1_Pins.c **** *******************************************************************************/
  59:./Generated_Source/PSoC5/CapSense_1_Pins.c **** void CapSense_1_SetAllCmodsDriveMode(uint8 mode) 
  60:./Generated_Source/PSoC5/CapSense_1_Pins.c **** {
  77              		.loc 1 60 0
  78              		.cfi_startproc
  79              		@ args = 0, pretend = 0, frame = 8
  80              		@ frame_needed = 1, uses_anonymous_args = 0
  81              		@ link register save eliminated.
  82 0000 80B4     		push	{r7}
  83              	.LCFI3:
  84              		.cfi_def_cfa_offset 4
  85 0002 83B0     		sub	sp, sp, #12
  86              	.LCFI4:
  87              		.cfi_def_cfa_offset 16
  88 0004 00AF     		add	r7, sp, #0
  89              		.cfi_offset 7, -4
  90              	.LCFI5:
  91              		.cfi_def_cfa_register 7
  92 0006 0346     		mov	r3, r0
  93 0008 FB71     		strb	r3, [r7, #7]
  61:./Generated_Source/PSoC5/CapSense_1_Pins.c ****    /* Set pins drive mode */
  62:./Generated_Source/PSoC5/CapSense_1_Pins.c ****     CyPins_SetPinDriveMode(CapSense_1_CmodCH0_Cmod_CH0, mode);
  94              		.loc 1 62 0
  95 000a 45F23003 		movw	r3, #:lower16:1073762352
  96 000e C4F20003 		movt	r3, #:upper16:1073762352
  97 0012 45F23002 		movw	r2, #:lower16:1073762352
  98 0016 C4F20002 		movt	r2, #:upper16:1073762352
  99 001a 1278     		ldrb	r2, [r2, #0]
 100 001c D2B2     		uxtb	r2, r2
 101 001e 1146     		mov	r1, r2
 102 0020 01F0F101 		and	r1, r1, #241
 103 0024 FA79     		ldrb	r2, [r7, #7]	@ zero_extendqisi2
 104 0026 02F00E02 		and	r2, r2, #14
 105 002a 41EA0202 		orr	r2, r1, r2
ARM GAS  C:\Users\CHARLI~1\AppData\Local\Temp\ccytbmiF.s 			page 4


 106 002e D2B2     		uxtb	r2, r2
 107 0030 1A70     		strb	r2, [r3, #0]
  63:./Generated_Source/PSoC5/CapSense_1_Pins.c **** 
  64:./Generated_Source/PSoC5/CapSense_1_Pins.c **** }
 108              		.loc 1 64 0
 109 0032 07F10C07 		add	r7, r7, #12
 110 0036 BD46     		mov	sp, r7
 111 0038 80BC     		pop	{r7}
 112 003a 7047     		bx	lr
 113              		.cfi_endproc
 114              	.LFE1:
 115              		.size	CapSense_1_SetAllCmodsDriveMode, .-CapSense_1_SetAllCmodsDriveMode
 116              		.text
 117              	.Letext0: