ARM GAS  C:\Users\CHARLI~1\AppData\Local\Temp\ccYu411o.s 			page 1


   1              		.syntax unified
   2              		.cpu cortex-m3
   3              		.fpu softvfp
   4              		.eabi_attribute 20, 1
   5              		.eabi_attribute 21, 1
   6              		.eabi_attribute 23, 3
   7              		.eabi_attribute 24, 1
   8              		.eabi_attribute 25, 1
   9              		.eabi_attribute 26, 1
  10              		.eabi_attribute 30, 6
  11              		.eabi_attribute 18, 4
  12              		.thumb
  13              		.file	"CapSense_CSHL.c"
  20 0000 0D020000 		.text
  20      02004C00 
  20      00000201 
  20      FB0E0D00 
  20      01010101 
  21              	.Ltext0:
  22              		.cfi_sections	.debug_frame
  23              		.comm	CapSense_rawFilterData1,14,4
  24              		.global	CapSense_SensorBaseline
  25              		.bss
  26              		.align	2
  27              		.type	CapSense_SensorBaseline, %object
  28              		.size	CapSense_SensorBaseline, 14
  29              	CapSense_SensorBaseline:
  30 0000 00000000 		.space	14
  30      00000000 
  30      00000000 
  30      0000
  31              		.global	CapSense_SensorBaselineLow
  32 000e 0000     		.align	2
  33              		.type	CapSense_SensorBaselineLow, %object
  34              		.size	CapSense_SensorBaselineLow, 7
  35              	CapSense_SensorBaselineLow:
  36 0010 00000000 		.space	7
  36      000000
  37              		.global	CapSense_SensorSignal
  38 0017 00       		.align	2
  39              		.type	CapSense_SensorSignal, %object
  40              		.size	CapSense_SensorSignal, 7
  41              	CapSense_SensorSignal:
  42 0018 00000000 		.space	7
  42      000000
  43              		.global	CapSense_SensorOnMask
  44 001f 00       		.align	2
  45              		.type	CapSense_SensorOnMask, %object
  46              		.size	CapSense_SensorOnMask, 1
  47              	CapSense_SensorOnMask:
  48 0020 00       		.space	1
ARM GAS  C:\Users\CHARLI~1\AppData\Local\Temp\ccYu411o.s 			page 2


  49 0021 000000   		.align	2
  50              	CapSense_centroid:
  51 0024 000000   		.space	3
  52              		.global	CapSense_fingerThreshold
  53              		.data
  54              		.align	2
  55              		.type	CapSense_fingerThreshold, %object
  56              		.size	CapSense_fingerThreshold, 3
  57              	CapSense_fingerThreshold:
  58 0000 64       		.byte	100
  59 0001 64       		.byte	100
  60 0002 64       		.byte	100
  61              		.global	CapSense_noiseThreshold
  62 0003 00       		.align	2
  63              		.type	CapSense_noiseThreshold, %object
  64              		.size	CapSense_noiseThreshold, 3
  65              	CapSense_noiseThreshold:
  66 0004 14       		.byte	20
  67 0005 14       		.byte	20
  68 0006 14       		.byte	20
  69              		.global	CapSense_hysteresis
  70 0007 00       		.align	2
  71              		.type	CapSense_hysteresis, %object
  72              		.size	CapSense_hysteresis, 3
  73              	CapSense_hysteresis:
  74 0008 00       		.byte	0
  75 0009 0A       		.byte	10
  76 000a 0A       		.byte	10
  77              		.global	CapSense_debounce
  78 000b 00       		.align	2
  79              		.type	CapSense_debounce, %object
  80              		.size	CapSense_debounce, 3
  81              	CapSense_debounce:
  82 000c 00       		.byte	0
  83 000d 05       		.byte	5
  84 000e 05       		.byte	5
  85              		.global	CapSense_debounceCounter
  86              		.bss
  87 0027 00       		.align	2
  88              		.type	CapSense_debounceCounter, %object
  89              		.size	CapSense_debounceCounter, 3
  90              	CapSense_debounceCounter:
  91 0028 000000   		.space	3
  92              		.global	CapSense_rawDataIndex
  93 002b 00       		.section	.rodata
  94              		.align	2
  95              		.type	CapSense_rawDataIndex, %object
  96              		.size	CapSense_rawDataIndex, 3
  97              	CapSense_rawDataIndex:
  98 0000 02       		.byte	2
  99 0001 00       		.byte	0
 100 0002 01       		.byte	1
 101              		.global	CapSense_numberOfSensors
 102 0003 00       		.align	2
 103              		.type	CapSense_numberOfSensors, %object
 104              		.size	CapSense_numberOfSensors, 3
 105              	CapSense_numberOfSensors:
ARM GAS  C:\Users\CHARLI~1\AppData\Local\Temp\ccYu411o.s 			page 3


 106 0004 05       		.byte	5
 107 0005 01       		.byte	1
 108 0006 01       		.byte	1
 109              		.global	CapSense_centroidMult
 110 0007 00       		.align	2
 111              		.type	CapSense_centroidMult, %object
 112              		.size	CapSense_centroidMult, 2
 113              	CapSense_centroidMult:
 114 0008 0019     		.short	6400
 115              		.global	CapSense_posFiltersMask
 116 000a 0000     		.align	2
 117              		.type	CapSense_posFiltersMask, %object
 118              		.size	CapSense_posFiltersMask, 1
 119              	CapSense_posFiltersMask:
 120 000c 08       		.byte	8
 121              		.global	CapSense_posFiltersData
 122 000d 000000   		.data
 123 000f 00       		.align	2
 124              		.type	CapSense_posFiltersData, %object
 125              		.size	CapSense_posFiltersData, 3
 126              	CapSense_posFiltersData:
 127 0010 01       		.byte	1
 128 0011 00       		.byte	0
 129 0012 00       		.byte	0
 130 0013 00       		.section	.text.CapSense_BaseInit,"ax",%progbits
 131              		.align	2
 132              		.global	CapSense_BaseInit
 133              		.thumb
 134              		.thumb_func
 135              		.type	CapSense_BaseInit, %function
 136              	CapSense_BaseInit:
 137              	.LFB0:
 138              		.file 1 "./Generated_Source/PSoC5/CapSense_CSHL.c"
   1:./Generated_Source/PSoC5/CapSense_CSHL.c **** /*******************************************************************************
   2:./Generated_Source/PSoC5/CapSense_CSHL.c **** * File Name: CapSense_CSHL.c
   3:./Generated_Source/PSoC5/CapSense_CSHL.c **** * Version 2.10
   4:./Generated_Source/PSoC5/CapSense_CSHL.c **** *
   5:./Generated_Source/PSoC5/CapSense_CSHL.c **** * Description:
   6:./Generated_Source/PSoC5/CapSense_CSHL.c **** *  This file provides the source code to the High Level APIs for the CapSesne
   7:./Generated_Source/PSoC5/CapSense_CSHL.c **** *  CSD component.
   8:./Generated_Source/PSoC5/CapSense_CSHL.c **** *
   9:./Generated_Source/PSoC5/CapSense_CSHL.c **** * Note:
  10:./Generated_Source/PSoC5/CapSense_CSHL.c **** *
  11:./Generated_Source/PSoC5/CapSense_CSHL.c **** ********************************************************************************
  12:./Generated_Source/PSoC5/CapSense_CSHL.c **** * Copyright 2008-2010, Cypress Semiconductor Corporation.  All rights reserved.
  13:./Generated_Source/PSoC5/CapSense_CSHL.c **** * You may use this file only in accordance with the license, terms, conditions,
  14:./Generated_Source/PSoC5/CapSense_CSHL.c **** * disclaimers, and limitations in the end user license agreement accompanying
  15:./Generated_Source/PSoC5/CapSense_CSHL.c **** * the software package with which this file was provided.
  16:./Generated_Source/PSoC5/CapSense_CSHL.c **** *******************************************************************************/
  17:./Generated_Source/PSoC5/CapSense_CSHL.c **** 
  18:./Generated_Source/PSoC5/CapSense_CSHL.c **** #include "CapSense_CSHL.h"
  19:./Generated_Source/PSoC5/CapSense_CSHL.c **** 
  20:./Generated_Source/PSoC5/CapSense_CSHL.c **** /* SmartSense functions */
  21:./Generated_Source/PSoC5/CapSense_CSHL.c **** #if (CapSense_TUNING_METHOD == CapSense_AUTO_TUNING)
  22:./Generated_Source/PSoC5/CapSense_CSHL.c ****     extern void CapSense_CalculateThresholds(uint8 SensorNumber);
  23:./Generated_Source/PSoC5/CapSense_CSHL.c **** #endif /* End (CapSense_TUNING_METHOD == CapSense_AUTO_TUNING) */
  24:./Generated_Source/PSoC5/CapSense_CSHL.c **** 
ARM GAS  C:\Users\CHARLI~1\AppData\Local\Temp\ccYu411o.s 			page 4


  25:./Generated_Source/PSoC5/CapSense_CSHL.c **** /* Median filter function prototype */
  26:./Generated_Source/PSoC5/CapSense_CSHL.c **** #if ( (CapSense_RAW_FILTER_MASK & CapSense_MEDIAN_FILTER) || \
  27:./Generated_Source/PSoC5/CapSense_CSHL.c ****       (CapSense_POS_FILTERS_MASK & CapSense_MEDIAN_FILTER) )
  28:./Generated_Source/PSoC5/CapSense_CSHL.c ****     uint16 CapSense_MedianFilter(uint16 x1, uint16 x2, uint16 x3) \
  29:./Generated_Source/PSoC5/CapSense_CSHL.c ****     ;
  30:./Generated_Source/PSoC5/CapSense_CSHL.c **** #endif /* End CapSense_RAW_FILTER_MASK && CapSense_POS_FILTERS_MASK */
  31:./Generated_Source/PSoC5/CapSense_CSHL.c **** 
  32:./Generated_Source/PSoC5/CapSense_CSHL.c **** /* Averaging filter function prototype */
  33:./Generated_Source/PSoC5/CapSense_CSHL.c **** #if ( (CapSense_RAW_FILTER_MASK & CapSense_AVERAGING_FILTER) || \
  34:./Generated_Source/PSoC5/CapSense_CSHL.c ****       (CapSense_POS_FILTERS_MASK & CapSense_AVERAGING_FILTER) )
  35:./Generated_Source/PSoC5/CapSense_CSHL.c ****     uint16 CapSense_AveragingFilter(uint16 x1, uint16 x2, uint16 x3) \
  36:./Generated_Source/PSoC5/CapSense_CSHL.c ****     ;
  37:./Generated_Source/PSoC5/CapSense_CSHL.c **** #endif /* End CapSense_RAW_FILTER_MASK && CapSense_POS_FILTERS_MASK */
  38:./Generated_Source/PSoC5/CapSense_CSHL.c **** 
  39:./Generated_Source/PSoC5/CapSense_CSHL.c **** /* IIR2Filter(1/2prev + 1/2cur) filter function prototype */
  40:./Generated_Source/PSoC5/CapSense_CSHL.c **** #if ( (CapSense_RAW_FILTER_MASK & CapSense_IIR2_FILTER) || \
  41:./Generated_Source/PSoC5/CapSense_CSHL.c ****       (CapSense_POS_FILTERS_MASK & CapSense_IIR2_FILTER) )
  42:./Generated_Source/PSoC5/CapSense_CSHL.c **** uint16 CapSense_IIR2Filter(uint16 x1, uint16 x2) ;
  43:./Generated_Source/PSoC5/CapSense_CSHL.c **** #endif /* End CapSense_RAW_FILTER_MASK && CapSense_POS_FILTERS_MASK */
  44:./Generated_Source/PSoC5/CapSense_CSHL.c **** 
  45:./Generated_Source/PSoC5/CapSense_CSHL.c **** /* IIR4Filter(3/4prev + 1/4cur) filter function prototype */
  46:./Generated_Source/PSoC5/CapSense_CSHL.c **** #if ( (CapSense_RAW_FILTER_MASK & CapSense_IIR4_FILTER) || \
  47:./Generated_Source/PSoC5/CapSense_CSHL.c ****       (CapSense_POS_FILTERS_MASK & CapSense_IIR4_FILTER) )
  48:./Generated_Source/PSoC5/CapSense_CSHL.c ****     uint16 CapSense_IIR4Filter(uint16 x1, uint16 x2) ;
  49:./Generated_Source/PSoC5/CapSense_CSHL.c **** #endif /* End CapSense_RAW_FILTER_MASK && CapSense_POS_FILTERS_MASK */
  50:./Generated_Source/PSoC5/CapSense_CSHL.c **** 
  51:./Generated_Source/PSoC5/CapSense_CSHL.c **** /* IIR8Filter(7/8prev + 1/8cur) filter function prototype - RawCounts only */
  52:./Generated_Source/PSoC5/CapSense_CSHL.c **** #if (CapSense_RAW_FILTER_MASK & CapSense_IIR8_FILTER)
  53:./Generated_Source/PSoC5/CapSense_CSHL.c ****     uint16 CapSense_IIR8Filter(uint16 x1, uint16 x2) ;
  54:./Generated_Source/PSoC5/CapSense_CSHL.c **** #endif /* End CapSense_RAW_FILTER_MASK */
  55:./Generated_Source/PSoC5/CapSense_CSHL.c **** 
  56:./Generated_Source/PSoC5/CapSense_CSHL.c **** /* IIR16Filter(15/16prev + 1/16cur) filter function prototype - RawCounts only */
  57:./Generated_Source/PSoC5/CapSense_CSHL.c **** #if (CapSense_RAW_FILTER_MASK & CapSense_IIR16_FILTER)
  58:./Generated_Source/PSoC5/CapSense_CSHL.c ****     uint16 CapSense_IIR16Filter(uint16 x1, uint16 x2) ;
  59:./Generated_Source/PSoC5/CapSense_CSHL.c **** #endif /* End CapSense_RAW_FILTER_MASK */
  60:./Generated_Source/PSoC5/CapSense_CSHL.c **** 
  61:./Generated_Source/PSoC5/CapSense_CSHL.c **** /* JitterFilter filter function prototype */
  62:./Generated_Source/PSoC5/CapSense_CSHL.c **** #if ( (CapSense_RAW_FILTER_MASK & CapSense_JITTER_FILTER) || \
  63:./Generated_Source/PSoC5/CapSense_CSHL.c ****       (CapSense_POS_FILTERS_MASK & CapSense_JITTER_FILTER) )
  64:./Generated_Source/PSoC5/CapSense_CSHL.c ****     uint16 CapSense_JitterFilter(uint16 x1, uint16 x2) ;
  65:./Generated_Source/PSoC5/CapSense_CSHL.c **** #endif /* End CapSense_RAW_FILTER_MASK && CapSense_POS_FILTERS_MASK */
  66:./Generated_Source/PSoC5/CapSense_CSHL.c **** 
  67:./Generated_Source/PSoC5/CapSense_CSHL.c **** /* Storage of filters data */
  68:./Generated_Source/PSoC5/CapSense_CSHL.c **** #if ( (CapSense_RAW_FILTER_MASK & CapSense_MEDIAN_FILTER) || \
  69:./Generated_Source/PSoC5/CapSense_CSHL.c ****       (CapSense_RAW_FILTER_MASK & CapSense_AVERAGING_FILTER) )
  70:./Generated_Source/PSoC5/CapSense_CSHL.c **** 
  71:./Generated_Source/PSoC5/CapSense_CSHL.c ****     uint16 CapSense_rawFilterData1[CapSense_TOTAL_SENSOR_COUNT];
  72:./Generated_Source/PSoC5/CapSense_CSHL.c ****     uint16 CapSense_rawFilterData2[CapSense_TOTAL_SENSOR_COUNT];
  73:./Generated_Source/PSoC5/CapSense_CSHL.c **** 
  74:./Generated_Source/PSoC5/CapSense_CSHL.c **** #elif ( (CapSense_RAW_FILTER_MASK & CapSense_IIR2_FILTER)   || \
  75:./Generated_Source/PSoC5/CapSense_CSHL.c ****         (CapSense_RAW_FILTER_MASK & CapSense_IIR4_FILTER)   || \
  76:./Generated_Source/PSoC5/CapSense_CSHL.c ****         (CapSense_RAW_FILTER_MASK & CapSense_JITTER_FILTER) || \
  77:./Generated_Source/PSoC5/CapSense_CSHL.c ****         (CapSense_RAW_FILTER_MASK & CapSense_IIR8_FILTER)   || \
  78:./Generated_Source/PSoC5/CapSense_CSHL.c ****         (CapSense_RAW_FILTER_MASK & CapSense_IIR16_FILTER) )
  79:./Generated_Source/PSoC5/CapSense_CSHL.c ****         
  80:./Generated_Source/PSoC5/CapSense_CSHL.c ****     uint16 CapSense_rawFilterData1[CapSense_TOTAL_SENSOR_COUNT];
  81:./Generated_Source/PSoC5/CapSense_CSHL.c **** 
ARM GAS  C:\Users\CHARLI~1\AppData\Local\Temp\ccYu411o.s 			page 5


  82:./Generated_Source/PSoC5/CapSense_CSHL.c **** #else
  83:./Generated_Source/PSoC5/CapSense_CSHL.c ****     /* No Raw filters */
  84:./Generated_Source/PSoC5/CapSense_CSHL.c **** #endif  /* End CapSense_RAW_FILTER_MASK */
  85:./Generated_Source/PSoC5/CapSense_CSHL.c **** 
  86:./Generated_Source/PSoC5/CapSense_CSHL.c **** extern uint16 CapSense_SensorRaw[CapSense_TOTAL_SENSOR_COUNT];
  87:./Generated_Source/PSoC5/CapSense_CSHL.c **** extern uint8 CapSense_SensorEnableMask[(((CapSense_TOTAL_SENSOR_COUNT - 1u) / 8u) + 1u)];
  88:./Generated_Source/PSoC5/CapSense_CSHL.c **** extern const uint8 CYCODE CapSense_widgetNumber[];
  89:./Generated_Source/PSoC5/CapSense_CSHL.c **** 
  90:./Generated_Source/PSoC5/CapSense_CSHL.c **** uint16 CapSense_SensorBaseline[CapSense_TOTAL_SENSOR_COUNT] = {0u};
  91:./Generated_Source/PSoC5/CapSense_CSHL.c **** uint8 CapSense_SensorBaselineLow[CapSense_TOTAL_SENSOR_COUNT] = {0u};
  92:./Generated_Source/PSoC5/CapSense_CSHL.c **** uint8 CapSense_SensorSignal[CapSense_TOTAL_SENSOR_COUNT] = {0u};
  93:./Generated_Source/PSoC5/CapSense_CSHL.c **** uint8 CapSense_SensorOnMask[(((CapSense_TOTAL_SENSOR_COUNT - 1u) / 8u) + 1u)] = {0u};
  94:./Generated_Source/PSoC5/CapSense_CSHL.c **** 
  95:./Generated_Source/PSoC5/CapSense_CSHL.c **** /* Helps while centroid calulation */
  96:./Generated_Source/PSoC5/CapSense_CSHL.c **** #if (CapSense_TOTAL_CENTROIDS_COUNT)
  97:./Generated_Source/PSoC5/CapSense_CSHL.c ****     static uint8 CapSense_centroid[3];
  98:./Generated_Source/PSoC5/CapSense_CSHL.c **** #endif  /* End (CapSense_TOTAL_CENTROIDS_COUNT) */
  99:./Generated_Source/PSoC5/CapSense_CSHL.c **** 
 100:./Generated_Source/PSoC5/CapSense_CSHL.c **** 
 101:./Generated_Source/PSoC5/CapSense_CSHL.c **** uint8 CapSense_fingerThreshold[] = {
 102:./Generated_Source/PSoC5/CapSense_CSHL.c ****     100u, 100u, 100u, 
 103:./Generated_Source/PSoC5/CapSense_CSHL.c **** };
 104:./Generated_Source/PSoC5/CapSense_CSHL.c **** 
 105:./Generated_Source/PSoC5/CapSense_CSHL.c **** uint8 CapSense_noiseThreshold[] = {
 106:./Generated_Source/PSoC5/CapSense_CSHL.c ****     20u, 20u, 20u, 
 107:./Generated_Source/PSoC5/CapSense_CSHL.c **** };
 108:./Generated_Source/PSoC5/CapSense_CSHL.c **** 
 109:./Generated_Source/PSoC5/CapSense_CSHL.c **** uint8 CapSense_hysteresis[] = {
 110:./Generated_Source/PSoC5/CapSense_CSHL.c ****     0u, 10u, 10u, 
 111:./Generated_Source/PSoC5/CapSense_CSHL.c **** };
 112:./Generated_Source/PSoC5/CapSense_CSHL.c **** 
 113:./Generated_Source/PSoC5/CapSense_CSHL.c **** uint8 CapSense_debounce[] = {
 114:./Generated_Source/PSoC5/CapSense_CSHL.c ****     0u, 5u, 5u, 
 115:./Generated_Source/PSoC5/CapSense_CSHL.c **** };
 116:./Generated_Source/PSoC5/CapSense_CSHL.c **** 
 117:./Generated_Source/PSoC5/CapSense_CSHL.c **** uint8 CapSense_debounceCounter[] = {
 118:./Generated_Source/PSoC5/CapSense_CSHL.c ****     0u, 0u, 0u, 
 119:./Generated_Source/PSoC5/CapSense_CSHL.c **** };
 120:./Generated_Source/PSoC5/CapSense_CSHL.c **** 
 121:./Generated_Source/PSoC5/CapSense_CSHL.c **** const uint8 CYCODE CapSense_rawDataIndex[] = {
 122:./Generated_Source/PSoC5/CapSense_CSHL.c ****     2u, /* LinearSlider0__LS */
 123:./Generated_Source/PSoC5/CapSense_CSHL.c ****     0u, /* Button0__BTN */
 124:./Generated_Source/PSoC5/CapSense_CSHL.c ****     1u, /* Button1__BTN */
 125:./Generated_Source/PSoC5/CapSense_CSHL.c **** 
 126:./Generated_Source/PSoC5/CapSense_CSHL.c **** };
 127:./Generated_Source/PSoC5/CapSense_CSHL.c **** 
 128:./Generated_Source/PSoC5/CapSense_CSHL.c **** const uint8 CYCODE CapSense_numberOfSensors[] = {
 129:./Generated_Source/PSoC5/CapSense_CSHL.c ****     5u, /* LinearSlider0__LS */
 130:./Generated_Source/PSoC5/CapSense_CSHL.c ****     1u, /* Button0__BTN */
 131:./Generated_Source/PSoC5/CapSense_CSHL.c ****     1u, /* Button1__BTN */
 132:./Generated_Source/PSoC5/CapSense_CSHL.c **** 
 133:./Generated_Source/PSoC5/CapSense_CSHL.c **** };
 134:./Generated_Source/PSoC5/CapSense_CSHL.c **** 
 135:./Generated_Source/PSoC5/CapSense_CSHL.c **** const uint16 CYCODE CapSense_centroidMult[] = {
 136:./Generated_Source/PSoC5/CapSense_CSHL.c ****     6400u, 
 137:./Generated_Source/PSoC5/CapSense_CSHL.c **** };
 138:./Generated_Source/PSoC5/CapSense_CSHL.c **** 
ARM GAS  C:\Users\CHARLI~1\AppData\Local\Temp\ccYu411o.s 			page 6


 139:./Generated_Source/PSoC5/CapSense_CSHL.c **** const uint8 CYCODE CapSense_posFiltersMask[] = {
 140:./Generated_Source/PSoC5/CapSense_CSHL.c ****     0x8u, 
 141:./Generated_Source/PSoC5/CapSense_CSHL.c **** };
 142:./Generated_Source/PSoC5/CapSense_CSHL.c **** 
 143:./Generated_Source/PSoC5/CapSense_CSHL.c **** uint8 CapSense_posFiltersData[] = {
 144:./Generated_Source/PSoC5/CapSense_CSHL.c ****     1u, 0u, 0u, 
 145:./Generated_Source/PSoC5/CapSense_CSHL.c **** };
 146:./Generated_Source/PSoC5/CapSense_CSHL.c **** 
 147:./Generated_Source/PSoC5/CapSense_CSHL.c **** 
 148:./Generated_Source/PSoC5/CapSense_CSHL.c **** 
 149:./Generated_Source/PSoC5/CapSense_CSHL.c **** #if (CapSense_TOTAL_TOUCH_PADS_COUNT)
 150:./Generated_Source/PSoC5/CapSense_CSHL.c ****     uint8 CapSense_position[CapSense_TOTAL_CENTROIDS_COUNT] = {0xFFu};
 151:./Generated_Source/PSoC5/CapSense_CSHL.c **** #endif  /* End (CapSense_TOTAL_TOUCH_PADS_COUNT) */
 152:./Generated_Source/PSoC5/CapSense_CSHL.c **** 
 153:./Generated_Source/PSoC5/CapSense_CSHL.c **** 
 154:./Generated_Source/PSoC5/CapSense_CSHL.c **** /*******************************************************************************
 155:./Generated_Source/PSoC5/CapSense_CSHL.c **** * Function Name: CapSense_BaseInit
 156:./Generated_Source/PSoC5/CapSense_CSHL.c **** ********************************************************************************
 157:./Generated_Source/PSoC5/CapSense_CSHL.c **** *
 158:./Generated_Source/PSoC5/CapSense_CSHL.c **** * Summary:
 159:./Generated_Source/PSoC5/CapSense_CSHL.c **** *  Loads the CapSense_SensorBaseline[sensor] array element with an 
 160:./Generated_Source/PSoC5/CapSense_CSHL.c **** *  initial value which qual raw count value. 
 161:./Generated_Source/PSoC5/CapSense_CSHL.c **** *  Resets to zero CapSense_SensorBaselineLow[senesor] and 
 162:./Generated_Source/PSoC5/CapSense_CSHL.c **** *  CapSense_SensorSignal[sensor] array element.
 163:./Generated_Source/PSoC5/CapSense_CSHL.c **** *  Loads CapSense_debounceCounter[sensor] array element with initial 
 164:./Generated_Source/PSoC5/CapSense_CSHL.c **** *  value equal CapSense_debounce[].
 165:./Generated_Source/PSoC5/CapSense_CSHL.c **** *  Loads the CapSense_rawFilterData2[sensor] and 
 166:./Generated_Source/PSoC5/CapSense_CSHL.c **** *  CapSense_rawFilterData2[sensor] array element with an 
 167:./Generated_Source/PSoC5/CapSense_CSHL.c **** *  initial value which qual raw count value if raw data filter is enabled.
 168:./Generated_Source/PSoC5/CapSense_CSHL.c **** *
 169:./Generated_Source/PSoC5/CapSense_CSHL.c **** * Parameters:
 170:./Generated_Source/PSoC5/CapSense_CSHL.c **** *  sensor:  Sensor number.
 171:./Generated_Source/PSoC5/CapSense_CSHL.c **** *
 172:./Generated_Source/PSoC5/CapSense_CSHL.c **** * Return:
 173:./Generated_Source/PSoC5/CapSense_CSHL.c **** *  None
 174:./Generated_Source/PSoC5/CapSense_CSHL.c **** *
 175:./Generated_Source/PSoC5/CapSense_CSHL.c **** * Global Variables:
 176:./Generated_Source/PSoC5/CapSense_CSHL.c **** *  CapSense_SensorBaseline[]    - used to store baseline value.
 177:./Generated_Source/PSoC5/CapSense_CSHL.c **** *  CapSense_SensorBaselineLow[] - used to store fraction byte of 
 178:./Generated_Source/PSoC5/CapSense_CSHL.c **** *  baseline value.
 179:./Generated_Source/PSoC5/CapSense_CSHL.c **** *  CapSense_SensorSignal[]      - used to store diffence between 
 180:./Generated_Source/PSoC5/CapSense_CSHL.c **** *  current value of raw data and previous value of baseline.
 181:./Generated_Source/PSoC5/CapSense_CSHL.c **** *  CapSense_debounceCounter[]   - used to store current debounce 
 182:./Generated_Source/PSoC5/CapSense_CSHL.c **** *  counter of sensor. Widget which has this parameter are buttons, matrix 
 183:./Generated_Source/PSoC5/CapSense_CSHL.c **** *  buttons, proximity, guard. All other widgets haven't debounce parameter
 184:./Generated_Source/PSoC5/CapSense_CSHL.c **** *  and use the last element of this array with value 0 (it means no debounce).
 185:./Generated_Source/PSoC5/CapSense_CSHL.c **** *  CapSense_rawFilterData1[]    - used to store previous sample of 
 186:./Generated_Source/PSoC5/CapSense_CSHL.c **** *  any enabled raw data filter.
 187:./Generated_Source/PSoC5/CapSense_CSHL.c **** *  CapSense_rawFilterData2[]    - used to store before previous sample
 188:./Generated_Source/PSoC5/CapSense_CSHL.c **** *  of enabled raw data filter. Only required for median or average filters.
 189:./Generated_Source/PSoC5/CapSense_CSHL.c **** *
 190:./Generated_Source/PSoC5/CapSense_CSHL.c **** * Reentrant:
 191:./Generated_Source/PSoC5/CapSense_CSHL.c **** *  No
 192:./Generated_Source/PSoC5/CapSense_CSHL.c **** *
 193:./Generated_Source/PSoC5/CapSense_CSHL.c **** *******************************************************************************/
 194:./Generated_Source/PSoC5/CapSense_CSHL.c **** void CapSense_BaseInit(uint8 sensor)
 195:./Generated_Source/PSoC5/CapSense_CSHL.c **** {
ARM GAS  C:\Users\CHARLI~1\AppData\Local\Temp\ccYu411o.s 			page 7


 139              		.loc 1 195 0
 140              		.cfi_startproc
 141              		@ args = 0, pretend = 0, frame = 16
 142              		@ frame_needed = 1, uses_anonymous_args = 0
 143              		@ link register save eliminated.
 144 0000 80B4     		push	{r7}
 145              	.LCFI0:
 146              		.cfi_def_cfa_offset 4
 147 0002 85B0     		sub	sp, sp, #20
 148              	.LCFI1:
 149              		.cfi_def_cfa_offset 24
 150 0004 00AF     		add	r7, sp, #0
 151              		.cfi_offset 7, -4
 152              	.LCFI2:
 153              		.cfi_def_cfa_register 7
 154 0006 0346     		mov	r3, r0
 155 0008 FB71     		strb	r3, [r7, #7]
 196:./Generated_Source/PSoC5/CapSense_CSHL.c ****     #if ((CapSense_TOTAL_BUTTONS_COUNT) || (CapSense_TOTAL_MATRIX_BUTTONS_COUNT) || \
 197:./Generated_Source/PSoC5/CapSense_CSHL.c ****          (CapSense_TOTAL_GENERICS_COUNT))
 198:./Generated_Source/PSoC5/CapSense_CSHL.c ****         uint8 widget = CapSense_widgetNumber[sensor];
 156              		.loc 1 198 0
 157 000a FA79     		ldrb	r2, [r7, #7]	@ zero_extendqisi2
 158 000c 40F20003 		movw	r3, #:lower16:CapSense_widgetNumber
 159 0010 C0F20003 		movt	r3, #:upper16:CapSense_widgetNumber
 160 0014 9B5C     		ldrb	r3, [r3, r2]
 161 0016 FB73     		strb	r3, [r7, #15]
 199:./Generated_Source/PSoC5/CapSense_CSHL.c ****     #endif /* ((CapSense_TOTAL_MATRIX_BUTTONS_COUNT) || (CapSense_TOTAL_MATRIX_BUTTONS_COUNT)) */
 200:./Generated_Source/PSoC5/CapSense_CSHL.c ****     
 201:./Generated_Source/PSoC5/CapSense_CSHL.c ****     #if (CapSense_TOTAL_MATRIX_BUTTONS_COUNT)
 202:./Generated_Source/PSoC5/CapSense_CSHL.c ****         uint8 debounceIndex;
 203:./Generated_Source/PSoC5/CapSense_CSHL.c ****     #endif  /* End (CapSense_TOTAL_MATRIX_BUTTONS_COUNT != 0u) */
 204:./Generated_Source/PSoC5/CapSense_CSHL.c ****     
 205:./Generated_Source/PSoC5/CapSense_CSHL.c ****     #if (CapSense_TOTAL_GENERICS_COUNT)
 206:./Generated_Source/PSoC5/CapSense_CSHL.c ****         /* Exclude generic widget */
 207:./Generated_Source/PSoC5/CapSense_CSHL.c ****         if(widget < CapSense_END_OF_WIDGETS_INDEX)
 208:./Generated_Source/PSoC5/CapSense_CSHL.c ****         {
 209:./Generated_Source/PSoC5/CapSense_CSHL.c ****     #endif  /* End CapSense_TOTAL_GENERICS_COUNT */
 210:./Generated_Source/PSoC5/CapSense_CSHL.c ****     
 211:./Generated_Source/PSoC5/CapSense_CSHL.c ****     /* Initialize Baseline */
 212:./Generated_Source/PSoC5/CapSense_CSHL.c ****     CapSense_SensorBaseline[sensor] = CapSense_SensorRaw[sensor];
 162              		.loc 1 212 0
 163 0018 FA79     		ldrb	r2, [r7, #7]	@ zero_extendqisi2
 164 001a F979     		ldrb	r1, [r7, #7]	@ zero_extendqisi2
 165 001c 40F20003 		movw	r3, #:lower16:CapSense_SensorRaw
 166 0020 C0F20003 		movt	r3, #:upper16:CapSense_SensorRaw
 167 0024 33F81110 		ldrh	r1, [r3, r1, lsl #1]
 168 0028 40F20003 		movw	r3, #:lower16:CapSense_SensorBaseline
 169 002c C0F20003 		movt	r3, #:upper16:CapSense_SensorBaseline
 170 0030 23F81210 		strh	r1, [r3, r2, lsl #1]	@ movhi
 213:./Generated_Source/PSoC5/CapSense_CSHL.c ****     CapSense_SensorBaselineLow[sensor] = 0u;
 171              		.loc 1 213 0
 172 0034 FA79     		ldrb	r2, [r7, #7]	@ zero_extendqisi2
 173 0036 40F20003 		movw	r3, #:lower16:CapSense_SensorBaselineLow
 174 003a C0F20003 		movt	r3, #:upper16:CapSense_SensorBaselineLow
 175 003e 4FF00001 		mov	r1, #0
 176 0042 9954     		strb	r1, [r3, r2]
 214:./Generated_Source/PSoC5/CapSense_CSHL.c ****     CapSense_SensorSignal[sensor] = 0u;
ARM GAS  C:\Users\CHARLI~1\AppData\Local\Temp\ccYu411o.s 			page 8


 177              		.loc 1 214 0
 178 0044 FA79     		ldrb	r2, [r7, #7]	@ zero_extendqisi2
 179 0046 40F20003 		movw	r3, #:lower16:CapSense_SensorSignal
 180 004a C0F20003 		movt	r3, #:upper16:CapSense_SensorSignal
 181 004e 4FF00001 		mov	r1, #0
 182 0052 9954     		strb	r1, [r3, r2]
 215:./Generated_Source/PSoC5/CapSense_CSHL.c ****         
 216:./Generated_Source/PSoC5/CapSense_CSHL.c ****     if(widget > CapSense_END_OF_TOUCH_PAD_INDEX)
 183              		.loc 1 216 0
 184 0054 FB7B     		ldrb	r3, [r7, #15]	@ zero_extendqisi2
 185 0056 002B     		cmp	r3, #0
 186 0058 0DD0     		beq	.L2
 217:./Generated_Source/PSoC5/CapSense_CSHL.c ****     {
 218:./Generated_Source/PSoC5/CapSense_CSHL.c ****         CapSense_debounceCounter[widget - CapSense_TOTAL_CENTROIDS_COUNT] =  CapSense_debounce[widg
 187              		.loc 1 218 0
 188 005a FB7B     		ldrb	r3, [r7, #15]	@ zero_extendqisi2
 189 005c 03F1FF32 		add	r2, r3, #-1
 190 0060 F97B     		ldrb	r1, [r7, #15]	@ zero_extendqisi2
 191 0062 40F20003 		movw	r3, #:lower16:CapSense_debounce
 192 0066 C0F20003 		movt	r3, #:upper16:CapSense_debounce
 193 006a 595C     		ldrb	r1, [r3, r1]	@ zero_extendqisi2
 194 006c 40F20003 		movw	r3, #:lower16:CapSense_debounceCounter
 195 0070 C0F20003 		movt	r3, #:upper16:CapSense_debounceCounter
 196 0074 9954     		strb	r1, [r3, r2]
 197              	.L2:
 219:./Generated_Source/PSoC5/CapSense_CSHL.c ****     }
 220:./Generated_Source/PSoC5/CapSense_CSHL.c **** 
 221:./Generated_Source/PSoC5/CapSense_CSHL.c ****     
 222:./Generated_Source/PSoC5/CapSense_CSHL.c ****     #if ( (CapSense_RAW_FILTER_MASK & CapSense_MEDIAN_FILTER) || \
 223:./Generated_Source/PSoC5/CapSense_CSHL.c ****           (CapSense_RAW_FILTER_MASK & CapSense_AVERAGING_FILTER) )
 224:./Generated_Source/PSoC5/CapSense_CSHL.c ****     
 225:./Generated_Source/PSoC5/CapSense_CSHL.c ****         CapSense_rawFilterData1[sensor] = CapSense_SensorRaw[sensor];
 226:./Generated_Source/PSoC5/CapSense_CSHL.c ****         CapSense_rawFilterData2[sensor] = CapSense_SensorRaw[sensor];
 227:./Generated_Source/PSoC5/CapSense_CSHL.c ****     
 228:./Generated_Source/PSoC5/CapSense_CSHL.c ****     #elif ( (CapSense_RAW_FILTER_MASK & CapSense_IIR2_FILTER)   || \
 229:./Generated_Source/PSoC5/CapSense_CSHL.c ****             (CapSense_RAW_FILTER_MASK & CapSense_IIR4_FILTER)   || \
 230:./Generated_Source/PSoC5/CapSense_CSHL.c ****             (CapSense_RAW_FILTER_MASK & CapSense_JITTER_FILTER) || \
 231:./Generated_Source/PSoC5/CapSense_CSHL.c ****             (CapSense_RAW_FILTER_MASK & CapSense_IIR8_FILTER)   || \
 232:./Generated_Source/PSoC5/CapSense_CSHL.c ****             (CapSense_RAW_FILTER_MASK & CapSense_IIR16_FILTER) )
 233:./Generated_Source/PSoC5/CapSense_CSHL.c ****             
 234:./Generated_Source/PSoC5/CapSense_CSHL.c ****         CapSense_rawFilterData1[sensor] = CapSense_SensorRaw[sensor];
 198              		.loc 1 234 0
 199 0076 FA79     		ldrb	r2, [r7, #7]	@ zero_extendqisi2
 200 0078 F979     		ldrb	r1, [r7, #7]	@ zero_extendqisi2
 201 007a 40F20003 		movw	r3, #:lower16:CapSense_SensorRaw
 202 007e C0F20003 		movt	r3, #:upper16:CapSense_SensorRaw
 203 0082 33F81110 		ldrh	r1, [r3, r1, lsl #1]
 204 0086 40F20003 		movw	r3, #:lower16:CapSense_rawFilterData1
 205 008a C0F20003 		movt	r3, #:upper16:CapSense_rawFilterData1
 206 008e 23F81210 		strh	r1, [r3, r2, lsl #1]	@ movhi
 235:./Generated_Source/PSoC5/CapSense_CSHL.c ****     
 236:./Generated_Source/PSoC5/CapSense_CSHL.c ****     #else
 237:./Generated_Source/PSoC5/CapSense_CSHL.c ****         /* No Raw filters */
 238:./Generated_Source/PSoC5/CapSense_CSHL.c ****     #endif  /* End CapSense_RAW_FILTER_MASK */
 239:./Generated_Source/PSoC5/CapSense_CSHL.c ****     
 240:./Generated_Source/PSoC5/CapSense_CSHL.c ****     #if (CapSense_TOTAL_GENERICS_COUNT)
 241:./Generated_Source/PSoC5/CapSense_CSHL.c ****         /* Exclude generic widget */
ARM GAS  C:\Users\CHARLI~1\AppData\Local\Temp\ccYu411o.s 			page 9


 242:./Generated_Source/PSoC5/CapSense_CSHL.c ****         }
 243:./Generated_Source/PSoC5/CapSense_CSHL.c ****     #endif  /* End CapSense_TOTAL_GENERICS_COUNT */
 244:./Generated_Source/PSoC5/CapSense_CSHL.c **** }
 207              		.loc 1 244 0
 208 0092 07F11407 		add	r7, r7, #20
 209 0096 BD46     		mov	sp, r7
 210 0098 80BC     		pop	{r7}
 211 009a 7047     		bx	lr
 212              		.cfi_endproc
 213              	.LFE0:
 214              		.size	CapSense_BaseInit, .-CapSense_BaseInit
 215              		.section	.text.CapSense_InitializeSensorBaseline,"ax",%progbits
 216              		.align	2
 217              		.global	CapSense_InitializeSensorBaseline
 218              		.thumb
 219              		.thumb_func
 220              		.type	CapSense_InitializeSensorBaseline, %function
 221              	CapSense_InitializeSensorBaseline:
 222              	.LFB1:
 245:./Generated_Source/PSoC5/CapSense_CSHL.c **** 
 246:./Generated_Source/PSoC5/CapSense_CSHL.c **** 
 247:./Generated_Source/PSoC5/CapSense_CSHL.c **** /*******************************************************************************
 248:./Generated_Source/PSoC5/CapSense_CSHL.c **** * Function Name: CapSense_InitializeSensorBaseline
 249:./Generated_Source/PSoC5/CapSense_CSHL.c **** ********************************************************************************
 250:./Generated_Source/PSoC5/CapSense_CSHL.c **** *
 251:./Generated_Source/PSoC5/CapSense_CSHL.c **** * Summary:
 252:./Generated_Source/PSoC5/CapSense_CSHL.c **** *  Loads the CapSense_SensorBaseline[sensor] array element with an 
 253:./Generated_Source/PSoC5/CapSense_CSHL.c **** *  initial value by scanning the selected sensor (one channel design) or pair 
 254:./Generated_Source/PSoC5/CapSense_CSHL.c **** *  of sensors (two channels designs). The raw count value is copied into the 
 255:./Generated_Source/PSoC5/CapSense_CSHL.c **** *  baseline array for each sensor. The raw data filters are initialized if 
 256:./Generated_Source/PSoC5/CapSense_CSHL.c **** *  enabled.
 257:./Generated_Source/PSoC5/CapSense_CSHL.c **** *
 258:./Generated_Source/PSoC5/CapSense_CSHL.c **** * Parameters:
 259:./Generated_Source/PSoC5/CapSense_CSHL.c **** *  sensor:  Sensor number.
 260:./Generated_Source/PSoC5/CapSense_CSHL.c **** *
 261:./Generated_Source/PSoC5/CapSense_CSHL.c **** * Return:
 262:./Generated_Source/PSoC5/CapSense_CSHL.c **** *  None
 263:./Generated_Source/PSoC5/CapSense_CSHL.c **** *
 264:./Generated_Source/PSoC5/CapSense_CSHL.c **** * Reentrant:
 265:./Generated_Source/PSoC5/CapSense_CSHL.c **** *  No
 266:./Generated_Source/PSoC5/CapSense_CSHL.c **** *
 267:./Generated_Source/PSoC5/CapSense_CSHL.c **** *******************************************************************************/
 268:./Generated_Source/PSoC5/CapSense_CSHL.c **** void CapSense_InitializeSensorBaseline(uint8 sensor)
 269:./Generated_Source/PSoC5/CapSense_CSHL.c **** {
 223              		.loc 1 269 0
 224              		.cfi_startproc
 225              		@ args = 0, pretend = 0, frame = 8
 226              		@ frame_needed = 1, uses_anonymous_args = 0
 227 0000 80B5     		push	{r7, lr}
 228              	.LCFI3:
 229              		.cfi_def_cfa_offset 8
 230 0002 82B0     		sub	sp, sp, #8
 231              	.LCFI4:
 232              		.cfi_def_cfa_offset 16
 233 0004 00AF     		add	r7, sp, #0
 234              		.cfi_offset 14, -4
 235              		.cfi_offset 7, -8
ARM GAS  C:\Users\CHARLI~1\AppData\Local\Temp\ccYu411o.s 			page 10


 236              	.LCFI5:
 237              		.cfi_def_cfa_register 7
 238 0006 0346     		mov	r3, r0
 239 0008 FB71     		strb	r3, [r7, #7]
 270:./Generated_Source/PSoC5/CapSense_CSHL.c ****     /* Scan sensor */
 271:./Generated_Source/PSoC5/CapSense_CSHL.c ****     CapSense_ScanSensor(sensor);
 240              		.loc 1 271 0
 241 000a FB79     		ldrb	r3, [r7, #7]	@ zero_extendqisi2
 242 000c 1846     		mov	r0, r3
 243 000e FFF7FEFF 		bl	CapSense_ScanSensor
 244              	.L5:
 272:./Generated_Source/PSoC5/CapSense_CSHL.c ****         while(CapSense_IsBusy() != 0u) {;}
 245              		.loc 1 272 0
 246 0012 FFF7FEFF 		bl	CapSense_IsBusy
 247 0016 0346     		mov	r3, r0
 248 0018 002B     		cmp	r3, #0
 249 001a FAD1     		bne	.L5
 273:./Generated_Source/PSoC5/CapSense_CSHL.c ****     
 274:./Generated_Source/PSoC5/CapSense_CSHL.c ****     #if (CapSense_DESIGN_TYPE == CapSense_ONE_CHANNEL_DESIGN)
 275:./Generated_Source/PSoC5/CapSense_CSHL.c ****         /* Initialize Baseline, Signal and debounce counters */       
 276:./Generated_Source/PSoC5/CapSense_CSHL.c ****         CapSense_BaseInit(sensor);
 250              		.loc 1 276 0
 251 001c FB79     		ldrb	r3, [r7, #7]	@ zero_extendqisi2
 252 001e 1846     		mov	r0, r3
 253 0020 FFF7FEFF 		bl	CapSense_BaseInit
 277:./Generated_Source/PSoC5/CapSense_CSHL.c ****         
 278:./Generated_Source/PSoC5/CapSense_CSHL.c ****     #else
 279:./Generated_Source/PSoC5/CapSense_CSHL.c ****     
 280:./Generated_Source/PSoC5/CapSense_CSHL.c ****         if(sensor < CapSense_TOTAL_SENSOR_COUNT__CH0)
 281:./Generated_Source/PSoC5/CapSense_CSHL.c ****         {
 282:./Generated_Source/PSoC5/CapSense_CSHL.c ****             /* Initialize Baseline, Signal and debounce counters */ 
 283:./Generated_Source/PSoC5/CapSense_CSHL.c ****             CapSense_BaseInit(sensor);
 284:./Generated_Source/PSoC5/CapSense_CSHL.c ****         }
 285:./Generated_Source/PSoC5/CapSense_CSHL.c ****         
 286:./Generated_Source/PSoC5/CapSense_CSHL.c ****         if(sensor < CapSense_TOTAL_SENSOR_COUNT__CH1)
 287:./Generated_Source/PSoC5/CapSense_CSHL.c ****         {
 288:./Generated_Source/PSoC5/CapSense_CSHL.c ****             /* Initialize Baseline, Signal and debounce counters */
 289:./Generated_Source/PSoC5/CapSense_CSHL.c ****             CapSense_BaseInit(sensor + CapSense_TOTAL_SENSOR_COUNT__CH0);
 290:./Generated_Source/PSoC5/CapSense_CSHL.c ****         }
 291:./Generated_Source/PSoC5/CapSense_CSHL.c ****     
 292:./Generated_Source/PSoC5/CapSense_CSHL.c ****     #endif  /* End (CapSense_DESIGN_TYPE == CapSense_ONE_CHANNEL_DESIGN) */
 293:./Generated_Source/PSoC5/CapSense_CSHL.c **** }
 254              		.loc 1 293 0
 255 0024 07F10807 		add	r7, r7, #8
 256 0028 BD46     		mov	sp, r7
 257 002a 80BD     		pop	{r7, pc}
 258              		.cfi_endproc
 259              	.LFE1:
 260              		.size	CapSense_InitializeSensorBaseline, .-CapSense_InitializeSensorBaseline
 261              		.section	.text.CapSense_InitializeAllBaselines,"ax",%progbits
 262              		.align	2
 263              		.global	CapSense_InitializeAllBaselines
 264              		.thumb
 265              		.thumb_func
 266              		.type	CapSense_InitializeAllBaselines, %function
 267              	CapSense_InitializeAllBaselines:
 268              	.LFB2:
ARM GAS  C:\Users\CHARLI~1\AppData\Local\Temp\ccYu411o.s 			page 11


 294:./Generated_Source/PSoC5/CapSense_CSHL.c **** 
 295:./Generated_Source/PSoC5/CapSense_CSHL.c **** 
 296:./Generated_Source/PSoC5/CapSense_CSHL.c **** /*******************************************************************************
 297:./Generated_Source/PSoC5/CapSense_CSHL.c **** * Function Name: CapSense_InitializeAllBaselines
 298:./Generated_Source/PSoC5/CapSense_CSHL.c **** ********************************************************************************
 299:./Generated_Source/PSoC5/CapSense_CSHL.c **** *
 300:./Generated_Source/PSoC5/CapSense_CSHL.c **** * Summary:
 301:./Generated_Source/PSoC5/CapSense_CSHL.c **** *  Uses the CapSense_InitializeSensorBaseline function to loads the 
 302:./Generated_Source/PSoC5/CapSense_CSHL.c **** *  CapSense_SensorBaseline[] array with an initial values by scanning 
 303:./Generated_Source/PSoC5/CapSense_CSHL.c **** *  all sensors. The raw count values are copied into the baseline array for 
 304:./Generated_Source/PSoC5/CapSense_CSHL.c **** *  all sensors. The raw data filters are initialized if enabled.
 305:./Generated_Source/PSoC5/CapSense_CSHL.c **** *
 306:./Generated_Source/PSoC5/CapSense_CSHL.c **** * Parameters:
 307:./Generated_Source/PSoC5/CapSense_CSHL.c **** *  None
 308:./Generated_Source/PSoC5/CapSense_CSHL.c **** *
 309:./Generated_Source/PSoC5/CapSense_CSHL.c **** * Return:
 310:./Generated_Source/PSoC5/CapSense_CSHL.c **** *  None
 311:./Generated_Source/PSoC5/CapSense_CSHL.c **** *
 312:./Generated_Source/PSoC5/CapSense_CSHL.c **** * Reentrant:
 313:./Generated_Source/PSoC5/CapSense_CSHL.c **** *  No
 314:./Generated_Source/PSoC5/CapSense_CSHL.c **** *
 315:./Generated_Source/PSoC5/CapSense_CSHL.c **** *******************************************************************************/
 316:./Generated_Source/PSoC5/CapSense_CSHL.c **** void CapSense_InitializeAllBaselines(void)
 317:./Generated_Source/PSoC5/CapSense_CSHL.c **** {
 269              		.loc 1 317 0
 270              		.cfi_startproc
 271              		@ args = 0, pretend = 0, frame = 8
 272              		@ frame_needed = 1, uses_anonymous_args = 0
 273 0000 80B5     		push	{r7, lr}
 274              	.LCFI6:
 275              		.cfi_def_cfa_offset 8
 276 0002 82B0     		sub	sp, sp, #8
 277              	.LCFI7:
 278              		.cfi_def_cfa_offset 16
 279 0004 00AF     		add	r7, sp, #0
 280              		.cfi_offset 14, -4
 281              		.cfi_offset 7, -8
 282              	.LCFI8:
 283              		.cfi_def_cfa_register 7
 318:./Generated_Source/PSoC5/CapSense_CSHL.c ****     uint8 i;
 319:./Generated_Source/PSoC5/CapSense_CSHL.c ****     
 320:./Generated_Source/PSoC5/CapSense_CSHL.c ****     /* The baseline initialize by sensor of sensor pair */
 321:./Generated_Source/PSoC5/CapSense_CSHL.c ****     for(i = 0u; i < CapSense_TOTAL_SCANSLOT_COUNT; i++)
 284              		.loc 1 321 0
 285 0006 4FF00003 		mov	r3, #0
 286 000a FB71     		strb	r3, [r7, #7]
 287 000c 07E0     		b	.L8
 288              	.L9:
 322:./Generated_Source/PSoC5/CapSense_CSHL.c ****     {
 323:./Generated_Source/PSoC5/CapSense_CSHL.c ****         CapSense_InitializeSensorBaseline(i);
 289              		.loc 1 323 0
 290 000e FB79     		ldrb	r3, [r7, #7]	@ zero_extendqisi2
 291 0010 1846     		mov	r0, r3
 292 0012 FFF7FEFF 		bl	CapSense_InitializeSensorBaseline
 293              		.loc 1 321 0
 294 0016 FB79     		ldrb	r3, [r7, #7]
 295 0018 03F10103 		add	r3, r3, #1
ARM GAS  C:\Users\CHARLI~1\AppData\Local\Temp\ccYu411o.s 			page 12


 296 001c FB71     		strb	r3, [r7, #7]
 297              	.L8:
 298 001e FB79     		ldrb	r3, [r7, #7]	@ zero_extendqisi2
 299 0020 062B     		cmp	r3, #6
 300 0022 F4D9     		bls	.L9
 324:./Generated_Source/PSoC5/CapSense_CSHL.c ****     }
 325:./Generated_Source/PSoC5/CapSense_CSHL.c **** }
 301              		.loc 1 325 0
 302 0024 07F10807 		add	r7, r7, #8
 303 0028 BD46     		mov	sp, r7
 304 002a 80BD     		pop	{r7, pc}
 305              		.cfi_endproc
 306              	.LFE2:
 307              		.size	CapSense_InitializeAllBaselines, .-CapSense_InitializeAllBaselines
 308              		.section	.text.CapSense_UpdateSensorBaseline,"ax",%progbits
 309              		.align	2
 310              		.global	CapSense_UpdateSensorBaseline
 311              		.thumb
 312              		.thumb_func
 313              		.type	CapSense_UpdateSensorBaseline, %function
 314              	CapSense_UpdateSensorBaseline:
 315              	.LFB3:
 326:./Generated_Source/PSoC5/CapSense_CSHL.c **** 
 327:./Generated_Source/PSoC5/CapSense_CSHL.c **** 
 328:./Generated_Source/PSoC5/CapSense_CSHL.c **** #if (CapSense_DESIGN_TYPE == CapSense_TWO_CHANNELS_DESIGN)
 329:./Generated_Source/PSoC5/CapSense_CSHL.c ****     /*******************************************************************************
 330:./Generated_Source/PSoC5/CapSense_CSHL.c ****     * Function Name: CapSense_InitializeEnabledBaselines
 331:./Generated_Source/PSoC5/CapSense_CSHL.c ****     ********************************************************************************
 332:./Generated_Source/PSoC5/CapSense_CSHL.c ****     *
 333:./Generated_Source/PSoC5/CapSense_CSHL.c ****     * Summary:
 334:./Generated_Source/PSoC5/CapSense_CSHL.c ****     *  Scans all enabled widgets and the raw count values are copied into the 
 335:./Generated_Source/PSoC5/CapSense_CSHL.c ****     *  baseline array for all sensors enabled in scanning process. Baselines 
 336:./Generated_Source/PSoC5/CapSense_CSHL.c ****     *  initialize with zero values for sensors disabled from scanning process. 
 337:./Generated_Source/PSoC5/CapSense_CSHL.c ****     *  The raw data filters are initialized if enabled.
 338:./Generated_Source/PSoC5/CapSense_CSHL.c ****     *
 339:./Generated_Source/PSoC5/CapSense_CSHL.c ****     * Parameters:
 340:./Generated_Source/PSoC5/CapSense_CSHL.c ****     *  None
 341:./Generated_Source/PSoC5/CapSense_CSHL.c ****     *
 342:./Generated_Source/PSoC5/CapSense_CSHL.c ****     * Return:
 343:./Generated_Source/PSoC5/CapSense_CSHL.c ****     *  None
 344:./Generated_Source/PSoC5/CapSense_CSHL.c ****     *
 345:./Generated_Source/PSoC5/CapSense_CSHL.c ****     * Reentrant:
 346:./Generated_Source/PSoC5/CapSense_CSHL.c ****     *  No
 347:./Generated_Source/PSoC5/CapSense_CSHL.c ****     *
 348:./Generated_Source/PSoC5/CapSense_CSHL.c ****     *******************************************************************************/
 349:./Generated_Source/PSoC5/CapSense_CSHL.c ****     void CapSense_InitializeEnabledBaselines(void)
 350:./Generated_Source/PSoC5/CapSense_CSHL.c ****     {
 351:./Generated_Source/PSoC5/CapSense_CSHL.c ****         uint8 i;
 352:./Generated_Source/PSoC5/CapSense_CSHL.c ****         uint8 pos;
 353:./Generated_Source/PSoC5/CapSense_CSHL.c ****         uint8 enMask;
 354:./Generated_Source/PSoC5/CapSense_CSHL.c ****         
 355:./Generated_Source/PSoC5/CapSense_CSHL.c ****         CapSense_ScanEnabledWidgets();
 356:./Generated_Source/PSoC5/CapSense_CSHL.c ****         while(CapSense_IsBusy() != 0u){;}
 357:./Generated_Source/PSoC5/CapSense_CSHL.c ****         
 358:./Generated_Source/PSoC5/CapSense_CSHL.c ****         for(i = 0u; i < CapSense_TOTAL_SENSOR_COUNT; i++)
 359:./Generated_Source/PSoC5/CapSense_CSHL.c ****         {
 360:./Generated_Source/PSoC5/CapSense_CSHL.c ****             pos = (i >> 3u);
ARM GAS  C:\Users\CHARLI~1\AppData\Local\Temp\ccYu411o.s 			page 13


 361:./Generated_Source/PSoC5/CapSense_CSHL.c ****             enMask = 0x01u << (i & 0x07u);
 362:./Generated_Source/PSoC5/CapSense_CSHL.c ****             
 363:./Generated_Source/PSoC5/CapSense_CSHL.c ****             /* Clear raw data if sensor is disabled from scanning process */
 364:./Generated_Source/PSoC5/CapSense_CSHL.c ****             if((CapSense_SensorEnableMask[pos] & enMask) == 0u)
 365:./Generated_Source/PSoC5/CapSense_CSHL.c ****             {
 366:./Generated_Source/PSoC5/CapSense_CSHL.c ****                 CapSense_SensorRaw[i] = 0u;
 367:./Generated_Source/PSoC5/CapSense_CSHL.c ****             }
 368:./Generated_Source/PSoC5/CapSense_CSHL.c ****             
 369:./Generated_Source/PSoC5/CapSense_CSHL.c ****             /* Initialize baselines */
 370:./Generated_Source/PSoC5/CapSense_CSHL.c ****             CapSense_BaseInit(i);
 371:./Generated_Source/PSoC5/CapSense_CSHL.c ****         }
 372:./Generated_Source/PSoC5/CapSense_CSHL.c ****     }  
 373:./Generated_Source/PSoC5/CapSense_CSHL.c **** #endif  /* End (CapSense_DESIGN_TYPE == CapSense_TWO_CHANNELS_DESIGN) */
 374:./Generated_Source/PSoC5/CapSense_CSHL.c **** 
 375:./Generated_Source/PSoC5/CapSense_CSHL.c **** 
 376:./Generated_Source/PSoC5/CapSense_CSHL.c **** /*******************************************************************************
 377:./Generated_Source/PSoC5/CapSense_CSHL.c **** * Function Name: CapSense_UpdateSensorBaseline
 378:./Generated_Source/PSoC5/CapSense_CSHL.c **** ********************************************************************************
 379:./Generated_Source/PSoC5/CapSense_CSHL.c **** *
 380:./Generated_Source/PSoC5/CapSense_CSHL.c **** * Summary:
 381:./Generated_Source/PSoC5/CapSense_CSHL.c **** *  Updates the CapSense_SensorBaseline[sensor] array element using the 
 382:./Generated_Source/PSoC5/CapSense_CSHL.c **** *  LP filter with k = 256. The signal calculates the difference of count by 
 383:./Generated_Source/PSoC5/CapSense_CSHL.c **** *  subtracting the previous baseline from the current raw count value and stores
 384:./Generated_Source/PSoC5/CapSense_CSHL.c **** *  it in CapSense_SensorSignal[sensor]. 
 385:./Generated_Source/PSoC5/CapSense_CSHL.c **** *  If auto reset option is enabled the baseline updated regards noise threshold. 
 386:./Generated_Source/PSoC5/CapSense_CSHL.c **** *  If auto reset option is disabled the baseline stops updating if signal is 
 387:./Generated_Source/PSoC5/CapSense_CSHL.c **** *  greater that zero and baseline loads with raw count value if signal is less 
 388:./Generated_Source/PSoC5/CapSense_CSHL.c **** *  that noise threshold.
 389:./Generated_Source/PSoC5/CapSense_CSHL.c **** *  Raw data filters are applied to the values if enabled before baseline 
 390:./Generated_Source/PSoC5/CapSense_CSHL.c **** *  calculation.
 391:./Generated_Source/PSoC5/CapSense_CSHL.c **** *
 392:./Generated_Source/PSoC5/CapSense_CSHL.c **** * Parameters:
 393:./Generated_Source/PSoC5/CapSense_CSHL.c **** *  sensor:  Sensor number.
 394:./Generated_Source/PSoC5/CapSense_CSHL.c **** *
 395:./Generated_Source/PSoC5/CapSense_CSHL.c **** * Return:
 396:./Generated_Source/PSoC5/CapSense_CSHL.c **** *  None
 397:./Generated_Source/PSoC5/CapSense_CSHL.c **** *
 398:./Generated_Source/PSoC5/CapSense_CSHL.c **** * Global Variables:
 399:./Generated_Source/PSoC5/CapSense_CSHL.c **** *  CapSense_SensorBaseline[]    - used to store baseline value.
 400:./Generated_Source/PSoC5/CapSense_CSHL.c **** *  CapSense_SensorBaselineLow[] - used to store fraction byte of 
 401:./Generated_Source/PSoC5/CapSense_CSHL.c **** *  baseline value.
 402:./Generated_Source/PSoC5/CapSense_CSHL.c **** *  CapSense_SensorSignal[]      - used to store diffence between 
 403:./Generated_Source/PSoC5/CapSense_CSHL.c **** *  current value of raw data and previous value of baseline.
 404:./Generated_Source/PSoC5/CapSense_CSHL.c **** *  CapSense_rawFilterData1[]    - used to store previous sample of 
 405:./Generated_Source/PSoC5/CapSense_CSHL.c **** *  any enabled raw data filter.
 406:./Generated_Source/PSoC5/CapSense_CSHL.c **** *  CapSense_rawFilterData2[]    - used to store before previous sample
 407:./Generated_Source/PSoC5/CapSense_CSHL.c **** *  of enabled raw data filter. Only required for median or average filters.
 408:./Generated_Source/PSoC5/CapSense_CSHL.c **** *
 409:./Generated_Source/PSoC5/CapSense_CSHL.c **** * Reentrant:
 410:./Generated_Source/PSoC5/CapSense_CSHL.c **** *  No
 411:./Generated_Source/PSoC5/CapSense_CSHL.c **** *
 412:./Generated_Source/PSoC5/CapSense_CSHL.c **** *******************************************************************************/
 413:./Generated_Source/PSoC5/CapSense_CSHL.c ****  void CapSense_UpdateSensorBaseline(uint8 sensor)
 414:./Generated_Source/PSoC5/CapSense_CSHL.c **** {
 316              		.loc 1 414 0
 317              		.cfi_startproc
 318              		@ args = 0, pretend = 0, frame = 24
ARM GAS  C:\Users\CHARLI~1\AppData\Local\Temp\ccYu411o.s 			page 14


 319              		@ frame_needed = 1, uses_anonymous_args = 0
 320 0000 80B5     		push	{r7, lr}
 321              	.LCFI9:
 322              		.cfi_def_cfa_offset 8
 323 0002 86B0     		sub	sp, sp, #24
 324              	.LCFI10:
 325              		.cfi_def_cfa_offset 32
 326 0004 00AF     		add	r7, sp, #0
 327              		.cfi_offset 14, -4
 328              		.cfi_offset 7, -8
 329              	.LCFI11:
 330              		.cfi_def_cfa_register 7
 331 0006 0346     		mov	r3, r0
 332 0008 FB71     		strb	r3, [r7, #7]
 415:./Generated_Source/PSoC5/CapSense_CSHL.c ****     uint32 calc;
 416:./Generated_Source/PSoC5/CapSense_CSHL.c ****     uint16 tempRaw;
 417:./Generated_Source/PSoC5/CapSense_CSHL.c ****     uint16 filteredRawData;
 418:./Generated_Source/PSoC5/CapSense_CSHL.c ****     uint8 widget = CapSense_widgetNumber[sensor];
 333              		.loc 1 418 0
 334 000a FA79     		ldrb	r2, [r7, #7]	@ zero_extendqisi2
 335 000c 40F20003 		movw	r3, #:lower16:CapSense_widgetNumber
 336 0010 C0F20003 		movt	r3, #:upper16:CapSense_widgetNumber
 337 0014 9B5C     		ldrb	r3, [r3, r2]
 338 0016 BB75     		strb	r3, [r7, #22]
 419:./Generated_Source/PSoC5/CapSense_CSHL.c ****     uint8 noiseThreshold = CapSense_noiseThreshold[widget];
 339              		.loc 1 419 0
 340 0018 BA7D     		ldrb	r2, [r7, #22]	@ zero_extendqisi2
 341 001a 40F20003 		movw	r3, #:lower16:CapSense_noiseThreshold
 342 001e C0F20003 		movt	r3, #:upper16:CapSense_noiseThreshold
 343 0022 9B5C     		ldrb	r3, [r3, r2]
 344 0024 FB75     		strb	r3, [r7, #23]
 420:./Generated_Source/PSoC5/CapSense_CSHL.c ****     
 421:./Generated_Source/PSoC5/CapSense_CSHL.c ****     #if (CapSense_TOTAL_GENERICS_COUNT)
 422:./Generated_Source/PSoC5/CapSense_CSHL.c ****         /* Exclude generic widget */
 423:./Generated_Source/PSoC5/CapSense_CSHL.c ****         if(widget < CapSense_END_OF_WIDGETS_INDEX)
 424:./Generated_Source/PSoC5/CapSense_CSHL.c ****         {
 425:./Generated_Source/PSoC5/CapSense_CSHL.c ****     #endif  /* End CapSense_TOTAL_GENERICS_COUNT */
 426:./Generated_Source/PSoC5/CapSense_CSHL.c ****     
 427:./Generated_Source/PSoC5/CapSense_CSHL.c ****     filteredRawData = CapSense_SensorRaw[sensor];
 345              		.loc 1 427 0
 346 0026 FA79     		ldrb	r2, [r7, #7]	@ zero_extendqisi2
 347 0028 40F20003 		movw	r3, #:lower16:CapSense_SensorRaw
 348 002c C0F20003 		movt	r3, #:upper16:CapSense_SensorRaw
 349 0030 33F81230 		ldrh	r3, [r3, r2, lsl #1]	@ movhi
 350 0034 BB82     		strh	r3, [r7, #20]	@ movhi
 428:./Generated_Source/PSoC5/CapSense_CSHL.c ****     
 429:./Generated_Source/PSoC5/CapSense_CSHL.c ****     #if (CapSense_RAW_FILTER_MASK & CapSense_MEDIAN_FILTER)
 430:./Generated_Source/PSoC5/CapSense_CSHL.c ****         tempRaw = filteredRawData;
 431:./Generated_Source/PSoC5/CapSense_CSHL.c ****         filteredRawData = CapSense_MedianFilter(filteredRawData, CapSense_rawFilterData1[sensor], 
 432:./Generated_Source/PSoC5/CapSense_CSHL.c ****                                                         CapSense_rawFilterData2[sensor]);
 433:./Generated_Source/PSoC5/CapSense_CSHL.c ****         CapSense_rawFilterData2[sensor] = CapSense_rawFilterData1[sensor];
 434:./Generated_Source/PSoC5/CapSense_CSHL.c ****         CapSense_rawFilterData1[sensor] = tempRaw;
 435:./Generated_Source/PSoC5/CapSense_CSHL.c ****         
 436:./Generated_Source/PSoC5/CapSense_CSHL.c ****     #elif (CapSense_RAW_FILTER_MASK & CapSense_AVERAGING_FILTER)
 437:./Generated_Source/PSoC5/CapSense_CSHL.c ****         tempRaw = filteredRawData;
 438:./Generated_Source/PSoC5/CapSense_CSHL.c ****         filteredRawData = CapSense_AveragingFilter(filteredRawData, CapSense_rawFilterData1[sensor]
 439:./Generated_Source/PSoC5/CapSense_CSHL.c ****                                                            CapSense_rawFilterData2[sensor]);
ARM GAS  C:\Users\CHARLI~1\AppData\Local\Temp\ccYu411o.s 			page 15


 440:./Generated_Source/PSoC5/CapSense_CSHL.c ****         CapSense_rawFilterData2[sensor] = CapSense_rawFilterData1[sensor];
 441:./Generated_Source/PSoC5/CapSense_CSHL.c ****         CapSense_rawFilterData1[sensor] = tempRaw;
 442:./Generated_Source/PSoC5/CapSense_CSHL.c ****         
 443:./Generated_Source/PSoC5/CapSense_CSHL.c ****     #elif (CapSense_RAW_FILTER_MASK & CapSense_IIR2_FILTER)
 444:./Generated_Source/PSoC5/CapSense_CSHL.c ****         filteredRawData = CapSense_IIR2Filter(filteredRawData, CapSense_rawFilterData1[sensor]);
 445:./Generated_Source/PSoC5/CapSense_CSHL.c ****         CapSense_rawFilterData1[sensor] = filteredRawData;
 446:./Generated_Source/PSoC5/CapSense_CSHL.c ****         
 447:./Generated_Source/PSoC5/CapSense_CSHL.c ****     #elif (CapSense_RAW_FILTER_MASK & CapSense_IIR4_FILTER)
 448:./Generated_Source/PSoC5/CapSense_CSHL.c ****         filteredRawData = CapSense_IIR4Filter(filteredRawData, CapSense_rawFilterData1[sensor]);
 351              		.loc 1 448 0
 352 0036 FA79     		ldrb	r2, [r7, #7]	@ zero_extendqisi2
 353 0038 40F20003 		movw	r3, #:lower16:CapSense_rawFilterData1
 354 003c C0F20003 		movt	r3, #:upper16:CapSense_rawFilterData1
 355 0040 33F81230 		ldrh	r3, [r3, r2, lsl #1]
 356 0044 BA8A     		ldrh	r2, [r7, #20]
 357 0046 1046     		mov	r0, r2
 358 0048 1946     		mov	r1, r3
 359 004a FFF7FEFF 		bl	CapSense_IIR4Filter
 360 004e 0346     		mov	r3, r0
 361 0050 BB82     		strh	r3, [r7, #20]	@ movhi
 449:./Generated_Source/PSoC5/CapSense_CSHL.c ****         CapSense_rawFilterData1[sensor] = filteredRawData;
 362              		.loc 1 449 0
 363 0052 FA79     		ldrb	r2, [r7, #7]	@ zero_extendqisi2
 364 0054 40F20003 		movw	r3, #:lower16:CapSense_rawFilterData1
 365 0058 C0F20003 		movt	r3, #:upper16:CapSense_rawFilterData1
 366 005c B98A     		ldrh	r1, [r7, #20]	@ movhi
 367 005e 23F81210 		strh	r1, [r3, r2, lsl #1]	@ movhi
 450:./Generated_Source/PSoC5/CapSense_CSHL.c ****             
 451:./Generated_Source/PSoC5/CapSense_CSHL.c ****     #elif (CapSense_RAW_FILTER_MASK & CapSense_JITTER_FILTER)
 452:./Generated_Source/PSoC5/CapSense_CSHL.c ****         filteredRawData = CapSense_JitterFilter(filteredRawData, CapSense_rawFilterData1[sensor]);
 453:./Generated_Source/PSoC5/CapSense_CSHL.c ****         CapSense_rawFilterData1[sensor] = filteredRawData;
 454:./Generated_Source/PSoC5/CapSense_CSHL.c ****         
 455:./Generated_Source/PSoC5/CapSense_CSHL.c ****     #elif (CapSense_RAW_FILTER_MASK & CapSense_IIR8_FILTER)
 456:./Generated_Source/PSoC5/CapSense_CSHL.c ****         filteredRawData = CapSense_IIR8Filter(filteredRawData, CapSense_rawFilterData1[sensor]);
 457:./Generated_Source/PSoC5/CapSense_CSHL.c ****         CapSense_rawFilterData1[sensor] = filteredRawData;
 458:./Generated_Source/PSoC5/CapSense_CSHL.c ****         
 459:./Generated_Source/PSoC5/CapSense_CSHL.c ****     #elif (CapSense_RAW_FILTER_MASK & CapSense_IIR16_FILTER)
 460:./Generated_Source/PSoC5/CapSense_CSHL.c ****         filteredRawData = CapSense_IIR16Filter(filteredRawData, CapSense_rawFilterData1[sensor]);
 461:./Generated_Source/PSoC5/CapSense_CSHL.c ****         CapSense_rawFilterData1[sensor] = filteredRawData;
 462:./Generated_Source/PSoC5/CapSense_CSHL.c ****         
 463:./Generated_Source/PSoC5/CapSense_CSHL.c ****     #else
 464:./Generated_Source/PSoC5/CapSense_CSHL.c ****         /* No Raw filters */
 465:./Generated_Source/PSoC5/CapSense_CSHL.c ****     #endif  /* End CapSense_RAW_FILTER_MASK */
 466:./Generated_Source/PSoC5/CapSense_CSHL.c ****     
 467:./Generated_Source/PSoC5/CapSense_CSHL.c ****     #if (CapSense_TUNING_METHOD == CapSense_AUTO_TUNING)
 468:./Generated_Source/PSoC5/CapSense_CSHL.c ****         CapSense_CalculateThresholds(sensor);
 368              		.loc 1 468 0
 369 0062 FB79     		ldrb	r3, [r7, #7]	@ zero_extendqisi2
 370 0064 1846     		mov	r0, r3
 371 0066 FFF7FEFF 		bl	CapSense_CalculateThresholds
 469:./Generated_Source/PSoC5/CapSense_CSHL.c ****     #endif /* End (CapSense_TUNING_METHOD == CapSense_AUTO_TUNING) */
 470:./Generated_Source/PSoC5/CapSense_CSHL.c ****     
 471:./Generated_Source/PSoC5/CapSense_CSHL.c ****     /* Baseline calculation */
 472:./Generated_Source/PSoC5/CapSense_CSHL.c ****     #if (CapSense_AUTO_RESET == CapSense_AUTO_RESET_DISABLE)
 473:./Generated_Source/PSoC5/CapSense_CSHL.c ****         
 474:./Generated_Source/PSoC5/CapSense_CSHL.c ****         /* Calculate difference RawData[cur] - Baseline[prev] */
 475:./Generated_Source/PSoC5/CapSense_CSHL.c ****         if(filteredRawData >= CapSense_SensorBaseline[sensor])
ARM GAS  C:\Users\CHARLI~1\AppData\Local\Temp\ccYu411o.s 			page 16


 372              		.loc 1 475 0
 373 006a FA79     		ldrb	r2, [r7, #7]	@ zero_extendqisi2
 374 006c 40F20003 		movw	r3, #:lower16:CapSense_SensorBaseline
 375 0070 C0F20003 		movt	r3, #:upper16:CapSense_SensorBaseline
 376 0074 33F81230 		ldrh	r3, [r3, r2, lsl #1]
 377 0078 BA8A     		ldrh	r2, [r7, #20]
 378 007a 9A42     		cmp	r2, r3
 379 007c 0ED3     		bcc	.L12
 476:./Generated_Source/PSoC5/CapSense_CSHL.c ****         {
 477:./Generated_Source/PSoC5/CapSense_CSHL.c ****             tempRaw = filteredRawData - CapSense_SensorBaseline[sensor];
 380              		.loc 1 477 0
 381 007e FA79     		ldrb	r2, [r7, #7]	@ zero_extendqisi2
 382 0080 40F20003 		movw	r3, #:lower16:CapSense_SensorBaseline
 383 0084 C0F20003 		movt	r3, #:upper16:CapSense_SensorBaseline
 384 0088 33F81230 		ldrh	r3, [r3, r2, lsl #1]
 385 008c BA8A     		ldrh	r2, [r7, #20]	@ movhi
 386 008e C3EB0203 		rsb	r3, r3, r2
 387 0092 7B82     		strh	r3, [r7, #18]	@ movhi
 478:./Generated_Source/PSoC5/CapSense_CSHL.c ****             widget = 1u;        /* Positive difference */
 388              		.loc 1 478 0
 389 0094 4FF00103 		mov	r3, #1
 390 0098 BB75     		strb	r3, [r7, #22]
 391 009a 0DE0     		b	.L13
 392              	.L12:
 479:./Generated_Source/PSoC5/CapSense_CSHL.c ****         }
 480:./Generated_Source/PSoC5/CapSense_CSHL.c ****         else
 481:./Generated_Source/PSoC5/CapSense_CSHL.c ****         {
 482:./Generated_Source/PSoC5/CapSense_CSHL.c ****             tempRaw = CapSense_SensorBaseline[sensor] - filteredRawData;
 393              		.loc 1 482 0
 394 009c FA79     		ldrb	r2, [r7, #7]	@ zero_extendqisi2
 395 009e 40F20003 		movw	r3, #:lower16:CapSense_SensorBaseline
 396 00a2 C0F20003 		movt	r3, #:upper16:CapSense_SensorBaseline
 397 00a6 33F81220 		ldrh	r2, [r3, r2, lsl #1]
 398 00aa BB8A     		ldrh	r3, [r7, #20]	@ movhi
 399 00ac C3EB0203 		rsb	r3, r3, r2
 400 00b0 7B82     		strh	r3, [r7, #18]	@ movhi
 483:./Generated_Source/PSoC5/CapSense_CSHL.c ****             widget = 0u;        /* Negative difference */
 401              		.loc 1 483 0
 402 00b2 4FF00003 		mov	r3, #0
 403 00b6 BB75     		strb	r3, [r7, #22]
 404              	.L13:
 484:./Generated_Source/PSoC5/CapSense_CSHL.c ****         }
 485:./Generated_Source/PSoC5/CapSense_CSHL.c ****         
 486:./Generated_Source/PSoC5/CapSense_CSHL.c ****         /* Update Baseline if lower that noiseThreshold */
 487:./Generated_Source/PSoC5/CapSense_CSHL.c ****         if (tempRaw <= (uint16) noiseThreshold)
 405              		.loc 1 487 0
 406 00b8 FB7D     		ldrb	r3, [r7, #23]	@ zero_extendqisi2
 407 00ba 7A8A     		ldrh	r2, [r7, #18]
 408 00bc 9A42     		cmp	r2, r3
 409 00be 3ED8     		bhi	.L14
 488:./Generated_Source/PSoC5/CapSense_CSHL.c ****         {
 489:./Generated_Source/PSoC5/CapSense_CSHL.c ****             /* Make full Baseline 23 bits */
 490:./Generated_Source/PSoC5/CapSense_CSHL.c ****             calc = (uint32) CapSense_SensorBaseline[sensor] << 8u;
 410              		.loc 1 490 0
 411 00c0 FA79     		ldrb	r2, [r7, #7]	@ zero_extendqisi2
 412 00c2 40F20003 		movw	r3, #:lower16:CapSense_SensorBaseline
 413 00c6 C0F20003 		movt	r3, #:upper16:CapSense_SensorBaseline
ARM GAS  C:\Users\CHARLI~1\AppData\Local\Temp\ccYu411o.s 			page 17


 414 00ca 33F81230 		ldrh	r3, [r3, r2, lsl #1]
 415 00ce 4FEA0323 		lsl	r3, r3, #8
 416 00d2 FB60     		str	r3, [r7, #12]
 491:./Generated_Source/PSoC5/CapSense_CSHL.c ****             calc |= (uint32) CapSense_SensorBaselineLow[sensor];
 417              		.loc 1 491 0
 418 00d4 FA79     		ldrb	r2, [r7, #7]	@ zero_extendqisi2
 419 00d6 40F20003 		movw	r3, #:lower16:CapSense_SensorBaselineLow
 420 00da C0F20003 		movt	r3, #:upper16:CapSense_SensorBaselineLow
 421 00de 9B5C     		ldrb	r3, [r3, r2]	@ zero_extendqisi2
 422 00e0 FA68     		ldr	r2, [r7, #12]
 423 00e2 42EA0303 		orr	r3, r2, r3
 424 00e6 FB60     		str	r3, [r7, #12]
 492:./Generated_Source/PSoC5/CapSense_CSHL.c ****             
 493:./Generated_Source/PSoC5/CapSense_CSHL.c ****             /* Add Raw Data to Baseline */
 494:./Generated_Source/PSoC5/CapSense_CSHL.c ****             calc += filteredRawData;
 425              		.loc 1 494 0
 426 00e8 BB8A     		ldrh	r3, [r7, #20]
 427 00ea FA68     		ldr	r2, [r7, #12]
 428 00ec 1344     		add	r3, r2, r3
 429 00ee FB60     		str	r3, [r7, #12]
 495:./Generated_Source/PSoC5/CapSense_CSHL.c ****             
 496:./Generated_Source/PSoC5/CapSense_CSHL.c ****             /* Sub the high Baseline */
 497:./Generated_Source/PSoC5/CapSense_CSHL.c ****             calc -= CapSense_SensorBaseline[sensor];
 430              		.loc 1 497 0
 431 00f0 FA79     		ldrb	r2, [r7, #7]	@ zero_extendqisi2
 432 00f2 40F20003 		movw	r3, #:lower16:CapSense_SensorBaseline
 433 00f6 C0F20003 		movt	r3, #:upper16:CapSense_SensorBaseline
 434 00fa 33F81230 		ldrh	r3, [r3, r2, lsl #1]
 435 00fe FA68     		ldr	r2, [r7, #12]
 436 0100 C3EB0203 		rsb	r3, r3, r2
 437 0104 FB60     		str	r3, [r7, #12]
 498:./Generated_Source/PSoC5/CapSense_CSHL.c ****             
 499:./Generated_Source/PSoC5/CapSense_CSHL.c ****             /* Put Baseline and BaselineLow */
 500:./Generated_Source/PSoC5/CapSense_CSHL.c ****             CapSense_SensorBaseline[sensor] = ((uint16) (calc >> 8u));
 438              		.loc 1 500 0
 439 0106 FA79     		ldrb	r2, [r7, #7]	@ zero_extendqisi2
 440 0108 FB68     		ldr	r3, [r7, #12]
 441 010a 4FEA1323 		lsr	r3, r3, #8
 442 010e 99B2     		uxth	r1, r3
 443 0110 40F20003 		movw	r3, #:lower16:CapSense_SensorBaseline
 444 0114 C0F20003 		movt	r3, #:upper16:CapSense_SensorBaseline
 445 0118 23F81210 		strh	r1, [r3, r2, lsl #1]	@ movhi
 501:./Generated_Source/PSoC5/CapSense_CSHL.c ****             CapSense_SensorBaselineLow[sensor] = ((uint8) calc);
 446              		.loc 1 501 0
 447 011c FA79     		ldrb	r2, [r7, #7]	@ zero_extendqisi2
 448 011e FB68     		ldr	r3, [r7, #12]
 449 0120 D9B2     		uxtb	r1, r3
 450 0122 40F20003 		movw	r3, #:lower16:CapSense_SensorBaselineLow
 451 0126 C0F20003 		movt	r3, #:upper16:CapSense_SensorBaselineLow
 452 012a 9954     		strb	r1, [r3, r2]
 502:./Generated_Source/PSoC5/CapSense_CSHL.c ****             
 503:./Generated_Source/PSoC5/CapSense_CSHL.c ****             /* Signal is zero */
 504:./Generated_Source/PSoC5/CapSense_CSHL.c ****             CapSense_SensorSignal[sensor] = 0u;
 453              		.loc 1 504 0
 454 012c FA79     		ldrb	r2, [r7, #7]	@ zero_extendqisi2
 455 012e 40F20003 		movw	r3, #:lower16:CapSense_SensorSignal
 456 0132 C0F20003 		movt	r3, #:upper16:CapSense_SensorSignal
ARM GAS  C:\Users\CHARLI~1\AppData\Local\Temp\ccYu411o.s 			page 18


 457 0136 4FF00001 		mov	r1, #0
 458 013a 9954     		strb	r1, [r3, r2]
 459 013c 2FE0     		b	.L19
 460              	.L14:
 505:./Generated_Source/PSoC5/CapSense_CSHL.c ****         }
 506:./Generated_Source/PSoC5/CapSense_CSHL.c ****         /* Calculate Signal if possitive difference > noiseThreshold */
 507:./Generated_Source/PSoC5/CapSense_CSHL.c ****         else if (widget != 0u)
 461              		.loc 1 507 0
 462 013e BB7D     		ldrb	r3, [r7, #22]	@ zero_extendqisi2
 463 0140 002B     		cmp	r3, #0
 464 0142 14D0     		beq	.L16
 508:./Generated_Source/PSoC5/CapSense_CSHL.c ****         {
 509:./Generated_Source/PSoC5/CapSense_CSHL.c ****             #if (CapSense_SIGNAL_SIZE == CapSense_SIGNAL_SIZE_UINT8)
 510:./Generated_Source/PSoC5/CapSense_CSHL.c ****                 /* Over flow defence for uint8 */
 511:./Generated_Source/PSoC5/CapSense_CSHL.c ****                 if (tempRaw > 0xFFu)
 465              		.loc 1 511 0
 466 0144 7B8A     		ldrh	r3, [r7, #18]
 467 0146 FF2B     		cmp	r3, #255
 468 0148 08D9     		bls	.L17
 512:./Generated_Source/PSoC5/CapSense_CSHL.c ****                 {
 513:./Generated_Source/PSoC5/CapSense_CSHL.c ****                     CapSense_SensorSignal[sensor] = 0xFFu;
 469              		.loc 1 513 0
 470 014a FA79     		ldrb	r2, [r7, #7]	@ zero_extendqisi2
 471 014c 40F20003 		movw	r3, #:lower16:CapSense_SensorSignal
 472 0150 C0F20003 		movt	r3, #:upper16:CapSense_SensorSignal
 473 0154 4FF0FF31 		mov	r1, #-1
 474 0158 9954     		strb	r1, [r3, r2]
 514:./Generated_Source/PSoC5/CapSense_CSHL.c ****                 }    
 515:./Generated_Source/PSoC5/CapSense_CSHL.c ****                 else 
 516:./Generated_Source/PSoC5/CapSense_CSHL.c ****                 {
 517:./Generated_Source/PSoC5/CapSense_CSHL.c ****                     CapSense_SensorSignal[sensor] = ((uint8) tempRaw);
 475              		.loc 1 517 0
 476 015a 20E0     		b	.L19
 477              	.L17:
 478 015c FA79     		ldrb	r2, [r7, #7]	@ zero_extendqisi2
 479 015e 7B8A     		ldrh	r3, [r7, #18]	@ movhi
 480 0160 D9B2     		uxtb	r1, r3
 481 0162 40F20003 		movw	r3, #:lower16:CapSense_SensorSignal
 482 0166 C0F20003 		movt	r3, #:upper16:CapSense_SensorSignal
 483 016a 9954     		strb	r1, [r3, r2]
 484 016c 17E0     		b	.L19
 485              	.L16:
 518:./Generated_Source/PSoC5/CapSense_CSHL.c ****                 }
 519:./Generated_Source/PSoC5/CapSense_CSHL.c ****             #else
 520:./Generated_Source/PSoC5/CapSense_CSHL.c ****                 CapSense_SensorSignal[sensor] = ((uint16) tempRaw);
 521:./Generated_Source/PSoC5/CapSense_CSHL.c ****                 
 522:./Generated_Source/PSoC5/CapSense_CSHL.c ****             #endif  /* End CapSense_SIGNAL_SIZE */
 523:./Generated_Source/PSoC5/CapSense_CSHL.c ****         }
 524:./Generated_Source/PSoC5/CapSense_CSHL.c ****         /* Reinitialize if negative difference > noiseThreshold */
 525:./Generated_Source/PSoC5/CapSense_CSHL.c ****         else
 526:./Generated_Source/PSoC5/CapSense_CSHL.c ****         {
 527:./Generated_Source/PSoC5/CapSense_CSHL.c ****             /* Baseline and BaselineLow re-init */
 528:./Generated_Source/PSoC5/CapSense_CSHL.c ****             CapSense_SensorBaseline[sensor] = filteredRawData;
 486              		.loc 1 528 0
 487 016e FA79     		ldrb	r2, [r7, #7]	@ zero_extendqisi2
 488 0170 40F20003 		movw	r3, #:lower16:CapSense_SensorBaseline
 489 0174 C0F20003 		movt	r3, #:upper16:CapSense_SensorBaseline
ARM GAS  C:\Users\CHARLI~1\AppData\Local\Temp\ccYu411o.s 			page 19


 490 0178 B98A     		ldrh	r1, [r7, #20]	@ movhi
 491 017a 23F81210 		strh	r1, [r3, r2, lsl #1]	@ movhi
 529:./Generated_Source/PSoC5/CapSense_CSHL.c ****             CapSense_SensorBaselineLow[sensor] = 0u;
 492              		.loc 1 529 0
 493 017e FA79     		ldrb	r2, [r7, #7]	@ zero_extendqisi2
 494 0180 40F20003 		movw	r3, #:lower16:CapSense_SensorBaselineLow
 495 0184 C0F20003 		movt	r3, #:upper16:CapSense_SensorBaselineLow
 496 0188 4FF00001 		mov	r1, #0
 497 018c 9954     		strb	r1, [r3, r2]
 530:./Generated_Source/PSoC5/CapSense_CSHL.c ****             
 531:./Generated_Source/PSoC5/CapSense_CSHL.c ****             /* Signal is zero */
 532:./Generated_Source/PSoC5/CapSense_CSHL.c ****             CapSense_SensorSignal[sensor] = 0u;
 498              		.loc 1 532 0
 499 018e FA79     		ldrb	r2, [r7, #7]	@ zero_extendqisi2
 500 0190 40F20003 		movw	r3, #:lower16:CapSense_SensorSignal
 501 0194 C0F20003 		movt	r3, #:upper16:CapSense_SensorSignal
 502 0198 4FF00001 		mov	r1, #0
 503 019c 9954     		strb	r1, [r3, r2]
 504              	.L19:
 533:./Generated_Source/PSoC5/CapSense_CSHL.c ****         }
 534:./Generated_Source/PSoC5/CapSense_CSHL.c ****     
 535:./Generated_Source/PSoC5/CapSense_CSHL.c ****     #else
 536:./Generated_Source/PSoC5/CapSense_CSHL.c ****         /* Calculate difference RawData[cur] - Baseline[prev] */
 537:./Generated_Source/PSoC5/CapSense_CSHL.c ****         if(filteredRawData >= CapSense_SensorBaseline[sensor])
 538:./Generated_Source/PSoC5/CapSense_CSHL.c ****         {
 539:./Generated_Source/PSoC5/CapSense_CSHL.c ****             tempRaw = filteredRawData - CapSense_SensorBaseline[sensor];
 540:./Generated_Source/PSoC5/CapSense_CSHL.c ****             widget = 1u;    /* Calculate the Signal */
 541:./Generated_Source/PSoC5/CapSense_CSHL.c ****         }
 542:./Generated_Source/PSoC5/CapSense_CSHL.c ****         else
 543:./Generated_Source/PSoC5/CapSense_CSHL.c ****         {
 544:./Generated_Source/PSoC5/CapSense_CSHL.c ****             tempRaw = CapSense_SensorBaseline[sensor] - filteredRawData;
 545:./Generated_Source/PSoC5/CapSense_CSHL.c ****             widget = 0u;    /* Do NOT calculate the Signal */
 546:./Generated_Source/PSoC5/CapSense_CSHL.c ****         }
 547:./Generated_Source/PSoC5/CapSense_CSHL.c ****         
 548:./Generated_Source/PSoC5/CapSense_CSHL.c ****         if((tempRaw > (uint16) noiseThreshold) && (widget != 0u))
 549:./Generated_Source/PSoC5/CapSense_CSHL.c ****         {
 550:./Generated_Source/PSoC5/CapSense_CSHL.c ****             #if (CapSense_SIGNAL_SIZE == CapSense_SIGNAL_SIZE_UINT8)
 551:./Generated_Source/PSoC5/CapSense_CSHL.c ****                 /* Over flow defence for uint8 */
 552:./Generated_Source/PSoC5/CapSense_CSHL.c ****                 if (tempRaw > 0xFFu)
 553:./Generated_Source/PSoC5/CapSense_CSHL.c ****                 {
 554:./Generated_Source/PSoC5/CapSense_CSHL.c ****                     CapSense_SensorSignal[sensor] = 0xFFu;
 555:./Generated_Source/PSoC5/CapSense_CSHL.c ****                 }    
 556:./Generated_Source/PSoC5/CapSense_CSHL.c ****                 else 
 557:./Generated_Source/PSoC5/CapSense_CSHL.c ****                 {
 558:./Generated_Source/PSoC5/CapSense_CSHL.c ****                     CapSense_SensorSignal[sensor] = ((uint8) tempRaw);
 559:./Generated_Source/PSoC5/CapSense_CSHL.c ****                 }
 560:./Generated_Source/PSoC5/CapSense_CSHL.c ****             #else
 561:./Generated_Source/PSoC5/CapSense_CSHL.c ****                 CapSense_SensorSignal[sensor] = ((uint16) tempRaw);
 562:./Generated_Source/PSoC5/CapSense_CSHL.c ****                 
 563:./Generated_Source/PSoC5/CapSense_CSHL.c ****             #endif  /* End CapSense_SIGNAL_SIZE */
 564:./Generated_Source/PSoC5/CapSense_CSHL.c ****         }
 565:./Generated_Source/PSoC5/CapSense_CSHL.c ****         else
 566:./Generated_Source/PSoC5/CapSense_CSHL.c ****         {
 567:./Generated_Source/PSoC5/CapSense_CSHL.c ****             /* Signal is zero */
 568:./Generated_Source/PSoC5/CapSense_CSHL.c ****             CapSense_SensorSignal[sensor] = 0u;
 569:./Generated_Source/PSoC5/CapSense_CSHL.c ****         }
 570:./Generated_Source/PSoC5/CapSense_CSHL.c ****         
ARM GAS  C:\Users\CHARLI~1\AppData\Local\Temp\ccYu411o.s 			page 20


 571:./Generated_Source/PSoC5/CapSense_CSHL.c ****         /* Update Baseline */
 572:./Generated_Source/PSoC5/CapSense_CSHL.c ****         /* Make full Baseline 23 bits */
 573:./Generated_Source/PSoC5/CapSense_CSHL.c ****         calc = (uint32) CapSense_SensorBaseline[sensor] << 8u;
 574:./Generated_Source/PSoC5/CapSense_CSHL.c ****         calc |= (uint32) CapSense_SensorBaselineLow[sensor];
 575:./Generated_Source/PSoC5/CapSense_CSHL.c ****         
 576:./Generated_Source/PSoC5/CapSense_CSHL.c ****         /* Add Raw Data to Baseline */
 577:./Generated_Source/PSoC5/CapSense_CSHL.c ****         calc += filteredRawData;
 578:./Generated_Source/PSoC5/CapSense_CSHL.c ****         
 579:./Generated_Source/PSoC5/CapSense_CSHL.c ****         /* Sub the high Baseline */
 580:./Generated_Source/PSoC5/CapSense_CSHL.c ****         calc -= CapSense_SensorBaseline[sensor];
 581:./Generated_Source/PSoC5/CapSense_CSHL.c ****         
 582:./Generated_Source/PSoC5/CapSense_CSHL.c ****         /* Put Baseline and BaselineLow */
 583:./Generated_Source/PSoC5/CapSense_CSHL.c ****         CapSense_SensorBaseline[sensor] = ((uint16) (calc >> 8u));
 584:./Generated_Source/PSoC5/CapSense_CSHL.c ****         CapSense_SensorBaselineLow[sensor] = ((uint8) calc);
 585:./Generated_Source/PSoC5/CapSense_CSHL.c ****      
 586:./Generated_Source/PSoC5/CapSense_CSHL.c ****     #endif  /* End (CapSense_AUTO_RESET == CapSense_AUTO_RESET_DISABLE) */
 587:./Generated_Source/PSoC5/CapSense_CSHL.c ****     
 588:./Generated_Source/PSoC5/CapSense_CSHL.c ****     #if (CapSense_TOTAL_GENERICS_COUNT)
 589:./Generated_Source/PSoC5/CapSense_CSHL.c ****         /* Exclude generic widget */
 590:./Generated_Source/PSoC5/CapSense_CSHL.c ****         }
 591:./Generated_Source/PSoC5/CapSense_CSHL.c ****     #endif  /* End CapSense_TOTAL_GENERICS_COUNT */
 592:./Generated_Source/PSoC5/CapSense_CSHL.c **** }
 505              		.loc 1 592 0
 506 019e 07F11807 		add	r7, r7, #24
 507 01a2 BD46     		mov	sp, r7
 508 01a4 80BD     		pop	{r7, pc}
 509              		.cfi_endproc
 510              	.LFE3:
 511              		.size	CapSense_UpdateSensorBaseline, .-CapSense_UpdateSensorBaseline
 512 01a6 00BF     		.section	.text.CapSense_UpdateEnabledBaselines,"ax",%progbits
 513              		.align	2
 514              		.global	CapSense_UpdateEnabledBaselines
 515              		.thumb
 516              		.thumb_func
 517              		.type	CapSense_UpdateEnabledBaselines, %function
 518              	CapSense_UpdateEnabledBaselines:
 519              	.LFB4:
 593:./Generated_Source/PSoC5/CapSense_CSHL.c **** 
 594:./Generated_Source/PSoC5/CapSense_CSHL.c **** 
 595:./Generated_Source/PSoC5/CapSense_CSHL.c **** /*******************************************************************************
 596:./Generated_Source/PSoC5/CapSense_CSHL.c **** * Function Name: CapSense_UpdateEnabledBaselines
 597:./Generated_Source/PSoC5/CapSense_CSHL.c **** ********************************************************************************
 598:./Generated_Source/PSoC5/CapSense_CSHL.c **** *
 599:./Generated_Source/PSoC5/CapSense_CSHL.c **** * Summary:
 600:./Generated_Source/PSoC5/CapSense_CSHL.c **** *  Checks CapSense_SensorEnableMask[] array and calls the 
 601:./Generated_Source/PSoC5/CapSense_CSHL.c **** *  CapSense_UpdateSensorBaseline function to update the baselines 
 602:./Generated_Source/PSoC5/CapSense_CSHL.c **** *  for enabled sensors.
 603:./Generated_Source/PSoC5/CapSense_CSHL.c **** *
 604:./Generated_Source/PSoC5/CapSense_CSHL.c **** * Parameters:
 605:./Generated_Source/PSoC5/CapSense_CSHL.c **** *  None
 606:./Generated_Source/PSoC5/CapSense_CSHL.c **** *
 607:./Generated_Source/PSoC5/CapSense_CSHL.c **** * Return:
 608:./Generated_Source/PSoC5/CapSense_CSHL.c **** *  None
 609:./Generated_Source/PSoC5/CapSense_CSHL.c **** *
 610:./Generated_Source/PSoC5/CapSense_CSHL.c **** * Global Variables:
 611:./Generated_Source/PSoC5/CapSense_CSHL.c **** *  CapSense_SensorEnableMask[] - used to store the sensor scanning 
 612:./Generated_Source/PSoC5/CapSense_CSHL.c **** *  state.
ARM GAS  C:\Users\CHARLI~1\AppData\Local\Temp\ccYu411o.s 			page 21


 613:./Generated_Source/PSoC5/CapSense_CSHL.c **** *  CapSense_SensorEnableMask[0] contains the masked bits for sensors 
 614:./Generated_Source/PSoC5/CapSense_CSHL.c **** *   0 through 7 (sensor 0 is bit 0, sensor 1 is bit 1).
 615:./Generated_Source/PSoC5/CapSense_CSHL.c **** *  CapSense_SensorEnableMask[1] contains the masked bits for 
 616:./Generated_Source/PSoC5/CapSense_CSHL.c **** *  sensors 8 through 15 (if needed), and so on.
 617:./Generated_Source/PSoC5/CapSense_CSHL.c **** *  0 - sensor doesn't scan by CapSense_ScanEnabledWidgets().
 618:./Generated_Source/PSoC5/CapSense_CSHL.c **** *  1 - sensor scans by CapSense_ScanEnabledWidgets().
 619:./Generated_Source/PSoC5/CapSense_CSHL.c **** *
 620:./Generated_Source/PSoC5/CapSense_CSHL.c **** * Reentrant:
 621:./Generated_Source/PSoC5/CapSense_CSHL.c **** *  No
 622:./Generated_Source/PSoC5/CapSense_CSHL.c **** *
 623:./Generated_Source/PSoC5/CapSense_CSHL.c **** *******************************************************************************/
 624:./Generated_Source/PSoC5/CapSense_CSHL.c ****  void CapSense_UpdateEnabledBaselines(void)
 625:./Generated_Source/PSoC5/CapSense_CSHL.c **** {
 520              		.loc 1 625 0
 521              		.cfi_startproc
 522              		@ args = 0, pretend = 0, frame = 8
 523              		@ frame_needed = 1, uses_anonymous_args = 0
 524 0000 80B5     		push	{r7, lr}
 525              	.LCFI12:
 526              		.cfi_def_cfa_offset 8
 527 0002 82B0     		sub	sp, sp, #8
 528              	.LCFI13:
 529              		.cfi_def_cfa_offset 16
 530 0004 00AF     		add	r7, sp, #0
 531              		.cfi_offset 14, -4
 532              		.cfi_offset 7, -8
 533              	.LCFI14:
 534              		.cfi_def_cfa_register 7
 626:./Generated_Source/PSoC5/CapSense_CSHL.c ****     uint8 i;
 627:./Generated_Source/PSoC5/CapSense_CSHL.c ****     uint8 pos;
 628:./Generated_Source/PSoC5/CapSense_CSHL.c ****     uint8 enMask;
 629:./Generated_Source/PSoC5/CapSense_CSHL.c ****     
 630:./Generated_Source/PSoC5/CapSense_CSHL.c ****     for(i = 0; i < CapSense_TOTAL_SENSOR_COUNT; i++)
 535              		.loc 1 630 0
 536 0006 4FF00003 		mov	r3, #0
 537 000a 7B71     		strb	r3, [r7, #5]
 538 000c 1FE0     		b	.L21
 539              	.L23:
 631:./Generated_Source/PSoC5/CapSense_CSHL.c ****     {
 632:./Generated_Source/PSoC5/CapSense_CSHL.c ****         pos = (i >> 3u);
 540              		.loc 1 632 0
 541 000e 7B79     		ldrb	r3, [r7, #5]	@ zero_extendqisi2
 542 0010 4FEAD303 		lsr	r3, r3, #3
 543 0014 BB71     		strb	r3, [r7, #6]
 633:./Generated_Source/PSoC5/CapSense_CSHL.c ****         enMask = 0x01u << (i & 0x07u);
 544              		.loc 1 633 0
 545 0016 7B79     		ldrb	r3, [r7, #5]	@ zero_extendqisi2
 546 0018 03F00703 		and	r3, r3, #7
 547 001c 4FF00102 		mov	r2, #1
 548 0020 02FA03F3 		lsl	r3, r2, r3
 549 0024 FB71     		strb	r3, [r7, #7]
 634:./Generated_Source/PSoC5/CapSense_CSHL.c ****         if((CapSense_SensorEnableMask[pos] & enMask) != 0u)
 550              		.loc 1 634 0
 551 0026 BA79     		ldrb	r2, [r7, #6]	@ zero_extendqisi2
 552 0028 40F20003 		movw	r3, #:lower16:CapSense_SensorEnableMask
 553 002c C0F20003 		movt	r3, #:upper16:CapSense_SensorEnableMask
 554 0030 9A5C     		ldrb	r2, [r3, r2]	@ zero_extendqisi2
ARM GAS  C:\Users\CHARLI~1\AppData\Local\Temp\ccYu411o.s 			page 22


 555 0032 FB79     		ldrb	r3, [r7, #7]
 556 0034 02EA0303 		and	r3, r2, r3
 557 0038 DBB2     		uxtb	r3, r3
 558 003a 002B     		cmp	r3, #0
 559 003c 03D0     		beq	.L22
 635:./Generated_Source/PSoC5/CapSense_CSHL.c ****         {
 636:./Generated_Source/PSoC5/CapSense_CSHL.c ****             CapSense_UpdateSensorBaseline(i);
 560              		.loc 1 636 0
 561 003e 7B79     		ldrb	r3, [r7, #5]	@ zero_extendqisi2
 562 0040 1846     		mov	r0, r3
 563 0042 FFF7FEFF 		bl	CapSense_UpdateSensorBaseline
 564              	.L22:
 565              		.loc 1 630 0
 566 0046 7B79     		ldrb	r3, [r7, #5]
 567 0048 03F10103 		add	r3, r3, #1
 568 004c 7B71     		strb	r3, [r7, #5]
 569              	.L21:
 570 004e 7B79     		ldrb	r3, [r7, #5]	@ zero_extendqisi2
 571 0050 062B     		cmp	r3, #6
 572 0052 DCD9     		bls	.L23
 637:./Generated_Source/PSoC5/CapSense_CSHL.c ****         }
 638:./Generated_Source/PSoC5/CapSense_CSHL.c ****     }
 639:./Generated_Source/PSoC5/CapSense_CSHL.c **** }
 573              		.loc 1 639 0
 574 0054 07F10807 		add	r7, r7, #8
 575 0058 BD46     		mov	sp, r7
 576 005a 80BD     		pop	{r7, pc}
 577              		.cfi_endproc
 578              	.LFE4:
 579              		.size	CapSense_UpdateEnabledBaselines, .-CapSense_UpdateEnabledBaselines
 580              		.section	.text.CapSense_CheckIsSensorActive,"ax",%progbits
 581              		.align	2
 582              		.global	CapSense_CheckIsSensorActive
 583              		.thumb
 584              		.thumb_func
 585              		.type	CapSense_CheckIsSensorActive, %function
 586              	CapSense_CheckIsSensorActive:
 587              	.LFB5:
 640:./Generated_Source/PSoC5/CapSense_CSHL.c **** 
 641:./Generated_Source/PSoC5/CapSense_CSHL.c **** 
 642:./Generated_Source/PSoC5/CapSense_CSHL.c **** /*******************************************************************************
 643:./Generated_Source/PSoC5/CapSense_CSHL.c **** * Function Name: CapSense_CheckIsSensorActive
 644:./Generated_Source/PSoC5/CapSense_CSHL.c **** ********************************************************************************
 645:./Generated_Source/PSoC5/CapSense_CSHL.c **** *
 646:./Generated_Source/PSoC5/CapSense_CSHL.c **** * Summary:
 647:./Generated_Source/PSoC5/CapSense_CSHL.c **** *  Compares the CapSense_SensorSignal[sensor] array element to finger
 648:./Generated_Source/PSoC5/CapSense_CSHL.c **** *  threshold of widget it belongs to. The hysteresis and debounce are taken into 
 649:./Generated_Source/PSoC5/CapSense_CSHL.c **** *  account. The hysteresis is added or subtracted from the finger threshold 
 650:./Generated_Source/PSoC5/CapSense_CSHL.c **** *  based on whether the sensor is currently active. 
 651:./Generated_Source/PSoC5/CapSense_CSHL.c **** *  If the sensor is active, the threshold is lowered by the hysteresis amount.
 652:./Generated_Source/PSoC5/CapSense_CSHL.c **** *  If the sensor is inactive, the threshold is raised by the hysteresis amount.
 653:./Generated_Source/PSoC5/CapSense_CSHL.c **** *  The debounce counter added to the sensor active transition.
 654:./Generated_Source/PSoC5/CapSense_CSHL.c **** *  This function updates CapSense_SensorOnMask[] array element.
 655:./Generated_Source/PSoC5/CapSense_CSHL.c **** *
 656:./Generated_Source/PSoC5/CapSense_CSHL.c **** * Parameters:
 657:./Generated_Source/PSoC5/CapSense_CSHL.c **** *  sensor:  Sensor number.
 658:./Generated_Source/PSoC5/CapSense_CSHL.c **** *
ARM GAS  C:\Users\CHARLI~1\AppData\Local\Temp\ccYu411o.s 			page 23


 659:./Generated_Source/PSoC5/CapSense_CSHL.c **** * Return:
 660:./Generated_Source/PSoC5/CapSense_CSHL.c **** *  Returns sensor state 1 if active, 0 if not active.
 661:./Generated_Source/PSoC5/CapSense_CSHL.c **** *
 662:./Generated_Source/PSoC5/CapSense_CSHL.c **** * Global Variables:
 663:./Generated_Source/PSoC5/CapSense_CSHL.c **** *  CapSense_SensorSignal[]      - used to store diffence between 
 664:./Generated_Source/PSoC5/CapSense_CSHL.c **** *  current value of raw data and previous value of baseline.
 665:./Generated_Source/PSoC5/CapSense_CSHL.c **** *  CapSense_debounceCounter[]   - used to store current debounce 
 666:./Generated_Source/PSoC5/CapSense_CSHL.c **** *  counter of sensor. Widget which has this parameter are buttons, matrix 
 667:./Generated_Source/PSoC5/CapSense_CSHL.c **** *  buttons, proximity, guard. All other widgets haven't debounce parameter
 668:./Generated_Source/PSoC5/CapSense_CSHL.c **** *  and use the last element of this array with value 0 (it means no debounce).
 669:./Generated_Source/PSoC5/CapSense_CSHL.c **** *  CapSense_SensorOnMask[] - used to store sensors on/off state.
 670:./Generated_Source/PSoC5/CapSense_CSHL.c **** *  CapSense_SensorOnMask[0] contains the masked bits for sensors 
 671:./Generated_Source/PSoC5/CapSense_CSHL.c **** *   0 through 7 (sensor 0 is bit 0, sensor 1 is bit 1).
 672:./Generated_Source/PSoC5/CapSense_CSHL.c **** *  CapSense_SensorEnableMask[1] contains the masked bits for 
 673:./Generated_Source/PSoC5/CapSense_CSHL.c **** *  sensors 8 through 15 (if needed), and so on.
 674:./Generated_Source/PSoC5/CapSense_CSHL.c **** *  0 - sensor is inactive.
 675:./Generated_Source/PSoC5/CapSense_CSHL.c **** *  1 - sensor is active.
 676:./Generated_Source/PSoC5/CapSense_CSHL.c **** *
 677:./Generated_Source/PSoC5/CapSense_CSHL.c **** * Reentrant:
 678:./Generated_Source/PSoC5/CapSense_CSHL.c **** *  No
 679:./Generated_Source/PSoC5/CapSense_CSHL.c **** *
 680:./Generated_Source/PSoC5/CapSense_CSHL.c **** *******************************************************************************/
 681:./Generated_Source/PSoC5/CapSense_CSHL.c **** uint8 CapSense_CheckIsSensorActive(uint8 sensor)
 682:./Generated_Source/PSoC5/CapSense_CSHL.c **** {
 588              		.loc 1 682 0
 589              		.cfi_startproc
 590              		@ args = 0, pretend = 0, frame = 16
 591              		@ frame_needed = 1, uses_anonymous_args = 0
 592              		@ link register save eliminated.
 593 0000 80B4     		push	{r7}
 594              	.LCFI15:
 595              		.cfi_def_cfa_offset 4
 596 0002 85B0     		sub	sp, sp, #20
 597              	.LCFI16:
 598              		.cfi_def_cfa_offset 24
 599 0004 00AF     		add	r7, sp, #0
 600              		.cfi_offset 7, -4
 601              	.LCFI17:
 602              		.cfi_def_cfa_register 7
 603 0006 0346     		mov	r3, r0
 604 0008 FB71     		strb	r3, [r7, #7]
 683:./Generated_Source/PSoC5/CapSense_CSHL.c ****     uint8 debounceIndex;
 684:./Generated_Source/PSoC5/CapSense_CSHL.c ****     /* Get On/Off mask */
 685:./Generated_Source/PSoC5/CapSense_CSHL.c ****     uint8 pos = (sensor >> 3u);
 605              		.loc 1 685 0
 606 000a FB79     		ldrb	r3, [r7, #7]	@ zero_extendqisi2
 607 000c 4FEAD303 		lsr	r3, r3, #3
 608 0010 BB72     		strb	r3, [r7, #10]
 686:./Generated_Source/PSoC5/CapSense_CSHL.c ****     uint8 onMask = 0x01u << (sensor & 0x07u);
 609              		.loc 1 686 0
 610 0012 FB79     		ldrb	r3, [r7, #7]	@ zero_extendqisi2
 611 0014 03F00703 		and	r3, r3, #7
 612 0018 4FF00102 		mov	r2, #1
 613 001c 02FA03F3 		lsl	r3, r2, r3
 614 0020 FB72     		strb	r3, [r7, #11]
 687:./Generated_Source/PSoC5/CapSense_CSHL.c ****     /* Prepare to find debounce counter index */
 688:./Generated_Source/PSoC5/CapSense_CSHL.c ****     uint8 widget = CapSense_widgetNumber[sensor];
ARM GAS  C:\Users\CHARLI~1\AppData\Local\Temp\ccYu411o.s 			page 24


 615              		.loc 1 688 0
 616 0022 FA79     		ldrb	r2, [r7, #7]	@ zero_extendqisi2
 617 0024 40F20003 		movw	r3, #:lower16:CapSense_widgetNumber
 618 0028 C0F20003 		movt	r3, #:upper16:CapSense_widgetNumber
 619 002c 9B5C     		ldrb	r3, [r3, r2]
 620 002e 3B73     		strb	r3, [r7, #12]
 689:./Generated_Source/PSoC5/CapSense_CSHL.c ****     uint8 fingerThreshold = CapSense_fingerThreshold[widget];
 621              		.loc 1 689 0
 622 0030 3A7B     		ldrb	r2, [r7, #12]	@ zero_extendqisi2
 623 0032 40F20003 		movw	r3, #:lower16:CapSense_fingerThreshold
 624 0036 C0F20003 		movt	r3, #:upper16:CapSense_fingerThreshold
 625 003a 9B5C     		ldrb	r3, [r3, r2]
 626 003c 7B73     		strb	r3, [r7, #13]
 690:./Generated_Source/PSoC5/CapSense_CSHL.c ****     uint8 hysteresis = CapSense_hysteresis[widget];
 627              		.loc 1 690 0
 628 003e 3A7B     		ldrb	r2, [r7, #12]	@ zero_extendqisi2
 629 0040 40F20003 		movw	r3, #:lower16:CapSense_hysteresis
 630 0044 C0F20003 		movt	r3, #:upper16:CapSense_hysteresis
 631 0048 9B5C     		ldrb	r3, [r3, r2]
 632 004a BB73     		strb	r3, [r7, #14]
 691:./Generated_Source/PSoC5/CapSense_CSHL.c ****     uint8 debounce = CapSense_debounce[widget];
 633              		.loc 1 691 0
 634 004c 3A7B     		ldrb	r2, [r7, #12]	@ zero_extendqisi2
 635 004e 40F20003 		movw	r3, #:lower16:CapSense_debounce
 636 0052 C0F20003 		movt	r3, #:upper16:CapSense_debounce
 637 0056 9B5C     		ldrb	r3, [r3, r2]
 638 0058 FB73     		strb	r3, [r7, #15]
 692:./Generated_Source/PSoC5/CapSense_CSHL.c ****     
 693:./Generated_Source/PSoC5/CapSense_CSHL.c ****     if (widget < CapSense_TOTAL_CENTROIDS_COUNT)
 639              		.loc 1 693 0
 640 005a 3B7B     		ldrb	r3, [r7, #12]	@ zero_extendqisi2
 641 005c 002B     		cmp	r3, #0
 642 005e 0BD1     		bne	.L26
 694:./Generated_Source/PSoC5/CapSense_CSHL.c ****     {
 695:./Generated_Source/PSoC5/CapSense_CSHL.c ****         debounceIndex = CapSense_UNUSED_DEBOUNCE_COUNTER_INDEX;
 643              		.loc 1 695 0
 644 0060 4FF00203 		mov	r3, #2
 645 0064 7B72     		strb	r3, [r7, #9]
 696:./Generated_Source/PSoC5/CapSense_CSHL.c ****         CapSense_debounceCounter[debounceIndex] = 0u;
 646              		.loc 1 696 0
 647 0066 7A7A     		ldrb	r2, [r7, #9]	@ zero_extendqisi2
 648 0068 40F20003 		movw	r3, #:lower16:CapSense_debounceCounter
 649 006c C0F20003 		movt	r3, #:upper16:CapSense_debounceCounter
 650 0070 4FF00001 		mov	r1, #0
 651 0074 9954     		strb	r1, [r3, r2]
 652 0076 03E0     		b	.L27
 653              	.L26:
 697:./Generated_Source/PSoC5/CapSense_CSHL.c ****     }
 698:./Generated_Source/PSoC5/CapSense_CSHL.c ****     else
 699:./Generated_Source/PSoC5/CapSense_CSHL.c ****     {
 700:./Generated_Source/PSoC5/CapSense_CSHL.c ****         debounceIndex = widget - CapSense_TOTAL_CENTROIDS_COUNT;
 654              		.loc 1 700 0
 655 0078 3B7B     		ldrb	r3, [r7, #12]
 656 007a 03F1FF33 		add	r3, r3, #-1
 657 007e 7B72     		strb	r3, [r7, #9]
 658              	.L27:
 701:./Generated_Source/PSoC5/CapSense_CSHL.c ****     }
ARM GAS  C:\Users\CHARLI~1\AppData\Local\Temp\ccYu411o.s 			page 25


 702:./Generated_Source/PSoC5/CapSense_CSHL.c **** 
 703:./Generated_Source/PSoC5/CapSense_CSHL.c ****     
 704:./Generated_Source/PSoC5/CapSense_CSHL.c ****     /* Was on */
 705:./Generated_Source/PSoC5/CapSense_CSHL.c ****     if (CapSense_SensorOnMask[pos] & onMask)
 659              		.loc 1 705 0
 660 0080 BA7A     		ldrb	r2, [r7, #10]	@ zero_extendqisi2
 661 0082 40F20003 		movw	r3, #:lower16:CapSense_SensorOnMask
 662 0086 C0F20003 		movt	r3, #:upper16:CapSense_SensorOnMask
 663 008a 9A5C     		ldrb	r2, [r3, r2]	@ zero_extendqisi2
 664 008c FB7A     		ldrb	r3, [r7, #11]
 665 008e 02EA0303 		and	r3, r2, r3
 666 0092 DBB2     		uxtb	r3, r3
 667 0094 002B     		cmp	r3, #0
 668 0096 29D0     		beq	.L28
 706:./Generated_Source/PSoC5/CapSense_CSHL.c ****     {
 707:./Generated_Source/PSoC5/CapSense_CSHL.c ****         /* Hysteresis minus */
 708:./Generated_Source/PSoC5/CapSense_CSHL.c ****         if (CapSense_SensorSignal[sensor] < (fingerThreshold - hysteresis))
 669              		.loc 1 708 0
 670 0098 FA79     		ldrb	r2, [r7, #7]	@ zero_extendqisi2
 671 009a 40F20003 		movw	r3, #:lower16:CapSense_SensorSignal
 672 009e C0F20003 		movt	r3, #:upper16:CapSense_SensorSignal
 673 00a2 9B5C     		ldrb	r3, [r3, r2]	@ zero_extendqisi2
 674 00a4 1A46     		mov	r2, r3
 675 00a6 797B     		ldrb	r1, [r7, #13]	@ zero_extendqisi2
 676 00a8 BB7B     		ldrb	r3, [r7, #14]	@ zero_extendqisi2
 677 00aa C3EB0103 		rsb	r3, r3, r1
 678 00ae 9A42     		cmp	r2, r3
 679 00b0 56DA     		bge	.L36
 709:./Generated_Source/PSoC5/CapSense_CSHL.c ****         {
 710:./Generated_Source/PSoC5/CapSense_CSHL.c ****             CapSense_SensorOnMask[pos] &= ~onMask;
 680              		.loc 1 710 0
 681 00b2 BA7A     		ldrb	r2, [r7, #10]	@ zero_extendqisi2
 682 00b4 B97A     		ldrb	r1, [r7, #10]	@ zero_extendqisi2
 683 00b6 40F20003 		movw	r3, #:lower16:CapSense_SensorOnMask
 684 00ba C0F20003 		movt	r3, #:upper16:CapSense_SensorOnMask
 685 00be 5B5C     		ldrb	r3, [r3, r1]	@ zero_extendqisi2
 686 00c0 1946     		mov	r1, r3
 687 00c2 FB7A     		ldrb	r3, [r7, #11]	@ zero_extendqisi2
 688 00c4 6FEA0303 		mvn	r3, r3
 689 00c8 DBB2     		uxtb	r3, r3
 690 00ca 01EA0303 		and	r3, r1, r3
 691 00ce DBB2     		uxtb	r3, r3
 692 00d0 D9B2     		uxtb	r1, r3
 693 00d2 40F20003 		movw	r3, #:lower16:CapSense_SensorOnMask
 694 00d6 C0F20003 		movt	r3, #:upper16:CapSense_SensorOnMask
 695 00da 9954     		strb	r1, [r3, r2]
 711:./Generated_Source/PSoC5/CapSense_CSHL.c ****             CapSense_debounceCounter[debounceIndex] = debounce; 
 696              		.loc 1 711 0
 697 00dc 7A7A     		ldrb	r2, [r7, #9]	@ zero_extendqisi2
 698 00de 40F20003 		movw	r3, #:lower16:CapSense_debounceCounter
 699 00e2 C0F20003 		movt	r3, #:upper16:CapSense_debounceCounter
 700 00e6 F97B     		ldrb	r1, [r7, #15]
 701 00e8 9954     		strb	r1, [r3, r2]
 702 00ea 3CE0     		b	.L30
 703              	.L28:
 712:./Generated_Source/PSoC5/CapSense_CSHL.c ****         }
 713:./Generated_Source/PSoC5/CapSense_CSHL.c ****     }
ARM GAS  C:\Users\CHARLI~1\AppData\Local\Temp\ccYu411o.s 			page 26


 714:./Generated_Source/PSoC5/CapSense_CSHL.c ****     else    /* Was off */
 715:./Generated_Source/PSoC5/CapSense_CSHL.c ****     {
 716:./Generated_Source/PSoC5/CapSense_CSHL.c ****         /* Hysteresis plus */
 717:./Generated_Source/PSoC5/CapSense_CSHL.c ****         if (CapSense_SensorSignal[sensor] > (fingerThreshold + hysteresis))
 704              		.loc 1 717 0
 705 00ec FA79     		ldrb	r2, [r7, #7]	@ zero_extendqisi2
 706 00ee 40F20003 		movw	r3, #:lower16:CapSense_SensorSignal
 707 00f2 C0F20003 		movt	r3, #:upper16:CapSense_SensorSignal
 708 00f6 9B5C     		ldrb	r3, [r3, r2]	@ zero_extendqisi2
 709 00f8 1A46     		mov	r2, r3
 710 00fa 797B     		ldrb	r1, [r7, #13]	@ zero_extendqisi2
 711 00fc BB7B     		ldrb	r3, [r7, #14]	@ zero_extendqisi2
 712 00fe 0B44     		add	r3, r1, r3
 713 0100 9A42     		cmp	r2, r3
 714 0102 25DD     		ble	.L31
 718:./Generated_Source/PSoC5/CapSense_CSHL.c ****         {
 719:./Generated_Source/PSoC5/CapSense_CSHL.c ****             /* Sensor active, decrement debounce counter */
 720:./Generated_Source/PSoC5/CapSense_CSHL.c ****             if (CapSense_debounceCounter[debounceIndex]-- == 0)
 715              		.loc 1 720 0
 716 0104 7A7A     		ldrb	r2, [r7, #9]	@ zero_extendqisi2
 717 0106 40F20003 		movw	r3, #:lower16:CapSense_debounceCounter
 718 010a C0F20003 		movt	r3, #:upper16:CapSense_debounceCounter
 719 010e 9B5C     		ldrb	r3, [r3, r2]	@ zero_extendqisi2
 720 0110 002B     		cmp	r3, #0
 721 0112 14BF     		ite	ne
 722 0114 0021     		movne	r1, #0
 723 0116 0121     		moveq	r1, #1
 724 0118 C9B2     		uxtb	r1, r1
 725 011a 03F1FF33 		add	r3, r3, #-1
 726 011e D8B2     		uxtb	r0, r3
 727 0120 40F20003 		movw	r3, #:lower16:CapSense_debounceCounter
 728 0124 C0F20003 		movt	r3, #:upper16:CapSense_debounceCounter
 729 0128 9854     		strb	r0, [r3, r2]
 730 012a 0029     		cmp	r1, #0
 731 012c 1AD0     		beq	.L37
 721:./Generated_Source/PSoC5/CapSense_CSHL.c ****             {
 722:./Generated_Source/PSoC5/CapSense_CSHL.c ****                 CapSense_SensorOnMask[pos] |= onMask; 
 732              		.loc 1 722 0
 733 012e BA7A     		ldrb	r2, [r7, #10]	@ zero_extendqisi2
 734 0130 B97A     		ldrb	r1, [r7, #10]	@ zero_extendqisi2
 735 0132 40F20003 		movw	r3, #:lower16:CapSense_SensorOnMask
 736 0136 C0F20003 		movt	r3, #:upper16:CapSense_SensorOnMask
 737 013a 595C     		ldrb	r1, [r3, r1]	@ zero_extendqisi2
 738 013c FB7A     		ldrb	r3, [r7, #11]
 739 013e 41EA0303 		orr	r3, r1, r3
 740 0142 D9B2     		uxtb	r1, r3
 741 0144 40F20003 		movw	r3, #:lower16:CapSense_SensorOnMask
 742 0148 C0F20003 		movt	r3, #:upper16:CapSense_SensorOnMask
 743 014c 9954     		strb	r1, [r3, r2]
 744 014e 0AE0     		b	.L30
 745              	.L31:
 723:./Generated_Source/PSoC5/CapSense_CSHL.c ****             }
 724:./Generated_Source/PSoC5/CapSense_CSHL.c ****         }
 725:./Generated_Source/PSoC5/CapSense_CSHL.c ****         else
 726:./Generated_Source/PSoC5/CapSense_CSHL.c ****         {
 727:./Generated_Source/PSoC5/CapSense_CSHL.c ****             /* Sensor inactive - reset Debounce counter */
 728:./Generated_Source/PSoC5/CapSense_CSHL.c ****             CapSense_debounceCounter[debounceIndex] = debounce;
ARM GAS  C:\Users\CHARLI~1\AppData\Local\Temp\ccYu411o.s 			page 27


 746              		.loc 1 728 0
 747 0150 7A7A     		ldrb	r2, [r7, #9]	@ zero_extendqisi2
 748 0152 40F20003 		movw	r3, #:lower16:CapSense_debounceCounter
 749 0156 C0F20003 		movt	r3, #:upper16:CapSense_debounceCounter
 750 015a F97B     		ldrb	r1, [r7, #15]
 751 015c 9954     		strb	r1, [r3, r2]
 752 015e 02E0     		b	.L30
 753              	.L36:
 754              		.loc 1 711 0
 755 0160 00BF     		nop
 756 0162 00E0     		b	.L30
 757              	.L37:
 758              		.loc 1 722 0
 759 0164 00BF     		nop
 760              	.L30:
 729:./Generated_Source/PSoC5/CapSense_CSHL.c ****         }
 730:./Generated_Source/PSoC5/CapSense_CSHL.c ****     }
 731:./Generated_Source/PSoC5/CapSense_CSHL.c ****     
 732:./Generated_Source/PSoC5/CapSense_CSHL.c ****     return (CapSense_SensorOnMask[pos] & onMask) ? 1u : 0u;
 761              		.loc 1 732 0
 762 0166 BA7A     		ldrb	r2, [r7, #10]	@ zero_extendqisi2
 763 0168 40F20003 		movw	r3, #:lower16:CapSense_SensorOnMask
 764 016c C0F20003 		movt	r3, #:upper16:CapSense_SensorOnMask
 765 0170 9A5C     		ldrb	r2, [r3, r2]	@ zero_extendqisi2
 766 0172 FB7A     		ldrb	r3, [r7, #11]
 767 0174 02EA0303 		and	r3, r2, r3
 768 0178 DBB2     		uxtb	r3, r3
 769 017a 002B     		cmp	r3, #0
 770 017c 02D0     		beq	.L33
 771 017e 4FF00103 		mov	r3, #1
 772 0182 01E0     		b	.L34
 773              	.L33:
 774 0184 4FF00003 		mov	r3, #0
 775              	.L34:
 733:./Generated_Source/PSoC5/CapSense_CSHL.c **** }
 776              		.loc 1 733 0
 777 0188 1846     		mov	r0, r3
 778 018a 07F11407 		add	r7, r7, #20
 779 018e BD46     		mov	sp, r7
 780 0190 80BC     		pop	{r7}
 781 0192 7047     		bx	lr
 782              		.cfi_endproc
 783              	.LFE5:
 784              		.size	CapSense_CheckIsSensorActive, .-CapSense_CheckIsSensorActive
 785              		.section	.text.CapSense_CheckIsWidgetActive,"ax",%progbits
 786              		.align	2
 787              		.global	CapSense_CheckIsWidgetActive
 788              		.thumb
 789              		.thumb_func
 790              		.type	CapSense_CheckIsWidgetActive, %function
 791              	CapSense_CheckIsWidgetActive:
 792              	.LFB6:
 734:./Generated_Source/PSoC5/CapSense_CSHL.c **** 
 735:./Generated_Source/PSoC5/CapSense_CSHL.c **** 
 736:./Generated_Source/PSoC5/CapSense_CSHL.c **** /*******************************************************************************
 737:./Generated_Source/PSoC5/CapSense_CSHL.c **** * Function Name: CapSense_CheckIsWidgetActive
 738:./Generated_Source/PSoC5/CapSense_CSHL.c **** ********************************************************************************
ARM GAS  C:\Users\CHARLI~1\AppData\Local\Temp\ccYu411o.s 			page 28


 739:./Generated_Source/PSoC5/CapSense_CSHL.c **** *
 740:./Generated_Source/PSoC5/CapSense_CSHL.c **** * Summary:
 741:./Generated_Source/PSoC5/CapSense_CSHL.c **** *  Use function CapSense_CheckIsSensorActive() to update 
 742:./Generated_Source/PSoC5/CapSense_CSHL.c **** *  CapSense_SensorOnMask[] for all sensors within the widget.
 743:./Generated_Source/PSoC5/CapSense_CSHL.c **** *  If one of sensors within widget is active the function return that widget is 
 744:./Generated_Source/PSoC5/CapSense_CSHL.c **** *  active.
 745:./Generated_Source/PSoC5/CapSense_CSHL.c **** *  The touch pad and matrix buttons widgets need to have active sensor within 
 746:./Generated_Source/PSoC5/CapSense_CSHL.c **** *  col and row to return widget active status.
 747:./Generated_Source/PSoC5/CapSense_CSHL.c **** *
 748:./Generated_Source/PSoC5/CapSense_CSHL.c **** * Parameters:
 749:./Generated_Source/PSoC5/CapSense_CSHL.c **** *  widget:  widget number.
 750:./Generated_Source/PSoC5/CapSense_CSHL.c **** *
 751:./Generated_Source/PSoC5/CapSense_CSHL.c **** * Return:
 752:./Generated_Source/PSoC5/CapSense_CSHL.c **** *  Returns widget sensor state 1 if one or more sensors within widget is/are 
 753:./Generated_Source/PSoC5/CapSense_CSHL.c **** *  active, 0 if all sensors within widget are inactive.
 754:./Generated_Source/PSoC5/CapSense_CSHL.c **** *
 755:./Generated_Source/PSoC5/CapSense_CSHL.c **** * Reentrant:
 756:./Generated_Source/PSoC5/CapSense_CSHL.c **** *  No
 757:./Generated_Source/PSoC5/CapSense_CSHL.c **** *
 758:./Generated_Source/PSoC5/CapSense_CSHL.c **** *******************************************************************************/
 759:./Generated_Source/PSoC5/CapSense_CSHL.c **** uint8 CapSense_CheckIsWidgetActive(uint8 widget)
 760:./Generated_Source/PSoC5/CapSense_CSHL.c **** {
 793              		.loc 1 760 0
 794              		.cfi_startproc
 795              		@ args = 0, pretend = 0, frame = 16
 796              		@ frame_needed = 1, uses_anonymous_args = 0
 797 0000 80B5     		push	{r7, lr}
 798              	.LCFI18:
 799              		.cfi_def_cfa_offset 8
 800 0002 84B0     		sub	sp, sp, #16
 801              	.LCFI19:
 802              		.cfi_def_cfa_offset 24
 803 0004 00AF     		add	r7, sp, #0
 804              		.cfi_offset 14, -4
 805              		.cfi_offset 7, -8
 806              	.LCFI20:
 807              		.cfi_def_cfa_register 7
 808 0006 0346     		mov	r3, r0
 809 0008 FB71     		strb	r3, [r7, #7]
 761:./Generated_Source/PSoC5/CapSense_CSHL.c ****     uint8 rawIndex = CapSense_rawDataIndex[widget];
 810              		.loc 1 761 0
 811 000a FA79     		ldrb	r2, [r7, #7]	@ zero_extendqisi2
 812 000c 40F20003 		movw	r3, #:lower16:CapSense_rawDataIndex
 813 0010 C0F20003 		movt	r3, #:upper16:CapSense_rawDataIndex
 814 0014 9B5C     		ldrb	r3, [r3, r2]
 815 0016 7B73     		strb	r3, [r7, #13]
 762:./Generated_Source/PSoC5/CapSense_CSHL.c ****     uint8 numberOfSensors = CapSense_numberOfSensors[widget] + rawIndex;
 816              		.loc 1 762 0
 817 0018 FA79     		ldrb	r2, [r7, #7]	@ zero_extendqisi2
 818 001a 40F20003 		movw	r3, #:lower16:CapSense_numberOfSensors
 819 001e C0F20003 		movt	r3, #:upper16:CapSense_numberOfSensors
 820 0022 9A5C     		ldrb	r2, [r3, r2]	@ zero_extendqisi2
 821 0024 7B7B     		ldrb	r3, [r7, #13]
 822 0026 1344     		add	r3, r2, r3
 823 0028 BB73     		strb	r3, [r7, #14]
 763:./Generated_Source/PSoC5/CapSense_CSHL.c ****     uint8 state = 0u;
 824              		.loc 1 763 0
ARM GAS  C:\Users\CHARLI~1\AppData\Local\Temp\ccYu411o.s 			page 29


 825 002a 4FF00003 		mov	r3, #0
 826 002e FB73     		strb	r3, [r7, #15]
 827              	.L40:
 764:./Generated_Source/PSoC5/CapSense_CSHL.c **** 
 765:./Generated_Source/PSoC5/CapSense_CSHL.c ****     /* Check all sensors of the widget */
 766:./Generated_Source/PSoC5/CapSense_CSHL.c ****     do
 767:./Generated_Source/PSoC5/CapSense_CSHL.c ****     {
 768:./Generated_Source/PSoC5/CapSense_CSHL.c ****         if(CapSense_CheckIsSensorActive(rawIndex) != 0u)
 828              		.loc 1 768 0
 829 0030 7B7B     		ldrb	r3, [r7, #13]	@ zero_extendqisi2
 830 0032 1846     		mov	r0, r3
 831 0034 FFF7FEFF 		bl	CapSense_CheckIsSensorActive
 832 0038 0346     		mov	r3, r0
 833 003a 002B     		cmp	r3, #0
 834 003c 02D0     		beq	.L39
 769:./Generated_Source/PSoC5/CapSense_CSHL.c ****         {
 770:./Generated_Source/PSoC5/CapSense_CSHL.c ****             state = CapSense_SENSOR_1_IS_ACTIVE;
 835              		.loc 1 770 0
 836 003e 4FF00103 		mov	r3, #1
 837 0042 FB73     		strb	r3, [r7, #15]
 838              	.L39:
 771:./Generated_Source/PSoC5/CapSense_CSHL.c ****         }
 772:./Generated_Source/PSoC5/CapSense_CSHL.c ****         rawIndex++;
 839              		.loc 1 772 0
 840 0044 7B7B     		ldrb	r3, [r7, #13]
 841 0046 03F10103 		add	r3, r3, #1
 842 004a 7B73     		strb	r3, [r7, #13]
 773:./Generated_Source/PSoC5/CapSense_CSHL.c ****     }
 774:./Generated_Source/PSoC5/CapSense_CSHL.c ****     while(rawIndex < numberOfSensors);
 843              		.loc 1 774 0
 844 004c 7A7B     		ldrb	r2, [r7, #13]	@ zero_extendqisi2
 845 004e BB7B     		ldrb	r3, [r7, #14]	@ zero_extendqisi2
 846 0050 9A42     		cmp	r2, r3
 847 0052 EDD3     		bcc	.L40
 775:./Generated_Source/PSoC5/CapSense_CSHL.c ****     
 776:./Generated_Source/PSoC5/CapSense_CSHL.c **** 
 777:./Generated_Source/PSoC5/CapSense_CSHL.c ****     
 778:./Generated_Source/PSoC5/CapSense_CSHL.c ****     return state;
 848              		.loc 1 778 0
 849 0054 FB7B     		ldrb	r3, [r7, #15]	@ zero_extendqisi2
 779:./Generated_Source/PSoC5/CapSense_CSHL.c **** }
 850              		.loc 1 779 0
 851 0056 1846     		mov	r0, r3
 852 0058 07F11007 		add	r7, r7, #16
 853 005c BD46     		mov	sp, r7
 854 005e 80BD     		pop	{r7, pc}
 855              		.cfi_endproc
 856              	.LFE6:
 857              		.size	CapSense_CheckIsWidgetActive, .-CapSense_CheckIsWidgetActive
 858              		.section	.text.CapSense_CheckIsAnyWidgetActive,"ax",%progbits
 859              		.align	2
 860              		.global	CapSense_CheckIsAnyWidgetActive
 861              		.thumb
 862              		.thumb_func
 863              		.type	CapSense_CheckIsAnyWidgetActive, %function
 864              	CapSense_CheckIsAnyWidgetActive:
 865              	.LFB7:
ARM GAS  C:\Users\CHARLI~1\AppData\Local\Temp\ccYu411o.s 			page 30


 780:./Generated_Source/PSoC5/CapSense_CSHL.c **** 
 781:./Generated_Source/PSoC5/CapSense_CSHL.c **** 
 782:./Generated_Source/PSoC5/CapSense_CSHL.c **** /*******************************************************************************
 783:./Generated_Source/PSoC5/CapSense_CSHL.c **** * Function Name: CapSense_CheckIsAnyWidgetActive
 784:./Generated_Source/PSoC5/CapSense_CSHL.c **** ********************************************************************************
 785:./Generated_Source/PSoC5/CapSense_CSHL.c **** *
 786:./Generated_Source/PSoC5/CapSense_CSHL.c **** * Summary:
 787:./Generated_Source/PSoC5/CapSense_CSHL.c **** *  Compares all sensors of the CapSense_Signal[] array to their finger 
 788:./Generated_Source/PSoC5/CapSense_CSHL.c **** *  threshold. Calls CapSense_CheckIsWidgetActive() for each widget so 
 789:./Generated_Source/PSoC5/CapSense_CSHL.c **** *  the CapSense_SensorOnMask[] array is up to date after calling this 
 790:./Generated_Source/PSoC5/CapSense_CSHL.c **** *  function.
 791:./Generated_Source/PSoC5/CapSense_CSHL.c **** *
 792:./Generated_Source/PSoC5/CapSense_CSHL.c **** * Parameters:
 793:./Generated_Source/PSoC5/CapSense_CSHL.c **** *  widget:  widget number.
 794:./Generated_Source/PSoC5/CapSense_CSHL.c **** *
 795:./Generated_Source/PSoC5/CapSense_CSHL.c **** * Return:
 796:./Generated_Source/PSoC5/CapSense_CSHL.c **** *  Returns 1 if any widget is active, 0 none of widgets are active.
 797:./Generated_Source/PSoC5/CapSense_CSHL.c **** *
 798:./Generated_Source/PSoC5/CapSense_CSHL.c **** * Reentrant:
 799:./Generated_Source/PSoC5/CapSense_CSHL.c **** *  No
 800:./Generated_Source/PSoC5/CapSense_CSHL.c **** *
 801:./Generated_Source/PSoC5/CapSense_CSHL.c **** *******************************************************************************/
 802:./Generated_Source/PSoC5/CapSense_CSHL.c **** uint8 CapSense_CheckIsAnyWidgetActive(void)
 803:./Generated_Source/PSoC5/CapSense_CSHL.c **** {
 866              		.loc 1 803 0
 867              		.cfi_startproc
 868              		@ args = 0, pretend = 0, frame = 8
 869              		@ frame_needed = 1, uses_anonymous_args = 0
 870 0000 80B5     		push	{r7, lr}
 871              	.LCFI21:
 872              		.cfi_def_cfa_offset 8
 873 0002 82B0     		sub	sp, sp, #8
 874              	.LCFI22:
 875              		.cfi_def_cfa_offset 16
 876 0004 00AF     		add	r7, sp, #0
 877              		.cfi_offset 14, -4
 878              		.cfi_offset 7, -8
 879              	.LCFI23:
 880              		.cfi_def_cfa_register 7
 804:./Generated_Source/PSoC5/CapSense_CSHL.c ****     uint8 i;
 805:./Generated_Source/PSoC5/CapSense_CSHL.c ****     uint8 state = 0u;
 881              		.loc 1 805 0
 882 0006 4FF00003 		mov	r3, #0
 883 000a FB71     		strb	r3, [r7, #7]
 806:./Generated_Source/PSoC5/CapSense_CSHL.c ****     
 807:./Generated_Source/PSoC5/CapSense_CSHL.c ****     for(i = 0u; i < CapSense_TOTAL_WIDGET_COUNT; i++)
 884              		.loc 1 807 0
 885 000c 4FF00003 		mov	r3, #0
 886 0010 BB71     		strb	r3, [r7, #6]
 887 0012 0DE0     		b	.L43
 888              	.L45:
 808:./Generated_Source/PSoC5/CapSense_CSHL.c ****     {
 809:./Generated_Source/PSoC5/CapSense_CSHL.c ****         if (CapSense_CheckIsWidgetActive(i) != 0u)
 889              		.loc 1 809 0
 890 0014 BB79     		ldrb	r3, [r7, #6]	@ zero_extendqisi2
 891 0016 1846     		mov	r0, r3
 892 0018 FFF7FEFF 		bl	CapSense_CheckIsWidgetActive
ARM GAS  C:\Users\CHARLI~1\AppData\Local\Temp\ccYu411o.s 			page 31


 893 001c 0346     		mov	r3, r0
 894 001e 002B     		cmp	r3, #0
 895 0020 02D0     		beq	.L44
 810:./Generated_Source/PSoC5/CapSense_CSHL.c ****         {
 811:./Generated_Source/PSoC5/CapSense_CSHL.c ****             state = CapSense_WIDGET_IS_ACTIVE;
 896              		.loc 1 811 0
 897 0022 4FF00103 		mov	r3, #1
 898 0026 FB71     		strb	r3, [r7, #7]
 899              	.L44:
 900              		.loc 1 807 0
 901 0028 BB79     		ldrb	r3, [r7, #6]
 902 002a 03F10103 		add	r3, r3, #1
 903 002e BB71     		strb	r3, [r7, #6]
 904              	.L43:
 905 0030 BB79     		ldrb	r3, [r7, #6]	@ zero_extendqisi2
 906 0032 022B     		cmp	r3, #2
 907 0034 EED9     		bls	.L45
 812:./Generated_Source/PSoC5/CapSense_CSHL.c ****         }
 813:./Generated_Source/PSoC5/CapSense_CSHL.c ****     }
 814:./Generated_Source/PSoC5/CapSense_CSHL.c ****     
 815:./Generated_Source/PSoC5/CapSense_CSHL.c **** 
 816:./Generated_Source/PSoC5/CapSense_CSHL.c ****     return state;
 908              		.loc 1 816 0
 909 0036 FB79     		ldrb	r3, [r7, #7]	@ zero_extendqisi2
 817:./Generated_Source/PSoC5/CapSense_CSHL.c **** }
 910              		.loc 1 817 0
 911 0038 1846     		mov	r0, r3
 912 003a 07F10807 		add	r7, r7, #8
 913 003e BD46     		mov	sp, r7
 914 0040 80BD     		pop	{r7, pc}
 915              		.cfi_endproc
 916              	.LFE7:
 917              		.size	CapSense_CheckIsAnyWidgetActive, .-CapSense_CheckIsAnyWidgetActive
 918 0042 00BF     		.section	.text.CapSense_EnableWidget,"ax",%progbits
 919              		.align	2
 920              		.global	CapSense_EnableWidget
 921              		.thumb
 922              		.thumb_func
 923              		.type	CapSense_EnableWidget, %function
 924              	CapSense_EnableWidget:
 925              	.LFB8:
 818:./Generated_Source/PSoC5/CapSense_CSHL.c **** 
 819:./Generated_Source/PSoC5/CapSense_CSHL.c **** 
 820:./Generated_Source/PSoC5/CapSense_CSHL.c **** /*******************************************************************************
 821:./Generated_Source/PSoC5/CapSense_CSHL.c **** * Function Name: CapSense_EnableWidget
 822:./Generated_Source/PSoC5/CapSense_CSHL.c **** ********************************************************************************
 823:./Generated_Source/PSoC5/CapSense_CSHL.c **** *
 824:./Generated_Source/PSoC5/CapSense_CSHL.c **** * Summary:
 825:./Generated_Source/PSoC5/CapSense_CSHL.c **** *  Enable all widget elements (sensors) to scanning process.
 826:./Generated_Source/PSoC5/CapSense_CSHL.c **** *
 827:./Generated_Source/PSoC5/CapSense_CSHL.c **** * Parameters:
 828:./Generated_Source/PSoC5/CapSense_CSHL.c **** *  widget:  widget number.
 829:./Generated_Source/PSoC5/CapSense_CSHL.c **** *
 830:./Generated_Source/PSoC5/CapSense_CSHL.c **** * Return:
 831:./Generated_Source/PSoC5/CapSense_CSHL.c **** *  None
 832:./Generated_Source/PSoC5/CapSense_CSHL.c **** *
 833:./Generated_Source/PSoC5/CapSense_CSHL.c **** * Global Variables:
ARM GAS  C:\Users\CHARLI~1\AppData\Local\Temp\ccYu411o.s 			page 32


 834:./Generated_Source/PSoC5/CapSense_CSHL.c **** *  CapSense_SensorEnableMask[] - used to store the sensor scanning 
 835:./Generated_Source/PSoC5/CapSense_CSHL.c **** *  state.
 836:./Generated_Source/PSoC5/CapSense_CSHL.c **** *  CapSense_SensorEnableMask[0] contains the masked bits for sensors 
 837:./Generated_Source/PSoC5/CapSense_CSHL.c **** *  0 through 7 (sensor 0 is bit 0, sensor 1 is bit 1).
 838:./Generated_Source/PSoC5/CapSense_CSHL.c **** *  CapSense_SensorEnableMask[1] contains the masked bits for 
 839:./Generated_Source/PSoC5/CapSense_CSHL.c **** *  sensors 8 through 15 (if needed), and so on.
 840:./Generated_Source/PSoC5/CapSense_CSHL.c **** *  0 - sensor doesn't scan by CapSense_ScanEnabledWidgets().
 841:./Generated_Source/PSoC5/CapSense_CSHL.c **** *  1 - sensor scans by CapSense_ScanEnabledWidgets().
 842:./Generated_Source/PSoC5/CapSense_CSHL.c **** *
 843:./Generated_Source/PSoC5/CapSense_CSHL.c **** * Reentrant:
 844:./Generated_Source/PSoC5/CapSense_CSHL.c **** *  No
 845:./Generated_Source/PSoC5/CapSense_CSHL.c **** *
 846:./Generated_Source/PSoC5/CapSense_CSHL.c **** *******************************************************************************/
 847:./Generated_Source/PSoC5/CapSense_CSHL.c **** void CapSense_EnableWidget(uint8 widget)
 848:./Generated_Source/PSoC5/CapSense_CSHL.c **** {
 926              		.loc 1 848 0
 927              		.cfi_startproc
 928              		@ args = 0, pretend = 0, frame = 16
 929              		@ frame_needed = 1, uses_anonymous_args = 0
 930              		@ link register save eliminated.
 931 0000 80B4     		push	{r7}
 932              	.LCFI24:
 933              		.cfi_def_cfa_offset 4
 934 0002 85B0     		sub	sp, sp, #20
 935              	.LCFI25:
 936              		.cfi_def_cfa_offset 24
 937 0004 00AF     		add	r7, sp, #0
 938              		.cfi_offset 7, -4
 939              	.LCFI26:
 940              		.cfi_def_cfa_register 7
 941 0006 0346     		mov	r3, r0
 942 0008 FB71     		strb	r3, [r7, #7]
 849:./Generated_Source/PSoC5/CapSense_CSHL.c ****     uint8 pos;
 850:./Generated_Source/PSoC5/CapSense_CSHL.c ****     uint8 enMask;
 851:./Generated_Source/PSoC5/CapSense_CSHL.c ****     uint8 rawIndex = CapSense_rawDataIndex[widget];
 943              		.loc 1 851 0
 944 000a FA79     		ldrb	r2, [r7, #7]	@ zero_extendqisi2
 945 000c 40F20003 		movw	r3, #:lower16:CapSense_rawDataIndex
 946 0010 C0F20003 		movt	r3, #:upper16:CapSense_rawDataIndex
 947 0014 9B5C     		ldrb	r3, [r3, r2]
 948 0016 BB73     		strb	r3, [r7, #14]
 852:./Generated_Source/PSoC5/CapSense_CSHL.c ****     uint8 numberOfSensors = CapSense_numberOfSensors[widget] + rawIndex;
 949              		.loc 1 852 0
 950 0018 FA79     		ldrb	r2, [r7, #7]	@ zero_extendqisi2
 951 001a 40F20003 		movw	r3, #:lower16:CapSense_numberOfSensors
 952 001e C0F20003 		movt	r3, #:upper16:CapSense_numberOfSensors
 953 0022 9A5C     		ldrb	r2, [r3, r2]	@ zero_extendqisi2
 954 0024 BB7B     		ldrb	r3, [r7, #14]
 955 0026 1344     		add	r3, r2, r3
 956 0028 FB73     		strb	r3, [r7, #15]
 957              	.L48:
 853:./Generated_Source/PSoC5/CapSense_CSHL.c ****     
 854:./Generated_Source/PSoC5/CapSense_CSHL.c ****     /* Enable all sensors of the widget */
 855:./Generated_Source/PSoC5/CapSense_CSHL.c ****     do
 856:./Generated_Source/PSoC5/CapSense_CSHL.c ****     {
 857:./Generated_Source/PSoC5/CapSense_CSHL.c ****         pos = (rawIndex >> 3u);
 958              		.loc 1 857 0
ARM GAS  C:\Users\CHARLI~1\AppData\Local\Temp\ccYu411o.s 			page 33


 959 002a BB7B     		ldrb	r3, [r7, #14]	@ zero_extendqisi2
 960 002c 4FEAD303 		lsr	r3, r3, #3
 961 0030 3B73     		strb	r3, [r7, #12]
 858:./Generated_Source/PSoC5/CapSense_CSHL.c ****         enMask = 0x01u << (rawIndex & 0x07u);
 962              		.loc 1 858 0
 963 0032 BB7B     		ldrb	r3, [r7, #14]	@ zero_extendqisi2
 964 0034 03F00703 		and	r3, r3, #7
 965 0038 4FF00102 		mov	r2, #1
 966 003c 02FA03F3 		lsl	r3, r2, r3
 967 0040 7B73     		strb	r3, [r7, #13]
 859:./Generated_Source/PSoC5/CapSense_CSHL.c ****         
 860:./Generated_Source/PSoC5/CapSense_CSHL.c ****         CapSense_SensorEnableMask[pos] |= enMask;
 968              		.loc 1 860 0
 969 0042 3A7B     		ldrb	r2, [r7, #12]	@ zero_extendqisi2
 970 0044 397B     		ldrb	r1, [r7, #12]	@ zero_extendqisi2
 971 0046 40F20003 		movw	r3, #:lower16:CapSense_SensorEnableMask
 972 004a C0F20003 		movt	r3, #:upper16:CapSense_SensorEnableMask
 973 004e 595C     		ldrb	r1, [r3, r1]	@ zero_extendqisi2
 974 0050 7B7B     		ldrb	r3, [r7, #13]
 975 0052 41EA0303 		orr	r3, r1, r3
 976 0056 D9B2     		uxtb	r1, r3
 977 0058 40F20003 		movw	r3, #:lower16:CapSense_SensorEnableMask
 978 005c C0F20003 		movt	r3, #:upper16:CapSense_SensorEnableMask
 979 0060 9954     		strb	r1, [r3, r2]
 861:./Generated_Source/PSoC5/CapSense_CSHL.c ****         rawIndex++;
 980              		.loc 1 861 0
 981 0062 BB7B     		ldrb	r3, [r7, #14]
 982 0064 03F10103 		add	r3, r3, #1
 983 0068 BB73     		strb	r3, [r7, #14]
 862:./Generated_Source/PSoC5/CapSense_CSHL.c ****     }
 863:./Generated_Source/PSoC5/CapSense_CSHL.c ****     while(rawIndex < numberOfSensors);
 984              		.loc 1 863 0
 985 006a BA7B     		ldrb	r2, [r7, #14]	@ zero_extendqisi2
 986 006c FB7B     		ldrb	r3, [r7, #15]	@ zero_extendqisi2
 987 006e 9A42     		cmp	r2, r3
 988 0070 DBD3     		bcc	.L48
 864:./Generated_Source/PSoC5/CapSense_CSHL.c ****     
 865:./Generated_Source/PSoC5/CapSense_CSHL.c **** 
 866:./Generated_Source/PSoC5/CapSense_CSHL.c **** }
 989              		.loc 1 866 0
 990 0072 07F11407 		add	r7, r7, #20
 991 0076 BD46     		mov	sp, r7
 992 0078 80BC     		pop	{r7}
 993 007a 7047     		bx	lr
 994              		.cfi_endproc
 995              	.LFE8:
 996              		.size	CapSense_EnableWidget, .-CapSense_EnableWidget
 997              		.section	.text.CapSense_DisableWidget,"ax",%progbits
 998              		.align	2
 999              		.global	CapSense_DisableWidget
 1000              		.thumb
 1001              		.thumb_func
 1002              		.type	CapSense_DisableWidget, %function
 1003              	CapSense_DisableWidget:
 1004              	.LFB9:
 867:./Generated_Source/PSoC5/CapSense_CSHL.c **** 
 868:./Generated_Source/PSoC5/CapSense_CSHL.c **** 
ARM GAS  C:\Users\CHARLI~1\AppData\Local\Temp\ccYu411o.s 			page 34


 869:./Generated_Source/PSoC5/CapSense_CSHL.c **** /*******************************************************************************
 870:./Generated_Source/PSoC5/CapSense_CSHL.c **** * Function Name: CapSense_DisableWidget
 871:./Generated_Source/PSoC5/CapSense_CSHL.c **** ********************************************************************************
 872:./Generated_Source/PSoC5/CapSense_CSHL.c **** *
 873:./Generated_Source/PSoC5/CapSense_CSHL.c **** * Summary:
 874:./Generated_Source/PSoC5/CapSense_CSHL.c **** *  Disable all widget elements (sensors) from scanning process.
 875:./Generated_Source/PSoC5/CapSense_CSHL.c **** *
 876:./Generated_Source/PSoC5/CapSense_CSHL.c **** * Parameters:
 877:./Generated_Source/PSoC5/CapSense_CSHL.c **** *  widget:  widget number.
 878:./Generated_Source/PSoC5/CapSense_CSHL.c **** *
 879:./Generated_Source/PSoC5/CapSense_CSHL.c **** * Return:
 880:./Generated_Source/PSoC5/CapSense_CSHL.c **** *  None
 881:./Generated_Source/PSoC5/CapSense_CSHL.c **** *
 882:./Generated_Source/PSoC5/CapSense_CSHL.c **** * Global Variables:
 883:./Generated_Source/PSoC5/CapSense_CSHL.c **** *  CapSense_SensorEnableMask[] - used to store the sensor scanning 
 884:./Generated_Source/PSoC5/CapSense_CSHL.c **** *  state.
 885:./Generated_Source/PSoC5/CapSense_CSHL.c **** *  CapSense_SensorEnableMask[0] contains the masked bits for sensors 
 886:./Generated_Source/PSoC5/CapSense_CSHL.c **** *  0 through 7 (sensor 0 is bit 0, sensor 1 is bit 1).
 887:./Generated_Source/PSoC5/CapSense_CSHL.c **** *  CapSense_SensorEnableMask[1] contains the masked bits for 
 888:./Generated_Source/PSoC5/CapSense_CSHL.c **** *  sensors 8 through 15 (if needed), and so on.
 889:./Generated_Source/PSoC5/CapSense_CSHL.c **** *  0 - sensor doesn't scan by CapSense_ScanEnabledWidgets().
 890:./Generated_Source/PSoC5/CapSense_CSHL.c **** *  1 - sensor scans by CapSense_ScanEnabledWidgets().
 891:./Generated_Source/PSoC5/CapSense_CSHL.c **** *
 892:./Generated_Source/PSoC5/CapSense_CSHL.c **** * Reentrant:
 893:./Generated_Source/PSoC5/CapSense_CSHL.c **** *  No
 894:./Generated_Source/PSoC5/CapSense_CSHL.c **** *
 895:./Generated_Source/PSoC5/CapSense_CSHL.c **** *******************************************************************************/
 896:./Generated_Source/PSoC5/CapSense_CSHL.c **** void CapSense_DisableWidget(uint8 widget)
 897:./Generated_Source/PSoC5/CapSense_CSHL.c **** {
 1005              		.loc 1 897 0
 1006              		.cfi_startproc
 1007              		@ args = 0, pretend = 0, frame = 16
 1008              		@ frame_needed = 1, uses_anonymous_args = 0
 1009              		@ link register save eliminated.
 1010 0000 80B4     		push	{r7}
 1011              	.LCFI27:
 1012              		.cfi_def_cfa_offset 4
 1013 0002 85B0     		sub	sp, sp, #20
 1014              	.LCFI28:
 1015              		.cfi_def_cfa_offset 24
 1016 0004 00AF     		add	r7, sp, #0
 1017              		.cfi_offset 7, -4
 1018              	.LCFI29:
 1019              		.cfi_def_cfa_register 7
 1020 0006 0346     		mov	r3, r0
 1021 0008 FB71     		strb	r3, [r7, #7]
 898:./Generated_Source/PSoC5/CapSense_CSHL.c ****     uint8 pos;
 899:./Generated_Source/PSoC5/CapSense_CSHL.c ****     uint8 enMask;
 900:./Generated_Source/PSoC5/CapSense_CSHL.c ****     uint8 rawIndex = CapSense_rawDataIndex[widget];
 1022              		.loc 1 900 0
 1023 000a FA79     		ldrb	r2, [r7, #7]	@ zero_extendqisi2
 1024 000c 40F20003 		movw	r3, #:lower16:CapSense_rawDataIndex
 1025 0010 C0F20003 		movt	r3, #:upper16:CapSense_rawDataIndex
 1026 0014 9B5C     		ldrb	r3, [r3, r2]
 1027 0016 BB73     		strb	r3, [r7, #14]
 901:./Generated_Source/PSoC5/CapSense_CSHL.c ****     uint8 numberOfSensors = CapSense_numberOfSensors[widget] + rawIndex;
 1028              		.loc 1 901 0
ARM GAS  C:\Users\CHARLI~1\AppData\Local\Temp\ccYu411o.s 			page 35


 1029 0018 FA79     		ldrb	r2, [r7, #7]	@ zero_extendqisi2
 1030 001a 40F20003 		movw	r3, #:lower16:CapSense_numberOfSensors
 1031 001e C0F20003 		movt	r3, #:upper16:CapSense_numberOfSensors
 1032 0022 9A5C     		ldrb	r2, [r3, r2]	@ zero_extendqisi2
 1033 0024 BB7B     		ldrb	r3, [r7, #14]
 1034 0026 1344     		add	r3, r2, r3
 1035 0028 FB73     		strb	r3, [r7, #15]
 1036              	.L51:
 902:./Generated_Source/PSoC5/CapSense_CSHL.c ****    
 903:./Generated_Source/PSoC5/CapSense_CSHL.c ****     /* Disable all sensors of the widget */
 904:./Generated_Source/PSoC5/CapSense_CSHL.c ****     do
 905:./Generated_Source/PSoC5/CapSense_CSHL.c ****     {
 906:./Generated_Source/PSoC5/CapSense_CSHL.c ****         pos = (rawIndex >> 3u);
 1037              		.loc 1 906 0
 1038 002a BB7B     		ldrb	r3, [r7, #14]	@ zero_extendqisi2
 1039 002c 4FEAD303 		lsr	r3, r3, #3
 1040 0030 3B73     		strb	r3, [r7, #12]
 907:./Generated_Source/PSoC5/CapSense_CSHL.c ****         enMask = 0x01u << (rawIndex & 0x07u);
 1041              		.loc 1 907 0
 1042 0032 BB7B     		ldrb	r3, [r7, #14]	@ zero_extendqisi2
 1043 0034 03F00703 		and	r3, r3, #7
 1044 0038 4FF00102 		mov	r2, #1
 1045 003c 02FA03F3 		lsl	r3, r2, r3
 1046 0040 7B73     		strb	r3, [r7, #13]
 908:./Generated_Source/PSoC5/CapSense_CSHL.c ****         
 909:./Generated_Source/PSoC5/CapSense_CSHL.c ****         CapSense_SensorEnableMask[pos] &= ~enMask;
 1047              		.loc 1 909 0
 1048 0042 3A7B     		ldrb	r2, [r7, #12]	@ zero_extendqisi2
 1049 0044 397B     		ldrb	r1, [r7, #12]	@ zero_extendqisi2
 1050 0046 40F20003 		movw	r3, #:lower16:CapSense_SensorEnableMask
 1051 004a C0F20003 		movt	r3, #:upper16:CapSense_SensorEnableMask
 1052 004e 5B5C     		ldrb	r3, [r3, r1]	@ zero_extendqisi2
 1053 0050 1946     		mov	r1, r3
 1054 0052 7B7B     		ldrb	r3, [r7, #13]	@ zero_extendqisi2
 1055 0054 6FEA0303 		mvn	r3, r3
 1056 0058 DBB2     		uxtb	r3, r3
 1057 005a 01EA0303 		and	r3, r1, r3
 1058 005e DBB2     		uxtb	r3, r3
 1059 0060 D9B2     		uxtb	r1, r3
 1060 0062 40F20003 		movw	r3, #:lower16:CapSense_SensorEnableMask
 1061 0066 C0F20003 		movt	r3, #:upper16:CapSense_SensorEnableMask
 1062 006a 9954     		strb	r1, [r3, r2]
 910:./Generated_Source/PSoC5/CapSense_CSHL.c ****         rawIndex++;
 1063              		.loc 1 910 0
 1064 006c BB7B     		ldrb	r3, [r7, #14]
 1065 006e 03F10103 		add	r3, r3, #1
 1066 0072 BB73     		strb	r3, [r7, #14]
 911:./Generated_Source/PSoC5/CapSense_CSHL.c ****     }
 912:./Generated_Source/PSoC5/CapSense_CSHL.c ****     while(rawIndex < numberOfSensors);
 1067              		.loc 1 912 0
 1068 0074 BA7B     		ldrb	r2, [r7, #14]	@ zero_extendqisi2
 1069 0076 FB7B     		ldrb	r3, [r7, #15]	@ zero_extendqisi2
 1070 0078 9A42     		cmp	r2, r3
 1071 007a D6D3     		bcc	.L51
 913:./Generated_Source/PSoC5/CapSense_CSHL.c ****     
 914:./Generated_Source/PSoC5/CapSense_CSHL.c **** 
 915:./Generated_Source/PSoC5/CapSense_CSHL.c **** }
ARM GAS  C:\Users\CHARLI~1\AppData\Local\Temp\ccYu411o.s 			page 36


 1072              		.loc 1 915 0
 1073 007c 07F11407 		add	r7, r7, #20
 1074 0080 BD46     		mov	sp, r7
 1075 0082 80BC     		pop	{r7}
 1076 0084 7047     		bx	lr
 1077              		.cfi_endproc
 1078              	.LFE9:
 1079              		.size	CapSense_DisableWidget, .-CapSense_DisableWidget
 1080 0086 00BF     		.section	.text.CapSense_FindMaximum,"ax",%progbits
 1081              		.align	2
 1082              		.global	CapSense_FindMaximum
 1083              		.thumb
 1084              		.thumb_func
 1085              		.type	CapSense_FindMaximum, %function
 1086              	CapSense_FindMaximum:
 1087              	.LFB10:
 916:./Generated_Source/PSoC5/CapSense_CSHL.c **** 
 917:./Generated_Source/PSoC5/CapSense_CSHL.c **** 
 918:./Generated_Source/PSoC5/CapSense_CSHL.c **** /*******************************************************************************
 919:./Generated_Source/PSoC5/CapSense_CSHL.c **** * Function Name: CapSense_FindMaximum
 920:./Generated_Source/PSoC5/CapSense_CSHL.c **** ********************************************************************************
 921:./Generated_Source/PSoC5/CapSense_CSHL.c **** *
 922:./Generated_Source/PSoC5/CapSense_CSHL.c **** * Summary:
 923:./Generated_Source/PSoC5/CapSense_CSHL.c **** *  Finds index of maximum element within defined centroid. Checks 
 924:./Generated_Source/PSoC5/CapSense_CSHL.c **** *  CapSense_SensorSignal[] within defined cenrtoid and 
 925:./Generated_Source/PSoC5/CapSense_CSHL.c **** *  returns index of maximum element. The values below finger threshold are
 926:./Generated_Source/PSoC5/CapSense_CSHL.c **** *  ignored.
 927:./Generated_Source/PSoC5/CapSense_CSHL.c **** *  The centrod defines by offset of first element and number of elements - count.
 928:./Generated_Source/PSoC5/CapSense_CSHL.c **** *  The diplexed centroid requires at least consecutive two elements above
 929:./Generated_Source/PSoC5/CapSense_CSHL.c **** *  FingerThreshold to find index of maximum element.
 930:./Generated_Source/PSoC5/CapSense_CSHL.c **** * 
 931:./Generated_Source/PSoC5/CapSense_CSHL.c **** * Parameters:
 932:./Generated_Source/PSoC5/CapSense_CSHL.c **** *  offset:  Start index of cetroid in CapSense_SensorSignal[] array.
 933:./Generated_Source/PSoC5/CapSense_CSHL.c **** *  count:   number of elements within centroid.
 934:./Generated_Source/PSoC5/CapSense_CSHL.c **** *  fingerThreshold:  Finger threshould.
 935:./Generated_Source/PSoC5/CapSense_CSHL.c **** * 
 936:./Generated_Source/PSoC5/CapSense_CSHL.c **** * Return:
 937:./Generated_Source/PSoC5/CapSense_CSHL.c **** *  Returns index of maximum element within defined centroid.
 938:./Generated_Source/PSoC5/CapSense_CSHL.c **** *  If index of maximum element doesn't find the 0xFF returns.
 939:./Generated_Source/PSoC5/CapSense_CSHL.c **** * 
 940:./Generated_Source/PSoC5/CapSense_CSHL.c **** *******************************************************************************/
 941:./Generated_Source/PSoC5/CapSense_CSHL.c **** uint8 CapSense_FindMaximum(uint8 offset, uint8 count, uint8 fingerThreshold)
 942:./Generated_Source/PSoC5/CapSense_CSHL.c **** {
 1088              		.loc 1 942 0
 1089              		.cfi_startproc
 1090              		@ args = 0, pretend = 0, frame = 16
 1091              		@ frame_needed = 1, uses_anonymous_args = 0
 1092              		@ link register save eliminated.
 1093 0000 80B4     		push	{r7}
 1094              	.LCFI30:
 1095              		.cfi_def_cfa_offset 4
 1096 0002 85B0     		sub	sp, sp, #20
 1097              	.LCFI31:
 1098              		.cfi_def_cfa_offset 24
 1099 0004 00AF     		add	r7, sp, #0
 1100              		.cfi_offset 7, -4
 1101              	.LCFI32:
ARM GAS  C:\Users\CHARLI~1\AppData\Local\Temp\ccYu411o.s 			page 37


 1102              		.cfi_def_cfa_register 7
 1103 0006 1346     		mov	r3, r2
 1104 0008 0246     		mov	r2, r0
 1105 000a FA71     		strb	r2, [r7, #7]
 1106 000c 0A46     		mov	r2, r1
 1107 000e BA71     		strb	r2, [r7, #6]
 1108 0010 7B71     		strb	r3, [r7, #5]
 943:./Generated_Source/PSoC5/CapSense_CSHL.c ****     uint8 i;
 944:./Generated_Source/PSoC5/CapSense_CSHL.c ****     uint8 maximum = 0xFFu;
 1109              		.loc 1 944 0
 1110 0012 4FF0FF33 		mov	r3, #-1
 1111 0016 BB72     		strb	r3, [r7, #10]
 945:./Generated_Source/PSoC5/CapSense_CSHL.c ****     uint8 temp = 0u;
 1112              		.loc 1 945 0
 1113 0018 4FF00003 		mov	r3, #0
 1114 001c FB72     		strb	r3, [r7, #11]
 946:./Generated_Source/PSoC5/CapSense_CSHL.c ****     uint8 *startOfSlider = &CapSense_SensorSignal[offset];
 1115              		.loc 1 946 0
 1116 001e FA79     		ldrb	r2, [r7, #7]	@ zero_extendqisi2
 1117 0020 40F20003 		movw	r3, #:lower16:CapSense_SensorSignal
 1118 0024 C0F20003 		movt	r3, #:upper16:CapSense_SensorSignal
 1119 0028 1344     		add	r3, r2, r3
 1120 002a FB60     		str	r3, [r7, #12]
 947:./Generated_Source/PSoC5/CapSense_CSHL.c ****     
 948:./Generated_Source/PSoC5/CapSense_CSHL.c ****     for (i = 0u; i < count; i++)
 1121              		.loc 1 948 0
 1122 002c 4FF00003 		mov	r3, #0
 1123 0030 7B72     		strb	r3, [r7, #9]
 1124 0032 18E0     		b	.L54
 1125              	.L56:
 949:./Generated_Source/PSoC5/CapSense_CSHL.c ****     {
 950:./Generated_Source/PSoC5/CapSense_CSHL.c ****         /* Looking for the grater element within centroid */
 951:./Generated_Source/PSoC5/CapSense_CSHL.c ****         if(startOfSlider[i] > fingerThreshold)
 1126              		.loc 1 951 0
 1127 0034 7A7A     		ldrb	r2, [r7, #9]	@ zero_extendqisi2
 1128 0036 FB68     		ldr	r3, [r7, #12]
 1129 0038 1344     		add	r3, r2, r3
 1130 003a 1B78     		ldrb	r3, [r3, #0]	@ zero_extendqisi2
 1131 003c 7A79     		ldrb	r2, [r7, #5]	@ zero_extendqisi2
 1132 003e 9A42     		cmp	r2, r3
 1133 0040 0DD2     		bcs	.L55
 952:./Generated_Source/PSoC5/CapSense_CSHL.c ****         {
 953:./Generated_Source/PSoC5/CapSense_CSHL.c ****             if(startOfSlider[i] > temp)
 1134              		.loc 1 953 0
 1135 0042 7A7A     		ldrb	r2, [r7, #9]	@ zero_extendqisi2
 1136 0044 FB68     		ldr	r3, [r7, #12]
 1137 0046 1344     		add	r3, r2, r3
 1138 0048 1B78     		ldrb	r3, [r3, #0]	@ zero_extendqisi2
 1139 004a FA7A     		ldrb	r2, [r7, #11]	@ zero_extendqisi2
 1140 004c 9A42     		cmp	r2, r3
 1141 004e 06D2     		bcs	.L55
 954:./Generated_Source/PSoC5/CapSense_CSHL.c ****             {
 955:./Generated_Source/PSoC5/CapSense_CSHL.c ****                 maximum = i;
 1142              		.loc 1 955 0
 1143 0050 7B7A     		ldrb	r3, [r7, #9]
 1144 0052 BB72     		strb	r3, [r7, #10]
 956:./Generated_Source/PSoC5/CapSense_CSHL.c ****                 temp = startOfSlider[i];
ARM GAS  C:\Users\CHARLI~1\AppData\Local\Temp\ccYu411o.s 			page 38


 1145              		.loc 1 956 0
 1146 0054 7A7A     		ldrb	r2, [r7, #9]	@ zero_extendqisi2
 1147 0056 FB68     		ldr	r3, [r7, #12]
 1148 0058 1344     		add	r3, r2, r3
 1149 005a 1B78     		ldrb	r3, [r3, #0]
 1150 005c FB72     		strb	r3, [r7, #11]
 1151              	.L55:
 1152              		.loc 1 948 0
 1153 005e 7B7A     		ldrb	r3, [r7, #9]
 1154 0060 03F10103 		add	r3, r3, #1
 1155 0064 7B72     		strb	r3, [r7, #9]
 1156              	.L54:
 1157 0066 7A7A     		ldrb	r2, [r7, #9]	@ zero_extendqisi2
 1158 0068 BB79     		ldrb	r3, [r7, #6]	@ zero_extendqisi2
 1159 006a 9A42     		cmp	r2, r3
 1160 006c E2D3     		bcc	.L56
 957:./Generated_Source/PSoC5/CapSense_CSHL.c ****             }
 958:./Generated_Source/PSoC5/CapSense_CSHL.c ****         }
 959:./Generated_Source/PSoC5/CapSense_CSHL.c ****     }
 960:./Generated_Source/PSoC5/CapSense_CSHL.c **** 
 961:./Generated_Source/PSoC5/CapSense_CSHL.c ****     return maximum;
 1161              		.loc 1 961 0
 1162 006e BB7A     		ldrb	r3, [r7, #10]	@ zero_extendqisi2
 962:./Generated_Source/PSoC5/CapSense_CSHL.c **** }
 1163              		.loc 1 962 0
 1164 0070 1846     		mov	r0, r3
 1165 0072 07F11407 		add	r7, r7, #20
 1166 0076 BD46     		mov	sp, r7
 1167 0078 80BC     		pop	{r7}
 1168 007a 7047     		bx	lr
 1169              		.cfi_endproc
 1170              	.LFE10:
 1171              		.size	CapSense_FindMaximum, .-CapSense_FindMaximum
 1172              		.section	.text.CapSense_CalcCentroid,"ax",%progbits
 1173              		.align	2
 1174              		.global	CapSense_CalcCentroid
 1175              		.thumb
 1176              		.thumb_func
 1177              		.type	CapSense_CalcCentroid, %function
 1178              	CapSense_CalcCentroid:
 1179              	.LFB11:
 963:./Generated_Source/PSoC5/CapSense_CSHL.c **** 
 964:./Generated_Source/PSoC5/CapSense_CSHL.c **** 
 965:./Generated_Source/PSoC5/CapSense_CSHL.c **** /*******************************************************************************
 966:./Generated_Source/PSoC5/CapSense_CSHL.c **** * Function Name: CapSense_CalcCentroid
 967:./Generated_Source/PSoC5/CapSense_CSHL.c **** ********************************************************************************
 968:./Generated_Source/PSoC5/CapSense_CSHL.c **** *
 969:./Generated_Source/PSoC5/CapSense_CSHL.c **** * Summary:
 970:./Generated_Source/PSoC5/CapSense_CSHL.c **** *  Returns position value calculated accoring index of maximum element and API
 971:./Generated_Source/PSoC5/CapSense_CSHL.c **** *  resolution.
 972:./Generated_Source/PSoC5/CapSense_CSHL.c **** *
 973:./Generated_Source/PSoC5/CapSense_CSHL.c **** * Parameters:
 974:./Generated_Source/PSoC5/CapSense_CSHL.c **** *  maximum:  Index of maximum element within centroid.
 975:./Generated_Source/PSoC5/CapSense_CSHL.c **** *  offset:   Start index of cetroid in CapSense_SensorSignal[] array.
 976:./Generated_Source/PSoC5/CapSense_CSHL.c **** *  count:    Number of elements within centroid.
 977:./Generated_Source/PSoC5/CapSense_CSHL.c **** *  resolution:  multiplicator calculated according to centroid type and
 978:./Generated_Source/PSoC5/CapSense_CSHL.c **** *  API resolution.
ARM GAS  C:\Users\CHARLI~1\AppData\Local\Temp\ccYu411o.s 			page 39


 979:./Generated_Source/PSoC5/CapSense_CSHL.c **** *  noiseThreshold:  Noise threshould.
 980:./Generated_Source/PSoC5/CapSense_CSHL.c **** * 
 981:./Generated_Source/PSoC5/CapSense_CSHL.c **** * Return:
 982:./Generated_Source/PSoC5/CapSense_CSHL.c **** *  Returns position value of the slider.
 983:./Generated_Source/PSoC5/CapSense_CSHL.c **** * 
 984:./Generated_Source/PSoC5/CapSense_CSHL.c **** *
 985:./Generated_Source/PSoC5/CapSense_CSHL.c **** * Reentrant:
 986:./Generated_Source/PSoC5/CapSense_CSHL.c **** *  No.
 987:./Generated_Source/PSoC5/CapSense_CSHL.c **** *
 988:./Generated_Source/PSoC5/CapSense_CSHL.c **** *******************************************************************************/
 989:./Generated_Source/PSoC5/CapSense_CSHL.c **** uint8 CapSense_CalcCentroid(uint8 maximum, uint8 offset, uint8 count, uint16 resolution, uint8 nois
 990:./Generated_Source/PSoC5/CapSense_CSHL.c **** {
 1180              		.loc 1 990 0
 1181              		.cfi_startproc
 1182              		@ args = 4, pretend = 0, frame = 24
 1183              		@ frame_needed = 1, uses_anonymous_args = 0
 1184              		@ link register save eliminated.
 1185 0000 80B4     		push	{r7}
 1186              	.LCFI33:
 1187              		.cfi_def_cfa_offset 4
 1188 0002 87B0     		sub	sp, sp, #28
 1189              	.LCFI34:
 1190              		.cfi_def_cfa_offset 32
 1191 0004 00AF     		add	r7, sp, #0
 1192              		.cfi_offset 7, -4
 1193              	.LCFI35:
 1194              		.cfi_def_cfa_register 7
 1195 0006 F871     		strb	r0, [r7, #7]
 1196 0008 B971     		strb	r1, [r7, #6]
 1197 000a 7A71     		strb	r2, [r7, #5]
 1198 000c 7B80     		strh	r3, [r7, #2]	@ movhi
 991:./Generated_Source/PSoC5/CapSense_CSHL.c ****     uint8 posPrev;
 992:./Generated_Source/PSoC5/CapSense_CSHL.c ****     uint8 posNext;
 993:./Generated_Source/PSoC5/CapSense_CSHL.c ****     uint8 position;
 994:./Generated_Source/PSoC5/CapSense_CSHL.c ****     int32 numerator;
 995:./Generated_Source/PSoC5/CapSense_CSHL.c ****     int32 denominator;
 996:./Generated_Source/PSoC5/CapSense_CSHL.c ****     uint8 *startOfSlider = &CapSense_SensorSignal[offset];
 1199              		.loc 1 996 0
 1200 000e BA79     		ldrb	r2, [r7, #6]	@ zero_extendqisi2
 1201 0010 40F20003 		movw	r3, #:lower16:CapSense_SensorSignal
 1202 0014 C0F20003 		movt	r3, #:upper16:CapSense_SensorSignal
 1203 0018 1344     		add	r3, r2, r3
 1204 001a 7B61     		str	r3, [r7, #20]
 997:./Generated_Source/PSoC5/CapSense_CSHL.c ****     
 998:./Generated_Source/PSoC5/CapSense_CSHL.c ****     /* Calculate next and previous near to maximum */
 999:./Generated_Source/PSoC5/CapSense_CSHL.c ****     posPrev = maximum - 1u;
 1205              		.loc 1 999 0
 1206 001c FB79     		ldrb	r3, [r7, #7]
 1207 001e 03F1FF33 		add	r3, r3, #-1
 1208 0022 7B72     		strb	r3, [r7, #9]
1000:./Generated_Source/PSoC5/CapSense_CSHL.c ****     posNext = maximum + 1u; 
 1209              		.loc 1 1000 0
 1210 0024 FB79     		ldrb	r3, [r7, #7]
 1211 0026 03F10103 		add	r3, r3, #1
 1212 002a BB72     		strb	r3, [r7, #10]
1001:./Generated_Source/PSoC5/CapSense_CSHL.c ****     
1002:./Generated_Source/PSoC5/CapSense_CSHL.c ****     /* Copy Signal for found centriod */
ARM GAS  C:\Users\CHARLI~1\AppData\Local\Temp\ccYu411o.s 			page 40


1003:./Generated_Source/PSoC5/CapSense_CSHL.c ****     CapSense_centroid[CapSense_POS] = startOfSlider[maximum];
 1213              		.loc 1 1003 0
 1214 002c FA79     		ldrb	r2, [r7, #7]	@ zero_extendqisi2
 1215 002e 7B69     		ldr	r3, [r7, #20]
 1216 0030 1344     		add	r3, r2, r3
 1217 0032 1A78     		ldrb	r2, [r3, #0]	@ zero_extendqisi2
 1218 0034 40F20003 		movw	r3, #:lower16:CapSense_centroid
 1219 0038 C0F20003 		movt	r3, #:upper16:CapSense_centroid
 1220 003c 5A70     		strb	r2, [r3, #1]
1004:./Generated_Source/PSoC5/CapSense_CSHL.c ****     
1005:./Generated_Source/PSoC5/CapSense_CSHL.c ****     /* Check borders for LINEAR Slider */
1006:./Generated_Source/PSoC5/CapSense_CSHL.c ****     if (maximum == 0u)                   /* Start of centroid */
 1221              		.loc 1 1006 0
 1222 003e FB79     		ldrb	r3, [r7, #7]	@ zero_extendqisi2
 1223 0040 002B     		cmp	r3, #0
 1224 0042 10D1     		bne	.L59
1007:./Generated_Source/PSoC5/CapSense_CSHL.c ****     { 
1008:./Generated_Source/PSoC5/CapSense_CSHL.c ****         CapSense_centroid[CapSense_POS_PREV] = 0u;
 1225              		.loc 1 1008 0
 1226 0044 40F20003 		movw	r3, #:lower16:CapSense_centroid
 1227 0048 C0F20003 		movt	r3, #:upper16:CapSense_centroid
 1228 004c 4FF00002 		mov	r2, #0
 1229 0050 1A70     		strb	r2, [r3, #0]
1009:./Generated_Source/PSoC5/CapSense_CSHL.c ****         CapSense_centroid[CapSense_POS_NEXT] = startOfSlider[posNext];
 1230              		.loc 1 1009 0
 1231 0052 BA7A     		ldrb	r2, [r7, #10]	@ zero_extendqisi2
 1232 0054 7B69     		ldr	r3, [r7, #20]
 1233 0056 1344     		add	r3, r2, r3
 1234 0058 1A78     		ldrb	r2, [r3, #0]	@ zero_extendqisi2
 1235 005a 40F20003 		movw	r3, #:lower16:CapSense_centroid
 1236 005e C0F20003 		movt	r3, #:upper16:CapSense_centroid
 1237 0062 9A70     		strb	r2, [r3, #2]
 1238 0064 28E0     		b	.L60
 1239              	.L59:
1010:./Generated_Source/PSoC5/CapSense_CSHL.c ****     }
1011:./Generated_Source/PSoC5/CapSense_CSHL.c ****     else if (maximum == ((count) - 1u)) /* End of centroid */
 1240              		.loc 1 1011 0
 1241 0066 FA79     		ldrb	r2, [r7, #7]	@ zero_extendqisi2
 1242 0068 7B79     		ldrb	r3, [r7, #5]	@ zero_extendqisi2
 1243 006a 03F1FF33 		add	r3, r3, #-1
 1244 006e 9A42     		cmp	r2, r3
 1245 0070 10D1     		bne	.L61
1012:./Generated_Source/PSoC5/CapSense_CSHL.c ****     {
1013:./Generated_Source/PSoC5/CapSense_CSHL.c ****         CapSense_centroid[CapSense_POS_PREV] = startOfSlider[posPrev];
 1246              		.loc 1 1013 0
 1247 0072 7A7A     		ldrb	r2, [r7, #9]	@ zero_extendqisi2
 1248 0074 7B69     		ldr	r3, [r7, #20]
 1249 0076 1344     		add	r3, r2, r3
 1250 0078 1A78     		ldrb	r2, [r3, #0]	@ zero_extendqisi2
 1251 007a 40F20003 		movw	r3, #:lower16:CapSense_centroid
 1252 007e C0F20003 		movt	r3, #:upper16:CapSense_centroid
 1253 0082 1A70     		strb	r2, [r3, #0]
1014:./Generated_Source/PSoC5/CapSense_CSHL.c ****         CapSense_centroid[CapSense_POS_NEXT] = 0u;
 1254              		.loc 1 1014 0
 1255 0084 40F20003 		movw	r3, #:lower16:CapSense_centroid
 1256 0088 C0F20003 		movt	r3, #:upper16:CapSense_centroid
 1257 008c 4FF00002 		mov	r2, #0
ARM GAS  C:\Users\CHARLI~1\AppData\Local\Temp\ccYu411o.s 			page 41


 1258 0090 9A70     		strb	r2, [r3, #2]
 1259 0092 11E0     		b	.L60
 1260              	.L61:
1015:./Generated_Source/PSoC5/CapSense_CSHL.c ****     }
1016:./Generated_Source/PSoC5/CapSense_CSHL.c ****     else                                /* Not first Not last */
1017:./Generated_Source/PSoC5/CapSense_CSHL.c ****     {
1018:./Generated_Source/PSoC5/CapSense_CSHL.c ****         CapSense_centroid[CapSense_POS_PREV] = startOfSlider[posPrev];
 1261              		.loc 1 1018 0
 1262 0094 7A7A     		ldrb	r2, [r7, #9]	@ zero_extendqisi2
 1263 0096 7B69     		ldr	r3, [r7, #20]
 1264 0098 1344     		add	r3, r2, r3
 1265 009a 1A78     		ldrb	r2, [r3, #0]	@ zero_extendqisi2
 1266 009c 40F20003 		movw	r3, #:lower16:CapSense_centroid
 1267 00a0 C0F20003 		movt	r3, #:upper16:CapSense_centroid
 1268 00a4 1A70     		strb	r2, [r3, #0]
1019:./Generated_Source/PSoC5/CapSense_CSHL.c ****         CapSense_centroid[CapSense_POS_NEXT] = startOfSlider[posNext];
 1269              		.loc 1 1019 0
 1270 00a6 BA7A     		ldrb	r2, [r7, #10]	@ zero_extendqisi2
 1271 00a8 7B69     		ldr	r3, [r7, #20]
 1272 00aa 1344     		add	r3, r2, r3
 1273 00ac 1A78     		ldrb	r2, [r3, #0]	@ zero_extendqisi2
 1274 00ae 40F20003 		movw	r3, #:lower16:CapSense_centroid
 1275 00b2 C0F20003 		movt	r3, #:upper16:CapSense_centroid
 1276 00b6 9A70     		strb	r2, [r3, #2]
 1277              	.L60:
1020:./Generated_Source/PSoC5/CapSense_CSHL.c ****     }
1021:./Generated_Source/PSoC5/CapSense_CSHL.c ****     
1022:./Generated_Source/PSoC5/CapSense_CSHL.c ****     /* Subtract noiseThreshold */
1023:./Generated_Source/PSoC5/CapSense_CSHL.c ****     if(CapSense_centroid[CapSense_POS_PREV] > noiseThreshold)
 1278              		.loc 1 1023 0
 1279 00b8 40F20003 		movw	r3, #:lower16:CapSense_centroid
 1280 00bc C0F20003 		movt	r3, #:upper16:CapSense_centroid
 1281 00c0 1B78     		ldrb	r3, [r3, #0]	@ zero_extendqisi2
 1282 00c2 97F82020 		ldrb	r2, [r7, #32]	@ zero_extendqisi2
 1283 00c6 9A42     		cmp	r2, r3
 1284 00c8 0FD2     		bcs	.L62
1024:./Generated_Source/PSoC5/CapSense_CSHL.c ****     {
1025:./Generated_Source/PSoC5/CapSense_CSHL.c ****         CapSense_centroid[CapSense_POS_PREV] -= noiseThreshold;
 1285              		.loc 1 1025 0
 1286 00ca 40F20003 		movw	r3, #:lower16:CapSense_centroid
 1287 00ce C0F20003 		movt	r3, #:upper16:CapSense_centroid
 1288 00d2 1A78     		ldrb	r2, [r3, #0]	@ zero_extendqisi2
 1289 00d4 97F82030 		ldrb	r3, [r7, #32]
 1290 00d8 C3EB0203 		rsb	r3, r3, r2
 1291 00dc DAB2     		uxtb	r2, r3
 1292 00de 40F20003 		movw	r3, #:lower16:CapSense_centroid
 1293 00e2 C0F20003 		movt	r3, #:upper16:CapSense_centroid
 1294 00e6 1A70     		strb	r2, [r3, #0]
 1295 00e8 06E0     		b	.L63
 1296              	.L62:
1026:./Generated_Source/PSoC5/CapSense_CSHL.c ****     }
1027:./Generated_Source/PSoC5/CapSense_CSHL.c ****     else
1028:./Generated_Source/PSoC5/CapSense_CSHL.c ****     {
1029:./Generated_Source/PSoC5/CapSense_CSHL.c ****         CapSense_centroid[CapSense_POS_PREV] = 0u;
 1297              		.loc 1 1029 0
 1298 00ea 40F20003 		movw	r3, #:lower16:CapSense_centroid
 1299 00ee C0F20003 		movt	r3, #:upper16:CapSense_centroid
ARM GAS  C:\Users\CHARLI~1\AppData\Local\Temp\ccYu411o.s 			page 42


 1300 00f2 4FF00002 		mov	r2, #0
 1301 00f6 1A70     		strb	r2, [r3, #0]
 1302              	.L63:
1030:./Generated_Source/PSoC5/CapSense_CSHL.c ****     }
1031:./Generated_Source/PSoC5/CapSense_CSHL.c ****     
1032:./Generated_Source/PSoC5/CapSense_CSHL.c ****     /* Maximum always grater than fingerThreshold, so grate than noiseThreshold */
1033:./Generated_Source/PSoC5/CapSense_CSHL.c ****     CapSense_centroid[CapSense_POS] -= noiseThreshold;
 1303              		.loc 1 1033 0
 1304 00f8 40F20003 		movw	r3, #:lower16:CapSense_centroid
 1305 00fc C0F20003 		movt	r3, #:upper16:CapSense_centroid
 1306 0100 5A78     		ldrb	r2, [r3, #1]	@ zero_extendqisi2
 1307 0102 97F82030 		ldrb	r3, [r7, #32]
 1308 0106 C3EB0203 		rsb	r3, r3, r2
 1309 010a DAB2     		uxtb	r2, r3
 1310 010c 40F20003 		movw	r3, #:lower16:CapSense_centroid
 1311 0110 C0F20003 		movt	r3, #:upper16:CapSense_centroid
 1312 0114 5A70     		strb	r2, [r3, #1]
1034:./Generated_Source/PSoC5/CapSense_CSHL.c ****     
1035:./Generated_Source/PSoC5/CapSense_CSHL.c ****     /* Subtract noiseThreshold */
1036:./Generated_Source/PSoC5/CapSense_CSHL.c ****     if(CapSense_centroid[CapSense_POS_NEXT] > noiseThreshold)
 1313              		.loc 1 1036 0
 1314 0116 40F20003 		movw	r3, #:lower16:CapSense_centroid
 1315 011a C0F20003 		movt	r3, #:upper16:CapSense_centroid
 1316 011e 9B78     		ldrb	r3, [r3, #2]	@ zero_extendqisi2
 1317 0120 97F82020 		ldrb	r2, [r7, #32]	@ zero_extendqisi2
 1318 0124 9A42     		cmp	r2, r3
 1319 0126 0FD2     		bcs	.L64
1037:./Generated_Source/PSoC5/CapSense_CSHL.c ****     {
1038:./Generated_Source/PSoC5/CapSense_CSHL.c ****         CapSense_centroid[CapSense_POS_NEXT] -= noiseThreshold;
 1320              		.loc 1 1038 0
 1321 0128 40F20003 		movw	r3, #:lower16:CapSense_centroid
 1322 012c C0F20003 		movt	r3, #:upper16:CapSense_centroid
 1323 0130 9A78     		ldrb	r2, [r3, #2]	@ zero_extendqisi2
 1324 0132 97F82030 		ldrb	r3, [r7, #32]
 1325 0136 C3EB0203 		rsb	r3, r3, r2
 1326 013a DAB2     		uxtb	r2, r3
 1327 013c 40F20003 		movw	r3, #:lower16:CapSense_centroid
 1328 0140 C0F20003 		movt	r3, #:upper16:CapSense_centroid
 1329 0144 9A70     		strb	r2, [r3, #2]
 1330 0146 06E0     		b	.L65
 1331              	.L64:
1039:./Generated_Source/PSoC5/CapSense_CSHL.c ****     }
1040:./Generated_Source/PSoC5/CapSense_CSHL.c ****     else
1041:./Generated_Source/PSoC5/CapSense_CSHL.c ****     {
1042:./Generated_Source/PSoC5/CapSense_CSHL.c ****         CapSense_centroid[CapSense_POS_NEXT] = 0u;
 1332              		.loc 1 1042 0
 1333 0148 40F20003 		movw	r3, #:lower16:CapSense_centroid
 1334 014c C0F20003 		movt	r3, #:upper16:CapSense_centroid
 1335 0150 4FF00002 		mov	r2, #0
 1336 0154 9A70     		strb	r2, [r3, #2]
 1337              	.L65:
1043:./Generated_Source/PSoC5/CapSense_CSHL.c ****     }
1044:./Generated_Source/PSoC5/CapSense_CSHL.c ****     
1045:./Generated_Source/PSoC5/CapSense_CSHL.c ****     
1046:./Generated_Source/PSoC5/CapSense_CSHL.c ****     /* Si+1 - Si-1 */
1047:./Generated_Source/PSoC5/CapSense_CSHL.c ****     numerator = (int32) CapSense_centroid[CapSense_POS_NEXT] - 
 1338              		.loc 1 1047 0
ARM GAS  C:\Users\CHARLI~1\AppData\Local\Temp\ccYu411o.s 			page 43


 1339 0156 40F20003 		movw	r3, #:lower16:CapSense_centroid
 1340 015a C0F20003 		movt	r3, #:upper16:CapSense_centroid
 1341 015e 9B78     		ldrb	r3, [r3, #2]	@ zero_extendqisi2
 1342 0160 1A46     		mov	r2, r3
1048:./Generated_Source/PSoC5/CapSense_CSHL.c ****                 (int32) CapSense_centroid[CapSense_POS_PREV];
 1343              		.loc 1 1048 0
 1344 0162 40F20003 		movw	r3, #:lower16:CapSense_centroid
 1345 0166 C0F20003 		movt	r3, #:upper16:CapSense_centroid
 1346 016a 1B78     		ldrb	r3, [r3, #0]	@ zero_extendqisi2
 1347              		.loc 1 1047 0
 1348 016c C3EB0203 		rsb	r3, r3, r2
 1349 0170 FB60     		str	r3, [r7, #12]
1049:./Generated_Source/PSoC5/CapSense_CSHL.c ****     
1050:./Generated_Source/PSoC5/CapSense_CSHL.c ****     /* Si+1 + Si + Si-1 */
1051:./Generated_Source/PSoC5/CapSense_CSHL.c ****     denominator = (int32) CapSense_centroid[CapSense_POS_PREV] + 
 1350              		.loc 1 1051 0
 1351 0172 40F20003 		movw	r3, #:lower16:CapSense_centroid
 1352 0176 C0F20003 		movt	r3, #:upper16:CapSense_centroid
 1353 017a 1B78     		ldrb	r3, [r3, #0]	@ zero_extendqisi2
1052:./Generated_Source/PSoC5/CapSense_CSHL.c ****                   (int32) CapSense_centroid[CapSense_POS] + 
 1354              		.loc 1 1052 0
 1355 017c 1A46     		mov	r2, r3
 1356 017e 40F20003 		movw	r3, #:lower16:CapSense_centroid
 1357 0182 C0F20003 		movt	r3, #:upper16:CapSense_centroid
 1358 0186 5B78     		ldrb	r3, [r3, #1]	@ zero_extendqisi2
 1359 0188 1A44     		add	r2, r2, r3
1053:./Generated_Source/PSoC5/CapSense_CSHL.c ****                   (int32) CapSense_centroid[CapSense_POS_NEXT];
 1360              		.loc 1 1053 0
 1361 018a 40F20003 		movw	r3, #:lower16:CapSense_centroid
 1362 018e C0F20003 		movt	r3, #:upper16:CapSense_centroid
 1363 0192 9B78     		ldrb	r3, [r3, #2]	@ zero_extendqisi2
 1364              		.loc 1 1051 0
 1365 0194 1344     		add	r3, r2, r3
 1366 0196 3B61     		str	r3, [r7, #16]
1054:./Generated_Source/PSoC5/CapSense_CSHL.c ****     
1055:./Generated_Source/PSoC5/CapSense_CSHL.c ****     /* (numerator/denominator) + maximum */
1056:./Generated_Source/PSoC5/CapSense_CSHL.c ****     denominator = (numerator << 8u)/denominator + ((uint16) maximum << 8u);
 1367              		.loc 1 1056 0
 1368 0198 FB68     		ldr	r3, [r7, #12]
 1369 019a 4FEA0322 		lsl	r2, r3, #8
 1370 019e 3B69     		ldr	r3, [r7, #16]
 1371 01a0 92FBF3F2 		sdiv	r2, r2, r3
 1372 01a4 FB79     		ldrb	r3, [r7, #7]	@ zero_extendqisi2
 1373 01a6 4FEA0323 		lsl	r3, r3, #8
 1374 01aa 1344     		add	r3, r2, r3
 1375 01ac 3B61     		str	r3, [r7, #16]
1057:./Generated_Source/PSoC5/CapSense_CSHL.c ****     
1058:./Generated_Source/PSoC5/CapSense_CSHL.c ****     /* Only required for RADIAL Slider */
1059:./Generated_Source/PSoC5/CapSense_CSHL.c ****     if(denominator < 0)
 1376              		.loc 1 1059 0
 1377 01ae 3B69     		ldr	r3, [r7, #16]
 1378 01b0 002B     		cmp	r3, #0
 1379 01b2 05DA     		bge	.L66
1060:./Generated_Source/PSoC5/CapSense_CSHL.c ****     {
1061:./Generated_Source/PSoC5/CapSense_CSHL.c ****         denominator += ((uint16) count << 8u);
 1380              		.loc 1 1061 0
 1381 01b4 7B79     		ldrb	r3, [r7, #5]	@ zero_extendqisi2
ARM GAS  C:\Users\CHARLI~1\AppData\Local\Temp\ccYu411o.s 			page 44


 1382 01b6 4FEA0323 		lsl	r3, r3, #8
 1383 01ba 3A69     		ldr	r2, [r7, #16]
 1384 01bc 1344     		add	r3, r2, r3
 1385 01be 3B61     		str	r3, [r7, #16]
 1386              	.L66:
1062:./Generated_Source/PSoC5/CapSense_CSHL.c ****     }
1063:./Generated_Source/PSoC5/CapSense_CSHL.c ****     
1064:./Generated_Source/PSoC5/CapSense_CSHL.c ****     denominator *= resolution;
 1387              		.loc 1 1064 0
 1388 01c0 7A88     		ldrh	r2, [r7, #2]
 1389 01c2 3B69     		ldr	r3, [r7, #16]
 1390 01c4 02FB03F3 		mul	r3, r2, r3
 1391 01c8 3B61     		str	r3, [r7, #16]
1065:./Generated_Source/PSoC5/CapSense_CSHL.c ****     
1066:./Generated_Source/PSoC5/CapSense_CSHL.c ****     /* Round the relust and put it to uint8 */
1067:./Generated_Source/PSoC5/CapSense_CSHL.c ****     position = ((uint8) HI16(denominator + 0x7F00u));
 1392              		.loc 1 1067 0
 1393 01ca 3B69     		ldr	r3, [r7, #16]
 1394 01cc 03F5FE43 		add	r3, r3, #32512
 1395 01d0 4FEA1343 		lsr	r3, r3, #16
 1396 01d4 FB72     		strb	r3, [r7, #11]
1068:./Generated_Source/PSoC5/CapSense_CSHL.c ****     
1069:./Generated_Source/PSoC5/CapSense_CSHL.c ****     return position;
 1397              		.loc 1 1069 0
 1398 01d6 FB7A     		ldrb	r3, [r7, #11]	@ zero_extendqisi2
1070:./Generated_Source/PSoC5/CapSense_CSHL.c **** }
 1399              		.loc 1 1070 0
 1400 01d8 1846     		mov	r0, r3
 1401 01da 07F11C07 		add	r7, r7, #28
 1402 01de BD46     		mov	sp, r7
 1403 01e0 80BC     		pop	{r7}
 1404 01e2 7047     		bx	lr
 1405              		.cfi_endproc
 1406              	.LFE11:
 1407              		.size	CapSense_CalcCentroid, .-CapSense_CalcCentroid
 1408              		.section	.text.CapSense_GetCentroidPos,"ax",%progbits
 1409              		.align	2
 1410              		.global	CapSense_GetCentroidPos
 1411              		.thumb
 1412              		.thumb_func
 1413              		.type	CapSense_GetCentroidPos, %function
 1414              	CapSense_GetCentroidPos:
 1415              	.LFB12:
1071:./Generated_Source/PSoC5/CapSense_CSHL.c **** 
1072:./Generated_Source/PSoC5/CapSense_CSHL.c **** 
1073:./Generated_Source/PSoC5/CapSense_CSHL.c **** 
1074:./Generated_Source/PSoC5/CapSense_CSHL.c **** 
1075:./Generated_Source/PSoC5/CapSense_CSHL.c **** /*******************************************************************************
1076:./Generated_Source/PSoC5/CapSense_CSHL.c **** * Function Name: CapSense_GetCentroidPos
1077:./Generated_Source/PSoC5/CapSense_CSHL.c **** ********************************************************************************
1078:./Generated_Source/PSoC5/CapSense_CSHL.c **** *
1079:./Generated_Source/PSoC5/CapSense_CSHL.c **** * Summary:
1080:./Generated_Source/PSoC5/CapSense_CSHL.c **** *  Checks the CapSense_Signal[ ] array for a centroid within
1081:./Generated_Source/PSoC5/CapSense_CSHL.c **** *  slider specified range. The centroid position is calculated to the resolution
1082:./Generated_Source/PSoC5/CapSense_CSHL.c **** *  specified in the CapSense customizer. The position filters are applied to the
1083:./Generated_Source/PSoC5/CapSense_CSHL.c **** *  result if enabled.
1084:./Generated_Source/PSoC5/CapSense_CSHL.c **** *
ARM GAS  C:\Users\CHARLI~1\AppData\Local\Temp\ccYu411o.s 			page 45


1085:./Generated_Source/PSoC5/CapSense_CSHL.c **** * Parameters:
1086:./Generated_Source/PSoC5/CapSense_CSHL.c **** *  widget:  Widget number.
1087:./Generated_Source/PSoC5/CapSense_CSHL.c **** *  For every linear slider widget there are defines in this format:
1088:./Generated_Source/PSoC5/CapSense_CSHL.c **** *  #define CapSense_LS__"widget_name"            5
1089:./Generated_Source/PSoC5/CapSense_CSHL.c **** * 
1090:./Generated_Source/PSoC5/CapSense_CSHL.c **** * Return:
1091:./Generated_Source/PSoC5/CapSense_CSHL.c **** *  Returns position value of the linear slider.
1092:./Generated_Source/PSoC5/CapSense_CSHL.c **** *
1093:./Generated_Source/PSoC5/CapSense_CSHL.c **** * Side Effects:
1094:./Generated_Source/PSoC5/CapSense_CSHL.c **** *  If any sensor within the slider widget is active, the function returns values
1095:./Generated_Source/PSoC5/CapSense_CSHL.c **** *  from zero to the API resolution value set in the CapSense customizer. If no
1096:./Generated_Source/PSoC5/CapSense_CSHL.c **** *  sensors are active, the function returns 0xFFFF. If an error occurs during
1097:./Generated_Source/PSoC5/CapSense_CSHL.c **** *  execution of the centroid/diplexing algorithm, the function returns 0xFFFF.
1098:./Generated_Source/PSoC5/CapSense_CSHL.c **** *  There are no checks of widget type argument provided to this function.
1099:./Generated_Source/PSoC5/CapSense_CSHL.c **** *  The unproper widget type provided will cause unexpected position calculations.
1100:./Generated_Source/PSoC5/CapSense_CSHL.c **** *
1101:./Generated_Source/PSoC5/CapSense_CSHL.c **** * Note:
1102:./Generated_Source/PSoC5/CapSense_CSHL.c **** *  If noise counts on the slider segments are greater than the noise
1103:./Generated_Source/PSoC5/CapSense_CSHL.c **** *  threshold, this subroutine may generate a false centroid result. The noise
1104:./Generated_Source/PSoC5/CapSense_CSHL.c **** *  threshold should be set carefully (high enough above the noise level) so
1105:./Generated_Source/PSoC5/CapSense_CSHL.c **** *  that noise will not generate a false centroid.
1106:./Generated_Source/PSoC5/CapSense_CSHL.c **** *
1107:./Generated_Source/PSoC5/CapSense_CSHL.c **** *
1108:./Generated_Source/PSoC5/CapSense_CSHL.c **** * Reentrant:
1109:./Generated_Source/PSoC5/CapSense_CSHL.c **** *  No.
1110:./Generated_Source/PSoC5/CapSense_CSHL.c **** *
1111:./Generated_Source/PSoC5/CapSense_CSHL.c **** *******************************************************************************/
1112:./Generated_Source/PSoC5/CapSense_CSHL.c **** uint16 CapSense_GetCentroidPos(uint8 widget)
1113:./Generated_Source/PSoC5/CapSense_CSHL.c **** {
 1416              		.loc 1 1113 0
 1417              		.cfi_startproc
 1418              		@ args = 0, pretend = 0, frame = 16
 1419              		@ frame_needed = 1, uses_anonymous_args = 0
 1420 0000 80B5     		push	{r7, lr}
 1421              	.LCFI36:
 1422              		.cfi_def_cfa_offset 8
 1423 0002 86B0     		sub	sp, sp, #24
 1424              	.LCFI37:
 1425              		.cfi_def_cfa_offset 32
 1426 0004 02AF     		add	r7, sp, #8
 1427              		.cfi_offset 14, -4
 1428              		.cfi_offset 7, -8
 1429              	.LCFI38:
 1430              		.cfi_def_cfa 7, 24
 1431 0006 0346     		mov	r3, r0
 1432 0008 FB71     		strb	r3, [r7, #7]
1114:./Generated_Source/PSoC5/CapSense_CSHL.c ****     uint8 posIndex;
1115:./Generated_Source/PSoC5/CapSense_CSHL.c ****     uint8 firstTimeIndex = CapSense_posFiltersData[widget];
 1433              		.loc 1 1115 0
 1434 000a FA79     		ldrb	r2, [r7, #7]	@ zero_extendqisi2
 1435 000c 40F20003 		movw	r3, #:lower16:CapSense_posFiltersData
 1436 0010 C0F20003 		movt	r3, #:upper16:CapSense_posFiltersData
 1437 0014 9B5C     		ldrb	r3, [r3, r2]
 1438 0016 7B72     		strb	r3, [r7, #9]
1116:./Generated_Source/PSoC5/CapSense_CSHL.c ****     uint8 posFiltersMask = CapSense_posFiltersMask[widget];
 1439              		.loc 1 1116 0
 1440 0018 FA79     		ldrb	r2, [r7, #7]	@ zero_extendqisi2
ARM GAS  C:\Users\CHARLI~1\AppData\Local\Temp\ccYu411o.s 			page 46


 1441 001a 40F20003 		movw	r3, #:lower16:CapSense_posFiltersMask
 1442 001e C0F20003 		movt	r3, #:upper16:CapSense_posFiltersMask
 1443 0022 9B5C     		ldrb	r3, [r3, r2]
 1444 0024 BB72     		strb	r3, [r7, #10]
1117:./Generated_Source/PSoC5/CapSense_CSHL.c ****     uint8 maximum;
1118:./Generated_Source/PSoC5/CapSense_CSHL.c ****     uint16 position;
1119:./Generated_Source/PSoC5/CapSense_CSHL.c ****     uint8 offset = CapSense_rawDataIndex[widget];
 1445              		.loc 1 1119 0
 1446 0026 FA79     		ldrb	r2, [r7, #7]	@ zero_extendqisi2
 1447 0028 40F20003 		movw	r3, #:lower16:CapSense_rawDataIndex
 1448 002c C0F20003 		movt	r3, #:upper16:CapSense_rawDataIndex
 1449 0030 9B5C     		ldrb	r3, [r3, r2]
 1450 0032 BB73     		strb	r3, [r7, #14]
1120:./Generated_Source/PSoC5/CapSense_CSHL.c ****     uint8 count = CapSense_numberOfSensors[widget];
 1451              		.loc 1 1120 0
 1452 0034 FA79     		ldrb	r2, [r7, #7]	@ zero_extendqisi2
 1453 0036 40F20003 		movw	r3, #:lower16:CapSense_numberOfSensors
 1454 003a C0F20003 		movt	r3, #:upper16:CapSense_numberOfSensors
 1455 003e 9B5C     		ldrb	r3, [r3, r2]
 1456 0040 FB73     		strb	r3, [r7, #15]
1121:./Generated_Source/PSoC5/CapSense_CSHL.c ****     
1122:./Generated_Source/PSoC5/CapSense_CSHL.c ****     /* Find Maximum within centroid */
1123:./Generated_Source/PSoC5/CapSense_CSHL.c ****     maximum = CapSense_FindMaximum(offset, count, CapSense_fingerThreshold[widget]);
 1457              		.loc 1 1123 0
 1458 0042 FA79     		ldrb	r2, [r7, #7]	@ zero_extendqisi2
 1459 0044 40F20003 		movw	r3, #:lower16:CapSense_fingerThreshold
 1460 0048 C0F20003 		movt	r3, #:upper16:CapSense_fingerThreshold
 1461 004c 9B5C     		ldrb	r3, [r3, r2]	@ zero_extendqisi2
 1462 004e B97B     		ldrb	r1, [r7, #14]	@ zero_extendqisi2
 1463 0050 FA7B     		ldrb	r2, [r7, #15]	@ zero_extendqisi2
 1464 0052 0846     		mov	r0, r1
 1465 0054 1146     		mov	r1, r2
 1466 0056 1A46     		mov	r2, r3
 1467 0058 FFF7FEFF 		bl	CapSense_FindMaximum
 1468 005c 0346     		mov	r3, r0
 1469 005e FB72     		strb	r3, [r7, #11]
1124:./Generated_Source/PSoC5/CapSense_CSHL.c **** 
1125:./Generated_Source/PSoC5/CapSense_CSHL.c ****     if (maximum != 0xFFu)
 1470              		.loc 1 1125 0
 1471 0060 FB7A     		ldrb	r3, [r7, #11]	@ zero_extendqisi2
 1472 0062 FF2B     		cmp	r3, #255
 1473 0064 55D0     		beq	.L69
1126:./Generated_Source/PSoC5/CapSense_CSHL.c ****     {
1127:./Generated_Source/PSoC5/CapSense_CSHL.c ****         /* Calculate centroid */
1128:./Generated_Source/PSoC5/CapSense_CSHL.c ****         position = (uint16) CapSense_CalcCentroid(maximum, offset, count, CapSense_centroidMult[wid
 1474              		.loc 1 1128 0
 1475 0066 FA79     		ldrb	r2, [r7, #7]	@ zero_extendqisi2
 1476 0068 40F20003 		movw	r3, #:lower16:CapSense_centroidMult
 1477 006c C0F20003 		movt	r3, #:upper16:CapSense_centroidMult
 1478 0070 33F812C0 		ldrh	ip, [r3, r2, lsl #1]
 1479 0074 FA79     		ldrb	r2, [r7, #7]	@ zero_extendqisi2
 1480 0076 40F20003 		movw	r3, #:lower16:CapSense_noiseThreshold
 1481 007a C0F20003 		movt	r3, #:upper16:CapSense_noiseThreshold
 1482 007e 985C     		ldrb	r0, [r3, r2]	@ zero_extendqisi2
 1483 0080 F97A     		ldrb	r1, [r7, #11]	@ zero_extendqisi2
 1484 0082 BA7B     		ldrb	r2, [r7, #14]	@ zero_extendqisi2
 1485 0084 FB7B     		ldrb	r3, [r7, #15]	@ zero_extendqisi2
ARM GAS  C:\Users\CHARLI~1\AppData\Local\Temp\ccYu411o.s 			page 47


 1486 0086 0090     		str	r0, [sp, #0]
 1487 0088 0846     		mov	r0, r1
 1488 008a 1146     		mov	r1, r2
 1489 008c 1A46     		mov	r2, r3
 1490 008e 6346     		mov	r3, ip
 1491 0090 FFF7FEFF 		bl	CapSense_CalcCentroid
 1492 0094 0346     		mov	r3, r0
 1493 0096 BB81     		strh	r3, [r7, #12]	@ movhi
1129:./Generated_Source/PSoC5/CapSense_CSHL.c **** 
1130:./Generated_Source/PSoC5/CapSense_CSHL.c ****         /* Check if this linear slider has enabled filters */
1131:./Generated_Source/PSoC5/CapSense_CSHL.c ****         if ((posFiltersMask & CapSense_ANY_POS_FILTER) != 0u)
 1494              		.loc 1 1131 0
 1495 0098 BB7A     		ldrb	r3, [r7, #10]	@ zero_extendqisi2
 1496 009a 03F01F03 		and	r3, r3, #31
 1497 009e 002B     		cmp	r3, #0
 1498 00a0 48D0     		beq	.L74
1132:./Generated_Source/PSoC5/CapSense_CSHL.c ****         {
1133:./Generated_Source/PSoC5/CapSense_CSHL.c ****             /* Caluclate position to store filters data */
1134:./Generated_Source/PSoC5/CapSense_CSHL.c ****             posIndex  = firstTimeIndex + 1u;
 1499              		.loc 1 1134 0
 1500 00a2 7B7A     		ldrb	r3, [r7, #9]
 1501 00a4 03F10103 		add	r3, r3, #1
 1502 00a8 3B72     		strb	r3, [r7, #8]
1135:./Generated_Source/PSoC5/CapSense_CSHL.c ****             
1136:./Generated_Source/PSoC5/CapSense_CSHL.c ****             if (0u == CapSense_posFiltersData[firstTimeIndex])
 1503              		.loc 1 1136 0
 1504 00aa 7A7A     		ldrb	r2, [r7, #9]	@ zero_extendqisi2
 1505 00ac 40F20003 		movw	r3, #:lower16:CapSense_posFiltersData
 1506 00b0 C0F20003 		movt	r3, #:upper16:CapSense_posFiltersData
 1507 00b4 9B5C     		ldrb	r3, [r3, r2]	@ zero_extendqisi2
 1508 00b6 002B     		cmp	r3, #0
 1509 00b8 10D1     		bne	.L71
1137:./Generated_Source/PSoC5/CapSense_CSHL.c ****             {
1138:./Generated_Source/PSoC5/CapSense_CSHL.c ****                 /* Init filters */
1139:./Generated_Source/PSoC5/CapSense_CSHL.c ****                 CapSense_posFiltersData[posIndex] = (uint8) position;
 1510              		.loc 1 1139 0
 1511 00ba 3A7A     		ldrb	r2, [r7, #8]	@ zero_extendqisi2
 1512 00bc BB89     		ldrh	r3, [r7, #12]	@ movhi
 1513 00be D9B2     		uxtb	r1, r3
 1514 00c0 40F20003 		movw	r3, #:lower16:CapSense_posFiltersData
 1515 00c4 C0F20003 		movt	r3, #:upper16:CapSense_posFiltersData
 1516 00c8 9954     		strb	r1, [r3, r2]
1140:./Generated_Source/PSoC5/CapSense_CSHL.c ****                 
1141:./Generated_Source/PSoC5/CapSense_CSHL.c ****                 CapSense_posFiltersData[firstTimeIndex] = 1u;
 1517              		.loc 1 1141 0
 1518 00ca 7A7A     		ldrb	r2, [r7, #9]	@ zero_extendqisi2
 1519 00cc 40F20003 		movw	r3, #:lower16:CapSense_posFiltersData
 1520 00d0 C0F20003 		movt	r3, #:upper16:CapSense_posFiltersData
 1521 00d4 4FF00101 		mov	r1, #1
 1522 00d8 9954     		strb	r1, [r3, r2]
1142:./Generated_Source/PSoC5/CapSense_CSHL.c ****             }
1143:./Generated_Source/PSoC5/CapSense_CSHL.c ****             else
1144:./Generated_Source/PSoC5/CapSense_CSHL.c ****             {
1145:./Generated_Source/PSoC5/CapSense_CSHL.c ****                 /* Do filtering */
1146:./Generated_Source/PSoC5/CapSense_CSHL.c ****                 if ((posFiltersMask & CapSense_IIR4_FILTER) != 0u)
1147:./Generated_Source/PSoC5/CapSense_CSHL.c ****                 {
1148:./Generated_Source/PSoC5/CapSense_CSHL.c ****                     position = CapSense_IIR4Filter(position, CapSense_posFiltersData[posIndex]);
ARM GAS  C:\Users\CHARLI~1\AppData\Local\Temp\ccYu411o.s 			page 48


1149:./Generated_Source/PSoC5/CapSense_CSHL.c ****                     CapSense_posFiltersData[posIndex] = (uint8) position;
 1523              		.loc 1 1149 0
 1524 00da 2EE0     		b	.L72
 1525              	.L71:
 1526              		.loc 1 1146 0
 1527 00dc BB7A     		ldrb	r3, [r7, #10]	@ zero_extendqisi2
 1528 00de 03F00803 		and	r3, r3, #8
 1529 00e2 002B     		cmp	r3, #0
 1530 00e4 28D0     		beq	.L75
 1531              		.loc 1 1148 0
 1532 00e6 3A7A     		ldrb	r2, [r7, #8]	@ zero_extendqisi2
 1533 00e8 40F20003 		movw	r3, #:lower16:CapSense_posFiltersData
 1534 00ec C0F20003 		movt	r3, #:upper16:CapSense_posFiltersData
 1535 00f0 9B5C     		ldrb	r3, [r3, r2]	@ zero_extendqisi2
 1536 00f2 BA89     		ldrh	r2, [r7, #12]
 1537 00f4 1046     		mov	r0, r2
 1538 00f6 1946     		mov	r1, r3
 1539 00f8 FFF7FEFF 		bl	CapSense_IIR4Filter
 1540 00fc 0346     		mov	r3, r0
 1541 00fe BB81     		strh	r3, [r7, #12]	@ movhi
 1542              		.loc 1 1149 0
 1543 0100 3A7A     		ldrb	r2, [r7, #8]	@ zero_extendqisi2
 1544 0102 BB89     		ldrh	r3, [r7, #12]	@ movhi
 1545 0104 D9B2     		uxtb	r1, r3
 1546 0106 40F20003 		movw	r3, #:lower16:CapSense_posFiltersData
 1547 010a C0F20003 		movt	r3, #:upper16:CapSense_posFiltersData
 1548 010e 9954     		strb	r1, [r3, r2]
 1549 0110 13E0     		b	.L72
 1550              	.L69:
1150:./Generated_Source/PSoC5/CapSense_CSHL.c ****                 }
1151:./Generated_Source/PSoC5/CapSense_CSHL.c ****                 
1152:./Generated_Source/PSoC5/CapSense_CSHL.c ****             }
1153:./Generated_Source/PSoC5/CapSense_CSHL.c ****         }
1154:./Generated_Source/PSoC5/CapSense_CSHL.c ****     }
1155:./Generated_Source/PSoC5/CapSense_CSHL.c ****     else
1156:./Generated_Source/PSoC5/CapSense_CSHL.c ****     {
1157:./Generated_Source/PSoC5/CapSense_CSHL.c ****         /* The maximum didn't find */
1158:./Generated_Source/PSoC5/CapSense_CSHL.c ****         position = 0xFFFFu;
 1551              		.loc 1 1158 0
 1552 0112 4FF6FF73 		movw	r3, #65535
 1553 0116 BB81     		strh	r3, [r7, #12]	@ movhi
1159:./Generated_Source/PSoC5/CapSense_CSHL.c ****         
1160:./Generated_Source/PSoC5/CapSense_CSHL.c ****         /* Reset the filters */
1161:./Generated_Source/PSoC5/CapSense_CSHL.c ****         if((posFiltersMask & CapSense_ANY_POS_FILTER) != 0u)
 1554              		.loc 1 1161 0
 1555 0118 BB7A     		ldrb	r3, [r7, #10]	@ zero_extendqisi2
 1556 011a 03F01F03 		and	r3, r3, #31
 1557 011e 002B     		cmp	r3, #0
 1558 0120 0BD0     		beq	.L72
1162:./Generated_Source/PSoC5/CapSense_CSHL.c ****         {
1163:./Generated_Source/PSoC5/CapSense_CSHL.c ****             CapSense_posFiltersData[firstTimeIndex] = 0u;
 1559              		.loc 1 1163 0
 1560 0122 7A7A     		ldrb	r2, [r7, #9]	@ zero_extendqisi2
 1561 0124 40F20003 		movw	r3, #:lower16:CapSense_posFiltersData
 1562 0128 C0F20003 		movt	r3, #:upper16:CapSense_posFiltersData
 1563 012c 4FF00001 		mov	r1, #0
 1564 0130 9954     		strb	r1, [r3, r2]
ARM GAS  C:\Users\CHARLI~1\AppData\Local\Temp\ccYu411o.s 			page 49


 1565 0132 02E0     		b	.L72
 1566              	.L74:
 1567              		.loc 1 1149 0
 1568 0134 00BF     		nop
 1569 0136 00E0     		b	.L72
 1570              	.L75:
 1571 0138 00BF     		nop
 1572              	.L72:
1164:./Generated_Source/PSoC5/CapSense_CSHL.c ****         }
1165:./Generated_Source/PSoC5/CapSense_CSHL.c ****     }
1166:./Generated_Source/PSoC5/CapSense_CSHL.c ****     
1167:./Generated_Source/PSoC5/CapSense_CSHL.c ****     return position;
 1573              		.loc 1 1167 0
 1574 013a BB89     		ldrh	r3, [r7, #12]
1168:./Generated_Source/PSoC5/CapSense_CSHL.c **** }
 1575              		.loc 1 1168 0
 1576 013c 1846     		mov	r0, r3
 1577 013e 07F11007 		add	r7, r7, #16
 1578 0142 BD46     		mov	sp, r7
 1579 0144 80BD     		pop	{r7, pc}
 1580              		.cfi_endproc
 1581              	.LFE12:
 1582              		.size	CapSense_GetCentroidPos, .-CapSense_GetCentroidPos
 1583 0146 00BF     		.section	.text.CapSense_IIR4Filter,"ax",%progbits
 1584              		.align	2
 1585              		.global	CapSense_IIR4Filter
 1586              		.thumb
 1587              		.thumb_func
 1588              		.type	CapSense_IIR4Filter, %function
 1589              	CapSense_IIR4Filter:
 1590              	.LFB13:
1169:./Generated_Source/PSoC5/CapSense_CSHL.c **** 
1170:./Generated_Source/PSoC5/CapSense_CSHL.c **** 
1171:./Generated_Source/PSoC5/CapSense_CSHL.c **** #if ( (CapSense_RAW_FILTER_MASK & CapSense_MEDIAN_FILTER) || \
1172:./Generated_Source/PSoC5/CapSense_CSHL.c ****       (CapSense_POS_FILTERS_MASK & CapSense_MEDIAN_FILTER) )
1173:./Generated_Source/PSoC5/CapSense_CSHL.c ****     /*******************************************************************************
1174:./Generated_Source/PSoC5/CapSense_CSHL.c ****     * Function Name: CapSense_MedianFilter
1175:./Generated_Source/PSoC5/CapSense_CSHL.c ****     ********************************************************************************
1176:./Generated_Source/PSoC5/CapSense_CSHL.c ****     *
1177:./Generated_Source/PSoC5/CapSense_CSHL.c ****     * Summary:
1178:./Generated_Source/PSoC5/CapSense_CSHL.c ****     *  Median filter function. 
1179:./Generated_Source/PSoC5/CapSense_CSHL.c ****     *  The median filter looks at the three most recent samples and reports the 
1180:./Generated_Source/PSoC5/CapSense_CSHL.c ****     *  median value.
1181:./Generated_Source/PSoC5/CapSense_CSHL.c ****     *
1182:./Generated_Source/PSoC5/CapSense_CSHL.c ****     * Parameters:
1183:./Generated_Source/PSoC5/CapSense_CSHL.c ****     *  x1:  Current value.
1184:./Generated_Source/PSoC5/CapSense_CSHL.c ****     *  x2:  Previous value.
1185:./Generated_Source/PSoC5/CapSense_CSHL.c ****     *  x3:  Before previous value.
1186:./Generated_Source/PSoC5/CapSense_CSHL.c ****     *
1187:./Generated_Source/PSoC5/CapSense_CSHL.c ****     * Return:
1188:./Generated_Source/PSoC5/CapSense_CSHL.c ****     *  Returns filtered value.
1189:./Generated_Source/PSoC5/CapSense_CSHL.c ****     *
1190:./Generated_Source/PSoC5/CapSense_CSHL.c ****     *******************************************************************************/
1191:./Generated_Source/PSoC5/CapSense_CSHL.c ****     uint16 CapSense_MedianFilter(uint16 x1, uint16 x2, uint16 x3) \
1192:./Generated_Source/PSoC5/CapSense_CSHL.c ****                                          
1193:./Generated_Source/PSoC5/CapSense_CSHL.c ****     {
1194:./Generated_Source/PSoC5/CapSense_CSHL.c ****         uint16 tmp;
ARM GAS  C:\Users\CHARLI~1\AppData\Local\Temp\ccYu411o.s 			page 50


1195:./Generated_Source/PSoC5/CapSense_CSHL.c ****         
1196:./Generated_Source/PSoC5/CapSense_CSHL.c ****         if (x1 > x2)
1197:./Generated_Source/PSoC5/CapSense_CSHL.c ****         {
1198:./Generated_Source/PSoC5/CapSense_CSHL.c ****             tmp = x2;
1199:./Generated_Source/PSoC5/CapSense_CSHL.c ****             x2 = x1;
1200:./Generated_Source/PSoC5/CapSense_CSHL.c ****             x1 = tmp;
1201:./Generated_Source/PSoC5/CapSense_CSHL.c ****         }
1202:./Generated_Source/PSoC5/CapSense_CSHL.c ****         
1203:./Generated_Source/PSoC5/CapSense_CSHL.c ****         if (x2 > x3)
1204:./Generated_Source/PSoC5/CapSense_CSHL.c ****         {
1205:./Generated_Source/PSoC5/CapSense_CSHL.c ****             x2 = x3;
1206:./Generated_Source/PSoC5/CapSense_CSHL.c ****         }
1207:./Generated_Source/PSoC5/CapSense_CSHL.c ****         
1208:./Generated_Source/PSoC5/CapSense_CSHL.c ****         return ((x1 > x2) ? x1 : x2);
1209:./Generated_Source/PSoC5/CapSense_CSHL.c ****     }
1210:./Generated_Source/PSoC5/CapSense_CSHL.c **** #endif /* End CapSense_RAW_FILTER_MASK && CapSense_POS_FILTERS_MASK */
1211:./Generated_Source/PSoC5/CapSense_CSHL.c **** 
1212:./Generated_Source/PSoC5/CapSense_CSHL.c **** 
1213:./Generated_Source/PSoC5/CapSense_CSHL.c **** #if ( (CapSense_RAW_FILTER_MASK & CapSense_AVERAGING_FILTER) || \
1214:./Generated_Source/PSoC5/CapSense_CSHL.c ****       (CapSense_POS_FILTERS_MASK & CapSense_AVERAGING_FILTER) )
1215:./Generated_Source/PSoC5/CapSense_CSHL.c ****     /*******************************************************************************
1216:./Generated_Source/PSoC5/CapSense_CSHL.c ****     * Function Name: CapSense_AveragingFilter
1217:./Generated_Source/PSoC5/CapSense_CSHL.c ****     ********************************************************************************
1218:./Generated_Source/PSoC5/CapSense_CSHL.c ****     *
1219:./Generated_Source/PSoC5/CapSense_CSHL.c ****     * Summary:
1220:./Generated_Source/PSoC5/CapSense_CSHL.c ****     *  Averaging filter function.
1221:./Generated_Source/PSoC5/CapSense_CSHL.c ****     *  The averaging filter looks at the three most recent samples of position and
1222:./Generated_Source/PSoC5/CapSense_CSHL.c ****     *  reports the averaging value.
1223:./Generated_Source/PSoC5/CapSense_CSHL.c ****     *
1224:./Generated_Source/PSoC5/CapSense_CSHL.c ****     * Parameters:
1225:./Generated_Source/PSoC5/CapSense_CSHL.c ****     *  x1:  Current value.
1226:./Generated_Source/PSoC5/CapSense_CSHL.c ****     *  x2:  Previous value.
1227:./Generated_Source/PSoC5/CapSense_CSHL.c ****     *  x3:  Before previous value.
1228:./Generated_Source/PSoC5/CapSense_CSHL.c ****     *
1229:./Generated_Source/PSoC5/CapSense_CSHL.c ****     * Return:
1230:./Generated_Source/PSoC5/CapSense_CSHL.c ****     *  Returns filtered value.
1231:./Generated_Source/PSoC5/CapSense_CSHL.c ****     *
1232:./Generated_Source/PSoC5/CapSense_CSHL.c ****     *******************************************************************************/
1233:./Generated_Source/PSoC5/CapSense_CSHL.c ****     uint16 CapSense_AveragingFilter(uint16 x1, uint16 x2, uint16 x3) \
1234:./Generated_Source/PSoC5/CapSense_CSHL.c ****                                             
1235:./Generated_Source/PSoC5/CapSense_CSHL.c ****     {
1236:./Generated_Source/PSoC5/CapSense_CSHL.c ****         uint32 tmp = ((uint32)x1 + (uint32)x2 + (uint32)x3) / 3u;
1237:./Generated_Source/PSoC5/CapSense_CSHL.c ****         
1238:./Generated_Source/PSoC5/CapSense_CSHL.c ****         return ((uint16) tmp);
1239:./Generated_Source/PSoC5/CapSense_CSHL.c ****     }
1240:./Generated_Source/PSoC5/CapSense_CSHL.c **** #endif /* End CapSense_RAW_FILTER_MASK && CapSense_POS_FILTERS_MASK */
1241:./Generated_Source/PSoC5/CapSense_CSHL.c **** 
1242:./Generated_Source/PSoC5/CapSense_CSHL.c **** 
1243:./Generated_Source/PSoC5/CapSense_CSHL.c **** #if ( (CapSense_RAW_FILTER_MASK & CapSense_IIR2_FILTER) || \
1244:./Generated_Source/PSoC5/CapSense_CSHL.c ****       (CapSense_POS_FILTERS_MASK & CapSense_IIR2_FILTER) )
1245:./Generated_Source/PSoC5/CapSense_CSHL.c ****     /*******************************************************************************
1246:./Generated_Source/PSoC5/CapSense_CSHL.c ****     * Function Name: CapSense_IIR2Filter
1247:./Generated_Source/PSoC5/CapSense_CSHL.c ****     ********************************************************************************
1248:./Generated_Source/PSoC5/CapSense_CSHL.c ****     *
1249:./Generated_Source/PSoC5/CapSense_CSHL.c ****     * Summary:
1250:./Generated_Source/PSoC5/CapSense_CSHL.c ****     *  IIR1/2 filter function. IIR1/2 = 1/2current + 1/2previous.
1251:./Generated_Source/PSoC5/CapSense_CSHL.c ****     *
ARM GAS  C:\Users\CHARLI~1\AppData\Local\Temp\ccYu411o.s 			page 51


1252:./Generated_Source/PSoC5/CapSense_CSHL.c ****     * Parameters:
1253:./Generated_Source/PSoC5/CapSense_CSHL.c ****     *  x1:  Current value.
1254:./Generated_Source/PSoC5/CapSense_CSHL.c ****     *  x2:  Previous value.
1255:./Generated_Source/PSoC5/CapSense_CSHL.c ****     *
1256:./Generated_Source/PSoC5/CapSense_CSHL.c ****     * Return:
1257:./Generated_Source/PSoC5/CapSense_CSHL.c ****     *  Returns filtered value.
1258:./Generated_Source/PSoC5/CapSense_CSHL.c ****     *
1259:./Generated_Source/PSoC5/CapSense_CSHL.c ****     *******************************************************************************/
1260:./Generated_Source/PSoC5/CapSense_CSHL.c ****     uint16 CapSense_IIR2Filter(uint16 x1, uint16 x2) \
1261:./Generated_Source/PSoC5/CapSense_CSHL.c ****                                        
1262:./Generated_Source/PSoC5/CapSense_CSHL.c ****     {
1263:./Generated_Source/PSoC5/CapSense_CSHL.c ****         uint32 tmp;
1264:./Generated_Source/PSoC5/CapSense_CSHL.c ****         
1265:./Generated_Source/PSoC5/CapSense_CSHL.c ****         /* IIR = 1/2 Current Value+ 1/2 Previous Value */
1266:./Generated_Source/PSoC5/CapSense_CSHL.c ****         tmp = (uint32)x1 + (uint32)x2;
1267:./Generated_Source/PSoC5/CapSense_CSHL.c ****         tmp >>= 1u;
1268:./Generated_Source/PSoC5/CapSense_CSHL.c ****     
1269:./Generated_Source/PSoC5/CapSense_CSHL.c ****         return ((uint16) tmp);
1270:./Generated_Source/PSoC5/CapSense_CSHL.c ****     }
1271:./Generated_Source/PSoC5/CapSense_CSHL.c **** #endif /* End CapSense_RAW_FILTER_MASK && CapSense_POS_FILTERS_MASK */
1272:./Generated_Source/PSoC5/CapSense_CSHL.c **** 
1273:./Generated_Source/PSoC5/CapSense_CSHL.c **** 
1274:./Generated_Source/PSoC5/CapSense_CSHL.c **** #if ( (CapSense_RAW_FILTER_MASK & CapSense_IIR4_FILTER) || \
1275:./Generated_Source/PSoC5/CapSense_CSHL.c ****       (CapSense_POS_FILTERS_MASK & CapSense_IIR4_FILTER) )
1276:./Generated_Source/PSoC5/CapSense_CSHL.c ****     /*******************************************************************************
1277:./Generated_Source/PSoC5/CapSense_CSHL.c ****     * Function Name: CapSense_IIR4Filter
1278:./Generated_Source/PSoC5/CapSense_CSHL.c ****     ********************************************************************************
1279:./Generated_Source/PSoC5/CapSense_CSHL.c ****     *
1280:./Generated_Source/PSoC5/CapSense_CSHL.c ****     * Summary:
1281:./Generated_Source/PSoC5/CapSense_CSHL.c ****     *  IIR1/4 filter function. IIR1/4 = 1/4current + 3/4previous.
1282:./Generated_Source/PSoC5/CapSense_CSHL.c ****     *
1283:./Generated_Source/PSoC5/CapSense_CSHL.c ****     * Parameters:
1284:./Generated_Source/PSoC5/CapSense_CSHL.c ****     *  x1:  Current value.
1285:./Generated_Source/PSoC5/CapSense_CSHL.c ****     *  x2:  Previous value.
1286:./Generated_Source/PSoC5/CapSense_CSHL.c ****     *
1287:./Generated_Source/PSoC5/CapSense_CSHL.c ****     * Return:
1288:./Generated_Source/PSoC5/CapSense_CSHL.c ****     *  Returns filtered value.
1289:./Generated_Source/PSoC5/CapSense_CSHL.c ****     *
1290:./Generated_Source/PSoC5/CapSense_CSHL.c ****     *******************************************************************************/
1291:./Generated_Source/PSoC5/CapSense_CSHL.c ****     uint16 CapSense_IIR4Filter(uint16 x1, uint16 x2) \
1292:./Generated_Source/PSoC5/CapSense_CSHL.c ****                                        
1293:./Generated_Source/PSoC5/CapSense_CSHL.c ****     {
 1591              		.loc 1 1293 0
 1592              		.cfi_startproc
 1593              		@ args = 0, pretend = 0, frame = 16
 1594              		@ frame_needed = 1, uses_anonymous_args = 0
 1595              		@ link register save eliminated.
 1596 0000 80B4     		push	{r7}
 1597              	.LCFI39:
 1598              		.cfi_def_cfa_offset 4
 1599 0002 85B0     		sub	sp, sp, #20
 1600              	.LCFI40:
 1601              		.cfi_def_cfa_offset 24
 1602 0004 00AF     		add	r7, sp, #0
 1603              		.cfi_offset 7, -4
 1604              	.LCFI41:
 1605              		.cfi_def_cfa_register 7
ARM GAS  C:\Users\CHARLI~1\AppData\Local\Temp\ccYu411o.s 			page 52


 1606 0006 0246     		mov	r2, r0
 1607 0008 0B46     		mov	r3, r1
 1608 000a FA80     		strh	r2, [r7, #6]	@ movhi
 1609 000c BB80     		strh	r3, [r7, #4]	@ movhi
1294:./Generated_Source/PSoC5/CapSense_CSHL.c ****         uint32 tmp;
1295:./Generated_Source/PSoC5/CapSense_CSHL.c ****         
1296:./Generated_Source/PSoC5/CapSense_CSHL.c ****         /* IIR = 1/4 Current Value + 3/4 Previous Value */
1297:./Generated_Source/PSoC5/CapSense_CSHL.c ****         tmp = (uint32)x1 + (uint32)x2;
 1610              		.loc 1 1297 0
 1611 000e FA88     		ldrh	r2, [r7, #6]
 1612 0010 BB88     		ldrh	r3, [r7, #4]
 1613 0012 1344     		add	r3, r2, r3
 1614 0014 FB60     		str	r3, [r7, #12]
1298:./Generated_Source/PSoC5/CapSense_CSHL.c ****         tmp += ((uint32)x2 << 1u);
 1615              		.loc 1 1298 0
 1616 0016 BB88     		ldrh	r3, [r7, #4]
 1617 0018 4FEA4303 		lsl	r3, r3, #1
 1618 001c FA68     		ldr	r2, [r7, #12]
 1619 001e 1344     		add	r3, r2, r3
 1620 0020 FB60     		str	r3, [r7, #12]
1299:./Generated_Source/PSoC5/CapSense_CSHL.c ****         tmp >>= 2u;
 1621              		.loc 1 1299 0
 1622 0022 FB68     		ldr	r3, [r7, #12]
 1623 0024 4FEA9303 		lsr	r3, r3, #2
 1624 0028 FB60     		str	r3, [r7, #12]
1300:./Generated_Source/PSoC5/CapSense_CSHL.c ****         
1301:./Generated_Source/PSoC5/CapSense_CSHL.c ****         return ((uint16) tmp);
 1625              		.loc 1 1301 0
 1626 002a FB68     		ldr	r3, [r7, #12]
 1627 002c 9BB2     		uxth	r3, r3
1302:./Generated_Source/PSoC5/CapSense_CSHL.c ****     }
 1628              		.loc 1 1302 0
 1629 002e 1846     		mov	r0, r3
 1630 0030 07F11407 		add	r7, r7, #20
 1631 0034 BD46     		mov	sp, r7
 1632 0036 80BC     		pop	{r7}
 1633 0038 7047     		bx	lr
 1634              		.cfi_endproc
 1635              	.LFE13:
 1636              		.size	CapSense_IIR4Filter, .-CapSense_IIR4Filter
 1637 003a 00BF     		.text
 1638              	.Letext0: