ARM GAS  C:\Users\CHARLI~1\AppData\Local\Temp\ccYu411o.s 			page 1


   1              		.syntax unified
   2              		.cpu cortex-m3
   3              		.fpu softvfp
   4              		.eabi_attribute 20, 1
   5              		.eabi_attribute 21, 1
   6              		.eabi_attribute 23, 3
   7              		.eabi_attribute 24, 1
   8              		.eabi_attribute 25, 1
   9              		.eabi_attribute 26, 1
  10              		.eabi_attribute 30, 6
  11              		.eabi_attribute 18, 4
  12              		.thumb
  13              		.file	"CapSense_CSHL.c"
  14              		.section	.debug_abbrev,"",%progbits
  15              	.Ldebug_abbrev0:
  16              		.section	.debug_info,"",%progbits
  17              	.Ldebug_info0:
  18              		.section	.debug_line,"",%progbits
  19              	.Ldebug_line0:
  20 0000 0D020000 		.text
  20      02004C00 
  20      00000201 
  20      FB0E0D00 
  20      01010101 
  21              	.Ltext0:
  22              		.cfi_sections	.debug_frame
  23              		.comm	CapSense_rawFilterData1,14,4
  24              		.global	CapSense_SensorBaseline
  25              		.bss
  26              		.align	2
  27              		.type	CapSense_SensorBaseline, %object
  28              		.size	CapSense_SensorBaseline, 14
  29              	CapSense_SensorBaseline:
  30 0000 00000000 		.space	14
  30      00000000 
  30      00000000 
  30      0000
  31              		.global	CapSense_SensorBaselineLow
  32 000e 0000     		.align	2
  33              		.type	CapSense_SensorBaselineLow, %object
  34              		.size	CapSense_SensorBaselineLow, 7
  35              	CapSense_SensorBaselineLow:
  36 0010 00000000 		.space	7
  36      000000
  37              		.global	CapSense_SensorSignal
  38 0017 00       		.align	2
  39              		.type	CapSense_SensorSignal, %object
  40              		.size	CapSense_SensorSignal, 7
  41              	CapSense_SensorSignal:
  42 0018 00000000 		.space	7
  42      000000
  43              		.global	CapSense_SensorOnMask
  44 001f 00       		.align	2
  45              		.type	CapSense_SensorOnMask, %object
  46              		.size	CapSense_SensorOnMask, 1
  47              	CapSense_SensorOnMask:
  48 0020 00       		.space	1
ARM GAS  C:\Users\CHARLI~1\AppData\Local\Temp\ccYu411o.s 			page 2


  49 0021 000000   		.align	2
  50              	CapSense_centroid:
  51 0024 000000   		.space	3
  52              		.global	CapSense_fingerThreshold
  53              		.data
  54              		.align	2
  55              		.type	CapSense_fingerThreshold, %object
  56              		.size	CapSense_fingerThreshold, 3
  57              	CapSense_fingerThreshold:
  58 0000 64       		.byte	100
  59 0001 64       		.byte	100
  60 0002 64       		.byte	100
  61              		.global	CapSense_noiseThreshold
  62 0003 00       		.align	2
  63              		.type	CapSense_noiseThreshold, %object
  64              		.size	CapSense_noiseThreshold, 3
  65              	CapSense_noiseThreshold:
  66 0004 14       		.byte	20
  67 0005 14       		.byte	20
  68 0006 14       		.byte	20
  69              		.global	CapSense_hysteresis
  70 0007 00       		.align	2
  71              		.type	CapSense_hysteresis, %object
  72              		.size	CapSense_hysteresis, 3
  73              	CapSense_hysteresis:
  74 0008 00       		.byte	0
  75 0009 0A       		.byte	10
  76 000a 0A       		.byte	10
  77              		.global	CapSense_debounce
  78 000b 00       		.align	2
  79              		.type	CapSense_debounce, %object
  80              		.size	CapSense_debounce, 3
  81              	CapSense_debounce:
  82 000c 00       		.byte	0
  83 000d 05       		.byte	5
  84 000e 05       		.byte	5
  85              		.global	CapSense_debounceCounter
  86              		.bss
  87 0027 00       		.align	2
  88              		.type	CapSense_debounceCounter, %object
  89              		.size	CapSense_debounceCounter, 3
  90              	CapSense_debounceCounter:
  91 0028 000000   		.space	3
  92              		.global	CapSense_rawDataIndex
  93 002b 00       		.section	.rodata
  94              		.align	2
  95              		.type	CapSense_rawDataIndex, %object
  96              		.size	CapSense_rawDataIndex, 3
  97              	CapSense_rawDataIndex:
  98 0000 02       		.byte	2
  99 0001 00       		.byte	0
 100 0002 01       		.byte	1
 101              		.global	CapSense_numberOfSensors
 102 0003 00       		.align	2
 103              		.type	CapSense_numberOfSensors, %object
 104              		.size	CapSense_numberOfSensors, 3
 105              	CapSense_numberOfSensors:
ARM GAS  C:\Users\CHARLI~1\AppData\Local\Temp\ccYu411o.s 			page 3


 106 0004 05       		.byte	5
 107 0005 01       		.byte	1
 108 0006 01       		.byte	1
 109              		.global	CapSense_centroidMult
 110 0007 00       		.align	2
 111              		.type	CapSense_centroidMult, %object
 112              		.size	CapSense_centroidMult, 2
 113              	CapSense_centroidMult:
 114 0008 0019     		.short	6400
 115              		.global	CapSense_posFiltersMask
 116 000a 0000     		.align	2
 117              		.type	CapSense_posFiltersMask, %object
 118              		.size	CapSense_posFiltersMask, 1
 119              	CapSense_posFiltersMask:
 120 000c 08       		.byte	8
 121              		.global	CapSense_posFiltersData
 122 000d 000000   		.data
 123 000f 00       		.align	2
 124              		.type	CapSense_posFiltersData, %object
 125              		.size	CapSense_posFiltersData, 3
 126              	CapSense_posFiltersData:
 127 0010 01       		.byte	1
 128 0011 00       		.byte	0
 129 0012 00       		.byte	0
 130 0013 00       		.section	.text.CapSense_BaseInit,"ax",%progbits
 131              		.align	2
 132              		.global	CapSense_BaseInit
 133              		.thumb
 134              		.thumb_func
 135              		.type	CapSense_BaseInit, %function
 136              	CapSense_BaseInit:
 137              	.LFB0:
 138              		.file 1 "./Generated_Source/PSoC5/CapSense_CSHL.c"
   1:./Generated_Source/PSoC5/CapSense_CSHL.c **** /*******************************************************************************
   2:./Generated_Source/PSoC5/CapSense_CSHL.c **** * File Name: CapSense_CSHL.c
   3:./Generated_Source/PSoC5/CapSense_CSHL.c **** * Version 2.10
   4:./Generated_Source/PSoC5/CapSense_CSHL.c **** *
   5:./Generated_Source/PSoC5/CapSense_CSHL.c **** * Description:
   6:./Generated_Source/PSoC5/CapSense_CSHL.c **** *  This file provides the source code to the High Level APIs for the CapSesne
   7:./Generated_Source/PSoC5/CapSense_CSHL.c **** *  CSD component.
   8:./Generated_Source/PSoC5/CapSense_CSHL.c **** *
   9:./Generated_Source/PSoC5/CapSense_CSHL.c **** * Note:
  10:./Generated_Source/PSoC5/CapSense_CSHL.c **** *
  11:./Generated_Source/PSoC5/CapSense_CSHL.c **** ********************************************************************************
  12:./Generated_Source/PSoC5/CapSense_CSHL.c **** * Copyright 2008-2010, Cypress Semiconductor Corporation.  All rights reserved.
  13:./Generated_Source/PSoC5/CapSense_CSHL.c **** * You may use this file only in accordance with the license, terms, conditions,
  14:./Generated_Source/PSoC5/CapSense_CSHL.c **** * disclaimers, and limitations in the end user license agreement accompanying
  15:./Generated_Source/PSoC5/CapSense_CSHL.c **** * the software package with which this file was provided.
  16:./Generated_Source/PSoC5/CapSense_CSHL.c **** *******************************************************************************/
  17:./Generated_Source/PSoC5/CapSense_CSHL.c **** 
  18:./Generated_Source/PSoC5/CapSense_CSHL.c **** #include "CapSense_CSHL.h"
  19:./Generated_Source/PSoC5/CapSense_CSHL.c **** 
  20:./Generated_Source/PSoC5/CapSense_CSHL.c **** /* SmartSense functions */
  21:./Generated_Source/PSoC5/CapSense_CSHL.c **** #if (CapSense_TUNING_METHOD == CapSense_AUTO_TUNING)
  22:./Generated_Source/PSoC5/CapSense_CSHL.c ****     extern void CapSense_CalculateThresholds(uint8 SensorNumber);
  23:./Generated_Source/PSoC5/CapSense_CSHL.c **** #endif /* End (CapSense_TUNING_METHOD == CapSense_AUTO_TUNING) */
  24:./Generated_Source/PSoC5/CapSense_CSHL.c **** 
ARM GAS  C:\Users\CHARLI~1\AppData\Local\Temp\ccYu411o.s 			page 4


  25:./Generated_Source/PSoC5/CapSense_CSHL.c **** /* Median filter function prototype */
  26:./Generated_Source/PSoC5/CapSense_CSHL.c **** #if ( (CapSense_RAW_FILTER_MASK & CapSense_MEDIAN_FILTER) || \
  27:./Generated_Source/PSoC5/CapSense_CSHL.c ****       (CapSense_POS_FILTERS_MASK & CapSense_MEDIAN_FILTER) )
  28:./Generated_Source/PSoC5/CapSense_CSHL.c ****     uint16 CapSense_MedianFilter(uint16 x1, uint16 x2, uint16 x3) \
  29:./Generated_Source/PSoC5/CapSense_CSHL.c ****     ;
  30:./Generated_Source/PSoC5/CapSense_CSHL.c **** #endif /* End CapSense_RAW_FILTER_MASK && CapSense_POS_FILTERS_MASK */
  31:./Generated_Source/PSoC5/CapSense_CSHL.c **** 
  32:./Generated_Source/PSoC5/CapSense_CSHL.c **** /* Averaging filter function prototype */
  33:./Generated_Source/PSoC5/CapSense_CSHL.c **** #if ( (CapSense_RAW_FILTER_MASK & CapSense_AVERAGING_FILTER) || \
  34:./Generated_Source/PSoC5/CapSense_CSHL.c ****       (CapSense_POS_FILTERS_MASK & CapSense_AVERAGING_FILTER) )
  35:./Generated_Source/PSoC5/CapSense_CSHL.c ****     uint16 CapSense_AveragingFilter(uint16 x1, uint16 x2, uint16 x3) \
  36:./Generated_Source/PSoC5/CapSense_CSHL.c ****     ;
  37:./Generated_Source/PSoC5/CapSense_CSHL.c **** #endif /* End CapSense_RAW_FILTER_MASK && CapSense_POS_FILTERS_MASK */
  38:./Generated_Source/PSoC5/CapSense_CSHL.c **** 
  39:./Generated_Source/PSoC5/CapSense_CSHL.c **** /* IIR2Filter(1/2prev + 1/2cur) filter function prototype */
  40:./Generated_Source/PSoC5/CapSense_CSHL.c **** #if ( (CapSense_RAW_FILTER_MASK & CapSense_IIR2_FILTER) || \
  41:./Generated_Source/PSoC5/CapSense_CSHL.c ****       (CapSense_POS_FILTERS_MASK & CapSense_IIR2_FILTER) )
  42:./Generated_Source/PSoC5/CapSense_CSHL.c **** uint16 CapSense_IIR2Filter(uint16 x1, uint16 x2) ;
  43:./Generated_Source/PSoC5/CapSense_CSHL.c **** #endif /* End CapSense_RAW_FILTER_MASK && CapSense_POS_FILTERS_MASK */
  44:./Generated_Source/PSoC5/CapSense_CSHL.c **** 
  45:./Generated_Source/PSoC5/CapSense_CSHL.c **** /* IIR4Filter(3/4prev + 1/4cur) filter function prototype */
  46:./Generated_Source/PSoC5/CapSense_CSHL.c **** #if ( (CapSense_RAW_FILTER_MASK & CapSense_IIR4_FILTER) || \
  47:./Generated_Source/PSoC5/CapSense_CSHL.c ****       (CapSense_POS_FILTERS_MASK & CapSense_IIR4_FILTER) )
  48:./Generated_Source/PSoC5/CapSense_CSHL.c ****     uint16 CapSense_IIR4Filter(uint16 x1, uint16 x2) ;
  49:./Generated_Source/PSoC5/CapSense_CSHL.c **** #endif /* End CapSense_RAW_FILTER_MASK && CapSense_POS_FILTERS_MASK */
  50:./Generated_Source/PSoC5/CapSense_CSHL.c **** 
  51:./Generated_Source/PSoC5/CapSense_CSHL.c **** /* IIR8Filter(7/8prev + 1/8cur) filter function prototype - RawCounts only */
  52:./Generated_Source/PSoC5/CapSense_CSHL.c **** #if (CapSense_RAW_FILTER_MASK & CapSense_IIR8_FILTER)
  53:./Generated_Source/PSoC5/CapSense_CSHL.c ****     uint16 CapSense_IIR8Filter(uint16 x1, uint16 x2) ;
  54:./Generated_Source/PSoC5/CapSense_CSHL.c **** #endif /* End CapSense_RAW_FILTER_MASK */
  55:./Generated_Source/PSoC5/CapSense_CSHL.c **** 
  56:./Generated_Source/PSoC5/CapSense_CSHL.c **** /* IIR16Filter(15/16prev + 1/16cur) filter function prototype - RawCounts only */
  57:./Generated_Source/PSoC5/CapSense_CSHL.c **** #if (CapSense_RAW_FILTER_MASK & CapSense_IIR16_FILTER)
  58:./Generated_Source/PSoC5/CapSense_CSHL.c ****     uint16 CapSense_IIR16Filter(uint16 x1, uint16 x2) ;
  59:./Generated_Source/PSoC5/CapSense_CSHL.c **** #endif /* End CapSense_RAW_FILTER_MASK */
  60:./Generated_Source/PSoC5/CapSense_CSHL.c **** 
  61:./Generated_Source/PSoC5/CapSense_CSHL.c **** /* JitterFilter filter function prototype */
  62:./Generated_Source/PSoC5/CapSense_CSHL.c **** #if ( (CapSense_RAW_FILTER_MASK & CapSense_JITTER_FILTER) || \
  63:./Generated_Source/PSoC5/CapSense_CSHL.c ****       (CapSense_POS_FILTERS_MASK & CapSense_JITTER_FILTER) )
  64:./Generated_Source/PSoC5/CapSense_CSHL.c ****     uint16 CapSense_JitterFilter(uint16 x1, uint16 x2) ;
  65:./Generated_Source/PSoC5/CapSense_CSHL.c **** #endif /* End CapSense_RAW_FILTER_MASK && CapSense_POS_FILTERS_MASK */
  66:./Generated_Source/PSoC5/CapSense_CSHL.c **** 
  67:./Generated_Source/PSoC5/CapSense_CSHL.c **** /* Storage of filters data */
  68:./Generated_Source/PSoC5/CapSense_CSHL.c **** #if ( (CapSense_RAW_FILTER_MASK & CapSense_MEDIAN_FILTER) || \
  69:./Generated_Source/PSoC5/CapSense_CSHL.c ****       (CapSense_RAW_FILTER_MASK & CapSense_AVERAGING_FILTER) )
  70:./Generated_Source/PSoC5/CapSense_CSHL.c **** 
  71:./Generated_Source/PSoC5/CapSense_CSHL.c ****     uint16 CapSense_rawFilterData1[CapSense_TOTAL_SENSOR_COUNT];
  72:./Generated_Source/PSoC5/CapSense_CSHL.c ****     uint16 CapSense_rawFilterData2[CapSense_TOTAL_SENSOR_COUNT];
  73:./Generated_Source/PSoC5/CapSense_CSHL.c **** 
  74:./Generated_Source/PSoC5/CapSense_CSHL.c **** #elif ( (CapSense_RAW_FILTER_MASK & CapSense_IIR2_FILTER)   || \
  75:./Generated_Source/PSoC5/CapSense_CSHL.c ****         (CapSense_RAW_FILTER_MASK & CapSense_IIR4_FILTER)   || \
  76:./Generated_Source/PSoC5/CapSense_CSHL.c ****         (CapSense_RAW_FILTER_MASK & CapSense_JITTER_FILTER) || \
  77:./Generated_Source/PSoC5/CapSense_CSHL.c ****         (CapSense_RAW_FILTER_MASK & CapSense_IIR8_FILTER)   || \
  78:./Generated_Source/PSoC5/CapSense_CSHL.c ****         (CapSense_RAW_FILTER_MASK & CapSense_IIR16_FILTER) )
  79:./Generated_Source/PSoC5/CapSense_CSHL.c ****         
  80:./Generated_Source/PSoC5/CapSense_CSHL.c ****     uint16 CapSense_rawFilterData1[CapSense_TOTAL_SENSOR_COUNT];
  81:./Generated_Source/PSoC5/CapSense_CSHL.c **** 
ARM GAS  C:\Users\CHARLI~1\AppData\Local\Temp\ccYu411o.s 			page 5


  82:./Generated_Source/PSoC5/CapSense_CSHL.c **** #else
  83:./Generated_Source/PSoC5/CapSense_CSHL.c ****     /* No Raw filters */
  84:./Generated_Source/PSoC5/CapSense_CSHL.c **** #endif  /* End CapSense_RAW_FILTER_MASK */
  85:./Generated_Source/PSoC5/CapSense_CSHL.c **** 
  86:./Generated_Source/PSoC5/CapSense_CSHL.c **** extern uint16 CapSense_SensorRaw[CapSense_TOTAL_SENSOR_COUNT];
  87:./Generated_Source/PSoC5/CapSense_CSHL.c **** extern uint8 CapSense_SensorEnableMask[(((CapSense_TOTAL_SENSOR_COUNT - 1u) / 8u) + 1u)];
  88:./Generated_Source/PSoC5/CapSense_CSHL.c **** extern const uint8 CYCODE CapSense_widgetNumber[];
  89:./Generated_Source/PSoC5/CapSense_CSHL.c **** 
  90:./Generated_Source/PSoC5/CapSense_CSHL.c **** uint16 CapSense_SensorBaseline[CapSense_TOTAL_SENSOR_COUNT] = {0u};
  91:./Generated_Source/PSoC5/CapSense_CSHL.c **** uint8 CapSense_SensorBaselineLow[CapSense_TOTAL_SENSOR_COUNT] = {0u};
  92:./Generated_Source/PSoC5/CapSense_CSHL.c **** uint8 CapSense_SensorSignal[CapSense_TOTAL_SENSOR_COUNT] = {0u};
  93:./Generated_Source/PSoC5/CapSense_CSHL.c **** uint8 CapSense_SensorOnMask[(((CapSense_TOTAL_SENSOR_COUNT - 1u) / 8u) + 1u)] = {0u};
  94:./Generated_Source/PSoC5/CapSense_CSHL.c **** 
  95:./Generated_Source/PSoC5/CapSense_CSHL.c **** /* Helps while centroid calulation */
  96:./Generated_Source/PSoC5/CapSense_CSHL.c **** #if (CapSense_TOTAL_CENTROIDS_COUNT)
  97:./Generated_Source/PSoC5/CapSense_CSHL.c ****     static uint8 CapSense_centroid[3];
  98:./Generated_Source/PSoC5/CapSense_CSHL.c **** #endif  /* End (CapSense_TOTAL_CENTROIDS_COUNT) */
  99:./Generated_Source/PSoC5/CapSense_CSHL.c **** 
 100:./Generated_Source/PSoC5/CapSense_CSHL.c **** 
 101:./Generated_Source/PSoC5/CapSense_CSHL.c **** uint8 CapSense_fingerThreshold[] = {
 102:./Generated_Source/PSoC5/CapSense_CSHL.c ****     100u, 100u, 100u, 
 103:./Generated_Source/PSoC5/CapSense_CSHL.c **** };
 104:./Generated_Source/PSoC5/CapSense_CSHL.c **** 
 105:./Generated_Source/PSoC5/CapSense_CSHL.c **** uint8 CapSense_noiseThreshold[] = {
 106:./Generated_Source/PSoC5/CapSense_CSHL.c ****     20u, 20u, 20u, 
 107:./Generated_Source/PSoC5/CapSense_CSHL.c **** };
 108:./Generated_Source/PSoC5/CapSense_CSHL.c **** 
 109:./Generated_Source/PSoC5/CapSense_CSHL.c **** uint8 CapSense_hysteresis[] = {
 110:./Generated_Source/PSoC5/CapSense_CSHL.c ****     0u, 10u, 10u, 
 111:./Generated_Source/PSoC5/CapSense_CSHL.c **** };
 112:./Generated_Source/PSoC5/CapSense_CSHL.c **** 
 113:./Generated_Source/PSoC5/CapSense_CSHL.c **** uint8 CapSense_debounce[] = {
 114:./Generated_Source/PSoC5/CapSense_CSHL.c ****     0u, 5u, 5u, 
 115:./Generated_Source/PSoC5/CapSense_CSHL.c **** };
 116:./Generated_Source/PSoC5/CapSense_CSHL.c **** 
 117:./Generated_Source/PSoC5/CapSense_CSHL.c **** uint8 CapSense_debounceCounter[] = {
 118:./Generated_Source/PSoC5/CapSense_CSHL.c ****     0u, 0u, 0u, 
 119:./Generated_Source/PSoC5/CapSense_CSHL.c **** };
 120:./Generated_Source/PSoC5/CapSense_CSHL.c **** 
 121:./Generated_Source/PSoC5/CapSense_CSHL.c **** const uint8 CYCODE CapSense_rawDataIndex[] = {
 122:./Generated_Source/PSoC5/CapSense_CSHL.c ****     2u, /* LinearSlider0__LS */
 123:./Generated_Source/PSoC5/CapSense_CSHL.c ****     0u, /* Button0__BTN */
 124:./Generated_Source/PSoC5/CapSense_CSHL.c ****     1u, /* Button1__BTN */
 125:./Generated_Source/PSoC5/CapSense_CSHL.c **** 
 126:./Generated_Source/PSoC5/CapSense_CSHL.c **** };
 127:./Generated_Source/PSoC5/CapSense_CSHL.c **** 
 128:./Generated_Source/PSoC5/CapSense_CSHL.c **** const uint8 CYCODE CapSense_numberOfSensors[] = {
 129:./Generated_Source/PSoC5/CapSense_CSHL.c ****     5u, /* LinearSlider0__LS */
 130:./Generated_Source/PSoC5/CapSense_CSHL.c ****     1u, /* Button0__BTN */
 131:./Generated_Source/PSoC5/CapSense_CSHL.c ****     1u, /* Button1__BTN */
 132:./Generated_Source/PSoC5/CapSense_CSHL.c **** 
 133:./Generated_Source/PSoC5/CapSense_CSHL.c **** };
 134:./Generated_Source/PSoC5/CapSense_CSHL.c **** 
 135:./Generated_Source/PSoC5/CapSense_CSHL.c **** const uint16 CYCODE CapSense_centroidMult[] = {
 136:./Generated_Source/PSoC5/CapSense_CSHL.c ****     6400u, 
 137:./Generated_Source/PSoC5/CapSense_CSHL.c **** };
 138:./Generated_Source/PSoC5/CapSense_CSHL.c **** 
ARM GAS  C:\Users\CHARLI~1\AppData\Local\Temp\ccYu411o.s 			page 6


 139:./Generated_Source/PSoC5/CapSense_CSHL.c **** const uint8 CYCODE CapSense_posFiltersMask[] = {
 140:./Generated_Source/PSoC5/CapSense_CSHL.c ****     0x8u, 
 141:./Generated_Source/PSoC5/CapSense_CSHL.c **** };
 142:./Generated_Source/PSoC5/CapSense_CSHL.c **** 
 143:./Generated_Source/PSoC5/CapSense_CSHL.c **** uint8 CapSense_posFiltersData[] = {
 144:./Generated_Source/PSoC5/CapSense_CSHL.c ****     1u, 0u, 0u, 
 145:./Generated_Source/PSoC5/CapSense_CSHL.c **** };
 146:./Generated_Source/PSoC5/CapSense_CSHL.c **** 
 147:./Generated_Source/PSoC5/CapSense_CSHL.c **** 
 148:./Generated_Source/PSoC5/CapSense_CSHL.c **** 
 149:./Generated_Source/PSoC5/CapSense_CSHL.c **** #if (CapSense_TOTAL_TOUCH_PADS_COUNT)
 150:./Generated_Source/PSoC5/CapSense_CSHL.c ****     uint8 CapSense_position[CapSense_TOTAL_CENTROIDS_COUNT] = {0xFFu};
 151:./Generated_Source/PSoC5/CapSense_CSHL.c **** #endif  /* End (CapSense_TOTAL_TOUCH_PADS_COUNT) */
 152:./Generated_Source/PSoC5/CapSense_CSHL.c **** 
 153:./Generated_Source/PSoC5/CapSense_CSHL.c **** 
 154:./Generated_Source/PSoC5/CapSense_CSHL.c **** /*******************************************************************************
 155:./Generated_Source/PSoC5/CapSense_CSHL.c **** * Function Name: CapSense_BaseInit
 156:./Generated_Source/PSoC5/CapSense_CSHL.c **** ********************************************************************************
 157:./Generated_Source/PSoC5/CapSense_CSHL.c **** *
 158:./Generated_Source/PSoC5/CapSense_CSHL.c **** * Summary:
 159:./Generated_Source/PSoC5/CapSense_CSHL.c **** *  Loads the CapSense_SensorBaseline[sensor] array element with an 
 160:./Generated_Source/PSoC5/CapSense_CSHL.c **** *  initial value which qual raw count value. 
 161:./Generated_Source/PSoC5/CapSense_CSHL.c **** *  Resets to zero CapSense_SensorBaselineLow[senesor] and 
 162:./Generated_Source/PSoC5/CapSense_CSHL.c **** *  CapSense_SensorSignal[sensor] array element.
 163:./Generated_Source/PSoC5/CapSense_CSHL.c **** *  Loads CapSense_debounceCounter[sensor] array element with initial 
 164:./Generated_Source/PSoC5/CapSense_CSHL.c **** *  value equal CapSense_debounce[].
 165:./Generated_Source/PSoC5/CapSense_CSHL.c **** *  Loads the CapSense_rawFilterData2[sensor] and 
 166:./Generated_Source/PSoC5/CapSense_CSHL.c **** *  CapSense_rawFilterData2[sensor] array element with an 
 167:./Generated_Source/PSoC5/CapSense_CSHL.c **** *  initial value which qual raw count value if raw data filter is enabled.
 168:./Generated_Source/PSoC5/CapSense_CSHL.c **** *
 169:./Generated_Source/PSoC5/CapSense_CSHL.c **** * Parameters:
 170:./Generated_Source/PSoC5/CapSense_CSHL.c **** *  sensor:  Sensor number.
 171:./Generated_Source/PSoC5/CapSense_CSHL.c **** *
 172:./Generated_Source/PSoC5/CapSense_CSHL.c **** * Return:
 173:./Generated_Source/PSoC5/CapSense_CSHL.c **** *  None
 174:./Generated_Source/PSoC5/CapSense_CSHL.c **** *
 175:./Generated_Source/PSoC5/CapSense_CSHL.c **** * Global Variables:
 176:./Generated_Source/PSoC5/CapSense_CSHL.c **** *  CapSense_SensorBaseline[]    - used to store baseline value.
 177:./Generated_Source/PSoC5/CapSense_CSHL.c **** *  CapSense_SensorBaselineLow[] - used to store fraction byte of 
 178:./Generated_Source/PSoC5/CapSense_CSHL.c **** *  baseline value.
 179:./Generated_Source/PSoC5/CapSense_CSHL.c **** *  CapSense_SensorSignal[]      - used to store diffence between 
 180:./Generated_Source/PSoC5/CapSense_CSHL.c **** *  current value of raw data and previous value of baseline.
 181:./Generated_Source/PSoC5/CapSense_CSHL.c **** *  CapSense_debounceCounter[]   - used to store current debounce 
 182:./Generated_Source/PSoC5/CapSense_CSHL.c **** *  counter of sensor. Widget which has this parameter are buttons, matrix 
 183:./Generated_Source/PSoC5/CapSense_CSHL.c **** *  buttons, proximity, guard. All other widgets haven't debounce parameter
 184:./Generated_Source/PSoC5/CapSense_CSHL.c **** *  and use the last element of this array with value 0 (it means no debounce).
 185:./Generated_Source/PSoC5/CapSense_CSHL.c **** *  CapSense_rawFilterData1[]    - used to store previous sample of 
 186:./Generated_Source/PSoC5/CapSense_CSHL.c **** *  any enabled raw data filter.
 187:./Generated_Source/PSoC5/CapSense_CSHL.c **** *  CapSense_rawFilterData2[]    - used to store before previous sample
 188:./Generated_Source/PSoC5/CapSense_CSHL.c **** *  of enabled raw data filter. Only required for median or average filters.
 189:./Generated_Source/PSoC5/CapSense_CSHL.c **** *
 190:./Generated_Source/PSoC5/CapSense_CSHL.c **** * Reentrant:
 191:./Generated_Source/PSoC5/CapSense_CSHL.c **** *  No
 192:./Generated_Source/PSoC5/CapSense_CSHL.c **** *
 193:./Generated_Source/PSoC5/CapSense_CSHL.c **** *******************************************************************************/
 194:./Generated_Source/PSoC5/CapSense_CSHL.c **** void CapSense_BaseInit(uint8 sensor)
 195:./Generated_Source/PSoC5/CapSense_CSHL.c **** {
ARM GAS  C:\Users\CHARLI~1\AppData\Local\Temp\ccYu411o.s 			page 7


 139              		.loc 1 195 0
 140              		.cfi_startproc
 141              		@ args = 0, pretend = 0, frame = 16
 142              		@ frame_needed = 1, uses_anonymous_args = 0
 143              		@ link register save eliminated.
 144 0000 80B4     		push	{r7}
 145              	.LCFI0:
 146              		.cfi_def_cfa_offset 4
 147 0002 85B0     		sub	sp, sp, #20
 148              	.LCFI1:
 149              		.cfi_def_cfa_offset 24
 150 0004 00AF     		add	r7, sp, #0
 151              		.cfi_offset 7, -4
 152              	.LCFI2:
 153              		.cfi_def_cfa_register 7
 154 0006 0346     		mov	r3, r0
 155 0008 FB71     		strb	r3, [r7, #7]
 196:./Generated_Source/PSoC5/CapSense_CSHL.c ****     #if ((CapSense_TOTAL_BUTTONS_COUNT) || (CapSense_TOTAL_MATRIX_BUTTONS_COUNT) || \
 197:./Generated_Source/PSoC5/CapSense_CSHL.c ****          (CapSense_TOTAL_GENERICS_COUNT))
 198:./Generated_Source/PSoC5/CapSense_CSHL.c ****         uint8 widget = CapSense_widgetNumber[sensor];
 156              		.loc 1 198 0
 157 000a FA79     		ldrb	r2, [r7, #7]	@ zero_extendqisi2
 158 000c 40F20003 		movw	r3, #:lower16:CapSense_widgetNumber
 159 0010 C0F20003 		movt	r3, #:upper16:CapSense_widgetNumber
 160 0014 9B5C     		ldrb	r3, [r3, r2]
 161 0016 FB73     		strb	r3, [r7, #15]
 199:./Generated_Source/PSoC5/CapSense_CSHL.c ****     #endif /* ((CapSense_TOTAL_MATRIX_BUTTONS_COUNT) || (CapSense_TOTAL_MATRIX_BUTTONS_COUNT)) */
 200:./Generated_Source/PSoC5/CapSense_CSHL.c ****     
 201:./Generated_Source/PSoC5/CapSense_CSHL.c ****     #if (CapSense_TOTAL_MATRIX_BUTTONS_COUNT)
 202:./Generated_Source/PSoC5/CapSense_CSHL.c ****         uint8 debounceIndex;
 203:./Generated_Source/PSoC5/CapSense_CSHL.c ****     #endif  /* End (CapSense_TOTAL_MATRIX_BUTTONS_COUNT != 0u) */
 204:./Generated_Source/PSoC5/CapSense_CSHL.c ****     
 205:./Generated_Source/PSoC5/CapSense_CSHL.c ****     #if (CapSense_TOTAL_GENERICS_COUNT)
 206:./Generated_Source/PSoC5/CapSense_CSHL.c ****         /* Exclude generic widget */
 207:./Generated_Source/PSoC5/CapSense_CSHL.c ****         if(widget < CapSense_END_OF_WIDGETS_INDEX)
 208:./Generated_Source/PSoC5/CapSense_CSHL.c ****         {
 209:./Generated_Source/PSoC5/CapSense_CSHL.c ****     #endif  /* End CapSense_TOTAL_GENERICS_COUNT */
 210:./Generated_Source/PSoC5/CapSense_CSHL.c ****     
 211:./Generated_Source/PSoC5/CapSense_CSHL.c ****     /* Initialize Baseline */
 212:./Generated_Source/PSoC5/CapSense_CSHL.c ****     CapSense_SensorBaseline[sensor] = CapSense_SensorRaw[sensor];
 162              		.loc 1 212 0
 163 0018 FA79     		ldrb	r2, [r7, #7]	@ zero_extendqisi2
 164 001a F979     		ldrb	r1, [r7, #7]	@ zero_extendqisi2
 165 001c 40F20003 		movw	r3, #:lower16:CapSense_SensorRaw
 166 0020 C0F20003 		movt	r3, #:upper16:CapSense_SensorRaw
 167 0024 33F81110 		ldrh	r1, [r3, r1, lsl #1]
 168 0028 40F20003 		movw	r3, #:lower16:CapSense_SensorBaseline
 169 002c C0F20003 		movt	r3, #:upper16:CapSense_SensorBaseline
 170 0030 23F81210 		strh	r1, [r3, r2, lsl #1]	@ movhi
 213:./Generated_Source/PSoC5/CapSense_CSHL.c ****     CapSense_SensorBaselineLow[sensor] = 0u;
 171              		.loc 1 213 0
 172 0034 FA79     		ldrb	r2, [r7, #7]	@ zero_extendqisi2
 173 0036 40F20003 		movw	r3, #:lower16:CapSense_SensorBaselineLow
 174 003a C0F20003 		movt	r3, #:upper16:CapSense_SensorBaselineLow
 175 003e 4FF00001 		mov	r1, #0
 176 0042 9954     		strb	r1, [r3, r2]
 214:./Generated_Source/PSoC5/CapSense_CSHL.c ****     CapSense_SensorSignal[sensor] = 0u;
ARM GAS  C:\Users\CHARLI~1\AppData\Local\Temp\ccYu411o.s 			page 8


 177              		.loc 1 214 0
 178 0044 FA79     		ldrb	r2, [r7, #7]	@ zero_extendqisi2
 179 0046 40F20003 		movw	r3, #:lower16:CapSense_SensorSignal
 180 004a C0F20003 		movt	r3, #:upper16:CapSense_SensorSignal
 181 004e 4FF00001 		mov	r1, #0
 182 0052 9954     		strb	r1, [r3, r2]
 215:./Generated_Source/PSoC5/CapSense_CSHL.c ****         
 216:./Generated_Source/PSoC5/CapSense_CSHL.c ****     if(widget > CapSense_END_OF_TOUCH_PAD_INDEX)
 183              		.loc 1 216 0
 184 0054 FB7B     		ldrb	r3, [r7, #15]	@ zero_extendqisi2
 185 0056 002B     		cmp	r3, #0
 186 0058 0DD0     		beq	.L2
 217:./Generated_Source/PSoC5/CapSense_CSHL.c ****     {
 218:./Generated_Source/PSoC5/CapSense_CSHL.c ****         CapSense_debounceCounter[widget - CapSense_TOTAL_CENTROIDS_COUNT] =  CapSense_debounce[widg
 187              		.loc 1 218 0
 188 005a FB7B     		ldrb	r3, [r7, #15]	@ zero_extendqisi2
 189 005c 03F1FF32 		add	r2, r3, #-1
 190 0060 F97B     		ldrb	r1, [r7, #15]	@ zero_extendqisi2
 191 0062 40F20003 		movw	r3, #:lower16:CapSense_debounce
 192 0066 C0F20003 		movt	r3, #:upper16:CapSense_debounce
 193 006a 595C     		ldrb	r1, [r3, r1]	@ zero_extendqisi2
 194 006c 40F20003 		movw	r3, #:lower16:CapSense_debounceCounter
 195 0070 C0F20003 		movt	r3, #:upper16:CapSense_debounceCounter
 196 0074 9954     		strb	r1, [r3, r2]
 197              	.L2:
 219:./Generated_Source/PSoC5/CapSense_CSHL.c ****     }
 220:./Generated_Source/PSoC5/CapSense_CSHL.c **** 
 221:./Generated_Source/PSoC5/CapSense_CSHL.c ****     
 222:./Generated_Source/PSoC5/CapSense_CSHL.c ****     #if ( (CapSense_RAW_FILTER_MASK & CapSense_MEDIAN_FILTER) || \
 223:./Generated_Source/PSoC5/CapSense_CSHL.c ****           (CapSense_RAW_FILTER_MASK & CapSense_AVERAGING_FILTER) )
 224:./Generated_Source/PSoC5/CapSense_CSHL.c ****     
 225:./Generated_Source/PSoC5/CapSense_CSHL.c ****         CapSense_rawFilterData1[sensor] = CapSense_SensorRaw[sensor];
 226:./Generated_Source/PSoC5/CapSense_CSHL.c ****         CapSense_rawFilterData2[sensor] = CapSense_SensorRaw[sensor];
 227:./Generated_Source/PSoC5/CapSense_CSHL.c ****     
 228:./Generated_Source/PSoC5/CapSense_CSHL.c ****     #elif ( (CapSense_RAW_FILTER_MASK & CapSense_IIR2_FILTER)   || \
 229:./Generated_Source/PSoC5/CapSense_CSHL.c ****             (CapSense_RAW_FILTER_MASK & CapSense_IIR4_FILTER)   || \
 230:./Generated_Source/PSoC5/CapSense_CSHL.c ****             (CapSense_RAW_FILTER_MASK & CapSense_JITTER_FILTER) || \
 231:./Generated_Source/PSoC5/CapSense_CSHL.c ****             (CapSense_RAW_FILTER_MASK & CapSense_IIR8_FILTER)   || \
 232:./Generated_Source/PSoC5/CapSense_CSHL.c ****             (CapSense_RAW_FILTER_MASK & CapSense_IIR16_FILTER) )
 233:./Generated_Source/PSoC5/CapSense_CSHL.c ****             
 234:./Generated_Source/PSoC5/CapSense_CSHL.c ****         CapSense_rawFilterData1[sensor] = CapSense_SensorRaw[sensor];
 198              		.loc 1 234 0
 199 0076 FA79     		ldrb	r2, [r7, #7]	@ zero_extendqisi2
 200 0078 F979     		ldrb	r1, [r7, #7]	@ zero_extendqisi2
 201 007a 40F20003 		movw	r3, #:lower16:CapSense_SensorRaw
 202 007e C0F20003 		movt	r3, #:upper16:CapSense_SensorRaw
 203 0082 33F81110 		ldrh	r1, [r3, r1, lsl #1]
 204 0086 40F20003 		movw	r3, #:lower16:CapSense_rawFilterData1
 205 008a C0F20003 		movt	r3, #:upper16:CapSense_rawFilterData1
 206 008e 23F81210 		strh	r1, [r3, r2, lsl #1]	@ movhi
 235:./Generated_Source/PSoC5/CapSense_CSHL.c ****     
 236:./Generated_Source/PSoC5/CapSense_CSHL.c ****     #else
 237:./Generated_Source/PSoC5/CapSense_CSHL.c ****         /* No Raw filters */
 238:./Generated_Source/PSoC5/CapSense_CSHL.c ****     #endif  /* End CapSense_RAW_FILTER_MASK */
 239:./Generated_Source/PSoC5/CapSense_CSHL.c ****     
 240:./Generated_Source/PSoC5/CapSense_CSHL.c ****     #if (CapSense_TOTAL_GENERICS_COUNT)
 241:./Generated_Source/PSoC5/CapSense_CSHL.c ****         /* Exclude generic widget */
ARM GAS  C:\Users\CHARLI~1\AppData\Local\Temp\ccYu411o.s 			page 9


 242:./Generated_Source/PSoC5/CapSense_CSHL.c ****         }
 243:./Generated_Source/PSoC5/CapSense_CSHL.c ****     #endif  /* End CapSense_TOTAL_GENERICS_COUNT */
 244:./Generated_Source/PSoC5/CapSense_CSHL.c **** }
 207              		.loc 1 244 0
 208 0092 07F11407 		add	r7, r7, #20
 209 0096 BD46     		mov	sp, r7
 210 0098 80BC     		pop	{r7}
 211 009a 7047     		bx	lr
 212              		.cfi_endproc
 213              	.LFE0:
 214              		.size	CapSense_BaseInit, .-CapSense_BaseInit
 215              		.section	.text.CapSense_InitializeSensorBaseline,"ax",%progbits
 216              		.align	2
 217              		.global	CapSense_InitializeSensorBaseline
 218              		.thumb
 219              		.thumb_func
 220              		.type	CapSense_InitializeSensorBaseline, %function
 221              	CapSense_InitializeSensorBaseline:
 222              	.LFB1:
 245:./Generated_Source/PSoC5/CapSense_CSHL.c **** 
 246:./Generated_Source/PSoC5/CapSense_CSHL.c **** 
 247:./Generated_Source/PSoC5/CapSense_CSHL.c **** /*******************************************************************************
 248:./Generated_Source/PSoC5/CapSense_CSHL.c **** * Function Name: CapSense_InitializeSensorBaseline
 249:./Generated_Source/PSoC5/CapSense_CSHL.c **** ********************************************************************************
 250:./Generated_Source/PSoC5/CapSense_CSHL.c **** *
 251:./Generated_Source/PSoC5/CapSense_CSHL.c **** * Summary:
 252:./Generated_Source/PSoC5/CapSense_CSHL.c **** *  Loads the CapSense_SensorBaseline[sensor] array element with an 
 253:./Generated_Source/PSoC5/CapSense_CSHL.c **** *  initial value by scanning the selected sensor (one channel design) or pair 
 254:./Generated_Source/PSoC5/CapSense_CSHL.c **** *  of sensors (two channels designs). The raw count value is copied into the 
 255:./Generated_Source/PSoC5/CapSense_CSHL.c **** *  baseline array for each sensor. The raw data filters are initialized if 
 256:./Generated_Source/PSoC5/CapSense_CSHL.c **** *  enabled.
 257:./Generated_Source/PSoC5/CapSense_CSHL.c **** *
 258:./Generated_Source/PSoC5/CapSense_CSHL.c **** * Parameters:
 259:./Generated_Source/PSoC5/CapSense_CSHL.c **** *  sensor:  Sensor number.
 260:./Generated_Source/PSoC5/CapSense_CSHL.c **** *
 261:./Generated_Source/PSoC5/CapSense_CSHL.c **** * Return:
 262:./Generated_Source/PSoC5/CapSense_CSHL.c **** *  None
 263:./Generated_Source/PSoC5/CapSense_CSHL.c **** *
 264:./Generated_Source/PSoC5/CapSense_CSHL.c **** * Reentrant:
 265:./Generated_Source/PSoC5/CapSense_CSHL.c **** *  No
 266:./Generated_Source/PSoC5/CapSense_CSHL.c **** *
 267:./Generated_Source/PSoC5/CapSense_CSHL.c **** *******************************************************************************/
 268:./Generated_Source/PSoC5/CapSense_CSHL.c **** void CapSense_InitializeSensorBaseline(uint8 sensor)
 269:./Generated_Source/PSoC5/CapSense_CSHL.c **** {
 223              		.loc 1 269 0
 224              		.cfi_startproc
 225              		@ args = 0, pretend = 0, frame = 8
 226              		@ frame_needed = 1, uses_anonymous_args = 0
 227 0000 80B5     		push	{r7, lr}
 228              	.LCFI3:
 229              		.cfi_def_cfa_offset 8
 230 0002 82B0     		sub	sp, sp, #8
 231              	.LCFI4:
 232              		.cfi_def_cfa_offset 16
 233 0004 00AF     		add	r7, sp, #0
 234              		.cfi_offset 14, -4
 235              		.cfi_offset 7, -8
ARM GAS  C:\Users\CHARLI~1\AppData\Local\Temp\ccYu411o.s 			page 10


 236              	.LCFI5:
 237              		.cfi_def_cfa_register 7
 238 0006 0346     		mov	r3, r0
 239 0008 FB71     		strb	r3, [r7, #7]
 270:./Generated_Source/PSoC5/CapSense_CSHL.c ****     /* Scan sensor */
 271:./Generated_Source/PSoC5/CapSense_CSHL.c ****     CapSense_ScanSensor(sensor);
 240              		.loc 1 271 0
 241 000a FB79     		ldrb	r3, [r7, #7]	@ zero_extendqisi2
 242 000c 1846     		mov	r0, r3
 243 000e FFF7FEFF 		bl	CapSense_ScanSensor
 244              	.L5:
 272:./Generated_Source/PSoC5/CapSense_CSHL.c ****         while(CapSense_IsBusy() != 0u) {;}
 245              		.loc 1 272 0
 246 0012 FFF7FEFF 		bl	CapSense_IsBusy
 247 0016 0346     		mov	r3, r0
 248 0018 002B     		cmp	r3, #0
 249 001a FAD1     		bne	.L5
 273:./Generated_Source/PSoC5/CapSense_CSHL.c ****     
 274:./Generated_Source/PSoC5/CapSense_CSHL.c ****     #if (CapSense_DESIGN_TYPE == CapSense_ONE_CHANNEL_DESIGN)
 275:./Generated_Source/PSoC5/CapSense_CSHL.c ****         /* Initialize Baseline, Signal and debounce counters */       
 276:./Generated_Source/PSoC5/CapSense_CSHL.c ****         CapSense_BaseInit(sensor);
 250              		.loc 1 276 0
 251 001c FB79     		ldrb	r3, [r7, #7]	@ zero_extendqisi2
 252 001e 1846     		mov	r0, r3
 253 0020 FFF7FEFF 		bl	CapSense_BaseInit
 277:./Generated_Source/PSoC5/CapSense_CSHL.c ****         
 278:./Generated_Source/PSoC5/CapSense_CSHL.c ****     #else
 279:./Generated_Source/PSoC5/CapSense_CSHL.c ****     
 280:./Generated_Source/PSoC5/CapSense_CSHL.c ****         if(sensor < CapSense_TOTAL_SENSOR_COUNT__CH0)
 281:./Generated_Source/PSoC5/CapSense_CSHL.c ****         {
 282:./Generated_Source/PSoC5/CapSense_CSHL.c ****             /* Initialize Baseline, Signal and debounce counters */ 
 283:./Generated_Source/PSoC5/CapSense_CSHL.c ****             CapSense_BaseInit(sensor);
 284:./Generated_Source/PSoC5/CapSense_CSHL.c ****         }
 285:./Generated_Source/PSoC5/CapSense_CSHL.c ****         
 286:./Generated_Source/PSoC5/CapSense_CSHL.c ****         if(sensor < CapSense_TOTAL_SENSOR_COUNT__CH1)
 287:./Generated_Source/PSoC5/CapSense_CSHL.c ****         {
 288:./Generated_Source/PSoC5/CapSense_CSHL.c ****             /* Initialize Baseline, Signal and debounce counters */
 289:./Generated_Source/PSoC5/CapSense_CSHL.c ****             CapSense_BaseInit(sensor + CapSense_TOTAL_SENSOR_COUNT__CH0);
 290:./Generated_Source/PSoC5/CapSense_CSHL.c ****         }
 291:./Generated_Source/PSoC5/CapSense_CSHL.c ****     
 292:./Generated_Source/PSoC5/CapSense_CSHL.c ****     #endif  /* End (CapSense_DESIGN_TYPE == CapSense_ONE_CHANNEL_DESIGN) */
 293:./Generated_Source/PSoC5/CapSense_CSHL.c **** }
 254              		.loc 1 293 0
 255 0024 07F10807 		add	r7, r7, #8
 256 0028 BD46     		mov	sp, r7
 257 002a 80BD     		pop	{r7, pc}
 258              		.cfi_endproc
 259              	.LFE1:
 260              		.size	CapSense_InitializeSensorBaseline, .-CapSense_InitializeSensorBaseline
 261              		.section	.text.CapSense_InitializeAllBaselines,"ax",%progbits
 262              		.align	2
 263              		.global	CapSense_InitializeAllBaselines
 264              		.thumb
 265              		.thumb_func
 266              		.type	CapSense_InitializeAllBaselines, %function
 267              	CapSense_InitializeAllBaselines:
 268              	.LFB2:
ARM GAS  C:\Users\CHARLI~1\AppData\Local\Temp\ccYu411o.s 			page 11


 294:./Generated_Source/PSoC5/CapSense_CSHL.c **** 
 295:./Generated_Source/PSoC5/CapSense_CSHL.c **** 
 296:./Generated_Source/PSoC5/CapSense_CSHL.c **** /*******************************************************************************
 297:./Generated_Source/PSoC5/CapSense_CSHL.c **** * Function Name: CapSense_InitializeAllBaselines
 298:./Generated_Source/PSoC5/CapSense_CSHL.c **** ********************************************************************************
 299:./Generated_Source/PSoC5/CapSense_CSHL.c **** *
 300:./Generated_Source/PSoC5/CapSense_CSHL.c **** * Summary:
 301:./Generated_Source/PSoC5/CapSense_CSHL.c **** *  Uses the CapSense_InitializeSensorBaseline function to loads the 
 302:./Generated_Source/PSoC5/CapSense_CSHL.c **** *  CapSense_SensorBaseline[] array with an initial values by scanning 
 303:./Generated_Source/PSoC5/CapSense_CSHL.c **** *  all sensors. The raw count values are copied into the baseline array for 
 304:./Generated_Source/PSoC5/CapSense_CSHL.c **** *  all sensors. The raw data filters are initialized if enabled.
 305:./Generated_Source/PSoC5/CapSense_CSHL.c **** *
 306:./Generated_Source/PSoC5/CapSense_CSHL.c **** * Parameters:
 307:./Generated_Source/PSoC5/CapSense_CSHL.c **** *  None
 308:./Generated_Source/PSoC5/CapSense_CSHL.c **** *
 309:./Generated_Source/PSoC5/CapSense_CSHL.c **** * Return:
 310:./Generated_Source/PSoC5/CapSense_CSHL.c **** *  None
 311:./Generated_Source/PSoC5/CapSense_CSHL.c **** *
 312:./Generated_Source/PSoC5/CapSense_CSHL.c **** * Reentrant:
 313:./Generated_Source/PSoC5/CapSense_CSHL.c **** *  No
 314:./Generated_Source/PSoC5/CapSense_CSHL.c **** *
 315:./Generated_Source/PSoC5/CapSense_CSHL.c **** *******************************************************************************/
 316:./Generated_Source/PSoC5/CapSense_CSHL.c **** void CapSense_InitializeAllBaselines(void)
 317:./Generated_Source/PSoC5/CapSense_CSHL.c **** {
 269              		.loc 1 317 0
 270              		.cfi_startproc
 271              		@ args = 0, pretend = 0, frame = 8
 272              		@ frame_needed = 1, uses_anonymous_args = 0
 273 0000 80B5     		push	{r7, lr}
 274              	.LCFI6:
 275              		.cfi_def_cfa_offset 8
 276 0002 82B0     		sub	sp, sp, #8
 277              	.LCFI7:
 278              		.cfi_def_cfa_offset 16
 279 0004 00AF     		add	r7, sp, #0
 280              		.cfi_offset 14, -4
 281              		.cfi_offset 7, -8
 282              	.LCFI8:
 283              		.cfi_def_cfa_register 7
 318:./Generated_Source/PSoC5/CapSense_CSHL.c ****     uint8 i;
 319:./Generated_Source/PSoC5/CapSense_CSHL.c ****     
 320:./Generated_Source/PSoC5/CapSense_CSHL.c ****     /* The baseline initialize by sensor of sensor pair */
 321:./Generated_Source/PSoC5/CapSense_CSHL.c ****     for(i = 0u; i < CapSense_TOTAL_SCANSLOT_COUNT; i++)
 284              		.loc 1 321 0
 285 0006 4FF00003 		mov	r3, #0
 286 000a FB71     		strb	r3, [r7, #7]
 287 000c 07E0     		b	.L8
 288              	.L9:
 322:./Generated_Source/PSoC5/CapSense_CSHL.c ****     {
 323:./Generated_Source/PSoC5/CapSense_CSHL.c ****         CapSense_InitializeSensorBaseline(i);
 289              		.loc 1 323 0
 290 000e FB79     		ldrb	r3, [r7, #7]	@ zero_extendqisi2
 291 0010 1846     		mov	r0, r3
 292 0012 FFF7FEFF 		bl	CapSense_InitializeSensorBaseline
 293              		.loc 1 321 0
 294 0016 FB79     		ldrb	r3, [r7, #7]
 295 0018 03F10103 		add	r3, r3, #1
ARM GAS  C:\Users\CHARLI~1\AppData\Local\Temp\ccYu411o.s 			page 12


 296 001c FB71     		strb	r3, [r7, #7]
 297              	.L8:
 298 001e FB79     		ldrb	r3, [r7, #7]	@ zero_extendqisi2
 299 0020 062B     		cmp	r3, #6
 300 0022 F4D9     		bls	.L9
 324:./Generated_Source/PSoC5/CapSense_CSHL.c ****     }
 325:./Generated_Source/PSoC5/CapSense_CSHL.c **** }
 301              		.loc 1 325 0
 302 0024 07F10807 		add	r7, r7, #8
 303 0028 BD46     		mov	sp, r7
 304 002a 80BD     		pop	{r7, pc}
 305              		.cfi_endproc
 306              	.LFE2:
 307              		.size	CapSense_InitializeAllBaselines, .-CapSense_InitializeAllBaselines
 308              		.section	.text.CapSense_UpdateSensorBaseline,"ax",%progbits
 309              		.align	2
 310              		.global	CapSense_UpdateSensorBaseline
 311              		.thumb
 312              		.thumb_func
 313              		.type	CapSense_UpdateSensorBaseline, %function
 314              	CapSense_UpdateSensorBaseline:
 315              	.LFB3:
 326:./Generated_Source/PSoC5/CapSense_CSHL.c **** 
 327:./Generated_Source/PSoC5/CapSense_CSHL.c **** 
 328:./Generated_Source/PSoC5/CapSense_CSHL.c **** #if (CapSense_DESIGN_TYPE == CapSense_TWO_CHANNELS_DESIGN)
 329:./Generated_Source/PSoC5/CapSense_CSHL.c ****     /*******************************************************************************
 330:./Generated_Source/PSoC5/CapSense_CSHL.c ****     * Function Name: CapSense_InitializeEnabledBaselines
 331:./Generated_Source/PSoC5/CapSense_CSHL.c ****     ********************************************************************************
 332:./Generated_Source/PSoC5/CapSense_CSHL.c ****     *
 333:./Generated_Source/PSoC5/CapSense_CSHL.c ****     * Summary:
 334:./Generated_Source/PSoC5/CapSense_CSHL.c ****     *  Scans all enabled widgets and the raw count values are copied into the 
 335:./Generated_Source/PSoC5/CapSense_CSHL.c ****     *  baseline array for all sensors enabled in scanning process. Baselines 
 336:./Generated_Source/PSoC5/CapSense_CSHL.c ****     *  initialize with zero values for sensors disabled from scanning process. 
 337:./Generated_Source/PSoC5/CapSense_CSHL.c ****     *  The raw data filters are initialized if enabled.
 338:./Generated_Source/PSoC5/CapSense_CSHL.c ****     *
 339:./Generated_Source/PSoC5/CapSense_CSHL.c ****     * Parameters:
 340:./Generated_Source/PSoC5/CapSense_CSHL.c ****     *  None
 341:./Generated_Source/PSoC5/CapSense_CSHL.c ****     *
 342:./Generated_Source/PSoC5/CapSense_CSHL.c ****     * Return:
 343:./Generated_Source/PSoC5/CapSense_CSHL.c ****     *  None
 344:./Generated_Source/PSoC5/CapSense_CSHL.c ****     *
 345:./Generated_Source/PSoC5/CapSense_CSHL.c ****     * Reentrant:
 346:./Generated_Source/PSoC5/CapSense_CSHL.c ****     *  No
 347:./Generated_Source/PSoC5/CapSense_CSHL.c ****     *
 348:./Generated_Source/PSoC5/CapSense_CSHL.c ****     *******************************************************************************/
 349:./Generated_Source/PSoC5/CapSense_CSHL.c ****     void CapSense_InitializeEnabledBaselines(void)
 350:./Generated_Source/PSoC5/CapSense_CSHL.c ****     {
 351:./Generated_Source/PSoC5/CapSense_CSHL.c ****         uint8 i;
 352:./Generated_Source/PSoC5/CapSense_CSHL.c ****         uint8 pos;
 353:./Generated_Source/PSoC5/CapSense_CSHL.c ****         uint8 enMask;
 354:./Generated_Source/PSoC5/CapSense_CSHL.c ****         
 355:./Generated_Source/PSoC5/CapSense_CSHL.c ****         CapSense_ScanEnabledWidgets();
 356:./Generated_Source/PSoC5/CapSense_CSHL.c ****         while(CapSense_IsBusy() != 0u){;}
 357:./Generated_Source/PSoC5/CapSense_CSHL.c ****         
 358:./Generated_Source/PSoC5/CapSense_CSHL.c ****         for(i = 0u; i < CapSense_TOTAL_SENSOR_COUNT; i++)
 359:./Generated_Source/PSoC5/CapSense_CSHL.c ****         {
 360:./Generated_Source/PSoC5/CapSense_CSHL.c ****             pos = (i >> 3u);
ARM GAS  C:\Users\CHARLI~1\AppData\Local\Temp\ccYu411o.s 			page 13


 361:./Generated_Source/PSoC5/CapSense_CSHL.c ****             enMask = 0x01u << (i & 0x07u);
 362:./Generated_Source/PSoC5/CapSense_CSHL.c ****             
 363:./Generated_Source/PSoC5/CapSense_CSHL.c ****             /* Clear raw data if sensor is disabled from scanning process */
 364:./Generated_Source/PSoC5/CapSense_CSHL.c ****             if((CapSense_SensorEnableMask[pos] & enMask) == 0u)
 365:./Generated_Source/PSoC5/CapSense_CSHL.c ****             {
 366:./Generated_Source/PSoC5/CapSense_CSHL.c ****                 CapSense_SensorRaw[i] = 0u;
 367:./Generated_Source/PSoC5/CapSense_CSHL.c ****             }
 368:./Generated_Source/PSoC5/CapSense_CSHL.c ****             
 369:./Generated_Source/PSoC5/CapSense_CSHL.c ****             /* Initialize baselines */
 370:./Generated_Source/PSoC5/CapSense_CSHL.c ****             CapSense_BaseInit(i);
 371:./Generated_Source/PSoC5/CapSense_CSHL.c ****         }
 372:./Generated_Source/PSoC5/CapSense_CSHL.c ****     }  
 373:./Generated_Source/PSoC5/CapSense_CSHL.c **** #endif  /* End (CapSense_DESIGN_TYPE == CapSense_TWO_CHANNELS_DESIGN) */
 374:./Generated_Source/PSoC5/CapSense_CSHL.c **** 
 375:./Generated_Source/PSoC5/CapSense_CSHL.c **** 
 376:./Generated_Source/PSoC5/CapSense_CSHL.c **** /*******************************************************************************
 377:./Generated_Source/PSoC5/CapSense_CSHL.c **** * Function Name: CapSense_UpdateSensorBaseline
 378:./Generated_Source/PSoC5/CapSense_CSHL.c **** ********************************************************************************
 379:./Generated_Source/PSoC5/CapSense_CSHL.c **** *
 380:./Generated_Source/PSoC5/CapSense_CSHL.c **** * Summary:
 381:./Generated_Source/PSoC5/CapSense_CSHL.c **** *  Updates the CapSense_SensorBaseline[sensor] array element using the 
 382:./Generated_Source/PSoC5/CapSense_CSHL.c **** *  LP filter with k = 256. The signal calculates the difference of count by 
 383:./Generated_Source/PSoC5/CapSense_CSHL.c **** *  subtracting the previous baseline from the current raw count value and stores
 384:./Generated_Source/PSoC5/CapSense_CSHL.c **** *  it in CapSense_SensorSignal[sensor]. 
 385:./Generated_Source/PSoC5/CapSense_CSHL.c **** *  If auto reset option is enabled the baseline updated regards noise threshold. 
 386:./Generated_Source/PSoC5/CapSense_CSHL.c **** *  If auto reset option is disabled the baseline stops updating if signal is 
 387:./Generated_Source/PSoC5/CapSense_CSHL.c **** *  greater that zero and baseline loads with raw count value if signal is less 
 388:./Generated_Source/PSoC5/CapSense_CSHL.c **** *  that noise threshold.
 389:./Generated_Source/PSoC5/CapSense_CSHL.c **** *  Raw data filters are applied to the values if enabled before baseline 
 390:./Generated_Source/PSoC5/CapSense_CSHL.c **** *  calculation.
 391:./Generated_Source/PSoC5/CapSense_CSHL.c **** *
 392:./Generated_Source/PSoC5/CapSense_CSHL.c **** * Parameters:
 393:./Generated_Source/PSoC5/CapSense_CSHL.c **** *  sensor:  Sensor number.
 394:./Generated_Source/PSoC5/CapSense_CSHL.c **** *
 395:./Generated_Source/PSoC5/CapSense_CSHL.c **** * Return:
 396:./Generated_Source/PSoC5/CapSense_CSHL.c **** *  None
 397:./Generated_Source/PSoC5/CapSense_CSHL.c **** *
 398:./Generated_Source/PSoC5/CapSense_CSHL.c **** * Global Variables:
 399:./Generated_Source/PSoC5/CapSense_CSHL.c **** *  CapSense_SensorBaseline[]    - used to store baseline value.
 400:./Generated_Source/PSoC5/CapSense_CSHL.c **** *  CapSense_SensorBaselineLow[] - used to store fraction byte of 
 401:./Generated_Source/PSoC5/CapSense_CSHL.c **** *  baseline value.
 402:./Generated_Source/PSoC5/CapSense_CSHL.c **** *  CapSense_SensorSignal[]      - used to store diffence between 
 403:./Generated_Source/PSoC5/CapSense_CSHL.c **** *  current value of raw data and previous value of baseline.
 404:./Generated_Source/PSoC5/CapSense_CSHL.c **** *  CapSense_rawFilterData1[]    - used to store previous sample of 
 405:./Generated_Source/PSoC5/CapSense_CSHL.c **** *  any enabled raw data filter.
 406:./Generated_Source/PSoC5/CapSense_CSHL.c **** *  CapSense_rawFilterData2[]    - used to store before previous sample
 407:./Generated_Source/PSoC5/CapSense_CSHL.c **** *  of enabled raw data filter. Only required for median or average filters.
 408:./Generated_Source/PSoC5/CapSense_CSHL.c **** *
 409:./Generated_Source/PSoC5/CapSense_CSHL.c **** * Reentrant:
 410:./Generated_Source/PSoC5/CapSense_CSHL.c **** *  No
 411:./Generated_Source/PSoC5/CapSense_CSHL.c **** *
 412:./Generated_Source/PSoC5/CapSense_CSHL.c **** *******************************************************************************/
 413:./Generated_Source/PSoC5/CapSense_CSHL.c ****  void CapSense_UpdateSensorBaseline(uint8 sensor)
 414:./Generated_Source/PSoC5/CapSense_CSHL.c **** {
 316              		.loc 1 414 0
 317              		.cfi_startproc
 318              		@ args = 0, pretend = 0, frame = 24
ARM GAS  C:\Users\CHARLI~1\AppData\Local\Temp\ccYu411o.s 			page 14


 319              		@ frame_needed = 1, uses_anonymous_args = 0
 320 0000 80B5     		push	{r7, lr}
 321              	.LCFI9:
 322              		.cfi_def_cfa_offset 8
 323 0002 86B0     		sub	sp, sp, #24
 324              	.LCFI10:
 325              		.cfi_def_cfa_offset 32
 326 0004 00AF     		add	r7, sp, #0
 327              		.cfi_offset 14, -4
 328              		.cfi_offset 7, -8
 329              	.LCFI11:
 330              		.cfi_def_cfa_register 7
 331 0006 0346     		mov	r3, r0
 332 0008 FB71     		strb	r3, [r7, #7]
 415:./Generated_Source/PSoC5/CapSense_CSHL.c ****     uint32 calc;
 416:./Generated_Source/PSoC5/CapSense_CSHL.c ****     uint16 tempRaw;
 417:./Generated_Source/PSoC5/CapSense_CSHL.c ****     uint16 filteredRawData;
 418:./Generated_Source/PSoC5/CapSense_CSHL.c ****     uint8 widget = CapSense_widgetNumber[sensor];
 333              		.loc 1 418 0
 334 000a FA79     		ldrb	r2, [r7, #7]	@ zero_extendqisi2
 335 000c 40F20003 		movw	r3, #:lower16:CapSense_widgetNumber
 336 0010 C0F20003 		movt	r3, #:upper16:CapSense_widgetNumber
 337 0014 9B5C     		ldrb	r3, [r3, r2]
 338 0016 BB75     		strb	r3, [r7, #22]
 419:./Generated_Source/PSoC5/CapSense_CSHL.c ****     uint8 noiseThreshold = CapSense_noiseThreshold[widget];
 339              		.loc 1 419 0
 340 0018 BA7D     		ldrb	r2, [r7, #22]	@ zero_extendqisi2
 341 001a 40F20003 		movw	r3, #:lower16:CapSense_noiseThreshold
 342 001e C0F20003 		movt	r3, #:upper16:CapSense_noiseThreshold
 343 0022 9B5C     		ldrb	r3, [r3, r2]
 344 0024 FB75     		strb	r3, [r7, #23]
 420:./Generated_Source/PSoC5/CapSense_CSHL.c ****     
 421:./Generated_Source/PSoC5/CapSense_CSHL.c ****     #if (CapSense_TOTAL_GENERICS_COUNT)
 422:./Generated_Source/PSoC5/CapSense_CSHL.c ****         /* Exclude generic widget */
 423:./Generated_Source/PSoC5/CapSense_CSHL.c ****         if(widget < CapSense_END_OF_WIDGETS_INDEX)
 424:./Generated_Source/PSoC5/CapSense_CSHL.c ****         {
 425:./Generated_Source/PSoC5/CapSense_CSHL.c ****     #endif  /* End CapSense_TOTAL_GENERICS_COUNT */
 426:./Generated_Source/PSoC5/CapSense_CSHL.c ****     
 427:./Generated_Source/PSoC5/CapSense_CSHL.c ****     filteredRawData = CapSense_SensorRaw[sensor];
 345              		.loc 1 427 0
 346 0026 FA79     		ldrb	r2, [r7, #7]	@ zero_extendqisi2
 347 0028 40F20003 		movw	r3, #:lower16:CapSense_SensorRaw
 348 002c C0F20003 		movt	r3, #:upper16:CapSense_SensorRaw
 349 0030 33F81230 		ldrh	r3, [r3, r2, lsl #1]	@ movhi
 350 0034 BB82     		strh	r3, [r7, #20]	@ movhi
 428:./Generated_Source/PSoC5/CapSense_CSHL.c ****     
 429:./Generated_Source/PSoC5/CapSense_CSHL.c ****     #if (CapSense_RAW_FILTER_MASK & CapSense_MEDIAN_FILTER)
 430:./Generated_Source/PSoC5/CapSense_CSHL.c ****         tempRaw = filteredRawData;
 431:./Generated_Source/PSoC5/CapSense_CSHL.c ****         filteredRawData = CapSense_MedianFilter(filteredRawData, CapSense_rawFilterData1[sensor], 
 432:./Generated_Source/PSoC5/CapSense_CSHL.c ****                                                         CapSense_rawFilterData2[sensor]);
 433:./Generated_Source/PSoC5/CapSense_CSHL.c ****         CapSense_rawFilterData2[sensor] = CapSense_rawFilterData1[sensor];
 434:./Generated_Source/PSoC5/CapSense_CSHL.c ****         CapSense_rawFilterData1[sensor] = tempRaw;
 435:./Generated_Source/PSoC5/CapSense_CSHL.c ****         
 436:./Generated_Source/PSoC5/CapSense_CSHL.c ****     #elif (CapSense_RAW_FILTER_MASK & CapSense_AVERAGING_FILTER)
 437:./Generated_Source/PSoC5/CapSense_CSHL.c ****         tempRaw = filteredRawData;
 438:./Generated_Source/PSoC5/CapSense_CSHL.c ****         filteredRawData = CapSense_AveragingFilter(filteredRawData, CapSense_rawFilterData1[sensor]
 439:./Generated_Source/PSoC5/CapSense_CSHL.c ****                                                            CapSense_rawFilterData2[sensor]);
ARM GAS  C:\Users\CHARLI~1\AppData\Local\Temp\ccYu411o.s 			page 15


 440:./Generated_Source/PSoC5/CapSense_CSHL.c ****         CapSense_rawFilterData2[sensor] = CapSense_rawFilterData1[sensor];
 441:./Generated_Source/PSoC5/CapSense_CSHL.c ****         CapSense_rawFilterData1[sensor] = tempRaw;
 442:./Generated_Source/PSoC5/CapSense_CSHL.c ****         
 443:./Generated_Source/PSoC5/CapSense_CSHL.c ****     #elif (CapSense_RAW_FILTER_MASK & CapSense_IIR2_FILTER)
 444:./Generated_Source/PSoC5/CapSense_CSHL.c ****         filteredRawData = CapSense_IIR2Filter(filteredRawData, CapSense_rawFilterData1[sensor]);
 445:./Generated_Source/PSoC5/CapSense_CSHL.c ****         CapSense_rawFilterData1[sensor] = filteredRawData;
 446:./Generated_Source/PSoC5/CapSense_CSHL.c ****         
 447:./Generated_Source/PSoC5/CapSense_CSHL.c ****     #elif (CapSense_RAW_FILTER_MASK & CapSense_IIR4_FILTER)
 448:./Generated_Source/PSoC5/CapSense_CSHL.c ****         filteredRawData = CapSense_IIR4Filter(filteredRawData, CapSense_rawFilterData1[sensor]);
 351              		.loc 1 448 0
 352 0036 FA79     		ldrb	r2, [r7, #7]	@ zero_extendqisi2
 353 0038 40F20003 		movw	r3, #:lower16:CapSense_rawFilterData1
 354 003c C0F20003 		movt	r3, #:upper16:CapSense_rawFilterData1
 355 0040 33F81230 		ldrh	r3, [r3, r2, lsl #1]
 356 0044 BA8A     		ldrh	r2, [r7, #20]
 357 0046 1046     		mov	r0, r2
 358 0048 1946     		mov	r1, r3
 359 004a FFF7FEFF 		bl	CapSense_IIR4Filter
 360 004e 0346     		mov	r3, r0
 361 0050 BB82     		strh	r3, [r7, #20]	@ movhi
 449:./Generated_Source/PSoC5/CapSense_CSHL.c ****         CapSense_rawFilterData1[sensor] = filteredRawData;
 362              		.loc 1 449 0
 363 0052 FA79     		ldrb	r2, [r7, #7]	@ zero_extendqisi2
 364 0054 40F20003 		movw	r3, #:lower16:CapSense_rawFilterData1
 365 0058 C0F20003 		movt	r3, #:upper16:CapSense_rawFilterData1
 366 005c B98A     		ldrh	r1, [r7, #20]	@ movhi
 367 005e 23F81210 		strh	r1, [r3, r2, lsl #1]	@ movhi
 450:./Generated_Source/PSoC5/CapSense_CSHL.c ****             
 451:./Generated_Source/PSoC5/CapSense_CSHL.c ****     #elif (CapSense_RAW_FILTER_MASK & CapSense_JITTER_FILTER)
 452:./Generated_Source/PSoC5/CapSense_CSHL.c ****         filteredRawData = CapSense_JitterFilter(filteredRawData, CapSense_rawFilterData1[sensor]);
 453:./Generated_Source/PSoC5/CapSense_CSHL.c ****         CapSense_rawFilterData1[sensor] = filteredRawData;
 454:./Generated_Source/PSoC5/CapSense_CSHL.c ****         
 455:./Generated_Source/PSoC5/CapSense_CSHL.c ****     #elif (CapSense_RAW_FILTER_MASK & CapSense_IIR8_FILTER)
 456:./Generated_Source/PSoC5/CapSense_CSHL.c ****         filteredRawData = CapSense_IIR8Filter(filteredRawData, CapSense_rawFilterData1[sensor]);
 457:./Generated_Source/PSoC5/CapSense_CSHL.c ****         CapSense_rawFilterData1[sensor] = filteredRawData;
 458:./Generated_Source/PSoC5/CapSense_CSHL.c ****         
 459:./Generated_Source/PSoC5/CapSense_CSHL.c ****     #elif (CapSense_RAW_FILTER_MASK & CapSense_IIR16_FILTER)
 460:./Generated_Source/PSoC5/CapSense_CSHL.c ****         filteredRawData = CapSense_IIR16Filter(filteredRawData, CapSense_rawFilterData1[sensor]);
 461:./Generated_Source/PSoC5/CapSense_CSHL.c ****         CapSense_rawFilterData1[sensor] = filteredRawData;
 462:./Generated_Source/PSoC5/CapSense_CSHL.c ****         
 463:./Generated_Source/PSoC5/CapSense_CSHL.c ****     #else
 464:./Generated_Source/PSoC5/CapSense_CSHL.c ****         /* No Raw filters */
 465:./Generated_Source/PSoC5/CapSense_CSHL.c ****     #endif  /* End CapSense_RAW_FILTER_MASK */
 466:./Generated_Source/PSoC5/CapSense_CSHL.c ****     
 467:./Generated_Source/PSoC5/CapSense_CSHL.c ****     #if (CapSense_TUNING_METHOD == CapSense_AUTO_TUNING)
 468:./Generated_Source/PSoC5/CapSense_CSHL.c ****         CapSense_CalculateThresholds(sensor);
 368              		.loc 1 468 0
 369 0062 FB79     		ldrb	r3, [r7, #7]	@ zero_extendqisi2
 370 0064 1846     		mov	r0, r3
 371 0066 FFF7FEFF 		bl	CapSense_CalculateThresholds
 469:./Generated_Source/PSoC5/CapSense_CSHL.c ****     #endif /* End (CapSense_TUNING_METHOD == CapSense_AUTO_TUNING) */
 470:./Generated_Source/PSoC5/CapSense_CSHL.c ****     
 471:./Generated_Source/PSoC5/CapSense_CSHL.c ****     /* Baseline calculation */
 472:./Generated_Source/PSoC5/CapSense_CSHL.c ****     #if (CapSense_AUTO_RESET == CapSense_AUTO_RESET_DISABLE)
 473:./Generated_Source/PSoC5/CapSense_CSHL.c ****         
 474:./Generated_Source/PSoC5/CapSense_CSHL.c ****         /* Calculate difference RawData[cur] - Baseline[prev] */
 475:./Generated_Source/PSoC5/CapSense_CSHL.c ****         if(filteredRawData >= CapSense_SensorBaseline[sensor])
ARM GAS  C:\Users\CHARLI~1\AppData\Local\Temp\ccYu411o.s 			page 16


 372              		.loc 1 475 0
 373 006a FA79     		ldrb	r2, [r7, #7]	@ zero_extendqisi2
 374 006c 40F20003 		movw	r3, #:lower16:CapSense_SensorBaseline
 375 0070 C0F20003 		movt	r3, #:upper16:CapSense_SensorBaseline
 376 0074 33F81230 		ldrh	r3, [r3, r2, lsl #1]
 377 0078 BA8A     		ldrh	r2, [r7, #20]
 378 007a 9A42     		cmp	r2, r3
 379 007c 0ED3     		bcc	.L12
 476:./Generated_Source/PSoC5/CapSense_CSHL.c ****         {
 477:./Generated_Source/PSoC5/CapSense_CSHL.c ****             tempRaw = filteredRawData - CapSense_SensorBaseline[sensor];
 380              		.loc 1 477 0
 381 007e FA79     		ldrb	r2, [r7, #7]	@ zero_extendqisi2
 382 0080 40F20003 		movw	r3, #:lower16:CapSense_SensorBaseline
 383 0084 C0F20003 		movt	r3, #:upper16:CapSense_SensorBaseline
 384 0088 33F81230 		ldrh	r3, [r3, r2, lsl #1]
 385 008c BA8A     		ldrh	r2, [r7, #20]	@ movhi
 386 008e C3EB0203 		rsb	r3, r3, r2
 387 0092 7B82     		strh	r3, [r7, #18]	@ movhi
 478:./Generated_Source/PSoC5/CapSense_CSHL.c ****             widget = 1u;        /* Positive difference */
 388              		.loc 1 478 0
 389 0094 4FF00103 		mov	r3, #1
 390 0098 BB75     		strb	r3, [r7, #22]
 391 009a 0DE0     		b	.L13
 392              	.L12:
 479:./Generated_Source/PSoC5/CapSense_CSHL.c ****         }
 480:./Generated_Source/PSoC5/CapSense_CSHL.c ****         else
 481:./Generated_Source/PSoC5/CapSense_CSHL.c ****         {
 482:./Generated_Source/PSoC5/CapSense_CSHL.c ****             tempRaw = CapSense_SensorBaseline[sensor] - filteredRawData;
 393              		.loc 1 482 0
 394 009c FA79     		ldrb	r2, [r7, #7]	@ zero_extendqisi2
 395 009e 40F20003 		movw	r3, #:lower16:CapSense_SensorBaseline
 396 00a2 C0F20003 		movt	r3, #:upper16:CapSense_SensorBaseline
 397 00a6 33F81220 		ldrh	r2, [r3, r2, lsl #1]
 398 00aa BB8A     		ldrh	r3, [r7, #20]	@ movhi
 399 00ac C3EB0203 		rsb	r3, r3, r2
 400 00b0 7B82     		strh	r3, [r7, #18]	@ movhi
 483:./Generated_Source/PSoC5/CapSense_CSHL.c ****             widget = 0u;        /* Negative difference */
 401              		.loc 1 483 0
 402 00b2 4FF00003 		mov	r3, #0
 403 00b6 BB75     		strb	r3, [r7, #22]
 404              	.L13:
 484:./Generated_Source/PSoC5/CapSense_CSHL.c ****         }
 485:./Generated_Source/PSoC5/CapSense_CSHL.c ****         
 486:./Generated_Source/PSoC5/CapSense_CSHL.c ****         /* Update Baseline if lower that noiseThreshold */
 487:./Generated_Source/PSoC5/CapSense_CSHL.c ****         if (tempRaw <= (uint16) noiseThreshold)
 405              		.loc 1 487 0
 406 00b8 FB7D     		ldrb	r3, [r7, #23]	@ zero_extendqisi2
 407 00ba 7A8A     		ldrh	r2, [r7, #18]
 408 00bc 9A42     		cmp	r2, r3
 409 00be 3ED8     		bhi	.L14
 488:./Generated_Source/PSoC5/CapSense_CSHL.c ****         {
 489:./Generated_Source/PSoC5/CapSense_CSHL.c ****             /* Make full Baseline 23 bits */
 490:./Generated_Source/PSoC5/CapSense_CSHL.c ****             calc = (uint32) CapSense_SensorBaseline[sensor] << 8u;
 410              		.loc 1 490 0
 411 00c0 FA79     		ldrb	r2, [r7, #7]	@ zero_extendqisi2
 412 00c2 40F20003 		movw	r3, #:lower16:CapSense_SensorBaseline
 413 00c6 C0F20003 		movt	r3, #:upper16:CapSense_SensorBaseline
ARM GAS  C:\Users\CHARLI~1\AppData\Local\Temp\ccYu411o.s 			page 17


 414 00ca 33F81230 		ldrh	r3, [r3, r2, lsl #1]
 415 00ce 4FEA0323 		lsl	r3, r3, #8
 416 00d2 FB60     		str	r3, [r7, #12]
 491:./Generated_Source/PSoC5/CapSense_CSHL.c ****             calc |= (uint32) CapSense_SensorBaselineLow[sensor];
 417              		.loc 1 491 0
 418 00d4 FA79     		ldrb	r2, [r7, #7]	@ zero_extendqisi2
 419 00d6 40F20003 		movw	r3, #:lower16:CapSense_SensorBaselineLow
 420 00da C0F20003 		movt	r3, #:upper16:CapSense_SensorBaselineLow
 421 00de 9B5C     		ldrb	r3, [r3, r2]	@ zero_extendqisi2
 422 00e0 FA68     		ldr	r2, [r7, #12]
 423 00e2 42EA0303 		orr	r3, r2, r3
 424 00e6 FB60     		str	r3, [r7, #12]
 492:./Generated_Source/PSoC5/CapSense_CSHL.c ****             
 493:./Generated_Source/PSoC5/CapSense_CSHL.c ****             /* Add Raw Data to Baseline */
 494:./Generated_Source/PSoC5/CapSense_CSHL.c ****             calc += filteredRawData;
 425              		.loc 1 494 0
 426 00e8 BB8A     		ldrh	r3, [r7, #20]
 427 00ea FA68     		ldr	r2, [r7, #12]
 428 00ec 1344     		add	r3, r2, r3
 429 00ee FB60     		str	r3, [r7, #12]
 495:./Generated_Source/PSoC5/CapSense_CSHL.c ****             
 496:./Generated_Source/PSoC5/CapSense_CSHL.c ****             /* Sub the high Baseline */
 497:./Generated_Source/PSoC5/CapSense_CSHL.c ****             calc -= CapSense_SensorBaseline[sensor];
 430              		.loc 1 497 0
 431 00f0 FA79     		ldrb	r2, [r7, #7]	@ zero_extendqisi2
 432 00f2 40F20003 		movw	r3, #:lower16:CapSense_SensorBaseline
 433 00f6 C0F20003 		movt	r3, #:upper16:CapSense_SensorBaseline
 434 00fa 33F81230 		ldrh	r3, [r3, r2, lsl #1]
 435 00fe FA68     		ldr	r2, [r7, #12]
 436 0100 C3EB0203 		rsb	r3, r3, r2
 437 0104 FB60     		str	r3, [r7, #12]
 498:./Generated_Source/PSoC5/CapSense_CSHL.c ****             
 499:./Generated_Source/PSoC5/CapSense_CSHL.c ****             /* Put Baseline and BaselineLow */
 500:./Generated_Source/PSoC5/CapSense_CSHL.c ****             CapSense_SensorBaseline[sensor] = ((uint16) (calc >> 8u));
 438              		.loc 1 500 0
 439 0106 FA79     		ldrb	r2, [r7, #7]	@ zero_extendqisi2
 440 0108 FB68     		ldr	r3, [r7, #12]
 441 010a 4FEA1323 		lsr	r3, r3, #8
 442 010e 99B2     		uxth	r1, r3
 443 0110 40F20003 		movw	r3, #:lower16:CapSense_SensorBaseline
 444 0114 C0F20003 		movt	r3, #:upper16:CapSense_SensorBaseline
 445 0118 23F81210 		strh	r1, [r3, r2, lsl #1]	@ movhi
 501:./Generated_Source/PSoC5/CapSense_CSHL.c ****             CapSense_SensorBaselineLow[sensor] = ((uint8) calc);
 446              		.loc 1 501 0
 447 011c FA79     		ldrb	r2, [r7, #7]	@ zero_extendqisi2
 448 011e FB68     		ldr	r3, [r7, #12]
 449 0120 D9B2     		uxtb	r1, r3
 450 0122 40F20003 		movw	r3, #:lower16:CapSense_SensorBaselineLow
 451 0126 C0F20003 		movt	r3, #:upper16:CapSense_SensorBaselineLow
 452 012a 9954     		strb	r1, [r3, r2]
 502:./Generated_Source/PSoC5/CapSense_CSHL.c ****             
 503:./Generated_Source/PSoC5/CapSense_CSHL.c ****             /* Signal is zero */
 504:./Generated_Source/PSoC5/CapSense_CSHL.c ****             CapSense_SensorSignal[sensor] = 0u;
 453              		.loc 1 504 0
 454 012c FA79     		ldrb	r2, [r7, #7]	@ zero_extendqisi2
 455 012e 40F20003 		movw	r3, #:lower16:CapSense_SensorSignal
 456 0132 C0F20003 		movt	r3, #:upper16:CapSense_SensorSignal
ARM GAS  C:\Users\CHARLI~1\AppData\Local\Temp\ccYu411o.s 			page 18


 457 0136 4FF00001 		mov	r1, #0
 458 013a 9954     		strb	r1, [r3, r2]
 459 013c 2FE0     		b	.L19
 460              	.L14:
 505:./Generated_Source/PSoC5/CapSense_CSHL.c ****         }
 506:./Generated_Source/PSoC5/CapSense_CSHL.c ****         /* Calculate Signal if possitive difference > noiseThreshold */
 507:./Generated_Source/PSoC5/CapSense_CSHL.c ****         else if (widget != 0u)
 461              		.loc 1 507 0
 462 013e BB7D     		ldrb	r3, [r7, #22]	@ zero_extendqisi2
 463 0140 002B     		cmp	r3, #0
 464 0142 14D0     		beq	.L16
 508:./Generated_Source/PSoC5/CapSense_CSHL.c ****         {
 509:./Generated_Source/PSoC5/CapSense_CSHL.c ****             #if (CapSense_SIGNAL_SIZE == CapSense_SIGNAL_SIZE_UINT8)
 510:./Generated_Source/PSoC5/CapSense_CSHL.c ****                 /* Over flow defence for uint8 */
 511:./Generated_Source/PSoC5/CapSense_CSHL.c ****                 if (tempRaw > 0xFFu)
 465              		.loc 1 511 0
 466 0144 7B8A     		ldrh	r3, [r7, #18]
 467 0146 FF2B     		cmp	r3, #255
 468 0148 08D9     		bls	.L17
 512:./Generated_Source/PSoC5/CapSense_CSHL.c ****                 {
 513:./Generated_Source/PSoC5/CapSense_CSHL.c ****                     CapSense_SensorSignal[sensor] = 0xFFu;
 469              		.loc 1 513 0
 470 014a FA79     		ldrb	r2, [r7, #7]	@ zero_extendqisi2
 471 014c 40F20003 		movw	r3, #:lower16:CapSense_SensorSignal
 472 0150 C0F20003 		movt	r3, #:upper16:CapSense_SensorSignal
 473 0154 4FF0FF31 		mov	r1, #-1
 474 0158 9954     		strb	r1, [r3, r2]
 514:./Generated_Source/PSoC5/CapSense_CSHL.c ****                 }    
 515:./Generated_Source/PSoC5/CapSense_CSHL.c ****                 else 
 516:./Generated_Source/PSoC5/CapSense_CSHL.c ****                 {
 517:./Generated_Source/PSoC5/CapSense_CSHL.c ****                     CapSense_SensorSignal[sensor] = ((uint8) tempRaw);
 475              		.loc 1 517 0
 476 015a 20E0     		b	.L19
 477              	.L17:
 478 015c FA79     		ldrb	r2, [r7, #7]	@ zero_extendqisi2
 479 015e 7B8A     		ldrh	r3, [r7, #18]	@ movhi
 480 0160 D9B2     		uxtb	r1, r3
 481 0162 40F20003 		movw	r3, #:lower16:CapSense_SensorSignal
 482 0166 C0F20003 		movt	r3, #:upper16:CapSense_SensorSignal
 483 016a 9954     		strb	r1, [r3, r2]
 484 016c 17E0     		b	.L19
 485              	.L16:
 518:./Generated_Source/PSoC5/CapSense_CSHL.c ****                 }
 519:./Generated_Source/PSoC5/CapSense_CSHL.c ****             #else
 520:./Generated_Source/PSoC5/CapSense_CSHL.c ****                 CapSense_SensorSignal[sensor] = ((uint16) tempRaw);
 521:./Generated_Source/PSoC5/CapSense_CSHL.c ****                 
 522:./Generated_Source/PSoC5/CapSense_CSHL.c ****             #endif  /* End CapSense_SIGNAL_SIZE */
 523:./Generated_Source/PSoC5/CapSense_CSHL.c ****         }
 524:./Generated_Source/PSoC5/CapSense_CSHL.c ****         /* Reinitialize if negative difference > noiseThreshold */
 525:./Generated_Source/PSoC5/CapSense_CSHL.c ****         else
 526:./Generated_Source/PSoC5/CapSense_CSHL.c ****         {
 527:./Generated_Source/PSoC5/CapSense_CSHL.c ****             /* Baseline and BaselineLow re-init */
 528:./Generated_Source/PSoC5/CapSense_CSHL.c ****             CapSense_SensorBaseline[sensor] = filteredRawData;
 486              		.loc 1 528 0
 487 016e FA79     		ldrb	r2, [r7, #7]	@ zero_extendqisi2
 488 0170 40F20003 		movw	r3, #:lower16:CapSense_SensorBaseline
 489 0174 C0F20003 		movt	r3, #:upper16:CapSense_SensorBaseline
ARM GAS  C:\Users\CHARLI~1\AppData\Local\Temp\ccYu411o.s 			page 19


 490 0178 B98A     		ldrh	r1, [r7, #20]	@ movhi
 491 017a 23F81210 		strh	r1, [r3, r2, lsl #1]	@ movhi
 529:./Generated_Source/PSoC5/CapSense_CSHL.c ****             CapSense_SensorBaselineLow[sensor] = 0u;
 492              		.loc 1 529 0
 493 017e FA79     		ldrb	r2, [r7, #7]	@ zero_extendqisi2
 494 0180 40F20003 		movw	r3, #:lower16:CapSense_SensorBaselineLow
 495 0184 C0F20003 		movt	r3, #:upper16:CapSense_SensorBaselineLow
 496 0188 4FF00001 		mov	r1, #0
 497 018c 9954     		strb	r1, [r3, r2]
 530:./Generated_Source/PSoC5/CapSense_CSHL.c ****             
 531:./Generated_Source/PSoC5/CapSense_CSHL.c ****             /* Signal is zero */
 532:./Generated_Source/PSoC5/CapSense_CSHL.c ****             CapSense_SensorSignal[sensor] = 0u;
 498              		.loc 1 532 0
 499 018e FA79     		ldrb	r2, [r7, #7]	@ zero_extendqisi2
 500 0190 40F20003 		movw	r3, #:lower16:CapSense_SensorSignal
 501 0194 C0F20003 		movt	r3, #:upper16:CapSense_SensorSignal
 502 0198 4FF00001 		mov	r1, #0
 503 019c 9954     		strb	r1, [r3, r2]
 504              	.L19:
 533:./Generated_Source/PSoC5/CapSense_CSHL.c ****         }
 534:./Generated_Source/PSoC5/CapSense_CSHL.c ****     
 535:./Generated_Source/PSoC5/CapSense_CSHL.c ****     #else
 536:./Generated_Source/PSoC5/CapSense_CSHL.c ****         /* Calculate difference RawData[cur] - Baseline[prev] */
 537:./Generated_Source/PSoC5/CapSense_CSHL.c ****         if(filteredRawData >= CapSense_SensorBaseline[sensor])
 538:./Generated_Source/PSoC5/CapSense_CSHL.c ****         {
 539:./Generated_Source/PSoC5/CapSense_CSHL.c ****             tempRaw = filteredRawData - CapSense_SensorBaseline[sensor];
 540:./Generated_Source/PSoC5/CapSense_CSHL.c ****             widget = 1u;    /* Calculate the Signal */
 541:./Generated_Source/PSoC5/CapSense_CSHL.c ****         }
 542:./Generated_Source/PSoC5/CapSense_CSHL.c ****         else
 543:./Generated_Source/PSoC5/CapSense_CSHL.c ****         {
 544:./Generated_Source/PSoC5/CapSense_CSHL.c ****             tempRaw = CapSense_SensorBaseline[sensor] - filteredRawData;
 545:./Generated_Source/PSoC5/CapSense_CSHL.c ****             widget = 0u;    /* Do NOT calculate the Signal */
 546:./Generated_Source/PSoC5/CapSense_CSHL.c ****         }
 547:./Generated_Source/PSoC5/CapSense_CSHL.c ****         
 548:./Generated_Source/PSoC5/CapSense_CSHL.c ****         if((tempRaw > (uint16) noiseThreshold) && (widget != 0u))
 549:./Generated_Source/PSoC5/CapSense_CSHL.c ****         {
 550:./Generated_Source/PSoC5/CapSense_CSHL.c ****             #if (CapSense_SIGNAL_SIZE == CapSense_SIGNAL_SIZE_UINT8)
 551:./Generated_Source/PSoC5/CapSense_CSHL.c ****                 /* Over flow defence for uint8 */
 552:./Generated_Source/PSoC5/CapSense_CSHL.c ****                 if (tempRaw > 0xFFu)
 553:./Generated_Source/PSoC5/CapSense_CSHL.c ****                 {
 554:./Generated_Source/PSoC5/CapSense_CSHL.c ****                     CapSense_SensorSignal[sensor] = 0xFFu;
 555:./Generated_Source/PSoC5/CapSense_CSHL.c ****                 }    
 556:./Generated_Source/PSoC5/CapSense_CSHL.c ****                 else 
 557:./Generated_Source/PSoC5/CapSense_CSHL.c ****                 {
 558:./Generated_Source/PSoC5/CapSense_CSHL.c ****                     CapSense_SensorSignal[sensor] = ((uint8) tempRaw);
 559:./Generated_Source/PSoC5/CapSense_CSHL.c ****                 }
 560:./Generated_Source/PSoC5/CapSense_CSHL.c ****             #else
 561:./Generated_Source/PSoC5/CapSense_CSHL.c ****                 CapSense_SensorSignal[sensor] = ((uint16) tempRaw);
 562:./Generated_Source/PSoC5/CapSense_CSHL.c ****                 
 563:./Generated_Source/PSoC5/CapSense_CSHL.c ****             #endif  /* End CapSense_SIGNAL_SIZE */
 564:./Generated_Source/PSoC5/CapSense_CSHL.c ****         }
 565:./Generated_Source/PSoC5/CapSense_CSHL.c ****         else
 566:./Generated_Source/PSoC5/CapSense_CSHL.c ****         {
 567:./Generated_Source/PSoC5/CapSense_CSHL.c ****             /* Signal is zero */
 568:./Generated_Source/PSoC5/CapSense_CSHL.c ****             CapSense_SensorSignal[sensor] = 0u;
 569:./Generated_Source/PSoC5/CapSense_CSHL.c ****         }
 570:./Generated_Source/PSoC5/CapSense_CSHL.c ****         
ARM GAS  C:\Users\CHARLI~1\AppData\Local\Temp\ccYu411o.s 			page 20


 571:./Generated_Source/PSoC5/CapSense_CSHL.c ****         /* Update Baseline */
 572:./Generated_Source/PSoC5/CapSense_CSHL.c ****         /* Make full Baseline 23 bits */
 573:./Generated_Source/PSoC5/CapSense_CSHL.c ****         calc = (uint32) CapSense_SensorBaseline[sensor] << 8u;
 574:./Generated_Source/PSoC5/CapSense_CSHL.c ****         calc |= (uint32) CapSense_SensorBaselineLow[sensor];
 575:./Generated_Source/PSoC5/CapSense_CSHL.c ****         
 576:./Generated_Source/PSoC5/CapSense_CSHL.c ****         /* Add Raw Data to Baseline */
 577:./Generated_Source/PSoC5/CapSense_CSHL.c ****         calc += filteredRawData;
 578:./Generated_Source/PSoC5/CapSense_CSHL.c ****         
 579:./Generated_Source/PSoC5/CapSense_CSHL.c ****         /* Sub the high Baseline */
 580:./Generated_Source/PSoC5/CapSense_CSHL.c ****         calc -= CapSense_SensorBaseline[sensor];
 581:./Generated_Source/PSoC5/CapSense_CSHL.c ****         
 582:./Generated_Source/PSoC5/CapSense_CSHL.c ****         /* Put Baseline and BaselineLow */
 583:./Generated_Source/PSoC5/CapSense_CSHL.c ****         CapSense_SensorBaseline[sensor] = ((uint16) (calc >> 8u));
 584:./Generated_Source/PSoC5/CapSense_CSHL.c ****         CapSense_SensorBaselineLow[sensor] = ((uint8) calc);
 585:./Generated_Source/PSoC5/CapSense_CSHL.c ****      
 586:./Generated_Source/PSoC5/CapSense_CSHL.c ****     #endif  /* End (CapSense_AUTO_RESET == CapSense_AUTO_RESET_DISABLE) */
 587:./Generated_Source/PSoC5/CapSense_CSHL.c ****     
 588:./Generated_Source/PSoC5/CapSense_CSHL.c ****     #if (CapSense_TOTAL_GENERICS_COUNT)
 589:./Generated_Source/PSoC5/CapSense_CSHL.c ****         /* Exclude generic widget */
 590:./Generated_Source/PSoC5/CapSense_CSHL.c ****         }
 591:./Generated_Source/PSoC5/CapSense_CSHL.c ****     #endif  /* End CapSense_TOTAL_GENERICS_COUNT */
 592:./Generated_Source/PSoC5/CapSense_CSHL.c **** }
 505              		.loc 1 592 0
 506 019e 07F11807 		add	r7, r7, #24
 507 01a2 BD46     		mov	sp, r7
 508 01a4 80BD     		pop	{r7, pc}
 509              		.cfi_endproc
 510              	.LFE3:
 511              		.size	CapSense_UpdateSensorBaseline, .-CapSense_UpdateSensorBaseline
 512 01a6 00BF     		.section	.text.CapSense_UpdateEnabledBaselines,"ax",%progbits
 513              		.align	2
 514              		.global	CapSense_UpdateEnabledBaselines
 515              		.thumb
 516              		.thumb_func
 517              		.type	CapSense_UpdateEnabledBaselines, %function
 518              	CapSense_UpdateEnabledBaselines:
 519              	.LFB4:
 593:./Generated_Source/PSoC5/CapSense_CSHL.c **** 
 594:./Generated_Source/PSoC5/CapSense_CSHL.c **** 
 595:./Generated_Source/PSoC5/CapSense_CSHL.c **** /*******************************************************************************
 596:./Generated_Source/PSoC5/CapSense_CSHL.c **** * Function Name: CapSense_UpdateEnabledBaselines
 597:./Generated_Source/PSoC5/CapSense_CSHL.c **** ********************************************************************************
 598:./Generated_Source/PSoC5/CapSense_CSHL.c **** *
 599:./Generated_Source/PSoC5/CapSense_CSHL.c **** * Summary:
 600:./Generated_Source/PSoC5/CapSense_CSHL.c **** *  Checks CapSense_SensorEnableMask[] array and calls the 
 601:./Generated_Source/PSoC5/CapSense_CSHL.c **** *  CapSense_UpdateSensorBaseline function to update the baselines 
 602:./Generated_Source/PSoC5/CapSense_CSHL.c **** *  for enabled sensors.
 603:./Generated_Source/PSoC5/CapSense_CSHL.c **** *
 604:./Generated_Source/PSoC5/CapSense_CSHL.c **** * Parameters:
 605:./Generated_Source/PSoC5/CapSense_CSHL.c **** *  None
 606:./Generated_Source/PSoC5/CapSense_CSHL.c **** *
 607:./Generated_Source/PSoC5/CapSense_CSHL.c **** * Return:
 608:./Generated_Source/PSoC5/CapSense_CSHL.c **** *  None
 609:./Generated_Source/PSoC5/CapSense_CSHL.c **** *
 610:./Generated_Source/PSoC5/CapSense_CSHL.c **** * Global Variables:
 611:./Generated_Source/PSoC5/CapSense_CSHL.c **** *  CapSense_SensorEnableMask[] - used to store the sensor scanning 
 612:./Generated_Source/PSoC5/CapSense_CSHL.c **** *  state.
ARM GAS  C:\Users\CHARLI~1\AppData\Local\Temp\ccYu411o.s 			page 21


 613:./Generated_Source/PSoC5/CapSense_CSHL.c **** *  CapSense_SensorEnableMask[0] contains the masked bits for sensors 
 614:./Generated_Source/PSoC5/CapSense_CSHL.c **** *   0 through 7 (sensor 0 is bit 0, sensor 1 is bit 1).
 615:./Generated_Source/PSoC5/CapSense_CSHL.c **** *  CapSense_SensorEnableMask[1] contains the masked bits for 
 616:./Generated_Source/PSoC5/CapSense_CSHL.c **** *  sensors 8 through 15 (if needed), and so on.
 617:./Generated_Source/PSoC5/CapSense_CSHL.c **** *  0 - sensor doesn't scan by CapSense_ScanEnabledWidgets().
 618:./Generated_Source/PSoC5/CapSense_CSHL.c **** *  1 - sensor scans by CapSense_ScanEnabledWidgets().
 619:./Generated_Source/PSoC5/CapSense_CSHL.c **** *
 620:./Generated_Source/PSoC5/CapSense_CSHL.c **** * Reentrant:
 621:./Generated_Source/PSoC5/CapSense_CSHL.c **** *  No
 622:./Generated_Source/PSoC5/CapSense_CSHL.c **** *
 623:./Generated_Source/PSoC5/CapSense_CSHL.c **** *******************************************************************************/
 624:./Generated_Source/PSoC5/CapSense_CSHL.c ****  void CapSense_UpdateEnabledBaselines(void)
 625:./Generated_Source/PSoC5/CapSense_CSHL.c **** {
 520              		.loc 1 625 0
 521              		.cfi_startproc
 522              		@ args = 0, pretend = 0, frame = 8
 523              		@ frame_needed = 1, uses_anonymous_args = 0
 524 0000 80B5     		push	{r7, lr}
 525              	.LCFI12:
 526              		.cfi_def_cfa_offset 8
 527 0002 82B0     		sub	sp, sp, #8
 528              	.LCFI13:
 529              		.cfi_def_cfa_offset 16
 530 0004 00AF     		add	r7, sp, #0
 531              		.cfi_offset 14, -4
 532              		.cfi_offset 7, -8
 533              	.LCFI14:
 534              		.cfi_def_cfa_register 7
 626:./Generated_Source/PSoC5/CapSense_CSHL.c ****     uint8 i;
 627:./Generated_Source/PSoC5/CapSense_CSHL.c ****     uint8 pos;
 628:./Generated_Source/PSoC5/CapSense_CSHL.c ****     uint8 enMask;
 629:./Generated_Source/PSoC5/CapSense_CSHL.c ****     
 630:./Generated_Source/PSoC5/CapSense_CSHL.c ****     for(i = 0; i < CapSense_TOTAL_SENSOR_COUNT; i++)
 535              		.loc 1 630 0
 536 0006 4FF00003 		mov	r3, #0
 537 000a 7B71     		strb	r3, [r7, #5]
 538 000c 1FE0     		b	.L21
 539              	.L23:
 631:./Generated_Source/PSoC5/CapSense_CSHL.c ****     {
 632:./Generated_Source/PSoC5/CapSense_CSHL.c ****         pos = (i >> 3u);
 540              		.loc 1 632 0
 541 000e 7B79     		ldrb	r3, [r7, #5]	@ zero_extendqisi2
 542 0010 4FEAD303 		lsr	r3, r3, #3
 543 0014 BB71     		strb	r3, [r7, #6]
 633:./Generated_Source/PSoC5/CapSense_CSHL.c ****         enMask = 0x01u << (i & 0x07u);
 544              		.loc 1 633 0
 545 0016 7B79     		ldrb	r3, [r7, #5]	@ zero_extendqisi2
 546 0018 03F00703 		and	r3, r3, #7
 547 001c 4FF00102 		mov	r2, #1
 548 0020 02FA03F3 		lsl	r3, r2, r3
 549 0024 FB71     		strb	r3, [r7, #7]
 634:./Generated_Source/PSoC5/CapSense_CSHL.c ****         if((CapSense_SensorEnableMask[pos] & enMask) != 0u)
 550              		.loc 1 634 0
 551 0026 BA79     		ldrb	r2, [r7, #6]	@ zero_extendqisi2
 552 0028 40F20003 		movw	r3, #:lower16:CapSense_SensorEnableMask
 553 002c C0F20003 		movt	r3, #:upper16:CapSense_SensorEnableMask
 554 0030 9A5C     		ldrb	r2, [r3, r2]	@ zero_extendqisi2
ARM GAS  C:\Users\CHARLI~1\AppData\Local\Temp\ccYu411o.s 			page 22


 555 0032 FB79     		ldrb	r3, [r7, #7]
 556 0034 02EA0303 		and	r3, r2, r3
 557 0038 DBB2     		uxtb	r3, r3
 558 003a 002B     		cmp	r3, #0
 559 003c 03D0     		beq	.L22
 635:./Generated_Source/PSoC5/CapSense_CSHL.c ****         {
 636:./Generated_Source/PSoC5/CapSense_CSHL.c ****             CapSense_UpdateSensorBaseline(i);
 560              		.loc 1 636 0
 561 003e 7B79     		ldrb	r3, [r7, #5]	@ zero_extendqisi2
 562 0040 1846     		mov	r0, r3
 563 0042 FFF7FEFF 		bl	CapSense_UpdateSensorBaseline
 564              	.L22:
 565              		.loc 1 630 0
 566 0046 7B79     		ldrb	r3, [r7, #5]
 567 0048 03F10103 		add	r3, r3, #1
 568 004c 7B71     		strb	r3, [r7, #5]
 569              	.L21:
 570 004e 7B79     		ldrb	r3, [r7, #5]	@ zero_extendqisi2
 571 0050 062B     		cmp	r3, #6
 572 0052 DCD9     		bls	.L23
 637:./Generated_Source/PSoC5/CapSense_CSHL.c ****         }
 638:./Generated_Source/PSoC5/CapSense_CSHL.c ****     }
 639:./Generated_Source/PSoC5/CapSense_CSHL.c **** }
 573              		.loc 1 639 0
 574 0054 07F10807 		add	r7, r7, #8
 575 0058 BD46     		mov	sp, r7
 576 005a 80BD     		pop	{r7, pc}
 577              		.cfi_endproc
 578              	.LFE4:
 579              		.size	CapSense_UpdateEnabledBaselines, .-CapSense_UpdateEnabledBaselines
 580              		.section	.text.CapSense_CheckIsSensorActive,"ax",%progbits
 581              		.align	2
 582              		.global	CapSense_CheckIsSensorActive
 583              		.thumb
 584              		.thumb_func
 585              		.type	CapSense_CheckIsSensorActive, %function
 586              	CapSense_CheckIsSensorActive:
 587              	.LFB5:
 640:./Generated_Source/PSoC5/CapSense_CSHL.c **** 
 641:./Generated_Source/PSoC5/CapSense_CSHL.c **** 
 642:./Generated_Source/PSoC5/CapSense_CSHL.c **** /*******************************************************************************
 643:./Generated_Source/PSoC5/CapSense_CSHL.c **** * Function Name: CapSense_CheckIsSensorActive
 644:./Generated_Source/PSoC5/CapSense_CSHL.c **** ********************************************************************************
 645:./Generated_Source/PSoC5/CapSense_CSHL.c **** *
 646:./Generated_Source/PSoC5/CapSense_CSHL.c **** * Summary:
 647:./Generated_Source/PSoC5/CapSense_CSHL.c **** *  Compares the CapSense_SensorSignal[sensor] array element to finger
 648:./Generated_Source/PSoC5/CapSense_CSHL.c **** *  threshold of widget it belongs to. The hysteresis and debounce are taken into 
 649:./Generated_Source/PSoC5/CapSense_CSHL.c **** *  account. The hysteresis is added or subtracted from the finger threshold 
 650:./Generated_Source/PSoC5/CapSense_CSHL.c **** *  based on whether the sensor is currently active. 
 651:./Generated_Source/PSoC5/CapSense_CSHL.c **** *  If the sensor is active, the threshold is lowered by the hysteresis amount.
 652:./Generated_Source/PSoC5/CapSense_CSHL.c **** *  If the sensor is inactive, the threshold is raised by the hysteresis amount.
 653:./Generated_Source/PSoC5/CapSense_CSHL.c **** *  The debounce counter added to the sensor active transition.
 654:./Generated_Source/PSoC5/CapSense_CSHL.c **** *  This function updates CapSense_SensorOnMask[] array element.
 655:./Generated_Source/PSoC5/CapSense_CSHL.c **** *
 656:./Generated_Source/PSoC5/CapSense_CSHL.c **** * Parameters:
 657:./Generated_Source/PSoC5/CapSense_CSHL.c **** *  sensor:  Sensor number.
 658:./Generated_Source/PSoC5/CapSense_CSHL.c **** *
ARM GAS  C:\Users\CHARLI~1\AppData\Local\Temp\ccYu411o.s 			page 23


 659:./Generated_Source/PSoC5/CapSense_CSHL.c **** * Return:
 660:./Generated_Source/PSoC5/CapSense_CSHL.c **** *  Returns sensor state 1 if active, 0 if not active.
 661:./Generated_Source/PSoC5/CapSense_CSHL.c **** *
 662:./Generated_Source/PSoC5/CapSense_CSHL.c **** * Global Variables:
 663:./Generated_Source/PSoC5/CapSense_CSHL.c **** *  CapSense_SensorSignal[]      - used to store diffence between 
 664:./Generated_Source/PSoC5/CapSense_CSHL.c **** *  current value of raw data and previous value of baseline.
 665:./Generated_Source/PSoC5/CapSense_CSHL.c **** *  CapSense_debounceCounter[]   - used to store current debounce 
 666:./Generated_Source/PSoC5/CapSense_CSHL.c **** *  counter of sensor. Widget which has this parameter are buttons, matrix 
 667:./Generated_Source/PSoC5/CapSense_CSHL.c **** *  buttons, proximity, guard. All other widgets haven't debounce parameter
 668:./Generated_Source/PSoC5/CapSense_CSHL.c **** *  and use the last element of this array with value 0 (it means no debounce).
 669:./Generated_Source/PSoC5/CapSense_CSHL.c **** *  CapSense_SensorOnMask[] - used to store sensors on/off state.
 670:./Generated_Source/PSoC5/CapSense_CSHL.c **** *  CapSense_SensorOnMask[0] contains the masked bits for sensors 
 671:./Generated_Source/PSoC5/CapSense_CSHL.c **** *   0 through 7 (sensor 0 is bit 0, sensor 1 is bit 1).
 672:./Generated_Source/PSoC5/CapSense_CSHL.c **** *  CapSense_SensorEnableMask[1] contains the masked bits for 
 673:./Generated_Source/PSoC5/CapSense_CSHL.c **** *  sensors 8 through 15 (if needed), and so on.
 674:./Generated_Source/PSoC5/CapSense_CSHL.c **** *  0 - sensor is inactive.
 675:./Generated_Source/PSoC5/CapSense_CSHL.c **** *  1 - sensor is active.
 676:./Generated_Source/PSoC5/CapSense_CSHL.c **** *
 677:./Generated_Source/PSoC5/CapSense_CSHL.c **** * Reentrant:
 678:./Generated_Source/PSoC5/CapSense_CSHL.c **** *  No
 679:./Generated_Source/PSoC5/CapSense_CSHL.c **** *
 680:./Generated_Source/PSoC5/CapSense_CSHL.c **** *******************************************************************************/
 681:./Generated_Source/PSoC5/CapSense_CSHL.c **** uint8 CapSense_CheckIsSensorActive(uint8 sensor)
 682:./Generated_Source/PSoC5/CapSense_CSHL.c **** {
 588              		.loc 1 682 0
 589              		.cfi_startproc
 590              		@ args = 0, pretend = 0, frame = 16
 591              		@ frame_needed = 1, uses_anonymous_args = 0
 592              		@ link register save eliminated.
 593 0000 80B4     		push	{r7}
 594              	.LCFI15:
 595              		.cfi_def_cfa_offset 4
 596 0002 85B0     		sub	sp, sp, #20
 597              	.LCFI16:
 598              		.cfi_def_cfa_offset 24
 599 0004 00AF     		add	r7, sp, #0
 600              		.cfi_offset 7, -4
 601              	.LCFI17:
 602              		.cfi_def_cfa_register 7
 603 0006 0346     		mov	r3, r0
 604 0008 FB71     		strb	r3, [r7, #7]
 683:./Generated_Source/PSoC5/CapSense_CSHL.c ****     uint8 debounceIndex;
 684:./Generated_Source/PSoC5/CapSense_CSHL.c ****     /* Get On/Off mask */
 685:./Generated_Source/PSoC5/CapSense_CSHL.c ****     uint8 pos = (sensor >> 3u);
 605              		.loc 1 685 0
 606 000a FB79     		ldrb	r3, [r7, #7]	@ zero_extendqisi2
 607 000c 4FEAD303 		lsr	r3, r3, #3
 608 0010 BB72     		strb	r3, [r7, #10]
 686:./Generated_Source/PSoC5/CapSense_CSHL.c ****     uint8 onMask = 0x01u << (sensor & 0x07u);
 609              		.loc 1 686 0
 610 0012 FB79     		ldrb	r3, [r7, #7]	@ zero_extendqisi2
 611 0014 03F00703 		and	r3, r3, #7
 612 0018 4FF00102 		mov	r2, #1
 613 001c 02FA03F3 		lsl	r3, r2, r3
 614 0020 FB72     		strb	r3, [r7, #11]
 687:./Generated_Source/PSoC5/CapSense_CSHL.c ****     /* Prepare to find debounce counter index */
 688:./Generated_Source/PSoC5/CapSense_CSHL.c ****     uint8 widget = CapSense_widgetNumber[sensor];
ARM GAS  C:\Users\CHARLI~1\AppData\Local\Temp\ccYu411o.s 			page 24


 615              		.loc 1 688 0
 616 0022 FA79     		ldrb	r2, [r7, #7]	@ zero_extendqisi2
 617 0024 40F20003 		movw	r3, #:lower16:CapSense_widgetNumber
 618 0028 C0F20003 		movt	r3, #:upper16:CapSense_widgetNumber
 619 002c 9B5C     		ldrb	r3, [r3, r2]
 620 002e 3B73     		strb	r3, [r7, #12]
 689:./Generated_Source/PSoC5/CapSense_CSHL.c ****     uint8 fingerThreshold = CapSense_fingerThreshold[widget];
 621              		.loc 1 689 0
 622 0030 3A7B     		ldrb	r2, [r7, #12]	@ zero_extendqisi2
 623 0032 40F20003 		movw	r3, #:lower16:CapSense_fingerThreshold
 624 0036 C0F20003 		movt	r3, #:upper16:CapSense_fingerThreshold
 625 003a 9B5C     		ldrb	r3, [r3, r2]
 626 003c 7B73     		strb	r3, [r7, #13]
 690:./Generated_Source/PSoC5/CapSense_CSHL.c ****     uint8 hysteresis = CapSense_hysteresis[widget];
 627              		.loc 1 690 0
 628 003e 3A7B     		ldrb	r2, [r7, #12]	@ zero_extendqisi2
 629 0040 40F20003 		movw	r3, #:lower16:CapSense_hysteresis
 630 0044 C0F20003 		movt	r3, #:upper16:CapSense_hysteresis
 631 0048 9B5C     		ldrb	r3, [r3, r2]
 632 004a BB73     		strb	r3, [r7, #14]
 691:./Generated_Source/PSoC5/CapSense_CSHL.c ****     uint8 debounce = CapSense_debounce[widget];
 633              		.loc 1 691 0
 634 004c 3A7B     		ldrb	r2, [r7, #12]	@ zero_extendqisi2
 635 004e 40F20003 		movw	r3, #:lower16:CapSense_debounce
 636 0052 C0F20003 		movt	r3, #:upper16:CapSense_debounce
 637 0056 9B5C     		ldrb	r3, [r3, r2]
 638 0058 FB73     		strb	r3, [r7, #15]
 692:./Generated_Source/PSoC5/CapSense_CSHL.c ****     
 693:./Generated_Source/PSoC5/CapSense_CSHL.c ****     if (widget < CapSense_TOTAL_CENTROIDS_COUNT)
 639              		.loc 1 693 0
 640 005a 3B7B     		ldrb	r3, [r7, #12]	@ zero_extendqisi2
 641 005c 002B     		cmp	r3, #0
 642 005e 0BD1     		bne	.L26
 694:./Generated_Source/PSoC5/CapSense_CSHL.c ****     {
 695:./Generated_Source/PSoC5/CapSense_CSHL.c ****         debounceIndex = CapSense_UNUSED_DEBOUNCE_COUNTER_INDEX;
 643              		.loc 1 695 0
 644 0060 4FF00203 		mov	r3, #2
 645 0064 7B72     		strb	r3, [r7, #9]
 696:./Generated_Source/PSoC5/CapSense_CSHL.c ****         CapSense_debounceCounter[debounceIndex] = 0u;
 646              		.loc 1 696 0
 647 0066 7A7A     		ldrb	r2, [r7, #9]	@ zero_extendqisi2
 648 0068 40F20003 		movw	r3, #:lower16:CapSense_debounceCounter
 649 006c C0F20003 		movt	r3, #:upper16:CapSense_debounceCounter
 650 0070 4FF00001 		mov	r1, #0
 651 0074 9954     		strb	r1, [r3, r2]
 652 0076 03E0     		b	.L27
 653              	.L26:
 697:./Generated_Source/PSoC5/CapSense_CSHL.c ****     }
 698:./Generated_Source/PSoC5/CapSense_CSHL.c ****     else
 699:./Generated_Source/PSoC5/CapSense_CSHL.c ****     {
 700:./Generated_Source/PSoC5/CapSense_CSHL.c ****         debounceIndex = widget - CapSense_TOTAL_CENTROIDS_COUNT;
 654              		.loc 1 700 0
 655 0078 3B7B     		ldrb	r3, [r7, #12]
 656 007a 03F1FF33 		add	r3, r3, #-1
 657 007e 7B72     		strb	r3, [r7, #9]
 658              	.L27:
 701:./Generated_Source/PSoC5/CapSense_CSHL.c ****     }
ARM GAS  C:\Users\CHARLI~1\AppData\Local\Temp\ccYu411o.s 			page 25


 702:./Generated_Source/PSoC5/CapSense_CSHL.c **** 
 703:./Generated_Source/PSoC5/CapSense_CSHL.c ****     
 704:./Generated_Source/PSoC5/CapSense_CSHL.c ****     /* Was on */
 705:./Generated_Source/PSoC5/CapSense_CSHL.c ****     if (CapSense_SensorOnMask[pos] & onMask)
 659              		.loc 1 705 0
 660 0080 BA7A     		ldrb	r2, [r7, #10]	@ zero_extendqisi2
 661 0082 40F20003 		movw	r3, #:lower16:CapSense_SensorOnMask
 662 0086 C0F20003 		movt	r3, #:upper16:CapSense_SensorOnMask
 663 008a 9A5C     		ldrb	r2, [r3, r2]	@ zero_extendqisi2
 664 008c FB7A     		ldrb	r3, [r7, #11]
 665 008e 02EA0303 		and	r3, r2, r3
 666 0092 DBB2     		uxtb	r3, r3
 667 0094 002B     		cmp	r3, #0
 668 0096 29D0     		beq	.L28
 706:./Generated_Source/PSoC5/CapSense_CSHL.c ****     {
 707:./Generated_Source/PSoC5/CapSense_CSHL.c ****         /* Hysteresis minus */
 708:./Generated_Source/PSoC5/CapSense_CSHL.c ****         if (CapSense_SensorSignal[sensor] < (fingerThreshold - hysteresis))
 669              		.loc 1 708 0
 670 0098 FA79     		ldrb	r2, [r7, #7]	@ zero_extendqisi2
 671 009a 40F20003 		movw	r3, #:lower16:CapSense_SensorSignal
 672 009e C0F20003 		movt	r3, #:upper16:CapSense_SensorSignal
 673 00a2 9B5C     		ldrb	r3, [r3, r2]	@ zero_extendqisi2
 674 00a4 1A46     		mov	r2, r3
 675 00a6 797B     		ldrb	r1, [r7, #13]	@ zero_extendqisi2
 676 00a8 BB7B     		ldrb	r3, [r7, #14]	@ zero_extendqisi2
 677 00aa C3EB0103 		rsb	r3, r3, r1
 678 00ae 9A42     		cmp	r2, r3
 679 00b0 56DA     		bge	.L36
 709:./Generated_Source/PSoC5/CapSense_CSHL.c ****         {
 710:./Generated_Source/PSoC5/CapSense_CSHL.c ****             CapSense_SensorOnMask[pos] &= ~onMask;
 680              		.loc 1 710 0
 681 00b2 BA7A     		ldrb	r2, [r7, #10]	@ zero_extendqisi2
 682 00b4 B97A     		ldrb	r1, [r7, #10]	@ zero_extendqisi2
 683 00b6 40F20003 		movw	r3, #:lower16:CapSense_SensorOnMask
 684 00ba C0F20003 		movt	r3, #:upper16:CapSense_SensorOnMask
 685 00be 5B5C     		ldrb	r3, [r3, r1]	@ zero_extendqisi2
 686 00c0 1946     		mov	r1, r3
 687 00c2 FB7A     		ldrb	r3, [r7, #11]	@ zero_extendqisi2
 688 00c4 6FEA0303 		mvn	r3, r3
 689 00c8 DBB2     		uxtb	r3, r3
 690 00ca 01EA0303 		and	r3, r1, r3
 691 00ce DBB2     		uxtb	r3, r3
 692 00d0 D9B2     		uxtb	r1, r3
 693 00d2 40F20003 		movw	r3, #:lower16:CapSense_SensorOnMask
 694 00d6 C0F20003 		movt	r3, #:upper16:CapSense_SensorOnMask
 695 00da 9954     		strb	r1, [r3, r2]
 711:./Generated_Source/PSoC5/CapSense_CSHL.c ****             CapSense_debounceCounter[debounceIndex] = debounce; 
 696              		.loc 1 711 0
 697 00dc 7A7A     		ldrb	r2, [r7, #9]	@ zero_extendqisi2
 698 00de 40F20003 		movw	r3, #:lower16:CapSense_debounceCounter
 699 00e2 C0F20003 		movt	r3, #:upper16:CapSense_debounceCounter
 700 00e6 F97B     		ldrb	r1, [r7, #15]
 701 00e8 9954     		strb	r1, [r3, r2]
 702 00ea 3CE0     		b	.L30
 703              	.L28:
 712:./Generated_Source/PSoC5/CapSense_CSHL.c ****         }
 713:./Generated_Source/PSoC5/CapSense_CSHL.c ****     }
ARM GAS  C:\Users\CHARLI~1\AppData\Local\Temp\ccYu411o.s 			page 26


 714:./Generated_Source/PSoC5/CapSense_CSHL.c ****     else    /* Was off */
 715:./Generated_Source/PSoC5/CapSense_CSHL.c ****     {
 716:./Generated_Source/PSoC5/CapSense_CSHL.c ****         /* Hysteresis plus */
 717:./Generated_Source/PSoC5/CapSense_CSHL.c ****         if (CapSense_SensorSignal[sensor] > (fingerThreshold + hysteresis))
 704              		.loc 1 717 0
 705 00ec FA79     		ldrb	r2, [r7, #7]	@ zero_extendqisi2
 706 00ee 40F20003 		movw	r3, #:lower16:CapSense_SensorSignal
 707 00f2 C0F20003 		movt	r3, #:upper16:CapSense_SensorSignal
 708 00f6 9B5C     		ldrb	r3, [r3, r2]	@ zero_extendqisi2
 709 00f8 1A46     		mov	r2, r3
 710 00fa 797B     		ldrb	r1, [r7, #13]	@ zero_extendqisi2
 711 00fc BB7B     		ldrb	r3, [r7, #14]	@ zero_extendqisi2
 712 00fe 0B44     		add	r3, r1, r3
 713 0100 9A42     		cmp	r2, r3
 714 0102 25DD     		ble	.L31
 718:./Generated_Source/PSoC5/CapSense_CSHL.c ****         {
 719:./Generated_Source/PSoC5/CapSense_CSHL.c ****             /* Sensor active, decrement debounce counter */
 720:./Generated_Source/PSoC5/CapSense_CSHL.c ****             if (CapSense_debounceCounter[debounceIndex]-- == 0)
 715              		.loc 1 720 0
 716 0104 7A7A     		ldrb	r2, [r7, #9]	@ zero_extendqisi2
 717 0106 40F20003 		movw	r3, #:lower16:CapSense_debounceCounter
 718 010a C0F20003 		movt	r3, #:upper16:CapSense_debounceCounter
 719 010e 9B5C     		ldrb	r3, [r3, r2]	@ zero_extendqisi2
 720 0110 002B     		cmp	r3, #0
 721 0112 14BF     		ite	ne
 722 0114 0021     		movne	r1, #0
 723 0116 0121     		moveq	r1, #1
 724 0118 C9B2     		uxtb	r1, r1
 725 011a 03F1FF33 		add	r3, r3, #-1
 726 011e D8B2     		uxtb	r0, r3
 727 0120 40F20003 		movw	r3, #:lower16:CapSense_debounceCounter
 728 0124 C0F20003 		movt	r3, #:upper16:CapSense_debounceCounter
 729 0128 9854     		strb	r0, [r3, r2]
 730 012a 0029     		cmp	r1, #0
 731 012c 1AD0     		beq	.L37
 721:./Generated_Source/PSoC5/CapSense_CSHL.c ****             {
 722:./Generated_Source/PSoC5/CapSense_CSHL.c ****                 CapSense_SensorOnMask[pos] |= onMask; 
 732              		.loc 1 722 0
 733 012e BA7A     		ldrb	r2, [r7, #10]	@ zero_extendqisi2
 734 0130 B97A     		ldrb	r1, [r7, #10]	@ zero_extendqisi2
 735 0132 40F20003 		movw	r3, #:lower16:CapSense_SensorOnMask
 736 0136 C0F20003 		movt	r3, #:upper16:CapSense_SensorOnMask
 737 013a 595C     		ldrb	r1, [r3, r1]	@ zero_extendqisi2
 738 013c FB7A     		ldrb	r3, [r7, #11]
 739 013e 41EA0303 		orr	r3, r1, r3
 740 0142 D9B2     		uxtb	r1, r3
 741 0144 40F20003 		movw	r3, #:lower16:CapSense_SensorOnMask
 742 0148 C0F20003 		movt	r3, #:upper16:CapSense_SensorOnMask
 743 014c 9954     		strb	r1, [r3, r2]
 744 014e 0AE0     		b	.L30
 745              	.L31:
 723:./Generated_Source/PSoC5/CapSense_CSHL.c ****             }
 724:./Generated_Source/PSoC5/CapSense_CSHL.c ****         }
 725:./Generated_Source/PSoC5/CapSense_CSHL.c ****         else
 726:./Generated_Source/PSoC5/CapSense_CSHL.c ****         {
 727:./Generated_Source/PSoC5/CapSense_CSHL.c ****             /* Sensor inactive - reset Debounce counter */
 728:./Generated_Source/PSoC5/CapSense_CSHL.c ****             CapSense_debounceCounter[debounceIndex] = debounce;
ARM GAS  C:\Users\CHARLI~1\AppData\Local\Temp\ccYu411o.s 			page 27


 746              		.loc 1 728 0
 747 0150 7A7A     		ldrb	r2, [r7, #9]	@ zero_extendqisi2
 748 0152 40F20003 		movw	r3, #:lower16:CapSense_debounceCounter
 749 0156 C0F20003 		movt	r3, #:upper16:CapSense_debounceCounter
 750 015a F97B     		ldrb	r1, [r7, #15]
 751 015c 9954     		strb	r1, [r3, r2]
 752 015e 02E0     		b	.L30
 753              	.L36:
 754              		.loc 1 711 0
 755 0160 00BF     		nop
 756 0162 00E0     		b	.L30
 757              	.L37:
 758              		.loc 1 722 0
 759 0164 00BF     		nop
 760              	.L30:
 729:./Generated_Source/PSoC5/CapSense_CSHL.c ****         }
 730:./Generated_Source/PSoC5/CapSense_CSHL.c ****     }
 731:./Generated_Source/PSoC5/CapSense_CSHL.c ****     
 732:./Generated_Source/PSoC5/CapSense_CSHL.c ****     return (CapSense_SensorOnMask[pos] & onMask) ? 1u : 0u;
 761              		.loc 1 732 0
 762 0166 BA7A     		ldrb	r2, [r7, #10]	@ zero_extendqisi2
 763 0168 40F20003 		movw	r3, #:lower16:CapSense_SensorOnMask
 764 016c C0F20003 		movt	r3, #:upper16:CapSense_SensorOnMask
 765 0170 9A5C     		ldrb	r2, [r3, r2]	@ zero_extendqisi2
 766 0172 FB7A     		ldrb	r3, [r7, #11]
 767 0174 02EA0303 		and	r3, r2, r3
 768 0178 DBB2     		uxtb	r3, r3
 769 017a 002B     		cmp	r3, #0
 770 017c 02D0     		beq	.L33
 771 017e 4FF00103 		mov	r3, #1
 772 0182 01E0     		b	.L34
 773              	.L33:
 774 0184 4FF00003 		mov	r3, #0
 775              	.L34:
 733:./Generated_Source/PSoC5/CapSense_CSHL.c **** }
 776              		.loc 1 733 0
 777 0188 1846     		mov	r0, r3
 778 018a 07F11407 		add	r7, r7, #20
 779 018e BD46     		mov	sp, r7
 780 0190 80BC     		pop	{r7}
 781 0192 7047     		bx	lr
 782              		.cfi_endproc
 783              	.LFE5:
 784              		.size	CapSense_CheckIsSensorActive, .-CapSense_CheckIsSensorActive
 785              		.section	.text.CapSense_CheckIsWidgetActive,"ax",%progbits
 786              		.align	2
 787              		.global	CapSense_CheckIsWidgetActive
 788              		.thumb
 789              		.thumb_func
 790              		.type	CapSense_CheckIsWidgetActive, %function
 791              	CapSense_CheckIsWidgetActive:
 792              	.LFB6:
 734:./Generated_Source/PSoC5/CapSense_CSHL.c **** 
 735:./Generated_Source/PSoC5/CapSense_CSHL.c **** 
 736:./Generated_Source/PSoC5/CapSense_CSHL.c **** /*******************************************************************************
 737:./Generated_Source/PSoC5/CapSense_CSHL.c **** * Function Name: CapSense_CheckIsWidgetActive
 738:./Generated_Source/PSoC5/CapSense_CSHL.c **** ********************************************************************************
ARM GAS  C:\Users\CHARLI~1\AppData\Local\Temp\ccYu411o.s 			page 28


 739:./Generated_Source/PSoC5/CapSense_CSHL.c **** *
 740:./Generated_Source/PSoC5/CapSense_CSHL.c **** * Summary:
 741:./Generated_Source/PSoC5/CapSense_CSHL.c **** *  Use function CapSense_CheckIsSensorActive() to update 
 742:./Generated_Source/PSoC5/CapSense_CSHL.c **** *  CapSense_SensorOnMask[] for all sensors within the widget.
 743:./Generated_Source/PSoC5/CapSense_CSHL.c **** *  If one of sensors within widget is active the function return that widget is 
 744:./Generated_Source/PSoC5/CapSense_CSHL.c **** *  active.
 745:./Generated_Source/PSoC5/CapSense_CSHL.c **** *  The touch pad and matrix buttons widgets need to have active sensor within 
 746:./Generated_Source/PSoC5/CapSense_CSHL.c **** *  col and row to return widget active status.
 747:./Generated_Source/PSoC5/CapSense_CSHL.c **** *
 748:./Generated_Source/PSoC5/CapSense_CSHL.c **** * Parameters:
 749:./Generated_Source/PSoC5/CapSense_CSHL.c **** *  widget:  widget number.
 750:./Generated_Source/PSoC5/CapSense_CSHL.c **** *
 751:./Generated_Source/PSoC5/CapSense_CSHL.c **** * Return:
 752:./Generated_Source/PSoC5/CapSense_CSHL.c **** *  Returns widget sensor state 1 if one or more sensors within widget is/are 
 753:./Generated_Source/PSoC5/CapSense_CSHL.c **** *  active, 0 if all sensors within widget are inactive.
 754:./Generated_Source/PSoC5/CapSense_CSHL.c **** *
 755:./Generated_Source/PSoC5/CapSense_CSHL.c **** * Reentrant:
 756:./Generated_Source/PSoC5/CapSense_CSHL.c **** *  No
 757:./Generated_Source/PSoC5/CapSense_CSHL.c **** *
 758:./Generated_Source/PSoC5/CapSense_CSHL.c **** *******************************************************************************/
 759:./Generated_Source/PSoC5/CapSense_CSHL.c **** uint8 CapSense_CheckIsWidgetActive(uint8 widget)
 760:./Generated_Source/PSoC5/CapSense_CSHL.c **** {
 793              		.loc 1 760 0
 794              		.cfi_startproc
 795              		@ args = 0, pretend = 0, frame = 16
 796              		@ frame_needed = 1, uses_anonymous_args = 0
 797 0000 80B5     		push	{r7, lr}
 798              	.LCFI18:
 799              		.cfi_def_cfa_offset 8
 800 0002 84B0     		sub	sp, sp, #16
 801              	.LCFI19:
 802              		.cfi_def_cfa_offset 24
 803 0004 00AF     		add	r7, sp, #0
 804              		.cfi_offset 14, -4
 805              		.cfi_offset 7, -8
 806              	.LCFI20:
 807              		.cfi_def_cfa_register 7
 808 0006 0346     		mov	r3, r0
 809 0008 FB71     		strb	r3, [r7, #7]
 761:./Generated_Source/PSoC5/CapSense_CSHL.c ****     uint8 rawIndex = CapSense_rawDataIndex[widget];
 810              		.loc 1 761 0
 811 000a FA79     		ldrb	r2, [r7, #7]	@ zero_extendqisi2
 812 000c 40F20003 		movw	r3, #:lower16:CapSense_rawDataIndex
 813 0010 C0F20003 		movt	r3, #:upper16:CapSense_rawDataIndex
 814 0014 9B5C     		ldrb	r3, [r3, r2]
 815 0016 7B73     		strb	r3, [r7, #13]
 762:./Generated_Source/PSoC5/CapSense_CSHL.c ****     uint8 numberOfSensors = CapSense_numberOfSensors[widget] + rawIndex;
 816              		.loc 1 762 0
 817 0018 FA79     		ldrb	r2, [r7, #7]	@ zero_extendqisi2
 818 001a 40F20003 		movw	r3, #:lower16:CapSense_numberOfSensors
 819 001e C0F20003 		movt	r3, #:upper16:CapSense_numberOfSensors
 820 0022 9A5C     		ldrb	r2, [r3, r2]	@ zero_extendqisi2
 821 0024 7B7B     		ldrb	r3, [r7, #13]
 822 0026 1344     		add	r3, r2, r3
 823 0028 BB73     		strb	r3, [r7, #14]
 763:./Generated_Source/PSoC5/CapSense_CSHL.c ****     uint8 state = 0u;
 824              		.loc 1 763 0
ARM GAS  C:\Users\CHARLI~1\AppData\Local\Temp\ccYu411o.s 			page 29


 825 002a 4FF00003 		mov	r3, #0
 826 002e FB73     		strb	r3, [r7, #15]
 827              	.L40:
 764:./Generated_Source/PSoC5/CapSense_CSHL.c **** 
 765:./Generated_Source/PSoC5/CapSense_CSHL.c ****     /* Check all sensors of the widget */
 766:./Generated_Source/PSoC5/CapSense_CSHL.c ****     do
 767:./Generated_Source/PSoC5/CapSense_CSHL.c ****     {
 768:./Generated_Source/PSoC5/CapSense_CSHL.c ****         if(CapSense_CheckIsSensorActive(rawIndex) != 0u)
 828              		.loc 1 768 0
 829 0030 7B7B     		ldrb	r3, [r7, #13]	@ zero_extendqisi2
 830 0032 1846     		mov	r0, r3
 831 0034 FFF7FEFF 		bl	CapSense_CheckIsSensorActive
 832 0038 0346     		mov	r3, r0
 833 003a 002B     		cmp	r3, #0
 834 003c 02D0     		beq	.L39
 769:./Generated_Source/PSoC5/CapSense_CSHL.c ****         {
 770:./Generated_Source/PSoC5/CapSense_CSHL.c ****             state = CapSense_SENSOR_1_IS_ACTIVE;
 835              		.loc 1 770 0
 836 003e 4FF00103 		mov	r3, #1
 837 0042 FB73     		strb	r3, [r7, #15]
 838              	.L39:
 771:./Generated_Source/PSoC5/CapSense_CSHL.c ****         }
 772:./Generated_Source/PSoC5/CapSense_CSHL.c ****         rawIndex++;
 839              		.loc 1 772 0
 840 0044 7B7B     		ldrb	r3, [r7, #13]
 841 0046 03F10103 		add	r3, r3, #1
 842 004a 7B73     		strb	r3, [r7, #13]
 773:./Generated_Source/PSoC5/CapSense_CSHL.c ****     }
 774:./Generated_Source/PSoC5/CapSense_CSHL.c ****     while(rawIndex < numberOfSensors);
 843              		.loc 1 774 0
 844 004c 7A7B     		ldrb	r2, [r7, #13]	@ zero_extendqisi2
 845 004e BB7B     		ldrb	r3, [r7, #14]	@ zero_extendqisi2
 846 0050 9A42     		cmp	r2, r3
 847 0052 EDD3     		bcc	.L40
 775:./Generated_Source/PSoC5/CapSense_CSHL.c ****     
 776:./Generated_Source/PSoC5/CapSense_CSHL.c **** 
 777:./Generated_Source/PSoC5/CapSense_CSHL.c ****     
 778:./Generated_Source/PSoC5/CapSense_CSHL.c ****     return state;
 848              		.loc 1 778 0
 849 0054 FB7B     		ldrb	r3, [r7, #15]	@ zero_extendqisi2
 779:./Generated_Source/PSoC5/CapSense_CSHL.c **** }
 850              		.loc 1 779 0
 851 0056 1846     		mov	r0, r3
 852 0058 07F11007 		add	r7, r7, #16
 853 005c BD46     		mov	sp, r7
 854 005e 80BD     		pop	{r7, pc}
 855              		.cfi_endproc
 856              	.LFE6:
 857              		.size	CapSense_CheckIsWidgetActive, .-CapSense_CheckIsWidgetActive
 858              		.section	.text.CapSense_CheckIsAnyWidgetActive,"ax",%progbits
 859              		.align	2
 860              		.global	CapSense_CheckIsAnyWidgetActive
 861              		.thumb
 862              		.thumb_func
 863              		.type	CapSense_CheckIsAnyWidgetActive, %function
 864              	CapSense_CheckIsAnyWidgetActive:
 865              	.LFB7:
ARM GAS  C:\Users\CHARLI~1\AppData\Local\Temp\ccYu411o.s 			page 30


 780:./Generated_Source/PSoC5/CapSense_CSHL.c **** 
 781:./Generated_Source/PSoC5/CapSense_CSHL.c **** 
 782:./Generated_Source/PSoC5/CapSense_CSHL.c **** /*******************************************************************************
 783:./Generated_Source/PSoC5/CapSense_CSHL.c **** * Function Name: CapSense_CheckIsAnyWidgetActive
 784:./Generated_Source/PSoC5/CapSense_CSHL.c **** ********************************************************************************
 785:./Generated_Source/PSoC5/CapSense_CSHL.c **** *
 786:./Generated_Source/PSoC5/CapSense_CSHL.c **** * Summary:
 787:./Generated_Source/PSoC5/CapSense_CSHL.c **** *  Compares all sensors of the CapSense_Signal[] array to their finger 
 788:./Generated_Source/PSoC5/CapSense_CSHL.c **** *  threshold. Calls CapSense_CheckIsWidgetActive() for each widget so 
 789:./Generated_Source/PSoC5/CapSense_CSHL.c **** *  the CapSense_SensorOnMask[] array is up to date after calling this 
 790:./Generated_Source/PSoC5/CapSense_CSHL.c **** *  function.
 791:./Generated_Source/PSoC5/CapSense_CSHL.c **** *
 792:./Generated_Source/PSoC5/CapSense_CSHL.c **** * Parameters:
 793:./Generated_Source/PSoC5/CapSense_CSHL.c **** *  widget:  widget number.
 794:./Generated_Source/PSoC5/CapSense_CSHL.c **** *
 795:./Generated_Source/PSoC5/CapSense_CSHL.c **** * Return:
 796:./Generated_Source/PSoC5/CapSense_CSHL.c **** *  Returns 1 if any widget is active, 0 none of widgets are active.
 797:./Generated_Source/PSoC5/CapSense_CSHL.c **** *
 798:./Generated_Source/PSoC5/CapSense_CSHL.c **** * Reentrant:
 799:./Generated_Source/PSoC5/CapSense_CSHL.c **** *  No
 800:./Generated_Source/PSoC5/CapSense_CSHL.c **** *
 801:./Generated_Source/PSoC5/CapSense_CSHL.c **** *******************************************************************************/
 802:./Generated_Source/PSoC5/CapSense_CSHL.c **** uint8 CapSense_CheckIsAnyWidgetActive(void)
 803:./Generated_Source/PSoC5/CapSense_CSHL.c **** {
 866              		.loc 1 803 0
 867              		.cfi_startproc
 868              		@ args = 0, pretend = 0, frame = 8
 869              		@ frame_needed = 1, uses_anonymous_args = 0
 870 0000 80B5     		push	{r7, lr}
 871              	.LCFI21:
 872              		.cfi_def_cfa_offset 8
 873 0002 82B0     		sub	sp, sp, #8
 874              	.LCFI22:
 875              		.cfi_def_cfa_offset 16
 876 0004 00AF     		add	r7, sp, #0
 877              		.cfi_offset 14, -4
 878              		.cfi_offset 7, -8
 879              	.LCFI23:
 880              		.cfi_def_cfa_register 7
 804:./Generated_Source/PSoC5/CapSense_CSHL.c ****     uint8 i;
 805:./Generated_Source/PSoC5/CapSense_CSHL.c ****     uint8 state = 0u;
 881              		.loc 1 805 0
 882 0006 4FF00003 		mov	r3, #0
 883 000a FB71     		strb	r3, [r7, #7]
 806:./Generated_Source/PSoC5/CapSense_CSHL.c ****     
 807:./Generated_Source/PSoC5/CapSense_CSHL.c ****     for(i = 0u; i < CapSense_TOTAL_WIDGET_COUNT; i++)
 884              		.loc 1 807 0
 885 000c 4FF00003 		mov	r3, #0
 886 0010 BB71     		strb	r3, [r7, #6]
 887 0012 0DE0     		b	.L43
 888              	.L45:
 808:./Generated_Source/PSoC5/CapSense_CSHL.c ****     {
 809:./Generated_Source/PSoC5/CapSense_CSHL.c ****         if (CapSense_CheckIsWidgetActive(i) != 0u)
 889              		.loc 1 809 0
 890 0014 BB79     		ldrb	r3, [r7, #6]	@ zero_extendqisi2
 891 0016 1846     		mov	r0, r3
 892 0018 FFF7FEFF 		bl	CapSense_CheckIsWidgetActive
ARM GAS  C:\Users\CHARLI~1\AppData\Local\Temp\ccYu411o.s 			page 31


 893 001c 0346     		mov	r3, r0
 894 001e 002B     		cmp	r3, #0
 895 0020 02D0     		beq	.L44
 810:./Generated_Source/PSoC5/CapSense_CSHL.c ****         {
 811:./Generated_Source/PSoC5/CapSense_CSHL.c ****             state = CapSense_WIDGET_IS_ACTIVE;
 896              		.loc 1 811 0
 897 0022 4FF00103 		mov	r3, #1
 898 0026 FB71     		strb	r3, [r7, #7]
 899              	.L44:
 900              		.loc 1 807 0
 901 0028 BB79     		ldrb	r3, [r7, #6]
 902 002a 03F10103 		add	r3, r3, #1
 903 002e BB71     		strb	r3, [r7, #6]
 904              	.L43:
 905 0030 BB79     		ldrb	r3, [r7, #6]	@ zero_extendqisi2
 906 0032 022B     		cmp	r3, #2
 907 0034 EED9     		bls	.L45
 812:./Generated_Source/PSoC5/CapSense_CSHL.c ****         }
 813:./Generated_Source/PSoC5/CapSense_CSHL.c ****     }
 814:./Generated_Source/PSoC5/CapSense_CSHL.c ****     
 815:./Generated_Source/PSoC5/CapSense_CSHL.c **** 
 816:./Generated_Source/PSoC5/CapSense_CSHL.c ****     return state;
 908              		.loc 1 816 0
 909 0036 FB79     		ldrb	r3, [r7, #7]	@ zero_extendqisi2
 817:./Generated_Source/PSoC5/CapSense_CSHL.c **** }
 910              		.loc 1 817 0
 911 0038 1846     		mov	r0, r3
 912 003a 07F10807 		add	r7, r7, #8
 913 003e BD46     		mov	sp, r7
 914 0040 80BD     		pop	{r7, pc}
 915              		.cfi_endproc
 916              	.LFE7:
 917              		.size	CapSense_CheckIsAnyWidgetActive, .-CapSense_CheckIsAnyWidgetActive
 918 0042 00BF     		.section	.text.CapSense_EnableWidget,"ax",%progbits
 919              		.align	2
 920              		.global	CapSense_EnableWidget
 921              		.thumb
 922              		.thumb_func
 923              		.type	CapSense_EnableWidget, %function
 924              	CapSense_EnableWidget:
 925              	.LFB8:
 818:./Generated_Source/PSoC5/CapSense_CSHL.c **** 
 819:./Generated_Source/PSoC5/CapSense_CSHL.c **** 
 820:./Generated_Source/PSoC5/CapSense_CSHL.c **** /*******************************************************************************
 821:./Generated_Source/PSoC5/CapSense_CSHL.c **** * Function Name: CapSense_EnableWidget
 822:./Generated_Source/PSoC5/CapSense_CSHL.c **** ********************************************************************************
 823:./Generated_Source/PSoC5/CapSense_CSHL.c **** *
 824:./Generated_Source/PSoC5/CapSense_CSHL.c **** * Summary:
 825:./Generated_Source/PSoC5/CapSense_CSHL.c **** *  Enable all widget elements (sensors) to scanning process.
 826:./Generated_Source/PSoC5/CapSense_CSHL.c **** *
 827:./Generated_Source/PSoC5/CapSense_CSHL.c **** * Parameters:
 828:./Generated_Source/PSoC5/CapSense_CSHL.c **** *  widget:  widget number.
 829:./Generated_Source/PSoC5/CapSense_CSHL.c **** *
 830:./Generated_Source/PSoC5/CapSense_CSHL.c **** * Return:
 831:./Generated_Source/PSoC5/CapSense_CSHL.c **** *  None
 832:./Generated_Source/PSoC5/CapSense_CSHL.c **** *
 833:./Generated_Source/PSoC5/CapSense_CSHL.c **** * Global Variables:
ARM GAS  C:\Users\CHARLI~1\AppData\Local\Temp\ccYu411o.s 			page 32


 834:./Generated_Source/PSoC5/CapSense_CSHL.c **** *  CapSense_SensorEnableMask[] - used to store the sensor scanning 
 835:./Generated_Source/PSoC5/CapSense_CSHL.c **** *  state.
 836:./Generated_Source/PSoC5/CapSense_CSHL.c **** *  CapSense_SensorEnableMask[0] contains the masked bits for sensors 
 837:./Generated_Source/PSoC5/CapSense_CSHL.c **** *  0 through 7 (sensor 0 is bit 0, sensor 1 is bit 1).
 838:./Generated_Source/PSoC5/CapSense_CSHL.c **** *  CapSense_SensorEnableMask[1] contains the masked bits for 
 839:./Generated_Source/PSoC5/CapSense_CSHL.c **** *  sensors 8 through 15 (if needed), and so on.
 840:./Generated_Source/PSoC5/CapSense_CSHL.c **** *  0 - sensor doesn't scan by CapSense_ScanEnabledWidgets().
 841:./Generated_Source/PSoC5/CapSense_CSHL.c **** *  1 - sensor scans by CapSense_ScanEnabledWidgets().
 842:./Generated_Source/PSoC5/CapSense_CSHL.c **** *
 843:./Generated_Source/PSoC5/CapSense_CSHL.c **** * Reentrant:
 844:./Generated_Source/PSoC5/CapSense_CSHL.c **** *  No
 845:./Generated_Source/PSoC5/CapSense_CSHL.c **** *
 846:./Generated_Source/PSoC5/CapSense_CSHL.c **** *******************************************************************************/
 847:./Generated_Source/PSoC5/CapSense_CSHL.c **** void CapSense_EnableWidget(uint8 widget)
 848:./Generated_Source/PSoC5/CapSense_CSHL.c **** {
 926              		.loc 1 848 0
 927              		.cfi_startproc
 928              		@ args = 0, pretend = 0, frame = 16
 929              		@ frame_needed = 1, uses_anonymous_args = 0
 930              		@ link register save eliminated.
 931 0000 80B4     		push	{r7}
 932              	.LCFI24:
 933              		.cfi_def_cfa_offset 4
 934 0002 85B0     		sub	sp, sp, #20
 935              	.LCFI25:
 936              		.cfi_def_cfa_offset 24
 937 0004 00AF     		add	r7, sp, #0
 938              		.cfi_offset 7, -4
 939              	.LCFI26:
 940              		.cfi_def_cfa_register 7
 941 0006 0346     		mov	r3, r0
 942 0008 FB71     		strb	r3, [r7, #7]
 849:./Generated_Source/PSoC5/CapSense_CSHL.c ****     uint8 pos;
 850:./Generated_Source/PSoC5/CapSense_CSHL.c ****     uint8 enMask;
 851:./Generated_Source/PSoC5/CapSense_CSHL.c ****     uint8 rawIndex = CapSense_rawDataIndex[widget];
 943              		.loc 1 851 0
 944 000a FA79     		ldrb	r2, [r7, #7]	@ zero_extendqisi2
 945 000c 40F20003 		movw	r3, #:lower16:CapSense_rawDataIndex
 946 0010 C0F20003 		movt	r3, #:upper16:CapSense_rawDataIndex
 947 0014 9B5C     		ldrb	r3, [r3, r2]
 948 0016 BB73     		strb	r3, [r7, #14]
 852:./Generated_Source/PSoC5/CapSense_CSHL.c ****     uint8 numberOfSensors = CapSense_numberOfSensors[widget] + rawIndex;
 949              		.loc 1 852 0
 950 0018 FA79     		ldrb	r2, [r7, #7]	@ zero_extendqisi2
 951 001a 40F20003 		movw	r3, #:lower16:CapSense_numberOfSensors
 952 001e C0F20003 		movt	r3, #:upper16:CapSense_numberOfSensors
 953 0022 9A5C     		ldrb	r2, [r3, r2]	@ zero_extendqisi2
 954 0024 BB7B     		ldrb	r3, [r7, #14]
 955 0026 1344     		add	r3, r2, r3
 956 0028 FB73     		strb	r3, [r7, #15]
 957              	.L48:
 853:./Generated_Source/PSoC5/CapSense_CSHL.c ****     
 854:./Generated_Source/PSoC5/CapSense_CSHL.c ****     /* Enable all sensors of the widget */
 855:./Generated_Source/PSoC5/CapSense_CSHL.c ****     do
 856:./Generated_Source/PSoC5/CapSense_CSHL.c ****     {
 857:./Generated_Source/PSoC5/CapSense_CSHL.c ****         pos = (rawIndex >> 3u);
 958              		.loc 1 857 0
ARM GAS  C:\Users\CHARLI~1\AppData\Local\Temp\ccYu411o.s 			page 33


 959 002a BB7B     		ldrb	r3, [r7, #14]	@ zero_extendqisi2
 960 002c 4FEAD303 		lsr	r3, r3, #3
 961 0030 3B73     		strb	r3, [r7, #12]
 858:./Generated_Source/PSoC5/CapSense_CSHL.c ****         enMask = 0x01u << (rawIndex & 0x07u);
 962              		.loc 1 858 0
 963 0032 BB7B     		ldrb	r3, [r7, #14]	@ zero_extendqisi2
 964 0034 03F00703 		and	r3, r3, #7
 965 0038 4FF00102 		mov	r2, #1
 966 003c 02FA03F3 		lsl	r3, r2, r3
 967 0040 7B73     		strb	r3, [r7, #13]
 859:./Generated_Source/PSoC5/CapSense_CSHL.c ****         
 860:./Generated_Source/PSoC5/CapSense_CSHL.c ****         CapSense_SensorEnableMask[pos] |= enMask;
 968              		.loc 1 860 0
 969 0042 3A7B     		ldrb	r2, [r7, #12]	@ zero_extendqisi2
 970 0044 397B     		ldrb	r1, [r7, #12]	@ zero_extendqisi2
 971 0046 40F20003 		movw	r3, #:lower16:CapSense_SensorEnableMask
 972 004a C0F20003 		movt	r3, #:upper16:CapSense_SensorEnableMask
 973 004e 595C     		ldrb	r1, [r3, r1]	@ zero_extendqisi2
 974 0050 7B7B     		ldrb	r3, [r7, #13]
 975 0052 41EA0303 		orr	r3, r1, r3
 976 0056 D9B2     		uxtb	r1, r3
 977 0058 40F20003 		movw	r3, #:lower16:CapSense_SensorEnableMask
 978 005c C0F20003 		movt	r3, #:upper16:CapSense_SensorEnableMask
 979 0060 9954     		strb	r1, [r3, r2]
 861:./Generated_Source/PSoC5/CapSense_CSHL.c ****         rawIndex++;
 980              		.loc 1 861 0
 981 0062 BB7B     		ldrb	r3, [r7, #14]
 982 0064 03F10103 		add	r3, r3, #1
 983 0068 BB73     		strb	r3, [r7, #14]
 862:./Generated_Source/PSoC5/CapSense_CSHL.c ****     }
 863:./Generated_Source/PSoC5/CapSense_CSHL.c ****     while(rawIndex < numberOfSensors);
 984              		.loc 1 863 0
 985 006a BA7B     		ldrb	r2, [r7, #14]	@ zero_extendqisi2
 986 006c FB7B     		ldrb	r3, [r7, #15]	@ zero_extendqisi2
 987 006e 9A42     		cmp	r2, r3
 988 0070 DBD3     		bcc	.L48
 864:./Generated_Source/PSoC5/CapSense_CSHL.c ****     
 865:./Generated_Source/PSoC5/CapSense_CSHL.c **** 
 866:./Generated_Source/PSoC5/CapSense_CSHL.c **** }
 989              		.loc 1 866 0
 990 0072 07F11407 		add	r7, r7, #20
 991 0076 BD46     		mov	sp, r7
 992 0078 80BC     		pop	{r7}
 993 007a 7047     		bx	lr
 994              		.cfi_endproc
 995              	.LFE8:
 996              		.size	CapSense_EnableWidget, .-CapSense_EnableWidget
 997              		.section	.text.CapSense_DisableWidget,"ax",%progbits
 998              		.align	2
 999              		.global	CapSense_DisableWidget
 1000              		.thumb
 1001              		.thumb_func
 1002              		.type	CapSense_DisableWidget, %function
 1003              	CapSense_DisableWidget:
 1004              	.LFB9:
 867:./Generated_Source/PSoC5/CapSense_CSHL.c **** 
 868:./Generated_Source/PSoC5/CapSense_CSHL.c **** 
ARM GAS  C:\Users\CHARLI~1\AppData\Local\Temp\ccYu411o.s 			page 34


 869:./Generated_Source/PSoC5/CapSense_CSHL.c **** /*******************************************************************************
 870:./Generated_Source/PSoC5/CapSense_CSHL.c **** * Function Name: CapSense_DisableWidget
 871:./Generated_Source/PSoC5/CapSense_CSHL.c **** ********************************************************************************
 872:./Generated_Source/PSoC5/CapSense_CSHL.c **** *
 873:./Generated_Source/PSoC5/CapSense_CSHL.c **** * Summary:
 874:./Generated_Source/PSoC5/CapSense_CSHL.c **** *  Disable all widget elements (sensors) from scanning process.
 875:./Generated_Source/PSoC5/CapSense_CSHL.c **** *
 876:./Generated_Source/PSoC5/CapSense_CSHL.c **** * Parameters:
 877:./Generated_Source/PSoC5/CapSense_CSHL.c **** *  widget:  widget number.
 878:./Generated_Source/PSoC5/CapSense_CSHL.c **** *
 879:./Generated_Source/PSoC5/CapSense_CSHL.c **** * Return:
 880:./Generated_Source/PSoC5/CapSense_CSHL.c **** *  None
 881:./Generated_Source/PSoC5/CapSense_CSHL.c **** *
 882:./Generated_Source/PSoC5/CapSense_CSHL.c **** * Global Variables:
 883:./Generated_Source/PSoC5/CapSense_CSHL.c **** *  CapSense_SensorEnableMask[] - used to store the sensor scanning 
 884:./Generated_Source/PSoC5/CapSense_CSHL.c **** *  state.
 885:./Generated_Source/PSoC5/CapSense_CSHL.c **** *  CapSense_SensorEnableMask[0] contains the masked bits for sensors 
 886:./Generated_Source/PSoC5/CapSense_CSHL.c **** *  0 through 7 (sensor 0 is bit 0, sensor 1 is bit 1).
 887:./Generated_Source/PSoC5/CapSense_CSHL.c **** *  CapSense_SensorEnableMask[1] contains the masked bits for 
 888:./Generated_Source/PSoC5/CapSense_CSHL.c **** *  sensors 8 through 15 (if needed), and so on.
 889:./Generated_Source/PSoC5/CapSense_CSHL.c **** *  0 - sensor doesn't scan by CapSense_ScanEnabledWidgets().
 890:./Generated_Source/PSoC5/CapSense_CSHL.c **** *  1 - sensor scans by CapSense_ScanEnabledWidgets().
 891:./Generated_Source/PSoC5/CapSense_CSHL.c **** *
 892:./Generated_Source/PSoC5/CapSense_CSHL.c **** * Reentrant:
 893:./Generated_Source/PSoC5/CapSense_CSHL.c **** *  No
 894:./Generated_Source/PSoC5/CapSense_CSHL.c **** *
 895:./Generated_Source/PSoC5/CapSense_CSHL.c **** *******************************************************************************/
 896:./Generated_Source/PSoC5/CapSense_CSHL.c **** void CapSense_DisableWidget(uint8 widget)
 897:./Generated_Source/PSoC5/CapSense_CSHL.c **** {
 1005              		.loc 1 897 0
 1006              		.cfi_startproc
 1007              		@ args = 0, pretend = 0, frame = 16
 1008              		@ frame_needed = 1, uses_anonymous_args = 0
 1009              		@ link register save eliminated.
 1010 0000 80B4     		push	{r7}
 1011              	.LCFI27:
 1012              		.cfi_def_cfa_offset 4
 1013 0002 85B0     		sub	sp, sp, #20
 1014              	.LCFI28:
 1015              		.cfi_def_cfa_offset 24
 1016 0004 00AF     		add	r7, sp, #0
 1017              		.cfi_offset 7, -4
 1018              	.LCFI29:
 1019              		.cfi_def_cfa_register 7
 1020 0006 0346     		mov	r3, r0
 1021 0008 FB71     		strb	r3, [r7, #7]
 898:./Generated_Source/PSoC5/CapSense_CSHL.c ****     uint8 pos;
 899:./Generated_Source/PSoC5/CapSense_CSHL.c ****     uint8 enMask;
 900:./Generated_Source/PSoC5/CapSense_CSHL.c ****     uint8 rawIndex = CapSense_rawDataIndex[widget];
 1022              		.loc 1 900 0
 1023 000a FA79     		ldrb	r2, [r7, #7]	@ zero_extendqisi2
 1024 000c 40F20003 		movw	r3, #:lower16:CapSense_rawDataIndex
 1025 0010 C0F20003 		movt	r3, #:upper16:CapSense_rawDataIndex
 1026 0014 9B5C     		ldrb	r3, [r3, r2]
 1027 0016 BB73     		strb	r3, [r7, #14]
 901:./Generated_Source/PSoC5/CapSense_CSHL.c ****     uint8 numberOfSensors = CapSense_numberOfSensors[widget] + rawIndex;
 1028              		.loc 1 901 0
ARM GAS  C:\Users\CHARLI~1\AppData\Local\Temp\ccYu411o.s 			page 35


 1029 0018 FA79     		ldrb	r2, [r7, #7]	@ zero_extendqisi2
 1030 001a 40F20003 		movw	r3, #:lower16:CapSense_numberOfSensors
 1031 001e C0F20003 		movt	r3, #:upper16:CapSense_numberOfSensors
 1032 0022 9A5C     		ldrb	r2, [r3, r2]	@ zero_extendqisi2
 1033 0024 BB7B     		ldrb	r3, [r7, #14]
 1034 0026 1344     		add	r3, r2, r3
 1035 0028 FB73     		strb	r3, [r7, #15]
 1036              	.L51:
 902:./Generated_Source/PSoC5/CapSense_CSHL.c ****    
 903:./Generated_Source/PSoC5/CapSense_CSHL.c ****     /* Disable all sensors of the widget */
 904:./Generated_Source/PSoC5/CapSense_CSHL.c ****     do
 905:./Generated_Source/PSoC5/CapSense_CSHL.c ****     {
 906:./Generated_Source/PSoC5/CapSense_CSHL.c ****         pos = (rawIndex >> 3u);
 1037              		.loc 1 906 0
 1038 002a BB7B     		ldrb	r3, [r7, #14]	@ zero_extendqisi2
 1039 002c 4FEAD303 		lsr	r3, r3, #3
 1040 0030 3B73     		strb	r3, [r7, #12]
 907:./Generated_Source/PSoC5/CapSense_CSHL.c ****         enMask = 0x01u << (rawIndex & 0x07u);
 1041              		.loc 1 907 0
 1042 0032 BB7B     		ldrb	r3, [r7, #14]	@ zero_extendqisi2
 1043 0034 03F00703 		and	r3, r3, #7
 1044 0038 4FF00102 		mov	r2, #1
 1045 003c 02FA03F3 		lsl	r3, r2, r3
 1046 0040 7B73     		strb	r3, [r7, #13]
 908:./Generated_Source/PSoC5/CapSense_CSHL.c ****         
 909:./Generated_Source/PSoC5/CapSense_CSHL.c ****         CapSense_SensorEnableMask[pos] &= ~enMask;
 1047              		.loc 1 909 0
 1048 0042 3A7B     		ldrb	r2, [r7, #12]	@ zero_extendqisi2
 1049 0044 397B     		ldrb	r1, [r7, #12]	@ zero_extendqisi2
 1050 0046 40F20003 		movw	r3, #:lower16:CapSense_SensorEnableMask
 1051 004a C0F20003 		movt	r3, #:upper16:CapSense_SensorEnableMask
 1052 004e 5B5C     		ldrb	r3, [r3, r1]	@ zero_extendqisi2
 1053 0050 1946     		mov	r1, r3
 1054 0052 7B7B     		ldrb	r3, [r7, #13]	@ zero_extendqisi2
 1055 0054 6FEA0303 		mvn	r3, r3
 1056 0058 DBB2     		uxtb	r3, r3
 1057 005a 01EA0303 		and	r3, r1, r3
 1058 005e DBB2     		uxtb	r3, r3
 1059 0060 D9B2     		uxtb	r1, r3
 1060 0062 40F20003 		movw	r3, #:lower16:CapSense_SensorEnableMask
 1061 0066 C0F20003 		movt	r3, #:upper16:CapSense_SensorEnableMask
 1062 006a 9954     		strb	r1, [r3, r2]
 910:./Generated_Source/PSoC5/CapSense_CSHL.c ****         rawIndex++;
 1063              		.loc 1 910 0
 1064 006c BB7B     		ldrb	r3, [r7, #14]
 1065 006e 03F10103 		add	r3, r3, #1
 1066 0072 BB73     		strb	r3, [r7, #14]
 911:./Generated_Source/PSoC5/CapSense_CSHL.c ****     }
 912:./Generated_Source/PSoC5/CapSense_CSHL.c ****     while(rawIndex < numberOfSensors);
 1067              		.loc 1 912 0
 1068 0074 BA7B     		ldrb	r2, [r7, #14]	@ zero_extendqisi2
 1069 0076 FB7B     		ldrb	r3, [r7, #15]	@ zero_extendqisi2
 1070 0078 9A42     		cmp	r2, r3
 1071 007a D6D3     		bcc	.L51
 913:./Generated_Source/PSoC5/CapSense_CSHL.c ****     
 914:./Generated_Source/PSoC5/CapSense_CSHL.c **** 
 915:./Generated_Source/PSoC5/CapSense_CSHL.c **** }
ARM GAS  C:\Users\CHARLI~1\AppData\Local\Temp\ccYu411o.s 			page 36


 1072              		.loc 1 915 0
 1073 007c 07F11407 		add	r7, r7, #20
 1074 0080 BD46     		mov	sp, r7
 1075 0082 80BC     		pop	{r7}
 1076 0084 7047     		bx	lr
 1077              		.cfi_endproc
 1078              	.LFE9:
 1079              		.size	CapSense_DisableWidget, .-CapSense_DisableWidget
 1080 0086 00BF     		.section	.text.CapSense_FindMaximum,"ax",%progbits
 1081              		.align	2
 1082              		.global	CapSense_FindMaximum
 1083              		.thumb
 1084              		.thumb_func
 1085              		.type	CapSense_FindMaximum, %function
 1086              	CapSense_FindMaximum:
 1087              	.LFB10:
 916:./Generated_Source/PSoC5/CapSense_CSHL.c **** 
 917:./Generated_Source/PSoC5/CapSense_CSHL.c **** 
 918:./Generated_Source/PSoC5/CapSense_CSHL.c **** /*******************************************************************************
 919:./Generated_Source/PSoC5/CapSense_CSHL.c **** * Function Name: CapSense_FindMaximum
 920:./Generated_Source/PSoC5/CapSense_CSHL.c **** ********************************************************************************
 921:./Generated_Source/PSoC5/CapSense_CSHL.c **** *
 922:./Generated_Source/PSoC5/CapSense_CSHL.c **** * Summary:
 923:./Generated_Source/PSoC5/CapSense_CSHL.c **** *  Finds index of maximum element within defined centroid. Checks 
 924:./Generated_Source/PSoC5/CapSense_CSHL.c **** *  CapSense_SensorSignal[] within defined cenrtoid and 
 925:./Generated_Source/PSoC5/CapSense_CSHL.c **** *  returns index of maximum element. The values below finger threshold are
 926:./Generated_Source/PSoC5/CapSense_CSHL.c **** *  ignored.
 927:./Generated_Source/PSoC5/CapSense_CSHL.c **** *  The centrod defines by offset of first element and number of elements - count.
 928:./Generated_Source/PSoC5/CapSense_CSHL.c **** *  The diplexed centroid requires at least consecutive two elements above
 929:./Generated_Source/PSoC5/CapSense_CSHL.c **** *  FingerThreshold to find index of maximum element.
 930:./Generated_Source/PSoC5/CapSense_CSHL.c **** * 
 931:./Generated_Source/PSoC5/CapSense_CSHL.c **** * Parameters:
 932:./Generated_Source/PSoC5/CapSense_CSHL.c **** *  offset:  Start index of cetroid in CapSense_SensorSignal[] array.
 933:./Generated_Source/PSoC5/CapSense_CSHL.c **** *  count:   number of elements within centroid.
 934:./Generated_Source/PSoC5/CapSense_CSHL.c **** *  fingerThreshold:  Finger threshould.
 935:./Generated_Source/PSoC5/CapSense_CSHL.c **** * 
 936:./Generated_Source/PSoC5/CapSense_CSHL.c **** * Return:
 937:./Generated_Source/PSoC5/CapSense_CSHL.c **** *  Returns index of maximum element within defined centroid.
 938:./Generated_Source/PSoC5/CapSense_CSHL.c **** *  If index of maximum element doesn't find the 0xFF returns.
 939:./Generated_Source/PSoC5/CapSense_CSHL.c **** * 
 940:./Generated_Source/PSoC5/CapSense_CSHL.c **** *******************************************************************************/
 941:./Generated_Source/PSoC5/CapSense_CSHL.c **** uint8 CapSense_FindMaximum(uint8 offset, uint8 count, uint8 fingerThreshold)
 942:./Generated_Source/PSoC5/CapSense_CSHL.c **** {
 1088              		.loc 1 942 0
 1089              		.cfi_startproc
 1090              		@ args = 0, pretend = 0, frame = 16
 1091              		@ frame_needed = 1, uses_anonymous_args = 0
 1092              		@ link register save eliminated.
 1093 0000 80B4     		push	{r7}
 1094              	.LCFI30:
 1095              		.cfi_def_cfa_offset 4
 1096 0002 85B0     		sub	sp, sp, #20
 1097              	.LCFI31:
 1098              		.cfi_def_cfa_offset 24
 1099 0004 00AF     		add	r7, sp, #0
 1100              		.cfi_offset 7, -4
 1101              	.LCFI32:
ARM GAS  C:\Users\CHARLI~1\AppData\Local\Temp\ccYu411o.s 			page 37


 1102              		.cfi_def_cfa_register 7
 1103 0006 1346     		mov	r3, r2
 1104 0008 0246     		mov	r2, r0
 1105 000a FA71     		strb	r2, [r7, #7]
 1106 000c 0A46     		mov	r2, r1
 1107 000e BA71     		strb	r2, [r7, #6]
 1108 0010 7B71     		strb	r3, [r7, #5]
 943:./Generated_Source/PSoC5/CapSense_CSHL.c ****     uint8 i;
 944:./Generated_Source/PSoC5/CapSense_CSHL.c ****     uint8 maximum = 0xFFu;
 1109              		.loc 1 944 0
 1110 0012 4FF0FF33 		mov	r3, #-1
 1111 0016 BB72     		strb	r3, [r7, #10]
 945:./Generated_Source/PSoC5/CapSense_CSHL.c ****     uint8 temp = 0u;
 1112              		.loc 1 945 0
 1113 0018 4FF00003 		mov	r3, #0
 1114 001c FB72     		strb	r3, [r7, #11]
 946:./Generated_Source/PSoC5/CapSense_CSHL.c ****     uint8 *startOfSlider = &CapSense_SensorSignal[offset];
 1115              		.loc 1 946 0
 1116 001e FA79     		ldrb	r2, [r7, #7]	@ zero_extendqisi2
 1117 0020 40F20003 		movw	r3, #:lower16:CapSense_SensorSignal
 1118 0024 C0F20003 		movt	r3, #:upper16:CapSense_SensorSignal
 1119 0028 1344     		add	r3, r2, r3
 1120 002a FB60     		str	r3, [r7, #12]
 947:./Generated_Source/PSoC5/CapSense_CSHL.c ****     
 948:./Generated_Source/PSoC5/CapSense_CSHL.c ****     for (i = 0u; i < count; i++)
 1121              		.loc 1 948 0
 1122 002c 4FF00003 		mov	r3, #0
 1123 0030 7B72     		strb	r3, [r7, #9]
 1124 0032 18E0     		b	.L54
 1125              	.L56:
 949:./Generated_Source/PSoC5/CapSense_CSHL.c ****     {
 950:./Generated_Source/PSoC5/CapSense_CSHL.c ****         /* Looking for the grater element within centroid */
 951:./Generated_Source/PSoC5/CapSense_CSHL.c ****         if(startOfSlider[i] > fingerThreshold)
 1126              		.loc 1 951 0
 1127 0034 7A7A     		ldrb	r2, [r7, #9]	@ zero_extendqisi2
 1128 0036 FB68     		ldr	r3, [r7, #12]
 1129 0038 1344     		add	r3, r2, r3
 1130 003a 1B78     		ldrb	r3, [r3, #0]	@ zero_extendqisi2
 1131 003c 7A79     		ldrb	r2, [r7, #5]	@ zero_extendqisi2
 1132 003e 9A42     		cmp	r2, r3
 1133 0040 0DD2     		bcs	.L55
 952:./Generated_Source/PSoC5/CapSense_CSHL.c ****         {
 953:./Generated_Source/PSoC5/CapSense_CSHL.c ****             if(startOfSlider[i] > temp)
 1134              		.loc 1 953 0
 1135 0042 7A7A     		ldrb	r2, [r7, #9]	@ zero_extendqisi2
 1136 0044 FB68     		ldr	r3, [r7, #12]
 1137 0046 1344     		add	r3, r2, r3
 1138 0048 1B78     		ldrb	r3, [r3, #0]	@ zero_extendqisi2
 1139 004a FA7A     		ldrb	r2, [r7, #11]	@ zero_extendqisi2
 1140 004c 9A42     		cmp	r2, r3
 1141 004e 06D2     		bcs	.L55
 954:./Generated_Source/PSoC5/CapSense_CSHL.c ****             {
 955:./Generated_Source/PSoC5/CapSense_CSHL.c ****                 maximum = i;
 1142              		.loc 1 955 0
 1143 0050 7B7A     		ldrb	r3, [r7, #9]
 1144 0052 BB72     		strb	r3, [r7, #10]
 956:./Generated_Source/PSoC5/CapSense_CSHL.c ****                 temp = startOfSlider[i];
ARM GAS  C:\Users\CHARLI~1\AppData\Local\Temp\ccYu411o.s 			page 38


 1145              		.loc 1 956 0
 1146 0054 7A7A     		ldrb	r2, [r7, #9]	@ zero_extendqisi2
 1147 0056 FB68     		ldr	r3, [r7, #12]
 1148 0058 1344     		add	r3, r2, r3
 1149 005a 1B78     		ldrb	r3, [r3, #0]
 1150 005c FB72     		strb	r3, [r7, #11]
 1151              	.L55:
 1152              		.loc 1 948 0
 1153 005e 7B7A     		ldrb	r3, [r7, #9]
 1154 0060 03F10103 		add	r3, r3, #1
 1155 0064 7B72     		strb	r3, [r7, #9]
 1156              	.L54:
 1157 0066 7A7A     		ldrb	r2, [r7, #9]	@ zero_extendqisi2
 1158 0068 BB79     		ldrb	r3, [r7, #6]	@ zero_extendqisi2
 1159 006a 9A42     		cmp	r2, r3
 1160 006c E2D3     		bcc	.L56
 957:./Generated_Source/PSoC5/CapSense_CSHL.c ****             }
 958:./Generated_Source/PSoC5/CapSense_CSHL.c ****         }
 959:./Generated_Source/PSoC5/CapSense_CSHL.c ****     }
 960:./Generated_Source/PSoC5/CapSense_CSHL.c **** 
 961:./Generated_Source/PSoC5/CapSense_CSHL.c ****     return maximum;
 1161              		.loc 1 961 0
 1162 006e BB7A     		ldrb	r3, [r7, #10]	@ zero_extendqisi2
 962:./Generated_Source/PSoC5/CapSense_CSHL.c **** }
 1163              		.loc 1 962 0
 1164 0070 1846     		mov	r0, r3
 1165 0072 07F11407 		add	r7, r7, #20
 1166 0076 BD46     		mov	sp, r7
 1167 0078 80BC     		pop	{r7}
 1168 007a 7047     		bx	lr
 1169              		.cfi_endproc
 1170              	.LFE10:
 1171              		.size	CapSense_FindMaximum, .-CapSense_FindMaximum
 1172              		.section	.text.CapSense_CalcCentroid,"ax",%progbits
 1173              		.align	2
 1174              		.global	CapSense_CalcCentroid
 1175              		.thumb
 1176              		.thumb_func
 1177              		.type	CapSense_CalcCentroid, %function
 1178              	CapSense_CalcCentroid:
 1179              	.LFB11:
 963:./Generated_Source/PSoC5/CapSense_CSHL.c **** 
 964:./Generated_Source/PSoC5/CapSense_CSHL.c **** 
 965:./Generated_Source/PSoC5/CapSense_CSHL.c **** /*******************************************************************************
 966:./Generated_Source/PSoC5/CapSense_CSHL.c **** * Function Name: CapSense_CalcCentroid
 967:./Generated_Source/PSoC5/CapSense_CSHL.c **** ********************************************************************************
 968:./Generated_Source/PSoC5/CapSense_CSHL.c **** *
 969:./Generated_Source/PSoC5/CapSense_CSHL.c **** * Summary:
 970:./Generated_Source/PSoC5/CapSense_CSHL.c **** *  Returns position value calculated accoring index of maximum element and API
 971:./Generated_Source/PSoC5/CapSense_CSHL.c **** *  resolution.
 972:./Generated_Source/PSoC5/CapSense_CSHL.c **** *
 973:./Generated_Source/PSoC5/CapSense_CSHL.c **** * Parameters:
 974:./Generated_Source/PSoC5/CapSense_CSHL.c **** *  maximum:  Index of maximum element within centroid.
 975:./Generated_Source/PSoC5/CapSense_CSHL.c **** *  offset:   Start index of cetroid in CapSense_SensorSignal[] array.
 976:./Generated_Source/PSoC5/CapSense_CSHL.c **** *  count:    Number of elements within centroid.
 977:./Generated_Source/PSoC5/CapSense_CSHL.c **** *  resolution:  multiplicator calculated according to centroid type and
 978:./Generated_Source/PSoC5/CapSense_CSHL.c **** *  API resolution.
ARM GAS  C:\Users\CHARLI~1\AppData\Local\Temp\ccYu411o.s 			page 39


 979:./Generated_Source/PSoC5/CapSense_CSHL.c **** *  noiseThreshold:  Noise threshould.
 980:./Generated_Source/PSoC5/CapSense_CSHL.c **** * 
 981:./Generated_Source/PSoC5/CapSense_CSHL.c **** * Return:
 982:./Generated_Source/PSoC5/CapSense_CSHL.c **** *  Returns position value of the slider.
 983:./Generated_Source/PSoC5/CapSense_CSHL.c **** * 
 984:./Generated_Source/PSoC5/CapSense_CSHL.c **** *
 985:./Generated_Source/PSoC5/CapSense_CSHL.c **** * Reentrant:
 986:./Generated_Source/PSoC5/CapSense_CSHL.c **** *  No.
 987:./Generated_Source/PSoC5/CapSense_CSHL.c **** *
 988:./Generated_Source/PSoC5/CapSense_CSHL.c **** *******************************************************************************/
 989:./Generated_Source/PSoC5/CapSense_CSHL.c **** uint8 CapSense_CalcCentroid(uint8 maximum, uint8 offset, uint8 count, uint16 resolution, uint8 nois
 990:./Generated_Source/PSoC5/CapSense_CSHL.c **** {
 1180              		.loc 1 990 0
 1181              		.cfi_startproc
 1182              		@ args = 4, pretend = 0, frame = 24
 1183              		@ frame_needed = 1, uses_anonymous_args = 0
 1184              		@ link register save eliminated.
 1185 0000 80B4     		push	{r7}
 1186              	.LCFI33:
 1187              		.cfi_def_cfa_offset 4
 1188 0002 87B0     		sub	sp, sp, #28
 1189              	.LCFI34:
 1190              		.cfi_def_cfa_offset 32
 1191 0004 00AF     		add	r7, sp, #0
 1192              		.cfi_offset 7, -4
 1193              	.LCFI35:
 1194              		.cfi_def_cfa_register 7
 1195 0006 F871     		strb	r0, [r7, #7]
 1196 0008 B971     		strb	r1, [r7, #6]
 1197 000a 7A71     		strb	r2, [r7, #5]
 1198 000c 7B80     		strh	r3, [r7, #2]	@ movhi
 991:./Generated_Source/PSoC5/CapSense_CSHL.c ****     uint8 posPrev;
 992:./Generated_Source/PSoC5/CapSense_CSHL.c ****     uint8 posNext;
 993:./Generated_Source/PSoC5/CapSense_CSHL.c ****     uint8 position;
 994:./Generated_Source/PSoC5/CapSense_CSHL.c ****     int32 numerator;
 995:./Generated_Source/PSoC5/CapSense_CSHL.c ****     int32 denominator;
 996:./Generated_Source/PSoC5/CapSense_CSHL.c ****     uint8 *startOfSlider = &CapSense_SensorSignal[offset];
 1199              		.loc 1 996 0
 1200 000e BA79     		ldrb	r2, [r7, #6]	@ zero_extendqisi2
 1201 0010 40F20003 		movw	r3, #:lower16:CapSense_SensorSignal
 1202 0014 C0F20003 		movt	r3, #:upper16:CapSense_SensorSignal
 1203 0018 1344     		add	r3, r2, r3
 1204 001a 7B61     		str	r3, [r7, #20]
 997:./Generated_Source/PSoC5/CapSense_CSHL.c ****     
 998:./Generated_Source/PSoC5/CapSense_CSHL.c ****     /* Calculate next and previous near to maximum */
 999:./Generated_Source/PSoC5/CapSense_CSHL.c ****     posPrev = maximum - 1u;
 1205              		.loc 1 999 0
 1206 001c FB79     		ldrb	r3, [r7, #7]
 1207 001e 03F1FF33 		add	r3, r3, #-1
 1208 0022 7B72     		strb	r3, [r7, #9]
1000:./Generated_Source/PSoC5/CapSense_CSHL.c ****     posNext = maximum + 1u; 
 1209              		.loc 1 1000 0
 1210 0024 FB79     		ldrb	r3, [r7, #7]
 1211 0026 03F10103 		add	r3, r3, #1
 1212 002a BB72     		strb	r3, [r7, #10]
1001:./Generated_Source/PSoC5/CapSense_CSHL.c ****     
1002:./Generated_Source/PSoC5/CapSense_CSHL.c ****     /* Copy Signal for found centriod */
ARM GAS  C:\Users\CHARLI~1\AppData\Local\Temp\ccYu411o.s 			page 40


1003:./Generated_Source/PSoC5/CapSense_CSHL.c ****     CapSense_centroid[CapSense_POS] = startOfSlider[maximum];
 1213              		.loc 1 1003 0
 1214 002c FA79     		ldrb	r2, [r7, #7]	@ zero_extendqisi2
 1215 002e 7B69     		ldr	r3, [r7, #20]
 1216 0030 1344     		add	r3, r2, r3
 1217 0032 1A78     		ldrb	r2, [r3, #0]	@ zero_extendqisi2
 1218 0034 40F20003 		movw	r3, #:lower16:CapSense_centroid
 1219 0038 C0F20003 		movt	r3, #:upper16:CapSense_centroid
 1220 003c 5A70     		strb	r2, [r3, #1]
1004:./Generated_Source/PSoC5/CapSense_CSHL.c ****     
1005:./Generated_Source/PSoC5/CapSense_CSHL.c ****     /* Check borders for LINEAR Slider */
1006:./Generated_Source/PSoC5/CapSense_CSHL.c ****     if (maximum == 0u)                   /* Start of centroid */
 1221              		.loc 1 1006 0
 1222 003e FB79     		ldrb	r3, [r7, #7]	@ zero_extendqisi2
 1223 0040 002B     		cmp	r3, #0
 1224 0042 10D1     		bne	.L59
1007:./Generated_Source/PSoC5/CapSense_CSHL.c ****     { 
1008:./Generated_Source/PSoC5/CapSense_CSHL.c ****         CapSense_centroid[CapSense_POS_PREV] = 0u;
 1225              		.loc 1 1008 0
 1226 0044 40F20003 		movw	r3, #:lower16:CapSense_centroid
 1227 0048 C0F20003 		movt	r3, #:upper16:CapSense_centroid
 1228 004c 4FF00002 		mov	r2, #0
 1229 0050 1A70     		strb	r2, [r3, #0]
1009:./Generated_Source/PSoC5/CapSense_CSHL.c ****         CapSense_centroid[CapSense_POS_NEXT] = startOfSlider[posNext];
 1230              		.loc 1 1009 0
 1231 0052 BA7A     		ldrb	r2, [r7, #10]	@ zero_extendqisi2
 1232 0054 7B69     		ldr	r3, [r7, #20]
 1233 0056 1344     		add	r3, r2, r3
 1234 0058 1A78     		ldrb	r2, [r3, #0]	@ zero_extendqisi2
 1235 005a 40F20003 		movw	r3, #:lower16:CapSense_centroid
 1236 005e C0F20003 		movt	r3, #:upper16:CapSense_centroid
 1237 0062 9A70     		strb	r2, [r3, #2]
 1238 0064 28E0     		b	.L60
 1239              	.L59:
1010:./Generated_Source/PSoC5/CapSense_CSHL.c ****     }
1011:./Generated_Source/PSoC5/CapSense_CSHL.c ****     else if (maximum == ((count) - 1u)) /* End of centroid */
 1240              		.loc 1 1011 0
 1241 0066 FA79     		ldrb	r2, [r7, #7]	@ zero_extendqisi2
 1242 0068 7B79     		ldrb	r3, [r7, #5]	@ zero_extendqisi2
 1243 006a 03F1FF33 		add	r3, r3, #-1
 1244 006e 9A42     		cmp	r2, r3
 1245 0070 10D1     		bne	.L61
1012:./Generated_Source/PSoC5/CapSense_CSHL.c ****     {
1013:./Generated_Source/PSoC5/CapSense_CSHL.c ****         CapSense_centroid[CapSense_POS_PREV] = startOfSlider[posPrev];
 1246              		.loc 1 1013 0
 1247 0072 7A7A     		ldrb	r2, [r7, #9]	@ zero_extendqisi2
 1248 0074 7B69     		ldr	r3, [r7, #20]
 1249 0076 1344     		add	r3, r2, r3
 1250 0078 1A78     		ldrb	r2, [r3, #0]	@ zero_extendqisi2
 1251 007a 40F20003 		movw	r3, #:lower16:CapSense_centroid
 1252 007e C0F20003 		movt	r3, #:upper16:CapSense_centroid
 1253 0082 1A70     		strb	r2, [r3, #0]
1014:./Generated_Source/PSoC5/CapSense_CSHL.c ****         CapSense_centroid[CapSense_POS_NEXT] = 0u;
 1254              		.loc 1 1014 0
 1255 0084 40F20003 		movw	r3, #:lower16:CapSense_centroid
 1256 0088 C0F20003 		movt	r3, #:upper16:CapSense_centroid
 1257 008c 4FF00002 		mov	r2, #0
ARM GAS  C:\Users\CHARLI~1\AppData\Local\Temp\ccYu411o.s 			page 41


 1258 0090 9A70     		strb	r2, [r3, #2]
 1259 0092 11E0     		b	.L60
 1260              	.L61:
1015:./Generated_Source/PSoC5/CapSense_CSHL.c ****     }
1016:./Generated_Source/PSoC5/CapSense_CSHL.c ****     else                                /* Not first Not last */
1017:./Generated_Source/PSoC5/CapSense_CSHL.c ****     {
1018:./Generated_Source/PSoC5/CapSense_CSHL.c ****         CapSense_centroid[CapSense_POS_PREV] = startOfSlider[posPrev];
 1261              		.loc 1 1018 0
 1262 0094 7A7A     		ldrb	r2, [r7, #9]	@ zero_extendqisi2
 1263 0096 7B69     		ldr	r3, [r7, #20]
 1264 0098 1344     		add	r3, r2, r3
 1265 009a 1A78     		ldrb	r2, [r3, #0]	@ zero_extendqisi2
 1266 009c 40F20003 		movw	r3, #:lower16:CapSense_centroid
 1267 00a0 C0F20003 		movt	r3, #:upper16:CapSense_centroid
 1268 00a4 1A70     		strb	r2, [r3, #0]
1019:./Generated_Source/PSoC5/CapSense_CSHL.c ****         CapSense_centroid[CapSense_POS_NEXT] = startOfSlider[posNext];
 1269              		.loc 1 1019 0
 1270 00a6 BA7A     		ldrb	r2, [r7, #10]	@ zero_extendqisi2
 1271 00a8 7B69     		ldr	r3, [r7, #20]
 1272 00aa 1344     		add	r3, r2, r3
 1273 00ac 1A78     		ldrb	r2, [r3, #0]	@ zero_extendqisi2
 1274 00ae 40F20003 		movw	r3, #:lower16:CapSense_centroid
 1275 00b2 C0F20003 		movt	r3, #:upper16:CapSense_centroid
 1276 00b6 9A70     		strb	r2, [r3, #2]
 1277              	.L60:
1020:./Generated_Source/PSoC5/CapSense_CSHL.c ****     }
1021:./Generated_Source/PSoC5/CapSense_CSHL.c ****     
1022:./Generated_Source/PSoC5/CapSense_CSHL.c ****     /* Subtract noiseThreshold */
1023:./Generated_Source/PSoC5/CapSense_CSHL.c ****     if(CapSense_centroid[CapSense_POS_PREV] > noiseThreshold)
 1278              		.loc 1 1023 0
 1279 00b8 40F20003 		movw	r3, #:lower16:CapSense_centroid
 1280 00bc C0F20003 		movt	r3, #:upper16:CapSense_centroid
 1281 00c0 1B78     		ldrb	r3, [r3, #0]	@ zero_extendqisi2
 1282 00c2 97F82020 		ldrb	r2, [r7, #32]	@ zero_extendqisi2
 1283 00c6 9A42     		cmp	r2, r3
 1284 00c8 0FD2     		bcs	.L62
1024:./Generated_Source/PSoC5/CapSense_CSHL.c ****     {
1025:./Generated_Source/PSoC5/CapSense_CSHL.c ****         CapSense_centroid[CapSense_POS_PREV] -= noiseThreshold;
 1285              		.loc 1 1025 0
 1286 00ca 40F20003 		movw	r3, #:lower16:CapSense_centroid
 1287 00ce C0F20003 		movt	r3, #:upper16:CapSense_centroid
 1288 00d2 1A78     		ldrb	r2, [r3, #0]	@ zero_extendqisi2
 1289 00d4 97F82030 		ldrb	r3, [r7, #32]
 1290 00d8 C3EB0203 		rsb	r3, r3, r2
 1291 00dc DAB2     		uxtb	r2, r3
 1292 00de 40F20003 		movw	r3, #:lower16:CapSense_centroid
 1293 00e2 C0F20003 		movt	r3, #:upper16:CapSense_centroid
 1294 00e6 1A70     		strb	r2, [r3, #0]
 1295 00e8 06E0     		b	.L63
 1296              	.L62:
1026:./Generated_Source/PSoC5/CapSense_CSHL.c ****     }
1027:./Generated_Source/PSoC5/CapSense_CSHL.c ****     else
1028:./Generated_Source/PSoC5/CapSense_CSHL.c ****     {
1029:./Generated_Source/PSoC5/CapSense_CSHL.c ****         CapSense_centroid[CapSense_POS_PREV] = 0u;
 1297              		.loc 1 1029 0
 1298 00ea 40F20003 		movw	r3, #:lower16:CapSense_centroid
 1299 00ee C0F20003 		movt	r3, #:upper16:CapSense_centroid
ARM GAS  C:\Users\CHARLI~1\AppData\Local\Temp\ccYu411o.s 			page 42


 1300 00f2 4FF00002 		mov	r2, #0
 1301 00f6 1A70     		strb	r2, [r3, #0]
 1302              	.L63:
1030:./Generated_Source/PSoC5/CapSense_CSHL.c ****     }
1031:./Generated_Source/PSoC5/CapSense_CSHL.c ****     
1032:./Generated_Source/PSoC5/CapSense_CSHL.c ****     /* Maximum always grater than fingerThreshold, so grate than noiseThreshold */
1033:./Generated_Source/PSoC5/CapSense_CSHL.c ****     CapSense_centroid[CapSense_POS] -= noiseThreshold;
 1303              		.loc 1 1033 0
 1304 00f8 40F20003 		movw	r3, #:lower16:CapSense_centroid
 1305 00fc C0F20003 		movt	r3, #:upper16:CapSense_centroid
 1306 0100 5A78     		ldrb	r2, [r3, #1]	@ zero_extendqisi2
 1307 0102 97F82030 		ldrb	r3, [r7, #32]
 1308 0106 C3EB0203 		rsb	r3, r3, r2
 1309 010a DAB2     		uxtb	r2, r3
 1310 010c 40F20003 		movw	r3, #:lower16:CapSense_centroid
 1311 0110 C0F20003 		movt	r3, #:upper16:CapSense_centroid
 1312 0114 5A70     		strb	r2, [r3, #1]
1034:./Generated_Source/PSoC5/CapSense_CSHL.c ****     
1035:./Generated_Source/PSoC5/CapSense_CSHL.c ****     /* Subtract noiseThreshold */
1036:./Generated_Source/PSoC5/CapSense_CSHL.c ****     if(CapSense_centroid[CapSense_POS_NEXT] > noiseThreshold)
 1313              		.loc 1 1036 0
 1314 0116 40F20003 		movw	r3, #:lower16:CapSense_centroid
 1315 011a C0F20003 		movt	r3, #:upper16:CapSense_centroid
 1316 011e 9B78     		ldrb	r3, [r3, #2]	@ zero_extendqisi2
 1317 0120 97F82020 		ldrb	r2, [r7, #32]	@ zero_extendqisi2
 1318 0124 9A42     		cmp	r2, r3
 1319 0126 0FD2     		bcs	.L64
1037:./Generated_Source/PSoC5/CapSense_CSHL.c ****     {
1038:./Generated_Source/PSoC5/CapSense_CSHL.c ****         CapSense_centroid[CapSense_POS_NEXT] -= noiseThreshold;
 1320              		.loc 1 1038 0
 1321 0128 40F20003 		movw	r3, #:lower16:CapSense_centroid
 1322 012c C0F20003 		movt	r3, #:upper16:CapSense_centroid
 1323 0130 9A78     		ldrb	r2, [r3, #2]	@ zero_extendqisi2
 1324 0132 97F82030 		ldrb	r3, [r7, #32]
 1325 0136 C3EB0203 		rsb	r3, r3, r2
 1326 013a DAB2     		uxtb	r2, r3
 1327 013c 40F20003 		movw	r3, #:lower16:CapSense_centroid
 1328 0140 C0F20003 		movt	r3, #:upper16:CapSense_centroid
 1329 0144 9A70     		strb	r2, [r3, #2]
 1330 0146 06E0     		b	.L65
 1331              	.L64:
1039:./Generated_Source/PSoC5/CapSense_CSHL.c ****     }
1040:./Generated_Source/PSoC5/CapSense_CSHL.c ****     else
1041:./Generated_Source/PSoC5/CapSense_CSHL.c ****     {
1042:./Generated_Source/PSoC5/CapSense_CSHL.c ****         CapSense_centroid[CapSense_POS_NEXT] = 0u;
 1332              		.loc 1 1042 0
 1333 0148 40F20003 		movw	r3, #:lower16:CapSense_centroid
 1334 014c C0F20003 		movt	r3, #:upper16:CapSense_centroid
 1335 0150 4FF00002 		mov	r2, #0
 1336 0154 9A70     		strb	r2, [r3, #2]
 1337              	.L65:
1043:./Generated_Source/PSoC5/CapSense_CSHL.c ****     }
1044:./Generated_Source/PSoC5/CapSense_CSHL.c ****     
1045:./Generated_Source/PSoC5/CapSense_CSHL.c ****     
1046:./Generated_Source/PSoC5/CapSense_CSHL.c ****     /* Si+1 - Si-1 */
1047:./Generated_Source/PSoC5/CapSense_CSHL.c ****     numerator = (int32) CapSense_centroid[CapSense_POS_NEXT] - 
 1338              		.loc 1 1047 0
ARM GAS  C:\Users\CHARLI~1\AppData\Local\Temp\ccYu411o.s 			page 43


 1339 0156 40F20003 		movw	r3, #:lower16:CapSense_centroid
 1340 015a C0F20003 		movt	r3, #:upper16:CapSense_centroid
 1341 015e 9B78     		ldrb	r3, [r3, #2]	@ zero_extendqisi2
 1342 0160 1A46     		mov	r2, r3
1048:./Generated_Source/PSoC5/CapSense_CSHL.c ****                 (int32) CapSense_centroid[CapSense_POS_PREV];
 1343              		.loc 1 1048 0
 1344 0162 40F20003 		movw	r3, #:lower16:CapSense_centroid
 1345 0166 C0F20003 		movt	r3, #:upper16:CapSense_centroid
 1346 016a 1B78     		ldrb	r3, [r3, #0]	@ zero_extendqisi2
 1347              		.loc 1 1047 0
 1348 016c C3EB0203 		rsb	r3, r3, r2
 1349 0170 FB60     		str	r3, [r7, #12]
1049:./Generated_Source/PSoC5/CapSense_CSHL.c ****     
1050:./Generated_Source/PSoC5/CapSense_CSHL.c ****     /* Si+1 + Si + Si-1 */
1051:./Generated_Source/PSoC5/CapSense_CSHL.c ****     denominator = (int32) CapSense_centroid[CapSense_POS_PREV] + 
 1350              		.loc 1 1051 0
 1351 0172 40F20003 		movw	r3, #:lower16:CapSense_centroid
 1352 0176 C0F20003 		movt	r3, #:upper16:CapSense_centroid
 1353 017a 1B78     		ldrb	r3, [r3, #0]	@ zero_extendqisi2
1052:./Generated_Source/PSoC5/CapSense_CSHL.c ****                   (int32) CapSense_centroid[CapSense_POS] + 
 1354              		.loc 1 1052 0
 1355 017c 1A46     		mov	r2, r3
 1356 017e 40F20003 		movw	r3, #:lower16:CapSense_centroid
 1357 0182 C0F20003 		movt	r3, #:upper16:CapSense_centroid
 1358 0186 5B78     		ldrb	r3, [r3, #1]	@ zero_extendqisi2
 1359 0188 1A44     		add	r2, r2, r3
1053:./Generated_Source/PSoC5/CapSense_CSHL.c ****                   (int32) CapSense_centroid[CapSense_POS_NEXT];
 1360              		.loc 1 1053 0
 1361 018a 40F20003 		movw	r3, #:lower16:CapSense_centroid
 1362 018e C0F20003 		movt	r3, #:upper16:CapSense_centroid
 1363 0192 9B78     		ldrb	r3, [r3, #2]	@ zero_extendqisi2
 1364              		.loc 1 1051 0
 1365 0194 1344     		add	r3, r2, r3
 1366 0196 3B61     		str	r3, [r7, #16]
1054:./Generated_Source/PSoC5/CapSense_CSHL.c ****     
1055:./Generated_Source/PSoC5/CapSense_CSHL.c ****     /* (numerator/denominator) + maximum */
1056:./Generated_Source/PSoC5/CapSense_CSHL.c ****     denominator = (numerator << 8u)/denominator + ((uint16) maximum << 8u);
 1367              		.loc 1 1056 0
 1368 0198 FB68     		ldr	r3, [r7, #12]
 1369 019a 4FEA0322 		lsl	r2, r3, #8
 1370 019e 3B69     		ldr	r3, [r7, #16]
 1371 01a0 92FBF3F2 		sdiv	r2, r2, r3
 1372 01a4 FB79     		ldrb	r3, [r7, #7]	@ zero_extendqisi2
 1373 01a6 4FEA0323 		lsl	r3, r3, #8
 1374 01aa 1344     		add	r3, r2, r3
 1375 01ac 3B61     		str	r3, [r7, #16]
1057:./Generated_Source/PSoC5/CapSense_CSHL.c ****     
1058:./Generated_Source/PSoC5/CapSense_CSHL.c ****     /* Only required for RADIAL Slider */
1059:./Generated_Source/PSoC5/CapSense_CSHL.c ****     if(denominator < 0)
 1376              		.loc 1 1059 0
 1377 01ae 3B69     		ldr	r3, [r7, #16]
 1378 01b0 002B     		cmp	r3, #0
 1379 01b2 05DA     		bge	.L66
1060:./Generated_Source/PSoC5/CapSense_CSHL.c ****     {
1061:./Generated_Source/PSoC5/CapSense_CSHL.c ****         denominator += ((uint16) count << 8u);
 1380              		.loc 1 1061 0
 1381 01b4 7B79     		ldrb	r3, [r7, #5]	@ zero_extendqisi2
ARM GAS  C:\Users\CHARLI~1\AppData\Local\Temp\ccYu411o.s 			page 44


 1382 01b6 4FEA0323 		lsl	r3, r3, #8
 1383 01ba 3A69     		ldr	r2, [r7, #16]
 1384 01bc 1344     		add	r3, r2, r3
 1385 01be 3B61     		str	r3, [r7, #16]
 1386              	.L66:
1062:./Generated_Source/PSoC5/CapSense_CSHL.c ****     }
1063:./Generated_Source/PSoC5/CapSense_CSHL.c ****     
1064:./Generated_Source/PSoC5/CapSense_CSHL.c ****     denominator *= resolution;
 1387              		.loc 1 1064 0
 1388 01c0 7A88     		ldrh	r2, [r7, #2]
 1389 01c2 3B69     		ldr	r3, [r7, #16]
 1390 01c4 02FB03F3 		mul	r3, r2, r3
 1391 01c8 3B61     		str	r3, [r7, #16]
1065:./Generated_Source/PSoC5/CapSense_CSHL.c ****     
1066:./Generated_Source/PSoC5/CapSense_CSHL.c ****     /* Round the relust and put it to uint8 */
1067:./Generated_Source/PSoC5/CapSense_CSHL.c ****     position = ((uint8) HI16(denominator + 0x7F00u));
 1392              		.loc 1 1067 0
 1393 01ca 3B69     		ldr	r3, [r7, #16]
 1394 01cc 03F5FE43 		add	r3, r3, #32512
 1395 01d0 4FEA1343 		lsr	r3, r3, #16
 1396 01d4 FB72     		strb	r3, [r7, #11]
1068:./Generated_Source/PSoC5/CapSense_CSHL.c ****     
1069:./Generated_Source/PSoC5/CapSense_CSHL.c ****     return position;
 1397              		.loc 1 1069 0
 1398 01d6 FB7A     		ldrb	r3, [r7, #11]	@ zero_extendqisi2
1070:./Generated_Source/PSoC5/CapSense_CSHL.c **** }
 1399              		.loc 1 1070 0
 1400 01d8 1846     		mov	r0, r3
 1401 01da 07F11C07 		add	r7, r7, #28
 1402 01de BD46     		mov	sp, r7
 1403 01e0 80BC     		pop	{r7}
 1404 01e2 7047     		bx	lr
 1405              		.cfi_endproc
 1406              	.LFE11:
 1407              		.size	CapSense_CalcCentroid, .-CapSense_CalcCentroid
 1408              		.section	.text.CapSense_GetCentroidPos,"ax",%progbits
 1409              		.align	2
 1410              		.global	CapSense_GetCentroidPos
 1411              		.thumb
 1412              		.thumb_func
 1413              		.type	CapSense_GetCentroidPos, %function
 1414              	CapSense_GetCentroidPos:
 1415              	.LFB12:
1071:./Generated_Source/PSoC5/CapSense_CSHL.c **** 
1072:./Generated_Source/PSoC5/CapSense_CSHL.c **** 
1073:./Generated_Source/PSoC5/CapSense_CSHL.c **** 
1074:./Generated_Source/PSoC5/CapSense_CSHL.c **** 
1075:./Generated_Source/PSoC5/CapSense_CSHL.c **** /*******************************************************************************
1076:./Generated_Source/PSoC5/CapSense_CSHL.c **** * Function Name: CapSense_GetCentroidPos
1077:./Generated_Source/PSoC5/CapSense_CSHL.c **** ********************************************************************************
1078:./Generated_Source/PSoC5/CapSense_CSHL.c **** *
1079:./Generated_Source/PSoC5/CapSense_CSHL.c **** * Summary:
1080:./Generated_Source/PSoC5/CapSense_CSHL.c **** *  Checks the CapSense_Signal[ ] array for a centroid within
1081:./Generated_Source/PSoC5/CapSense_CSHL.c **** *  slider specified range. The centroid position is calculated to the resolution
1082:./Generated_Source/PSoC5/CapSense_CSHL.c **** *  specified in the CapSense customizer. The position filters are applied to the
1083:./Generated_Source/PSoC5/CapSense_CSHL.c **** *  result if enabled.
1084:./Generated_Source/PSoC5/CapSense_CSHL.c **** *
ARM GAS  C:\Users\CHARLI~1\AppData\Local\Temp\ccYu411o.s 			page 45


1085:./Generated_Source/PSoC5/CapSense_CSHL.c **** * Parameters:
1086:./Generated_Source/PSoC5/CapSense_CSHL.c **** *  widget:  Widget number.
1087:./Generated_Source/PSoC5/CapSense_CSHL.c **** *  For every linear slider widget there are defines in this format:
1088:./Generated_Source/PSoC5/CapSense_CSHL.c **** *  #define CapSense_LS__"widget_name"            5
1089:./Generated_Source/PSoC5/CapSense_CSHL.c **** * 
1090:./Generated_Source/PSoC5/CapSense_CSHL.c **** * Return:
1091:./Generated_Source/PSoC5/CapSense_CSHL.c **** *  Returns position value of the linear slider.
1092:./Generated_Source/PSoC5/CapSense_CSHL.c **** *
1093:./Generated_Source/PSoC5/CapSense_CSHL.c **** * Side Effects:
1094:./Generated_Source/PSoC5/CapSense_CSHL.c **** *  If any sensor within the slider widget is active, the function returns values
1095:./Generated_Source/PSoC5/CapSense_CSHL.c **** *  from zero to the API resolution value set in the CapSense customizer. If no
1096:./Generated_Source/PSoC5/CapSense_CSHL.c **** *  sensors are active, the function returns 0xFFFF. If an error occurs during
1097:./Generated_Source/PSoC5/CapSense_CSHL.c **** *  execution of the centroid/diplexing algorithm, the function returns 0xFFFF.
1098:./Generated_Source/PSoC5/CapSense_CSHL.c **** *  There are no checks of widget type argument provided to this function.
1099:./Generated_Source/PSoC5/CapSense_CSHL.c **** *  The unproper widget type provided will cause unexpected position calculations.
1100:./Generated_Source/PSoC5/CapSense_CSHL.c **** *
1101:./Generated_Source/PSoC5/CapSense_CSHL.c **** * Note:
1102:./Generated_Source/PSoC5/CapSense_CSHL.c **** *  If noise counts on the slider segments are greater than the noise
1103:./Generated_Source/PSoC5/CapSense_CSHL.c **** *  threshold, this subroutine may generate a false centroid result. The noise
1104:./Generated_Source/PSoC5/CapSense_CSHL.c **** *  threshold should be set carefully (high enough above the noise level) so
1105:./Generated_Source/PSoC5/CapSense_CSHL.c **** *  that noise will not generate a false centroid.
1106:./Generated_Source/PSoC5/CapSense_CSHL.c **** *
1107:./Generated_Source/PSoC5/CapSense_CSHL.c **** *
1108:./Generated_Source/PSoC5/CapSense_CSHL.c **** * Reentrant:
1109:./Generated_Source/PSoC5/CapSense_CSHL.c **** *  No.
1110:./Generated_Source/PSoC5/CapSense_CSHL.c **** *
1111:./Generated_Source/PSoC5/CapSense_CSHL.c **** *******************************************************************************/
1112:./Generated_Source/PSoC5/CapSense_CSHL.c **** uint16 CapSense_GetCentroidPos(uint8 widget)
1113:./Generated_Source/PSoC5/CapSense_CSHL.c **** {
 1416              		.loc 1 1113 0
 1417              		.cfi_startproc
 1418              		@ args = 0, pretend = 0, frame = 16
 1419              		@ frame_needed = 1, uses_anonymous_args = 0
 1420 0000 80B5     		push	{r7, lr}
 1421              	.LCFI36:
 1422              		.cfi_def_cfa_offset 8
 1423 0002 86B0     		sub	sp, sp, #24
 1424              	.LCFI37:
 1425              		.cfi_def_cfa_offset 32
 1426 0004 02AF     		add	r7, sp, #8
 1427              		.cfi_offset 14, -4
 1428              		.cfi_offset 7, -8
 1429              	.LCFI38:
 1430              		.cfi_def_cfa 7, 24
 1431 0006 0346     		mov	r3, r0
 1432 0008 FB71     		strb	r3, [r7, #7]
1114:./Generated_Source/PSoC5/CapSense_CSHL.c ****     uint8 posIndex;
1115:./Generated_Source/PSoC5/CapSense_CSHL.c ****     uint8 firstTimeIndex = CapSense_posFiltersData[widget];
 1433              		.loc 1 1115 0
 1434 000a FA79     		ldrb	r2, [r7, #7]	@ zero_extendqisi2
 1435 000c 40F20003 		movw	r3, #:lower16:CapSense_posFiltersData
 1436 0010 C0F20003 		movt	r3, #:upper16:CapSense_posFiltersData
 1437 0014 9B5C     		ldrb	r3, [r3, r2]
 1438 0016 7B72     		strb	r3, [r7, #9]
1116:./Generated_Source/PSoC5/CapSense_CSHL.c ****     uint8 posFiltersMask = CapSense_posFiltersMask[widget];
 1439              		.loc 1 1116 0
 1440 0018 FA79     		ldrb	r2, [r7, #7]	@ zero_extendqisi2
ARM GAS  C:\Users\CHARLI~1\AppData\Local\Temp\ccYu411o.s 			page 46


 1441 001a 40F20003 		movw	r3, #:lower16:CapSense_posFiltersMask
 1442 001e C0F20003 		movt	r3, #:upper16:CapSense_posFiltersMask
 1443 0022 9B5C     		ldrb	r3, [r3, r2]
 1444 0024 BB72     		strb	r3, [r7, #10]
1117:./Generated_Source/PSoC5/CapSense_CSHL.c ****     uint8 maximum;
1118:./Generated_Source/PSoC5/CapSense_CSHL.c ****     uint16 position;
1119:./Generated_Source/PSoC5/CapSense_CSHL.c ****     uint8 offset = CapSense_rawDataIndex[widget];
 1445              		.loc 1 1119 0
 1446 0026 FA79     		ldrb	r2, [r7, #7]	@ zero_extendqisi2
 1447 0028 40F20003 		movw	r3, #:lower16:CapSense_rawDataIndex
 1448 002c C0F20003 		movt	r3, #:upper16:CapSense_rawDataIndex
 1449 0030 9B5C     		ldrb	r3, [r3, r2]
 1450 0032 BB73     		strb	r3, [r7, #14]
1120:./Generated_Source/PSoC5/CapSense_CSHL.c ****     uint8 count = CapSense_numberOfSensors[widget];
 1451              		.loc 1 1120 0
 1452 0034 FA79     		ldrb	r2, [r7, #7]	@ zero_extendqisi2
 1453 0036 40F20003 		movw	r3, #:lower16:CapSense_numberOfSensors
 1454 003a C0F20003 		movt	r3, #:upper16:CapSense_numberOfSensors
 1455 003e 9B5C     		ldrb	r3, [r3, r2]
 1456 0040 FB73     		strb	r3, [r7, #15]
1121:./Generated_Source/PSoC5/CapSense_CSHL.c ****     
1122:./Generated_Source/PSoC5/CapSense_CSHL.c ****     /* Find Maximum within centroid */
1123:./Generated_Source/PSoC5/CapSense_CSHL.c ****     maximum = CapSense_FindMaximum(offset, count, CapSense_fingerThreshold[widget]);
 1457              		.loc 1 1123 0
 1458 0042 FA79     		ldrb	r2, [r7, #7]	@ zero_extendqisi2
 1459 0044 40F20003 		movw	r3, #:lower16:CapSense_fingerThreshold
 1460 0048 C0F20003 		movt	r3, #:upper16:CapSense_fingerThreshold
 1461 004c 9B5C     		ldrb	r3, [r3, r2]	@ zero_extendqisi2
 1462 004e B97B     		ldrb	r1, [r7, #14]	@ zero_extendqisi2
 1463 0050 FA7B     		ldrb	r2, [r7, #15]	@ zero_extendqisi2
 1464 0052 0846     		mov	r0, r1
 1465 0054 1146     		mov	r1, r2
 1466 0056 1A46     		mov	r2, r3
 1467 0058 FFF7FEFF 		bl	CapSense_FindMaximum
 1468 005c 0346     		mov	r3, r0
 1469 005e FB72     		strb	r3, [r7, #11]
1124:./Generated_Source/PSoC5/CapSense_CSHL.c **** 
1125:./Generated_Source/PSoC5/CapSense_CSHL.c ****     if (maximum != 0xFFu)
 1470              		.loc 1 1125 0
 1471 0060 FB7A     		ldrb	r3, [r7, #11]	@ zero_extendqisi2
 1472 0062 FF2B     		cmp	r3, #255
 1473 0064 55D0     		beq	.L69
1126:./Generated_Source/PSoC5/CapSense_CSHL.c ****     {
1127:./Generated_Source/PSoC5/CapSense_CSHL.c ****         /* Calculate centroid */
1128:./Generated_Source/PSoC5/CapSense_CSHL.c ****         position = (uint16) CapSense_CalcCentroid(maximum, offset, count, CapSense_centroidMult[wid
 1474              		.loc 1 1128 0
 1475 0066 FA79     		ldrb	r2, [r7, #7]	@ zero_extendqisi2
 1476 0068 40F20003 		movw	r3, #:lower16:CapSense_centroidMult
 1477 006c C0F20003 		movt	r3, #:upper16:CapSense_centroidMult
 1478 0070 33F812C0 		ldrh	ip, [r3, r2, lsl #1]
 1479 0074 FA79     		ldrb	r2, [r7, #7]	@ zero_extendqisi2
 1480 0076 40F20003 		movw	r3, #:lower16:CapSense_noiseThreshold
 1481 007a C0F20003 		movt	r3, #:upper16:CapSense_noiseThreshold
 1482 007e 985C     		ldrb	r0, [r3, r2]	@ zero_extendqisi2
 1483 0080 F97A     		ldrb	r1, [r7, #11]	@ zero_extendqisi2
 1484 0082 BA7B     		ldrb	r2, [r7, #14]	@ zero_extendqisi2
 1485 0084 FB7B     		ldrb	r3, [r7, #15]	@ zero_extendqisi2
ARM GAS  C:\Users\CHARLI~1\AppData\Local\Temp\ccYu411o.s 			page 47


 1486 0086 0090     		str	r0, [sp, #0]
 1487 0088 0846     		mov	r0, r1
 1488 008a 1146     		mov	r1, r2
 1489 008c 1A46     		mov	r2, r3
 1490 008e 6346     		mov	r3, ip
 1491 0090 FFF7FEFF 		bl	CapSense_CalcCentroid
 1492 0094 0346     		mov	r3, r0
 1493 0096 BB81     		strh	r3, [r7, #12]	@ movhi
1129:./Generated_Source/PSoC5/CapSense_CSHL.c **** 
1130:./Generated_Source/PSoC5/CapSense_CSHL.c ****         /* Check if this linear slider has enabled filters */
1131:./Generated_Source/PSoC5/CapSense_CSHL.c ****         if ((posFiltersMask & CapSense_ANY_POS_FILTER) != 0u)
 1494              		.loc 1 1131 0
 1495 0098 BB7A     		ldrb	r3, [r7, #10]	@ zero_extendqisi2
 1496 009a 03F01F03 		and	r3, r3, #31
 1497 009e 002B     		cmp	r3, #0
 1498 00a0 48D0     		beq	.L74
1132:./Generated_Source/PSoC5/CapSense_CSHL.c ****         {
1133:./Generated_Source/PSoC5/CapSense_CSHL.c ****             /* Caluclate position to store filters data */
1134:./Generated_Source/PSoC5/CapSense_CSHL.c ****             posIndex  = firstTimeIndex + 1u;
 1499              		.loc 1 1134 0
 1500 00a2 7B7A     		ldrb	r3, [r7, #9]
 1501 00a4 03F10103 		add	r3, r3, #1
 1502 00a8 3B72     		strb	r3, [r7, #8]
1135:./Generated_Source/PSoC5/CapSense_CSHL.c ****             
1136:./Generated_Source/PSoC5/CapSense_CSHL.c ****             if (0u == CapSense_posFiltersData[firstTimeIndex])
 1503              		.loc 1 1136 0
 1504 00aa 7A7A     		ldrb	r2, [r7, #9]	@ zero_extendqisi2
 1505 00ac 40F20003 		movw	r3, #:lower16:CapSense_posFiltersData
 1506 00b0 C0F20003 		movt	r3, #:upper16:CapSense_posFiltersData
 1507 00b4 9B5C     		ldrb	r3, [r3, r2]	@ zero_extendqisi2
 1508 00b6 002B     		cmp	r3, #0
 1509 00b8 10D1     		bne	.L71
1137:./Generated_Source/PSoC5/CapSense_CSHL.c ****             {
1138:./Generated_Source/PSoC5/CapSense_CSHL.c ****                 /* Init filters */
1139:./Generated_Source/PSoC5/CapSense_CSHL.c ****                 CapSense_posFiltersData[posIndex] = (uint8) position;
 1510              		.loc 1 1139 0
 1511 00ba 3A7A     		ldrb	r2, [r7, #8]	@ zero_extendqisi2
 1512 00bc BB89     		ldrh	r3, [r7, #12]	@ movhi
 1513 00be D9B2     		uxtb	r1, r3
 1514 00c0 40F20003 		movw	r3, #:lower16:CapSense_posFiltersData
 1515 00c4 C0F20003 		movt	r3, #:upper16:CapSense_posFiltersData
 1516 00c8 9954     		strb	r1, [r3, r2]
1140:./Generated_Source/PSoC5/CapSense_CSHL.c ****                 
1141:./Generated_Source/PSoC5/CapSense_CSHL.c ****                 CapSense_posFiltersData[firstTimeIndex] = 1u;
 1517              		.loc 1 1141 0
 1518 00ca 7A7A     		ldrb	r2, [r7, #9]	@ zero_extendqisi2
 1519 00cc 40F20003 		movw	r3, #:lower16:CapSense_posFiltersData
 1520 00d0 C0F20003 		movt	r3, #:upper16:CapSense_posFiltersData
 1521 00d4 4FF00101 		mov	r1, #1
 1522 00d8 9954     		strb	r1, [r3, r2]
1142:./Generated_Source/PSoC5/CapSense_CSHL.c ****             }
1143:./Generated_Source/PSoC5/CapSense_CSHL.c ****             else
1144:./Generated_Source/PSoC5/CapSense_CSHL.c ****             {
1145:./Generated_Source/PSoC5/CapSense_CSHL.c ****                 /* Do filtering */
1146:./Generated_Source/PSoC5/CapSense_CSHL.c ****                 if ((posFiltersMask & CapSense_IIR4_FILTER) != 0u)
1147:./Generated_Source/PSoC5/CapSense_CSHL.c ****                 {
1148:./Generated_Source/PSoC5/CapSense_CSHL.c ****                     position = CapSense_IIR4Filter(position, CapSense_posFiltersData[posIndex]);
ARM GAS  C:\Users\CHARLI~1\AppData\Local\Temp\ccYu411o.s 			page 48


1149:./Generated_Source/PSoC5/CapSense_CSHL.c ****                     CapSense_posFiltersData[posIndex] = (uint8) position;
 1523              		.loc 1 1149 0
 1524 00da 2EE0     		b	.L72
 1525              	.L71:
 1526              		.loc 1 1146 0
 1527 00dc BB7A     		ldrb	r3, [r7, #10]	@ zero_extendqisi2
 1528 00de 03F00803 		and	r3, r3, #8
 1529 00e2 002B     		cmp	r3, #0
 1530 00e4 28D0     		beq	.L75
 1531              		.loc 1 1148 0
 1532 00e6 3A7A     		ldrb	r2, [r7, #8]	@ zero_extendqisi2
 1533 00e8 40F20003 		movw	r3, #:lower16:CapSense_posFiltersData
 1534 00ec C0F20003 		movt	r3, #:upper16:CapSense_posFiltersData
 1535 00f0 9B5C     		ldrb	r3, [r3, r2]	@ zero_extendqisi2
 1536 00f2 BA89     		ldrh	r2, [r7, #12]
 1537 00f4 1046     		mov	r0, r2
 1538 00f6 1946     		mov	r1, r3
 1539 00f8 FFF7FEFF 		bl	CapSense_IIR4Filter
 1540 00fc 0346     		mov	r3, r0
 1541 00fe BB81     		strh	r3, [r7, #12]	@ movhi
 1542              		.loc 1 1149 0
 1543 0100 3A7A     		ldrb	r2, [r7, #8]	@ zero_extendqisi2
 1544 0102 BB89     		ldrh	r3, [r7, #12]	@ movhi
 1545 0104 D9B2     		uxtb	r1, r3
 1546 0106 40F20003 		movw	r3, #:lower16:CapSense_posFiltersData
 1547 010a C0F20003 		movt	r3, #:upper16:CapSense_posFiltersData
 1548 010e 9954     		strb	r1, [r3, r2]
 1549 0110 13E0     		b	.L72
 1550              	.L69:
1150:./Generated_Source/PSoC5/CapSense_CSHL.c ****                 }
1151:./Generated_Source/PSoC5/CapSense_CSHL.c ****                 
1152:./Generated_Source/PSoC5/CapSense_CSHL.c ****             }
1153:./Generated_Source/PSoC5/CapSense_CSHL.c ****         }
1154:./Generated_Source/PSoC5/CapSense_CSHL.c ****     }
1155:./Generated_Source/PSoC5/CapSense_CSHL.c ****     else
1156:./Generated_Source/PSoC5/CapSense_CSHL.c ****     {
1157:./Generated_Source/PSoC5/CapSense_CSHL.c ****         /* The maximum didn't find */
1158:./Generated_Source/PSoC5/CapSense_CSHL.c ****         position = 0xFFFFu;
 1551              		.loc 1 1158 0
 1552 0112 4FF6FF73 		movw	r3, #65535
 1553 0116 BB81     		strh	r3, [r7, #12]	@ movhi
1159:./Generated_Source/PSoC5/CapSense_CSHL.c ****         
1160:./Generated_Source/PSoC5/CapSense_CSHL.c ****         /* Reset the filters */
1161:./Generated_Source/PSoC5/CapSense_CSHL.c ****         if((posFiltersMask & CapSense_ANY_POS_FILTER) != 0u)
 1554              		.loc 1 1161 0
 1555 0118 BB7A     		ldrb	r3, [r7, #10]	@ zero_extendqisi2
 1556 011a 03F01F03 		and	r3, r3, #31
 1557 011e 002B     		cmp	r3, #0
 1558 0120 0BD0     		beq	.L72
1162:./Generated_Source/PSoC5/CapSense_CSHL.c ****         {
1163:./Generated_Source/PSoC5/CapSense_CSHL.c ****             CapSense_posFiltersData[firstTimeIndex] = 0u;
 1559              		.loc 1 1163 0
 1560 0122 7A7A     		ldrb	r2, [r7, #9]	@ zero_extendqisi2
 1561 0124 40F20003 		movw	r3, #:lower16:CapSense_posFiltersData
 1562 0128 C0F20003 		movt	r3, #:upper16:CapSense_posFiltersData
 1563 012c 4FF00001 		mov	r1, #0
 1564 0130 9954     		strb	r1, [r3, r2]
ARM GAS  C:\Users\CHARLI~1\AppData\Local\Temp\ccYu411o.s 			page 49


 1565 0132 02E0     		b	.L72
 1566              	.L74:
 1567              		.loc 1 1149 0
 1568 0134 00BF     		nop
 1569 0136 00E0     		b	.L72
 1570              	.L75:
 1571 0138 00BF     		nop
 1572              	.L72:
1164:./Generated_Source/PSoC5/CapSense_CSHL.c ****         }
1165:./Generated_Source/PSoC5/CapSense_CSHL.c ****     }
1166:./Generated_Source/PSoC5/CapSense_CSHL.c ****     
1167:./Generated_Source/PSoC5/CapSense_CSHL.c ****     return position;
 1573              		.loc 1 1167 0
 1574 013a BB89     		ldrh	r3, [r7, #12]
1168:./Generated_Source/PSoC5/CapSense_CSHL.c **** }
 1575              		.loc 1 1168 0
 1576 013c 1846     		mov	r0, r3
 1577 013e 07F11007 		add	r7, r7, #16
 1578 0142 BD46     		mov	sp, r7
 1579 0144 80BD     		pop	{r7, pc}
 1580              		.cfi_endproc
 1581              	.LFE12:
 1582              		.size	CapSense_GetCentroidPos, .-CapSense_GetCentroidPos
 1583 0146 00BF     		.section	.text.CapSense_IIR4Filter,"ax",%progbits
 1584              		.align	2
 1585              		.global	CapSense_IIR4Filter
 1586              		.thumb
 1587              		.thumb_func
 1588              		.type	CapSense_IIR4Filter, %function
 1589              	CapSense_IIR4Filter:
 1590              	.LFB13:
1169:./Generated_Source/PSoC5/CapSense_CSHL.c **** 
1170:./Generated_Source/PSoC5/CapSense_CSHL.c **** 
1171:./Generated_Source/PSoC5/CapSense_CSHL.c **** #if ( (CapSense_RAW_FILTER_MASK & CapSense_MEDIAN_FILTER) || \
1172:./Generated_Source/PSoC5/CapSense_CSHL.c ****       (CapSense_POS_FILTERS_MASK & CapSense_MEDIAN_FILTER) )
1173:./Generated_Source/PSoC5/CapSense_CSHL.c ****     /*******************************************************************************
1174:./Generated_Source/PSoC5/CapSense_CSHL.c ****     * Function Name: CapSense_MedianFilter
1175:./Generated_Source/PSoC5/CapSense_CSHL.c ****     ********************************************************************************
1176:./Generated_Source/PSoC5/CapSense_CSHL.c ****     *
1177:./Generated_Source/PSoC5/CapSense_CSHL.c ****     * Summary:
1178:./Generated_Source/PSoC5/CapSense_CSHL.c ****     *  Median filter function. 
1179:./Generated_Source/PSoC5/CapSense_CSHL.c ****     *  The median filter looks at the three most recent samples and reports the 
1180:./Generated_Source/PSoC5/CapSense_CSHL.c ****     *  median value.
1181:./Generated_Source/PSoC5/CapSense_CSHL.c ****     *
1182:./Generated_Source/PSoC5/CapSense_CSHL.c ****     * Parameters:
1183:./Generated_Source/PSoC5/CapSense_CSHL.c ****     *  x1:  Current value.
1184:./Generated_Source/PSoC5/CapSense_CSHL.c ****     *  x2:  Previous value.
1185:./Generated_Source/PSoC5/CapSense_CSHL.c ****     *  x3:  Before previous value.
1186:./Generated_Source/PSoC5/CapSense_CSHL.c ****     *
1187:./Generated_Source/PSoC5/CapSense_CSHL.c ****     * Return:
1188:./Generated_Source/PSoC5/CapSense_CSHL.c ****     *  Returns filtered value.
1189:./Generated_Source/PSoC5/CapSense_CSHL.c ****     *
1190:./Generated_Source/PSoC5/CapSense_CSHL.c ****     *******************************************************************************/
1191:./Generated_Source/PSoC5/CapSense_CSHL.c ****     uint16 CapSense_MedianFilter(uint16 x1, uint16 x2, uint16 x3) \
1192:./Generated_Source/PSoC5/CapSense_CSHL.c ****                                          
1193:./Generated_Source/PSoC5/CapSense_CSHL.c ****     {
1194:./Generated_Source/PSoC5/CapSense_CSHL.c ****         uint16 tmp;
ARM GAS  C:\Users\CHARLI~1\AppData\Local\Temp\ccYu411o.s 			page 50


1195:./Generated_Source/PSoC5/CapSense_CSHL.c ****         
1196:./Generated_Source/PSoC5/CapSense_CSHL.c ****         if (x1 > x2)
1197:./Generated_Source/PSoC5/CapSense_CSHL.c ****         {
1198:./Generated_Source/PSoC5/CapSense_CSHL.c ****             tmp = x2;
1199:./Generated_Source/PSoC5/CapSense_CSHL.c ****             x2 = x1;
1200:./Generated_Source/PSoC5/CapSense_CSHL.c ****             x1 = tmp;
1201:./Generated_Source/PSoC5/CapSense_CSHL.c ****         }
1202:./Generated_Source/PSoC5/CapSense_CSHL.c ****         
1203:./Generated_Source/PSoC5/CapSense_CSHL.c ****         if (x2 > x3)
1204:./Generated_Source/PSoC5/CapSense_CSHL.c ****         {
1205:./Generated_Source/PSoC5/CapSense_CSHL.c ****             x2 = x3;
1206:./Generated_Source/PSoC5/CapSense_CSHL.c ****         }
1207:./Generated_Source/PSoC5/CapSense_CSHL.c ****         
1208:./Generated_Source/PSoC5/CapSense_CSHL.c ****         return ((x1 > x2) ? x1 : x2);
1209:./Generated_Source/PSoC5/CapSense_CSHL.c ****     }
1210:./Generated_Source/PSoC5/CapSense_CSHL.c **** #endif /* End CapSense_RAW_FILTER_MASK && CapSense_POS_FILTERS_MASK */
1211:./Generated_Source/PSoC5/CapSense_CSHL.c **** 
1212:./Generated_Source/PSoC5/CapSense_CSHL.c **** 
1213:./Generated_Source/PSoC5/CapSense_CSHL.c **** #if ( (CapSense_RAW_FILTER_MASK & CapSense_AVERAGING_FILTER) || \
1214:./Generated_Source/PSoC5/CapSense_CSHL.c ****       (CapSense_POS_FILTERS_MASK & CapSense_AVERAGING_FILTER) )
1215:./Generated_Source/PSoC5/CapSense_CSHL.c ****     /*******************************************************************************
1216:./Generated_Source/PSoC5/CapSense_CSHL.c ****     * Function Name: CapSense_AveragingFilter
1217:./Generated_Source/PSoC5/CapSense_CSHL.c ****     ********************************************************************************
1218:./Generated_Source/PSoC5/CapSense_CSHL.c ****     *
1219:./Generated_Source/PSoC5/CapSense_CSHL.c ****     * Summary:
1220:./Generated_Source/PSoC5/CapSense_CSHL.c ****     *  Averaging filter function.
1221:./Generated_Source/PSoC5/CapSense_CSHL.c ****     *  The averaging filter looks at the three most recent samples of position and
1222:./Generated_Source/PSoC5/CapSense_CSHL.c ****     *  reports the averaging value.
1223:./Generated_Source/PSoC5/CapSense_CSHL.c ****     *
1224:./Generated_Source/PSoC5/CapSense_CSHL.c ****     * Parameters:
1225:./Generated_Source/PSoC5/CapSense_CSHL.c ****     *  x1:  Current value.
1226:./Generated_Source/PSoC5/CapSense_CSHL.c ****     *  x2:  Previous value.
1227:./Generated_Source/PSoC5/CapSense_CSHL.c ****     *  x3:  Before previous value.
1228:./Generated_Source/PSoC5/CapSense_CSHL.c ****     *
1229:./Generated_Source/PSoC5/CapSense_CSHL.c ****     * Return:
1230:./Generated_Source/PSoC5/CapSense_CSHL.c ****     *  Returns filtered value.
1231:./Generated_Source/PSoC5/CapSense_CSHL.c ****     *
1232:./Generated_Source/PSoC5/CapSense_CSHL.c ****     *******************************************************************************/
1233:./Generated_Source/PSoC5/CapSense_CSHL.c ****     uint16 CapSense_AveragingFilter(uint16 x1, uint16 x2, uint16 x3) \
1234:./Generated_Source/PSoC5/CapSense_CSHL.c ****                                             
1235:./Generated_Source/PSoC5/CapSense_CSHL.c ****     {
1236:./Generated_Source/PSoC5/CapSense_CSHL.c ****         uint32 tmp = ((uint32)x1 + (uint32)x2 + (uint32)x3) / 3u;
1237:./Generated_Source/PSoC5/CapSense_CSHL.c ****         
1238:./Generated_Source/PSoC5/CapSense_CSHL.c ****         return ((uint16) tmp);
1239:./Generated_Source/PSoC5/CapSense_CSHL.c ****     }
1240:./Generated_Source/PSoC5/CapSense_CSHL.c **** #endif /* End CapSense_RAW_FILTER_MASK && CapSense_POS_FILTERS_MASK */
1241:./Generated_Source/PSoC5/CapSense_CSHL.c **** 
1242:./Generated_Source/PSoC5/CapSense_CSHL.c **** 
1243:./Generated_Source/PSoC5/CapSense_CSHL.c **** #if ( (CapSense_RAW_FILTER_MASK & CapSense_IIR2_FILTER) || \
1244:./Generated_Source/PSoC5/CapSense_CSHL.c ****       (CapSense_POS_FILTERS_MASK & CapSense_IIR2_FILTER) )
1245:./Generated_Source/PSoC5/CapSense_CSHL.c ****     /*******************************************************************************
1246:./Generated_Source/PSoC5/CapSense_CSHL.c ****     * Function Name: CapSense_IIR2Filter
1247:./Generated_Source/PSoC5/CapSense_CSHL.c ****     ********************************************************************************
1248:./Generated_Source/PSoC5/CapSense_CSHL.c ****     *
1249:./Generated_Source/PSoC5/CapSense_CSHL.c ****     * Summary:
1250:./Generated_Source/PSoC5/CapSense_CSHL.c ****     *  IIR1/2 filter function. IIR1/2 = 1/2current + 1/2previous.
1251:./Generated_Source/PSoC5/CapSense_CSHL.c ****     *
ARM GAS  C:\Users\CHARLI~1\AppData\Local\Temp\ccYu411o.s 			page 51


1252:./Generated_Source/PSoC5/CapSense_CSHL.c ****     * Parameters:
1253:./Generated_Source/PSoC5/CapSense_CSHL.c ****     *  x1:  Current value.
1254:./Generated_Source/PSoC5/CapSense_CSHL.c ****     *  x2:  Previous value.
1255:./Generated_Source/PSoC5/CapSense_CSHL.c ****     *
1256:./Generated_Source/PSoC5/CapSense_CSHL.c ****     * Return:
1257:./Generated_Source/PSoC5/CapSense_CSHL.c ****     *  Returns filtered value.
1258:./Generated_Source/PSoC5/CapSense_CSHL.c ****     *
1259:./Generated_Source/PSoC5/CapSense_CSHL.c ****     *******************************************************************************/
1260:./Generated_Source/PSoC5/CapSense_CSHL.c ****     uint16 CapSense_IIR2Filter(uint16 x1, uint16 x2) \
1261:./Generated_Source/PSoC5/CapSense_CSHL.c ****                                        
1262:./Generated_Source/PSoC5/CapSense_CSHL.c ****     {
1263:./Generated_Source/PSoC5/CapSense_CSHL.c ****         uint32 tmp;
1264:./Generated_Source/PSoC5/CapSense_CSHL.c ****         
1265:./Generated_Source/PSoC5/CapSense_CSHL.c ****         /* IIR = 1/2 Current Value+ 1/2 Previous Value */
1266:./Generated_Source/PSoC5/CapSense_CSHL.c ****         tmp = (uint32)x1 + (uint32)x2;
1267:./Generated_Source/PSoC5/CapSense_CSHL.c ****         tmp >>= 1u;
1268:./Generated_Source/PSoC5/CapSense_CSHL.c ****     
1269:./Generated_Source/PSoC5/CapSense_CSHL.c ****         return ((uint16) tmp);
1270:./Generated_Source/PSoC5/CapSense_CSHL.c ****     }
1271:./Generated_Source/PSoC5/CapSense_CSHL.c **** #endif /* End CapSense_RAW_FILTER_MASK && CapSense_POS_FILTERS_MASK */
1272:./Generated_Source/PSoC5/CapSense_CSHL.c **** 
1273:./Generated_Source/PSoC5/CapSense_CSHL.c **** 
1274:./Generated_Source/PSoC5/CapSense_CSHL.c **** #if ( (CapSense_RAW_FILTER_MASK & CapSense_IIR4_FILTER) || \
1275:./Generated_Source/PSoC5/CapSense_CSHL.c ****       (CapSense_POS_FILTERS_MASK & CapSense_IIR4_FILTER) )
1276:./Generated_Source/PSoC5/CapSense_CSHL.c ****     /*******************************************************************************
1277:./Generated_Source/PSoC5/CapSense_CSHL.c ****     * Function Name: CapSense_IIR4Filter
1278:./Generated_Source/PSoC5/CapSense_CSHL.c ****     ********************************************************************************
1279:./Generated_Source/PSoC5/CapSense_CSHL.c ****     *
1280:./Generated_Source/PSoC5/CapSense_CSHL.c ****     * Summary:
1281:./Generated_Source/PSoC5/CapSense_CSHL.c ****     *  IIR1/4 filter function. IIR1/4 = 1/4current + 3/4previous.
1282:./Generated_Source/PSoC5/CapSense_CSHL.c ****     *
1283:./Generated_Source/PSoC5/CapSense_CSHL.c ****     * Parameters:
1284:./Generated_Source/PSoC5/CapSense_CSHL.c ****     *  x1:  Current value.
1285:./Generated_Source/PSoC5/CapSense_CSHL.c ****     *  x2:  Previous value.
1286:./Generated_Source/PSoC5/CapSense_CSHL.c ****     *
1287:./Generated_Source/PSoC5/CapSense_CSHL.c ****     * Return:
1288:./Generated_Source/PSoC5/CapSense_CSHL.c ****     *  Returns filtered value.
1289:./Generated_Source/PSoC5/CapSense_CSHL.c ****     *
1290:./Generated_Source/PSoC5/CapSense_CSHL.c ****     *******************************************************************************/
1291:./Generated_Source/PSoC5/CapSense_CSHL.c ****     uint16 CapSense_IIR4Filter(uint16 x1, uint16 x2) \
1292:./Generated_Source/PSoC5/CapSense_CSHL.c ****                                        
1293:./Generated_Source/PSoC5/CapSense_CSHL.c ****     {
 1591              		.loc 1 1293 0
 1592              		.cfi_startproc
 1593              		@ args = 0, pretend = 0, frame = 16
 1594              		@ frame_needed = 1, uses_anonymous_args = 0
 1595              		@ link register save eliminated.
 1596 0000 80B4     		push	{r7}
 1597              	.LCFI39:
 1598              		.cfi_def_cfa_offset 4
 1599 0002 85B0     		sub	sp, sp, #20
 1600              	.LCFI40:
 1601              		.cfi_def_cfa_offset 24
 1602 0004 00AF     		add	r7, sp, #0
 1603              		.cfi_offset 7, -4
 1604              	.LCFI41:
 1605              		.cfi_def_cfa_register 7
ARM GAS  C:\Users\CHARLI~1\AppData\Local\Temp\ccYu411o.s 			page 52


 1606 0006 0246     		mov	r2, r0
 1607 0008 0B46     		mov	r3, r1
 1608 000a FA80     		strh	r2, [r7, #6]	@ movhi
 1609 000c BB80     		strh	r3, [r7, #4]	@ movhi
1294:./Generated_Source/PSoC5/CapSense_CSHL.c ****         uint32 tmp;
1295:./Generated_Source/PSoC5/CapSense_CSHL.c ****         
1296:./Generated_Source/PSoC5/CapSense_CSHL.c ****         /* IIR = 1/4 Current Value + 3/4 Previous Value */
1297:./Generated_Source/PSoC5/CapSense_CSHL.c ****         tmp = (uint32)x1 + (uint32)x2;
 1610              		.loc 1 1297 0
 1611 000e FA88     		ldrh	r2, [r7, #6]
 1612 0010 BB88     		ldrh	r3, [r7, #4]
 1613 0012 1344     		add	r3, r2, r3
 1614 0014 FB60     		str	r3, [r7, #12]
1298:./Generated_Source/PSoC5/CapSense_CSHL.c ****         tmp += ((uint32)x2 << 1u);
 1615              		.loc 1 1298 0
 1616 0016 BB88     		ldrh	r3, [r7, #4]
 1617 0018 4FEA4303 		lsl	r3, r3, #1
 1618 001c FA68     		ldr	r2, [r7, #12]
 1619 001e 1344     		add	r3, r2, r3
 1620 0020 FB60     		str	r3, [r7, #12]
1299:./Generated_Source/PSoC5/CapSense_CSHL.c ****         tmp >>= 2u;
 1621              		.loc 1 1299 0
 1622 0022 FB68     		ldr	r3, [r7, #12]
 1623 0024 4FEA9303 		lsr	r3, r3, #2
 1624 0028 FB60     		str	r3, [r7, #12]
1300:./Generated_Source/PSoC5/CapSense_CSHL.c ****         
1301:./Generated_Source/PSoC5/CapSense_CSHL.c ****         return ((uint16) tmp);
 1625              		.loc 1 1301 0
 1626 002a FB68     		ldr	r3, [r7, #12]
 1627 002c 9BB2     		uxth	r3, r3
1302:./Generated_Source/PSoC5/CapSense_CSHL.c ****     }
 1628              		.loc 1 1302 0
 1629 002e 1846     		mov	r0, r3
 1630 0030 07F11407 		add	r7, r7, #20
 1631 0034 BD46     		mov	sp, r7
 1632 0036 80BC     		pop	{r7}
 1633 0038 7047     		bx	lr
 1634              		.cfi_endproc
 1635              	.LFE13:
 1636              		.size	CapSense_IIR4Filter, .-CapSense_IIR4Filter
 1637 003a 00BF     		.text
 1638              	.Letext0:
 1639              		.section	.debug_loc,"",%progbits
 1640              	.Ldebug_loc0:
 1641              	.LLST0:
 1642 0000 00000000 		.4byte	.LFB0
 1643 0004 02000000 		.4byte	.LCFI0
 1644 0008 0100     		.2byte	0x1
 1645 000a 5D       		.byte	0x5d
 1646 000b 02000000 		.4byte	.LCFI0
 1647 000f 04000000 		.4byte	.LCFI1
 1648 0013 0200     		.2byte	0x2
 1649 0015 7D       		.byte	0x7d
 1650 0016 04       		.sleb128 4
 1651 0017 04000000 		.4byte	.LCFI1
 1652 001b 06000000 		.4byte	.LCFI2
 1653 001f 0200     		.2byte	0x2
ARM GAS  C:\Users\CHARLI~1\AppData\Local\Temp\ccYu411o.s 			page 53


 1654 0021 7D       		.byte	0x7d
 1655 0022 18       		.sleb128 24
 1656 0023 06000000 		.4byte	.LCFI2
 1657 0027 9C000000 		.4byte	.LFE0
 1658 002b 0200     		.2byte	0x2
 1659 002d 77       		.byte	0x77
 1660 002e 18       		.sleb128 24
 1661 002f 00000000 		.4byte	0x0
 1662 0033 00000000 		.4byte	0x0
 1663              	.LLST1:
 1664 0037 00000000 		.4byte	.LFB1
 1665 003b 02000000 		.4byte	.LCFI3
 1666 003f 0100     		.2byte	0x1
 1667 0041 5D       		.byte	0x5d
 1668 0042 02000000 		.4byte	.LCFI3
 1669 0046 04000000 		.4byte	.LCFI4
 1670 004a 0200     		.2byte	0x2
 1671 004c 7D       		.byte	0x7d
 1672 004d 08       		.sleb128 8
 1673 004e 04000000 		.4byte	.LCFI4
 1674 0052 06000000 		.4byte	.LCFI5
 1675 0056 0200     		.2byte	0x2
 1676 0058 7D       		.byte	0x7d
 1677 0059 10       		.sleb128 16
 1678 005a 06000000 		.4byte	.LCFI5
 1679 005e 2C000000 		.4byte	.LFE1
 1680 0062 0200     		.2byte	0x2
 1681 0064 77       		.byte	0x77
 1682 0065 10       		.sleb128 16
 1683 0066 00000000 		.4byte	0x0
 1684 006a 00000000 		.4byte	0x0
 1685              	.LLST2:
 1686 006e 00000000 		.4byte	.LFB2
 1687 0072 02000000 		.4byte	.LCFI6
 1688 0076 0100     		.2byte	0x1
 1689 0078 5D       		.byte	0x5d
 1690 0079 02000000 		.4byte	.LCFI6
 1691 007d 04000000 		.4byte	.LCFI7
 1692 0081 0200     		.2byte	0x2
 1693 0083 7D       		.byte	0x7d
 1694 0084 08       		.sleb128 8
 1695 0085 04000000 		.4byte	.LCFI7
 1696 0089 06000000 		.4byte	.LCFI8
 1697 008d 0200     		.2byte	0x2
 1698 008f 7D       		.byte	0x7d
 1699 0090 10       		.sleb128 16
 1700 0091 06000000 		.4byte	.LCFI8
 1701 0095 2C000000 		.4byte	.LFE2
 1702 0099 0200     		.2byte	0x2
 1703 009b 77       		.byte	0x77
 1704 009c 10       		.sleb128 16
 1705 009d 00000000 		.4byte	0x0
 1706 00a1 00000000 		.4byte	0x0
 1707              	.LLST3:
 1708 00a5 00000000 		.4byte	.LFB3
 1709 00a9 02000000 		.4byte	.LCFI9
 1710 00ad 0100     		.2byte	0x1
ARM GAS  C:\Users\CHARLI~1\AppData\Local\Temp\ccYu411o.s 			page 54


 1711 00af 5D       		.byte	0x5d
 1712 00b0 02000000 		.4byte	.LCFI9
 1713 00b4 04000000 		.4byte	.LCFI10
 1714 00b8 0200     		.2byte	0x2
 1715 00ba 7D       		.byte	0x7d
 1716 00bb 08       		.sleb128 8
 1717 00bc 04000000 		.4byte	.LCFI10
 1718 00c0 06000000 		.4byte	.LCFI11
 1719 00c4 0200     		.2byte	0x2
 1720 00c6 7D       		.byte	0x7d
 1721 00c7 20       		.sleb128 32
 1722 00c8 06000000 		.4byte	.LCFI11
 1723 00cc A6010000 		.4byte	.LFE3
 1724 00d0 0200     		.2byte	0x2
 1725 00d2 77       		.byte	0x77
 1726 00d3 20       		.sleb128 32
 1727 00d4 00000000 		.4byte	0x0
 1728 00d8 00000000 		.4byte	0x0
 1729              	.LLST4:
 1730 00dc 00000000 		.4byte	.LFB4
 1731 00e0 02000000 		.4byte	.LCFI12
 1732 00e4 0100     		.2byte	0x1
 1733 00e6 5D       		.byte	0x5d
 1734 00e7 02000000 		.4byte	.LCFI12
 1735 00eb 04000000 		.4byte	.LCFI13
 1736 00ef 0200     		.2byte	0x2
 1737 00f1 7D       		.byte	0x7d
 1738 00f2 08       		.sleb128 8
 1739 00f3 04000000 		.4byte	.LCFI13
 1740 00f7 06000000 		.4byte	.LCFI14
 1741 00fb 0200     		.2byte	0x2
 1742 00fd 7D       		.byte	0x7d
 1743 00fe 10       		.sleb128 16
 1744 00ff 06000000 		.4byte	.LCFI14
 1745 0103 5C000000 		.4byte	.LFE4
 1746 0107 0200     		.2byte	0x2
 1747 0109 77       		.byte	0x77
 1748 010a 10       		.sleb128 16
 1749 010b 00000000 		.4byte	0x0
 1750 010f 00000000 		.4byte	0x0
 1751              	.LLST5:
 1752 0113 00000000 		.4byte	.LFB5
 1753 0117 02000000 		.4byte	.LCFI15
 1754 011b 0100     		.2byte	0x1
 1755 011d 5D       		.byte	0x5d
 1756 011e 02000000 		.4byte	.LCFI15
 1757 0122 04000000 		.4byte	.LCFI16
 1758 0126 0200     		.2byte	0x2
 1759 0128 7D       		.byte	0x7d
 1760 0129 04       		.sleb128 4
 1761 012a 04000000 		.4byte	.LCFI16
 1762 012e 06000000 		.4byte	.LCFI17
 1763 0132 0200     		.2byte	0x2
 1764 0134 7D       		.byte	0x7d
 1765 0135 18       		.sleb128 24
 1766 0136 06000000 		.4byte	.LCFI17
 1767 013a 94010000 		.4byte	.LFE5
ARM GAS  C:\Users\CHARLI~1\AppData\Local\Temp\ccYu411o.s 			page 55


 1768 013e 0200     		.2byte	0x2
 1769 0140 77       		.byte	0x77
 1770 0141 18       		.sleb128 24
 1771 0142 00000000 		.4byte	0x0
 1772 0146 00000000 		.4byte	0x0
 1773              	.LLST6:
 1774 014a 00000000 		.4byte	.LFB6
 1775 014e 02000000 		.4byte	.LCFI18
 1776 0152 0100     		.2byte	0x1
 1777 0154 5D       		.byte	0x5d
 1778 0155 02000000 		.4byte	.LCFI18
 1779 0159 04000000 		.4byte	.LCFI19
 1780 015d 0200     		.2byte	0x2
 1781 015f 7D       		.byte	0x7d
 1782 0160 08       		.sleb128 8
 1783 0161 04000000 		.4byte	.LCFI19
 1784 0165 06000000 		.4byte	.LCFI20
 1785 0169 0200     		.2byte	0x2
 1786 016b 7D       		.byte	0x7d
 1787 016c 18       		.sleb128 24
 1788 016d 06000000 		.4byte	.LCFI20
 1789 0171 60000000 		.4byte	.LFE6
 1790 0175 0200     		.2byte	0x2
 1791 0177 77       		.byte	0x77
 1792 0178 18       		.sleb128 24
 1793 0179 00000000 		.4byte	0x0
 1794 017d 00000000 		.4byte	0x0
 1795              	.LLST7:
 1796 0181 00000000 		.4byte	.LFB7
 1797 0185 02000000 		.4byte	.LCFI21
 1798 0189 0100     		.2byte	0x1
 1799 018b 5D       		.byte	0x5d
 1800 018c 02000000 		.4byte	.LCFI21
 1801 0190 04000000 		.4byte	.LCFI22
 1802 0194 0200     		.2byte	0x2
 1803 0196 7D       		.byte	0x7d
 1804 0197 08       		.sleb128 8
 1805 0198 04000000 		.4byte	.LCFI22
 1806 019c 06000000 		.4byte	.LCFI23
 1807 01a0 0200     		.2byte	0x2
 1808 01a2 7D       		.byte	0x7d
 1809 01a3 10       		.sleb128 16
 1810 01a4 06000000 		.4byte	.LCFI23
 1811 01a8 42000000 		.4byte	.LFE7
 1812 01ac 0200     		.2byte	0x2
 1813 01ae 77       		.byte	0x77
 1814 01af 10       		.sleb128 16
 1815 01b0 00000000 		.4byte	0x0
 1816 01b4 00000000 		.4byte	0x0
 1817              	.LLST8:
 1818 01b8 00000000 		.4byte	.LFB8
 1819 01bc 02000000 		.4byte	.LCFI24
 1820 01c0 0100     		.2byte	0x1
 1821 01c2 5D       		.byte	0x5d
 1822 01c3 02000000 		.4byte	.LCFI24
 1823 01c7 04000000 		.4byte	.LCFI25
 1824 01cb 0200     		.2byte	0x2
ARM GAS  C:\Users\CHARLI~1\AppData\Local\Temp\ccYu411o.s 			page 56


 1825 01cd 7D       		.byte	0x7d
 1826 01ce 04       		.sleb128 4
 1827 01cf 04000000 		.4byte	.LCFI25
 1828 01d3 06000000 		.4byte	.LCFI26
 1829 01d7 0200     		.2byte	0x2
 1830 01d9 7D       		.byte	0x7d
 1831 01da 18       		.sleb128 24
 1832 01db 06000000 		.4byte	.LCFI26
 1833 01df 7C000000 		.4byte	.LFE8
 1834 01e3 0200     		.2byte	0x2
 1835 01e5 77       		.byte	0x77
 1836 01e6 18       		.sleb128 24
 1837 01e7 00000000 		.4byte	0x0
 1838 01eb 00000000 		.4byte	0x0
 1839              	.LLST9:
 1840 01ef 00000000 		.4byte	.LFB9
 1841 01f3 02000000 		.4byte	.LCFI27
 1842 01f7 0100     		.2byte	0x1
 1843 01f9 5D       		.byte	0x5d
 1844 01fa 02000000 		.4byte	.LCFI27
 1845 01fe 04000000 		.4byte	.LCFI28
 1846 0202 0200     		.2byte	0x2
 1847 0204 7D       		.byte	0x7d
 1848 0205 04       		.sleb128 4
 1849 0206 04000000 		.4byte	.LCFI28
 1850 020a 06000000 		.4byte	.LCFI29
 1851 020e 0200     		.2byte	0x2
 1852 0210 7D       		.byte	0x7d
 1853 0211 18       		.sleb128 24
 1854 0212 06000000 		.4byte	.LCFI29
 1855 0216 86000000 		.4byte	.LFE9
 1856 021a 0200     		.2byte	0x2
 1857 021c 77       		.byte	0x77
 1858 021d 18       		.sleb128 24
 1859 021e 00000000 		.4byte	0x0
 1860 0222 00000000 		.4byte	0x0
 1861              	.LLST10:
 1862 0226 00000000 		.4byte	.LFB10
 1863 022a 02000000 		.4byte	.LCFI30
 1864 022e 0100     		.2byte	0x1
 1865 0230 5D       		.byte	0x5d
 1866 0231 02000000 		.4byte	.LCFI30
 1867 0235 04000000 		.4byte	.LCFI31
 1868 0239 0200     		.2byte	0x2
 1869 023b 7D       		.byte	0x7d
 1870 023c 04       		.sleb128 4
 1871 023d 04000000 		.4byte	.LCFI31
 1872 0241 06000000 		.4byte	.LCFI32
 1873 0245 0200     		.2byte	0x2
 1874 0247 7D       		.byte	0x7d
 1875 0248 18       		.sleb128 24
 1876 0249 06000000 		.4byte	.LCFI32
 1877 024d 7C000000 		.4byte	.LFE10
 1878 0251 0200     		.2byte	0x2
 1879 0253 77       		.byte	0x77
 1880 0254 18       		.sleb128 24
 1881 0255 00000000 		.4byte	0x0
ARM GAS  C:\Users\CHARLI~1\AppData\Local\Temp\ccYu411o.s 			page 57


 1882 0259 00000000 		.4byte	0x0
 1883              	.LLST11:
 1884 025d 00000000 		.4byte	.LFB11
 1885 0261 02000000 		.4byte	.LCFI33
 1886 0265 0100     		.2byte	0x1
 1887 0267 5D       		.byte	0x5d
 1888 0268 02000000 		.4byte	.LCFI33
 1889 026c 04000000 		.4byte	.LCFI34
 1890 0270 0200     		.2byte	0x2
 1891 0272 7D       		.byte	0x7d
 1892 0273 04       		.sleb128 4
 1893 0274 04000000 		.4byte	.LCFI34
 1894 0278 06000000 		.4byte	.LCFI35
 1895 027c 0200     		.2byte	0x2
 1896 027e 7D       		.byte	0x7d
 1897 027f 20       		.sleb128 32
 1898 0280 06000000 		.4byte	.LCFI35
 1899 0284 E4010000 		.4byte	.LFE11
 1900 0288 0200     		.2byte	0x2
 1901 028a 77       		.byte	0x77
 1902 028b 20       		.sleb128 32
 1903 028c 00000000 		.4byte	0x0
 1904 0290 00000000 		.4byte	0x0
 1905              	.LLST12:
 1906 0294 00000000 		.4byte	.LFB12
 1907 0298 02000000 		.4byte	.LCFI36
 1908 029c 0100     		.2byte	0x1
 1909 029e 5D       		.byte	0x5d
 1910 029f 02000000 		.4byte	.LCFI36
 1911 02a3 04000000 		.4byte	.LCFI37
 1912 02a7 0200     		.2byte	0x2
 1913 02a9 7D       		.byte	0x7d
 1914 02aa 08       		.sleb128 8
 1915 02ab 04000000 		.4byte	.LCFI37
 1916 02af 06000000 		.4byte	.LCFI38
 1917 02b3 0200     		.2byte	0x2
 1918 02b5 7D       		.byte	0x7d
 1919 02b6 20       		.sleb128 32
 1920 02b7 06000000 		.4byte	.LCFI38
 1921 02bb 46010000 		.4byte	.LFE12
 1922 02bf 0200     		.2byte	0x2
 1923 02c1 77       		.byte	0x77
 1924 02c2 18       		.sleb128 24
 1925 02c3 00000000 		.4byte	0x0
 1926 02c7 00000000 		.4byte	0x0
 1927              	.LLST13:
 1928 02cb 00000000 		.4byte	.LFB13
 1929 02cf 02000000 		.4byte	.LCFI39
 1930 02d3 0100     		.2byte	0x1
 1931 02d5 5D       		.byte	0x5d
 1932 02d6 02000000 		.4byte	.LCFI39
 1933 02da 04000000 		.4byte	.LCFI40
 1934 02de 0200     		.2byte	0x2
 1935 02e0 7D       		.byte	0x7d
 1936 02e1 04       		.sleb128 4
 1937 02e2 04000000 		.4byte	.LCFI40
 1938 02e6 06000000 		.4byte	.LCFI41
ARM GAS  C:\Users\CHARLI~1\AppData\Local\Temp\ccYu411o.s 			page 58


 1939 02ea 0200     		.2byte	0x2
 1940 02ec 7D       		.byte	0x7d
 1941 02ed 18       		.sleb128 24
 1942 02ee 06000000 		.4byte	.LCFI41
 1943 02f2 3A000000 		.4byte	.LFE13
 1944 02f6 0200     		.2byte	0x2
 1945 02f8 77       		.byte	0x77
 1946 02f9 18       		.sleb128 24
 1947 02fa 00000000 		.4byte	0x0
 1948 02fe 00000000 		.4byte	0x0
 1949              		.file 2 "./Generated_Source/PSoC5/cytypes.h"
 1950              		.section	.debug_info
 1951 0000 C9070000 		.4byte	0x7c9
 1952 0004 0200     		.2byte	0x2
 1953 0006 00000000 		.4byte	.Ldebug_abbrev0
 1954 000a 04       		.byte	0x4
 1955 000b 01       		.uleb128 0x1
 1956 000c 6F000000 		.4byte	.LASF76
 1957 0010 01       		.byte	0x1
 1958 0011 C2030000 		.4byte	.LASF77
 1959 0015 B0040000 		.4byte	.LASF78
 1960 0019 00000000 		.4byte	0x0
 1961 001d 00000000 		.4byte	0x0
 1962 0021 00000000 		.4byte	.Ldebug_ranges0+0x0
 1963 0025 00000000 		.4byte	.Ldebug_line0
 1964 0029 02       		.uleb128 0x2
 1965 002a 01       		.byte	0x1
 1966 002b 06       		.byte	0x6
 1967 002c A9000000 		.4byte	.LASF0
 1968 0030 02       		.uleb128 0x2
 1969 0031 01       		.byte	0x1
 1970 0032 08       		.byte	0x8
 1971 0033 85030000 		.4byte	.LASF1
 1972 0037 02       		.uleb128 0x2
 1973 0038 02       		.byte	0x2
 1974 0039 05       		.byte	0x5
 1975 003a EB030000 		.4byte	.LASF2
 1976 003e 02       		.uleb128 0x2
 1977 003f 02       		.byte	0x2
 1978 0040 07       		.byte	0x7
 1979 0041 0C020000 		.4byte	.LASF3
 1980 0045 02       		.uleb128 0x2
 1981 0046 04       		.byte	0x4
 1982 0047 05       		.byte	0x5
 1983 0048 07010000 		.4byte	.LASF4
 1984 004c 02       		.uleb128 0x2
 1985 004d 04       		.byte	0x4
 1986 004e 07       		.byte	0x7
 1987 004f CC010000 		.4byte	.LASF5
 1988 0053 02       		.uleb128 0x2
 1989 0054 08       		.byte	0x8
 1990 0055 05       		.byte	0x5
 1991 0056 9B000000 		.4byte	.LASF6
 1992 005a 02       		.uleb128 0x2
 1993 005b 08       		.byte	0x8
 1994 005c 07       		.byte	0x7
 1995 005d 49000000 		.4byte	.LASF7
ARM GAS  C:\Users\CHARLI~1\AppData\Local\Temp\ccYu411o.s 			page 59


 1996 0061 03       		.uleb128 0x3
 1997 0062 04       		.byte	0x4
 1998 0063 05       		.byte	0x5
 1999 0064 696E7400 		.ascii	"int\000"
 2000 0068 02       		.uleb128 0x2
 2001 0069 04       		.byte	0x4
 2002 006a 07       		.byte	0x7
 2003 006b A3010000 		.4byte	.LASF8
 2004 006f 02       		.uleb128 0x2
 2005 0070 01       		.byte	0x1
 2006 0071 08       		.byte	0x8
 2007 0072 52040000 		.4byte	.LASF9
 2008 0076 04       		.uleb128 0x4
 2009 0077 46010000 		.4byte	.LASF10
 2010 007b 02       		.byte	0x2
 2011 007c 2A       		.byte	0x2a
 2012 007d 30000000 		.4byte	0x30
 2013 0081 04       		.uleb128 0x4
 2014 0082 06000000 		.4byte	.LASF11
 2015 0086 02       		.byte	0x2
 2016 0087 2B       		.byte	0x2b
 2017 0088 3E000000 		.4byte	0x3e
 2018 008c 04       		.uleb128 0x4
 2019 008d 62010000 		.4byte	.LASF12
 2020 0091 02       		.byte	0x2
 2021 0092 2C       		.byte	0x2c
 2022 0093 4C000000 		.4byte	0x4c
 2023 0097 04       		.uleb128 0x4
 2024 0098 FB000000 		.4byte	.LASF13
 2025 009c 02       		.byte	0x2
 2026 009d 30       		.byte	0x30
 2027 009e 45000000 		.4byte	0x45
 2028 00a2 05       		.uleb128 0x5
 2029 00a3 04       		.byte	0x4
 2030 00a4 07       		.byte	0x7
 2031 00a5 06       		.uleb128 0x6
 2032 00a6 01       		.byte	0x1
 2033 00a7 0B040000 		.4byte	.LASF14
 2034 00ab 01       		.byte	0x1
 2035 00ac C2       		.byte	0xc2
 2036 00ad 01       		.byte	0x1
 2037 00ae 00000000 		.4byte	.LFB0
 2038 00b2 9C000000 		.4byte	.LFE0
 2039 00b6 00000000 		.4byte	.LLST0
 2040 00ba DB000000 		.4byte	0xdb
 2041 00be 07       		.uleb128 0x7
 2042 00bf 1F020000 		.4byte	.LASF16
 2043 00c3 01       		.byte	0x1
 2044 00c4 C2       		.byte	0xc2
 2045 00c5 76000000 		.4byte	0x76
 2046 00c9 02       		.byte	0x2
 2047 00ca 91       		.byte	0x91
 2048 00cb 6F       		.sleb128 -17
 2049 00cc 08       		.uleb128 0x8
 2050 00cd F5030000 		.4byte	.LASF18
 2051 00d1 01       		.byte	0x1
 2052 00d2 C6       		.byte	0xc6
ARM GAS  C:\Users\CHARLI~1\AppData\Local\Temp\ccYu411o.s 			page 60


 2053 00d3 76000000 		.4byte	0x76
 2054 00d7 02       		.byte	0x2
 2055 00d8 91       		.byte	0x91
 2056 00d9 77       		.sleb128 -9
 2057 00da 00       		.byte	0x0
 2058 00db 09       		.uleb128 0x9
 2059 00dc 01       		.byte	0x1
 2060 00dd C3020000 		.4byte	.LASF15
 2061 00e1 01       		.byte	0x1
 2062 00e2 0C01     		.2byte	0x10c
 2063 00e4 01       		.byte	0x1
 2064 00e5 00000000 		.4byte	.LFB1
 2065 00e9 2C000000 		.4byte	.LFE1
 2066 00ed 37000000 		.4byte	.LLST1
 2067 00f1 05010000 		.4byte	0x105
 2068 00f5 0A       		.uleb128 0xa
 2069 00f6 1F020000 		.4byte	.LASF16
 2070 00fa 01       		.byte	0x1
 2071 00fb 0C01     		.2byte	0x10c
 2072 00fd 76000000 		.4byte	0x76
 2073 0101 02       		.byte	0x2
 2074 0102 91       		.byte	0x91
 2075 0103 77       		.sleb128 -9
 2076 0104 00       		.byte	0x0
 2077 0105 09       		.uleb128 0x9
 2078 0106 01       		.byte	0x1
 2079 0107 93030000 		.4byte	.LASF17
 2080 010b 01       		.byte	0x1
 2081 010c 3C01     		.2byte	0x13c
 2082 010e 01       		.byte	0x1
 2083 010f 00000000 		.4byte	.LFB2
 2084 0113 2C000000 		.4byte	.LFE2
 2085 0117 6E000000 		.4byte	.LLST2
 2086 011b 2D010000 		.4byte	0x12d
 2087 011f 0B       		.uleb128 0xb
 2088 0120 6900     		.ascii	"i\000"
 2089 0122 01       		.byte	0x1
 2090 0123 3E01     		.2byte	0x13e
 2091 0125 76000000 		.4byte	0x76
 2092 0129 02       		.byte	0x2
 2093 012a 91       		.byte	0x91
 2094 012b 77       		.sleb128 -9
 2095 012c 00       		.byte	0x0
 2096 012d 09       		.uleb128 0x9
 2097 012e 01       		.byte	0x1
 2098 012f 3B020000 		.4byte	.LASF19
 2099 0133 01       		.byte	0x1
 2100 0134 9D01     		.2byte	0x19d
 2101 0136 01       		.byte	0x1
 2102 0137 00000000 		.4byte	.LFB3
 2103 013b A6010000 		.4byte	.LFE3
 2104 013f A5000000 		.4byte	.LLST3
 2105 0143 A2010000 		.4byte	0x1a2
 2106 0147 0A       		.uleb128 0xa
 2107 0148 1F020000 		.4byte	.LASF16
 2108 014c 01       		.byte	0x1
 2109 014d 9D01     		.2byte	0x19d
ARM GAS  C:\Users\CHARLI~1\AppData\Local\Temp\ccYu411o.s 			page 61


 2110 014f 76000000 		.4byte	0x76
 2111 0153 02       		.byte	0x2
 2112 0154 91       		.byte	0x91
 2113 0155 67       		.sleb128 -25
 2114 0156 0C       		.uleb128 0xc
 2115 0157 59020000 		.4byte	.LASF20
 2116 015b 01       		.byte	0x1
 2117 015c 9F01     		.2byte	0x19f
 2118 015e 8C000000 		.4byte	0x8c
 2119 0162 02       		.byte	0x2
 2120 0163 91       		.byte	0x91
 2121 0164 6C       		.sleb128 -20
 2122 0165 0C       		.uleb128 0xc
 2123 0166 3A050000 		.4byte	.LASF21
 2124 016a 01       		.byte	0x1
 2125 016b A001     		.2byte	0x1a0
 2126 016d 81000000 		.4byte	0x81
 2127 0171 02       		.byte	0x2
 2128 0172 91       		.byte	0x91
 2129 0173 72       		.sleb128 -14
 2130 0174 0C       		.uleb128 0xc
 2131 0175 0D000000 		.4byte	.LASF22
 2132 0179 01       		.byte	0x1
 2133 017a A101     		.2byte	0x1a1
 2134 017c 81000000 		.4byte	0x81
 2135 0180 02       		.byte	0x2
 2136 0181 91       		.byte	0x91
 2137 0182 74       		.sleb128 -12
 2138 0183 0C       		.uleb128 0xc
 2139 0184 F5030000 		.4byte	.LASF18
 2140 0188 01       		.byte	0x1
 2141 0189 A201     		.2byte	0x1a2
 2142 018b 76000000 		.4byte	0x76
 2143 018f 02       		.byte	0x2
 2144 0190 91       		.byte	0x91
 2145 0191 76       		.sleb128 -10
 2146 0192 0C       		.uleb128 0xc
 2147 0193 B3030000 		.4byte	.LASF23
 2148 0197 01       		.byte	0x1
 2149 0198 A301     		.2byte	0x1a3
 2150 019a 76000000 		.4byte	0x76
 2151 019e 02       		.byte	0x2
 2152 019f 91       		.byte	0x91
 2153 01a0 77       		.sleb128 -9
 2154 01a1 00       		.byte	0x0
 2155 01a2 09       		.uleb128 0x9
 2156 01a3 01       		.byte	0x1
 2157 01a4 7B000000 		.4byte	.LASF24
 2158 01a8 01       		.byte	0x1
 2159 01a9 7002     		.2byte	0x270
 2160 01ab 01       		.byte	0x1
 2161 01ac 00000000 		.4byte	.LFB4
 2162 01b0 5C000000 		.4byte	.LFE4
 2163 01b4 DC000000 		.4byte	.LLST4
 2164 01b8 E8010000 		.4byte	0x1e8
 2165 01bc 0B       		.uleb128 0xb
 2166 01bd 6900     		.ascii	"i\000"
ARM GAS  C:\Users\CHARLI~1\AppData\Local\Temp\ccYu411o.s 			page 62


 2167 01bf 01       		.byte	0x1
 2168 01c0 7202     		.2byte	0x272
 2169 01c2 76000000 		.4byte	0x76
 2170 01c6 02       		.byte	0x2
 2171 01c7 91       		.byte	0x91
 2172 01c8 75       		.sleb128 -11
 2173 01c9 0B       		.uleb128 0xb
 2174 01ca 706F7300 		.ascii	"pos\000"
 2175 01ce 01       		.byte	0x1
 2176 01cf 7302     		.2byte	0x273
 2177 01d1 76000000 		.4byte	0x76
 2178 01d5 02       		.byte	0x2
 2179 01d6 91       		.byte	0x91
 2180 01d7 76       		.sleb128 -10
 2181 01d8 0C       		.uleb128 0xc
 2182 01d9 18030000 		.4byte	.LASF25
 2183 01dd 01       		.byte	0x1
 2184 01de 7402     		.2byte	0x274
 2185 01e0 76000000 		.4byte	0x76
 2186 01e4 02       		.byte	0x2
 2187 01e5 91       		.byte	0x91
 2188 01e6 77       		.sleb128 -9
 2189 01e7 00       		.byte	0x0
 2190 01e8 0D       		.uleb128 0xd
 2191 01e9 01       		.byte	0x1
 2192 01ea FB020000 		.4byte	.LASF31
 2193 01ee 01       		.byte	0x1
 2194 01ef A902     		.2byte	0x2a9
 2195 01f1 01       		.byte	0x1
 2196 01f2 76000000 		.4byte	0x76
 2197 01f6 00000000 		.4byte	.LFB5
 2198 01fa 94010000 		.4byte	.LFE5
 2199 01fe 13010000 		.4byte	.LLST5
 2200 0202 7F020000 		.4byte	0x27f
 2201 0206 0A       		.uleb128 0xa
 2202 0207 1F020000 		.4byte	.LASF16
 2203 020b 01       		.byte	0x1
 2204 020c A902     		.2byte	0x2a9
 2205 020e 76000000 		.4byte	0x76
 2206 0212 02       		.byte	0x2
 2207 0213 91       		.byte	0x91
 2208 0214 6F       		.sleb128 -17
 2209 0215 0C       		.uleb128 0xc
 2210 0216 A2040000 		.4byte	.LASF26
 2211 021a 01       		.byte	0x1
 2212 021b AB02     		.2byte	0x2ab
 2213 021d 76000000 		.4byte	0x76
 2214 0221 02       		.byte	0x2
 2215 0222 91       		.byte	0x91
 2216 0223 71       		.sleb128 -15
 2217 0224 0B       		.uleb128 0xb
 2218 0225 706F7300 		.ascii	"pos\000"
 2219 0229 01       		.byte	0x1
 2220 022a AD02     		.2byte	0x2ad
 2221 022c 76000000 		.4byte	0x76
 2222 0230 02       		.byte	0x2
 2223 0231 91       		.byte	0x91
ARM GAS  C:\Users\CHARLI~1\AppData\Local\Temp\ccYu411o.s 			page 63


 2224 0232 72       		.sleb128 -14
 2225 0233 0C       		.uleb128 0xc
 2226 0234 FC030000 		.4byte	.LASF27
 2227 0238 01       		.byte	0x1
 2228 0239 AE02     		.2byte	0x2ae
 2229 023b 76000000 		.4byte	0x76
 2230 023f 02       		.byte	0x2
 2231 0240 91       		.byte	0x91
 2232 0241 73       		.sleb128 -13
 2233 0242 0C       		.uleb128 0xc
 2234 0243 F5030000 		.4byte	.LASF18
 2235 0247 01       		.byte	0x1
 2236 0248 B002     		.2byte	0x2b0
 2237 024a 76000000 		.4byte	0x76
 2238 024e 02       		.byte	0x2
 2239 024f 91       		.byte	0x91
 2240 0250 74       		.sleb128 -12
 2241 0251 0C       		.uleb128 0xc
 2242 0252 31000000 		.4byte	.LASF28
 2243 0256 01       		.byte	0x1
 2244 0257 B102     		.2byte	0x2b1
 2245 0259 76000000 		.4byte	0x76
 2246 025d 02       		.byte	0x2
 2247 025e 91       		.byte	0x91
 2248 025f 75       		.sleb128 -11
 2249 0260 0C       		.uleb128 0xc
 2250 0261 69010000 		.4byte	.LASF29
 2251 0265 01       		.byte	0x1
 2252 0266 B202     		.2byte	0x2b2
 2253 0268 76000000 		.4byte	0x76
 2254 026c 02       		.byte	0x2
 2255 026d 91       		.byte	0x91
 2256 026e 76       		.sleb128 -10
 2257 026f 0C       		.uleb128 0xc
 2258 0270 7F020000 		.4byte	.LASF30
 2259 0274 01       		.byte	0x1
 2260 0275 B302     		.2byte	0x2b3
 2261 0277 76000000 		.4byte	0x76
 2262 027b 02       		.byte	0x2
 2263 027c 91       		.byte	0x91
 2264 027d 77       		.sleb128 -9
 2265 027e 00       		.byte	0x0
 2266 027f 0D       		.uleb128 0xd
 2267 0280 01       		.byte	0x1
 2268 0281 68030000 		.4byte	.LASF32
 2269 0285 01       		.byte	0x1
 2270 0286 F702     		.2byte	0x2f7
 2271 0288 01       		.byte	0x1
 2272 0289 76000000 		.4byte	0x76
 2273 028d 00000000 		.4byte	.LFB6
 2274 0291 60000000 		.4byte	.LFE6
 2275 0295 4A010000 		.4byte	.LLST6
 2276 0299 DA020000 		.4byte	0x2da
 2277 029d 0A       		.uleb128 0xa
 2278 029e F5030000 		.4byte	.LASF18
 2279 02a2 01       		.byte	0x1
 2280 02a3 F702     		.2byte	0x2f7
ARM GAS  C:\Users\CHARLI~1\AppData\Local\Temp\ccYu411o.s 			page 64


 2281 02a5 76000000 		.4byte	0x76
 2282 02a9 02       		.byte	0x2
 2283 02aa 91       		.byte	0x91
 2284 02ab 6F       		.sleb128 -17
 2285 02ac 0C       		.uleb128 0xc
 2286 02ad E2000000 		.4byte	.LASF33
 2287 02b1 01       		.byte	0x1
 2288 02b2 F902     		.2byte	0x2f9
 2289 02b4 76000000 		.4byte	0x76
 2290 02b8 02       		.byte	0x2
 2291 02b9 91       		.byte	0x91
 2292 02ba 75       		.sleb128 -11
 2293 02bb 0C       		.uleb128 0xc
 2294 02bc EB000000 		.4byte	.LASF34
 2295 02c0 01       		.byte	0x1
 2296 02c1 FA02     		.2byte	0x2fa
 2297 02c3 76000000 		.4byte	0x76
 2298 02c7 02       		.byte	0x2
 2299 02c8 91       		.byte	0x91
 2300 02c9 76       		.sleb128 -10
 2301 02ca 0C       		.uleb128 0xc
 2302 02cb 01010000 		.4byte	.LASF35
 2303 02cf 01       		.byte	0x1
 2304 02d0 FB02     		.2byte	0x2fb
 2305 02d2 76000000 		.4byte	0x76
 2306 02d6 02       		.byte	0x2
 2307 02d7 91       		.byte	0x91
 2308 02d8 77       		.sleb128 -9
 2309 02d9 00       		.byte	0x0
 2310 02da 0D       		.uleb128 0xd
 2311 02db 01       		.byte	0x1
 2312 02dc 1A010000 		.4byte	.LASF36
 2313 02e0 01       		.byte	0x1
 2314 02e1 2203     		.2byte	0x322
 2315 02e3 01       		.byte	0x1
 2316 02e4 76000000 		.4byte	0x76
 2317 02e8 00000000 		.4byte	.LFB7
 2318 02ec 42000000 		.4byte	.LFE7
 2319 02f0 81010000 		.4byte	.LLST7
 2320 02f4 15030000 		.4byte	0x315
 2321 02f8 0B       		.uleb128 0xb
 2322 02f9 6900     		.ascii	"i\000"
 2323 02fb 01       		.byte	0x1
 2324 02fc 2403     		.2byte	0x324
 2325 02fe 76000000 		.4byte	0x76
 2326 0302 02       		.byte	0x2
 2327 0303 91       		.byte	0x91
 2328 0304 76       		.sleb128 -10
 2329 0305 0C       		.uleb128 0xc
 2330 0306 01010000 		.4byte	.LASF35
 2331 030a 01       		.byte	0x1
 2332 030b 2503     		.2byte	0x325
 2333 030d 76000000 		.4byte	0x76
 2334 0311 02       		.byte	0x2
 2335 0312 91       		.byte	0x91
 2336 0313 77       		.sleb128 -9
 2337 0314 00       		.byte	0x0
ARM GAS  C:\Users\CHARLI~1\AppData\Local\Temp\ccYu411o.s 			page 65


 2338 0315 09       		.uleb128 0x9
 2339 0316 01       		.byte	0x1
 2340 0317 9E020000 		.4byte	.LASF37
 2341 031b 01       		.byte	0x1
 2342 031c 4F03     		.2byte	0x34f
 2343 031e 01       		.byte	0x1
 2344 031f 00000000 		.4byte	.LFB8
 2345 0323 7C000000 		.4byte	.LFE8
 2346 0327 B8010000 		.4byte	.LLST8
 2347 032b 7B030000 		.4byte	0x37b
 2348 032f 0A       		.uleb128 0xa
 2349 0330 F5030000 		.4byte	.LASF18
 2350 0334 01       		.byte	0x1
 2351 0335 4F03     		.2byte	0x34f
 2352 0337 76000000 		.4byte	0x76
 2353 033b 02       		.byte	0x2
 2354 033c 91       		.byte	0x91
 2355 033d 6F       		.sleb128 -17
 2356 033e 0B       		.uleb128 0xb
 2357 033f 706F7300 		.ascii	"pos\000"
 2358 0343 01       		.byte	0x1
 2359 0344 5103     		.2byte	0x351
 2360 0346 76000000 		.4byte	0x76
 2361 034a 02       		.byte	0x2
 2362 034b 91       		.byte	0x91
 2363 034c 74       		.sleb128 -12
 2364 034d 0C       		.uleb128 0xc
 2365 034e 18030000 		.4byte	.LASF25
 2366 0352 01       		.byte	0x1
 2367 0353 5203     		.2byte	0x352
 2368 0355 76000000 		.4byte	0x76
 2369 0359 02       		.byte	0x2
 2370 035a 91       		.byte	0x91
 2371 035b 75       		.sleb128 -11
 2372 035c 0C       		.uleb128 0xc
 2373 035d E2000000 		.4byte	.LASF33
 2374 0361 01       		.byte	0x1
 2375 0362 5303     		.2byte	0x353
 2376 0364 76000000 		.4byte	0x76
 2377 0368 02       		.byte	0x2
 2378 0369 91       		.byte	0x91
 2379 036a 76       		.sleb128 -10
 2380 036b 0C       		.uleb128 0xc
 2381 036c EB000000 		.4byte	.LASF34
 2382 0370 01       		.byte	0x1
 2383 0371 5403     		.2byte	0x354
 2384 0373 76000000 		.4byte	0x76
 2385 0377 02       		.byte	0x2
 2386 0378 91       		.byte	0x91
 2387 0379 77       		.sleb128 -9
 2388 037a 00       		.byte	0x0
 2389 037b 09       		.uleb128 0x9
 2390 037c 01       		.byte	0x1
 2391 037d CB000000 		.4byte	.LASF38
 2392 0381 01       		.byte	0x1
 2393 0382 8003     		.2byte	0x380
 2394 0384 01       		.byte	0x1
ARM GAS  C:\Users\CHARLI~1\AppData\Local\Temp\ccYu411o.s 			page 66


 2395 0385 00000000 		.4byte	.LFB9
 2396 0389 86000000 		.4byte	.LFE9
 2397 038d EF010000 		.4byte	.LLST9
 2398 0391 E1030000 		.4byte	0x3e1
 2399 0395 0A       		.uleb128 0xa
 2400 0396 F5030000 		.4byte	.LASF18
 2401 039a 01       		.byte	0x1
 2402 039b 8003     		.2byte	0x380
 2403 039d 76000000 		.4byte	0x76
 2404 03a1 02       		.byte	0x2
 2405 03a2 91       		.byte	0x91
 2406 03a3 6F       		.sleb128 -17
 2407 03a4 0B       		.uleb128 0xb
 2408 03a5 706F7300 		.ascii	"pos\000"
 2409 03a9 01       		.byte	0x1
 2410 03aa 8203     		.2byte	0x382
 2411 03ac 76000000 		.4byte	0x76
 2412 03b0 02       		.byte	0x2
 2413 03b1 91       		.byte	0x91
 2414 03b2 74       		.sleb128 -12
 2415 03b3 0C       		.uleb128 0xc
 2416 03b4 18030000 		.4byte	.LASF25
 2417 03b8 01       		.byte	0x1
 2418 03b9 8303     		.2byte	0x383
 2419 03bb 76000000 		.4byte	0x76
 2420 03bf 02       		.byte	0x2
 2421 03c0 91       		.byte	0x91
 2422 03c1 75       		.sleb128 -11
 2423 03c2 0C       		.uleb128 0xc
 2424 03c3 E2000000 		.4byte	.LASF33
 2425 03c7 01       		.byte	0x1
 2426 03c8 8403     		.2byte	0x384
 2427 03ca 76000000 		.4byte	0x76
 2428 03ce 02       		.byte	0x2
 2429 03cf 91       		.byte	0x91
 2430 03d0 76       		.sleb128 -10
 2431 03d1 0C       		.uleb128 0xc
 2432 03d2 EB000000 		.4byte	.LASF34
 2433 03d6 01       		.byte	0x1
 2434 03d7 8503     		.2byte	0x385
 2435 03d9 76000000 		.4byte	0x76
 2436 03dd 02       		.byte	0x2
 2437 03de 91       		.byte	0x91
 2438 03df 77       		.sleb128 -9
 2439 03e0 00       		.byte	0x0
 2440 03e1 0D       		.uleb128 0xd
 2441 03e2 01       		.byte	0x1
 2442 03e3 26020000 		.4byte	.LASF39
 2443 03e7 01       		.byte	0x1
 2444 03e8 AD03     		.2byte	0x3ad
 2445 03ea 01       		.byte	0x1
 2446 03eb 76000000 		.4byte	0x76
 2447 03ef 00000000 		.4byte	.LFB10
 2448 03f3 7C000000 		.4byte	.LFE10
 2449 03f7 26020000 		.4byte	.LLST10
 2450 03fb 67040000 		.4byte	0x467
 2451 03ff 0A       		.uleb128 0xa
ARM GAS  C:\Users\CHARLI~1\AppData\Local\Temp\ccYu411o.s 			page 67


 2452 0400 9B040000 		.4byte	.LASF40
 2453 0404 01       		.byte	0x1
 2454 0405 AD03     		.2byte	0x3ad
 2455 0407 76000000 		.4byte	0x76
 2456 040b 02       		.byte	0x2
 2457 040c 91       		.byte	0x91
 2458 040d 6F       		.sleb128 -17
 2459 040e 0A       		.uleb128 0xa
 2460 040f 00000000 		.4byte	.LASF41
 2461 0413 01       		.byte	0x1
 2462 0414 AD03     		.2byte	0x3ad
 2463 0416 76000000 		.4byte	0x76
 2464 041a 02       		.byte	0x2
 2465 041b 91       		.byte	0x91
 2466 041c 6E       		.sleb128 -18
 2467 041d 0A       		.uleb128 0xa
 2468 041e 31000000 		.4byte	.LASF28
 2469 0422 01       		.byte	0x1
 2470 0423 AD03     		.2byte	0x3ad
 2471 0425 76000000 		.4byte	0x76
 2472 0429 02       		.byte	0x2
 2473 042a 91       		.byte	0x91
 2474 042b 6D       		.sleb128 -19
 2475 042c 0B       		.uleb128 0xb
 2476 042d 6900     		.ascii	"i\000"
 2477 042f 01       		.byte	0x1
 2478 0430 AF03     		.2byte	0x3af
 2479 0432 76000000 		.4byte	0x76
 2480 0436 02       		.byte	0x2
 2481 0437 91       		.byte	0x91
 2482 0438 71       		.sleb128 -15
 2483 0439 0C       		.uleb128 0xc
 2484 043a 03040000 		.4byte	.LASF42
 2485 043e 01       		.byte	0x1
 2486 043f B003     		.2byte	0x3b0
 2487 0441 76000000 		.4byte	0x76
 2488 0445 02       		.byte	0x2
 2489 0446 91       		.byte	0x91
 2490 0447 72       		.sleb128 -14
 2491 0448 0C       		.uleb128 0xc
 2492 0449 8A010000 		.4byte	.LASF43
 2493 044d 01       		.byte	0x1
 2494 044e B103     		.2byte	0x3b1
 2495 0450 76000000 		.4byte	0x76
 2496 0454 02       		.byte	0x2
 2497 0455 91       		.byte	0x91
 2498 0456 73       		.sleb128 -13
 2499 0457 0C       		.uleb128 0xc
 2500 0458 7C010000 		.4byte	.LASF44
 2501 045c 01       		.byte	0x1
 2502 045d B203     		.2byte	0x3b2
 2503 045f 67040000 		.4byte	0x467
 2504 0463 02       		.byte	0x2
 2505 0464 91       		.byte	0x91
 2506 0465 74       		.sleb128 -12
 2507 0466 00       		.byte	0x0
 2508 0467 0E       		.uleb128 0xe
ARM GAS  C:\Users\CHARLI~1\AppData\Local\Temp\ccYu411o.s 			page 68


 2509 0468 04       		.byte	0x4
 2510 0469 76000000 		.4byte	0x76
 2511 046d 0D       		.uleb128 0xd
 2512 046e 01       		.byte	0x1
 2513 046f 0B050000 		.4byte	.LASF45
 2514 0473 01       		.byte	0x1
 2515 0474 DD03     		.2byte	0x3dd
 2516 0476 01       		.byte	0x1
 2517 0477 76000000 		.4byte	0x76
 2518 047b 00000000 		.4byte	.LFB11
 2519 047f E4010000 		.4byte	.LFE11
 2520 0483 5D020000 		.4byte	.LLST11
 2521 0487 31050000 		.4byte	0x531
 2522 048b 0A       		.uleb128 0xa
 2523 048c 03040000 		.4byte	.LASF42
 2524 0490 01       		.byte	0x1
 2525 0491 DD03     		.2byte	0x3dd
 2526 0493 76000000 		.4byte	0x76
 2527 0497 02       		.byte	0x2
 2528 0498 91       		.byte	0x91
 2529 0499 67       		.sleb128 -25
 2530 049a 0A       		.uleb128 0xa
 2531 049b 9B040000 		.4byte	.LASF40
 2532 049f 01       		.byte	0x1
 2533 04a0 DD03     		.2byte	0x3dd
 2534 04a2 76000000 		.4byte	0x76
 2535 04a6 02       		.byte	0x2
 2536 04a7 91       		.byte	0x91
 2537 04a8 66       		.sleb128 -26
 2538 04a9 0A       		.uleb128 0xa
 2539 04aa 00000000 		.4byte	.LASF41
 2540 04ae 01       		.byte	0x1
 2541 04af DD03     		.2byte	0x3dd
 2542 04b1 76000000 		.4byte	0x76
 2543 04b5 02       		.byte	0x2
 2544 04b6 91       		.byte	0x91
 2545 04b7 65       		.sleb128 -27
 2546 04b8 0A       		.uleb128 0xa
 2547 04b9 1D040000 		.4byte	.LASF46
 2548 04bd 01       		.byte	0x1
 2549 04be DD03     		.2byte	0x3dd
 2550 04c0 81000000 		.4byte	0x81
 2551 04c4 02       		.byte	0x2
 2552 04c5 91       		.byte	0x91
 2553 04c6 62       		.sleb128 -30
 2554 04c7 0A       		.uleb128 0xa
 2555 04c8 B3030000 		.4byte	.LASF23
 2556 04cc 01       		.byte	0x1
 2557 04cd DD03     		.2byte	0x3dd
 2558 04cf 76000000 		.4byte	0x76
 2559 04d3 02       		.byte	0x2
 2560 04d4 91       		.byte	0x91
 2561 04d5 00       		.sleb128 0
 2562 04d6 0C       		.uleb128 0xc
 2563 04d7 41000000 		.4byte	.LASF47
 2564 04db 01       		.byte	0x1
 2565 04dc DF03     		.2byte	0x3df
ARM GAS  C:\Users\CHARLI~1\AppData\Local\Temp\ccYu411o.s 			page 69


 2566 04de 76000000 		.4byte	0x76
 2567 04e2 02       		.byte	0x2
 2568 04e3 91       		.byte	0x91
 2569 04e4 69       		.sleb128 -23
 2570 04e5 0C       		.uleb128 0xc
 2571 04e6 74010000 		.4byte	.LASF48
 2572 04ea 01       		.byte	0x1
 2573 04eb E003     		.2byte	0x3e0
 2574 04ed 76000000 		.4byte	0x76
 2575 04f1 02       		.byte	0x2
 2576 04f2 91       		.byte	0x91
 2577 04f3 6A       		.sleb128 -22
 2578 04f4 0C       		.uleb128 0xc
 2579 04f5 B0010000 		.4byte	.LASF49
 2580 04f9 01       		.byte	0x1
 2581 04fa E103     		.2byte	0x3e1
 2582 04fc 76000000 		.4byte	0x76
 2583 0500 02       		.byte	0x2
 2584 0501 91       		.byte	0x91
 2585 0502 6B       		.sleb128 -21
 2586 0503 0C       		.uleb128 0xc
 2587 0504 10010000 		.4byte	.LASF50
 2588 0508 01       		.byte	0x1
 2589 0509 E203     		.2byte	0x3e2
 2590 050b 97000000 		.4byte	0x97
 2591 050f 02       		.byte	0x2
 2592 0510 91       		.byte	0x91
 2593 0511 6C       		.sleb128 -20
 2594 0512 0C       		.uleb128 0xc
 2595 0513 3A010000 		.4byte	.LASF51
 2596 0517 01       		.byte	0x1
 2597 0518 E303     		.2byte	0x3e3
 2598 051a 97000000 		.4byte	0x97
 2599 051e 02       		.byte	0x2
 2600 051f 91       		.byte	0x91
 2601 0520 70       		.sleb128 -16
 2602 0521 0C       		.uleb128 0xc
 2603 0522 7C010000 		.4byte	.LASF44
 2604 0526 01       		.byte	0x1
 2605 0527 E403     		.2byte	0x3e4
 2606 0529 67040000 		.4byte	0x467
 2607 052d 02       		.byte	0x2
 2608 052e 91       		.byte	0x91
 2609 052f 74       		.sleb128 -12
 2610 0530 00       		.byte	0x0
 2611 0531 0D       		.uleb128 0xd
 2612 0532 01       		.byte	0x1
 2613 0533 3A040000 		.4byte	.LASF52
 2614 0537 01       		.byte	0x1
 2615 0538 5804     		.2byte	0x458
 2616 053a 01       		.byte	0x1
 2617 053b 81000000 		.4byte	0x81
 2618 053f 00000000 		.4byte	.LFB12
 2619 0543 46010000 		.4byte	.LFE12
 2620 0547 94020000 		.4byte	.LLST12
 2621 054b C8050000 		.4byte	0x5c8
 2622 054f 0A       		.uleb128 0xa
ARM GAS  C:\Users\CHARLI~1\AppData\Local\Temp\ccYu411o.s 			page 70


 2623 0550 F5030000 		.4byte	.LASF18
 2624 0554 01       		.byte	0x1
 2625 0555 5804     		.2byte	0x458
 2626 0557 76000000 		.4byte	0x76
 2627 055b 02       		.byte	0x2
 2628 055c 91       		.byte	0x91
 2629 055d 6F       		.sleb128 -17
 2630 055e 0C       		.uleb128 0xc
 2631 055f 76020000 		.4byte	.LASF53
 2632 0563 01       		.byte	0x1
 2633 0564 5A04     		.2byte	0x45a
 2634 0566 76000000 		.4byte	0x76
 2635 056a 02       		.byte	0x2
 2636 056b 91       		.byte	0x91
 2637 056c 70       		.sleb128 -16
 2638 056d 0C       		.uleb128 0xc
 2639 056e 60000000 		.4byte	.LASF54
 2640 0572 01       		.byte	0x1
 2641 0573 5B04     		.2byte	0x45b
 2642 0575 76000000 		.4byte	0x76
 2643 0579 02       		.byte	0x2
 2644 057a 91       		.byte	0x91
 2645 057b 71       		.sleb128 -15
 2646 057c 0C       		.uleb128 0xc
 2647 057d B4020000 		.4byte	.LASF55
 2648 0581 01       		.byte	0x1
 2649 0582 5C04     		.2byte	0x45c
 2650 0584 76000000 		.4byte	0x76
 2651 0588 02       		.byte	0x2
 2652 0589 91       		.byte	0x91
 2653 058a 72       		.sleb128 -14
 2654 058b 0C       		.uleb128 0xc
 2655 058c 03040000 		.4byte	.LASF42
 2656 0590 01       		.byte	0x1
 2657 0591 5D04     		.2byte	0x45d
 2658 0593 76000000 		.4byte	0x76
 2659 0597 02       		.byte	0x2
 2660 0598 91       		.byte	0x91
 2661 0599 73       		.sleb128 -13
 2662 059a 0C       		.uleb128 0xc
 2663 059b B0010000 		.4byte	.LASF49
 2664 059f 01       		.byte	0x1
 2665 05a0 5E04     		.2byte	0x45e
 2666 05a2 81000000 		.4byte	0x81
 2667 05a6 02       		.byte	0x2
 2668 05a7 91       		.byte	0x91
 2669 05a8 74       		.sleb128 -12
 2670 05a9 0C       		.uleb128 0xc
 2671 05aa 9B040000 		.4byte	.LASF40
 2672 05ae 01       		.byte	0x1
 2673 05af 5F04     		.2byte	0x45f
 2674 05b1 76000000 		.4byte	0x76
 2675 05b5 02       		.byte	0x2
 2676 05b6 91       		.byte	0x91
 2677 05b7 76       		.sleb128 -10
 2678 05b8 0C       		.uleb128 0xc
 2679 05b9 00000000 		.4byte	.LASF41
ARM GAS  C:\Users\CHARLI~1\AppData\Local\Temp\ccYu411o.s 			page 71


 2680 05bd 01       		.byte	0x1
 2681 05be 6004     		.2byte	0x460
 2682 05c0 76000000 		.4byte	0x76
 2683 05c4 02       		.byte	0x2
 2684 05c5 91       		.byte	0x91
 2685 05c6 77       		.sleb128 -9
 2686 05c7 00       		.byte	0x0
 2687 05c8 0D       		.uleb128 0xd
 2688 05c9 01       		.byte	0x1
 2689 05ca 8F010000 		.4byte	.LASF56
 2690 05ce 01       		.byte	0x1
 2691 05cf 0B05     		.2byte	0x50b
 2692 05d1 01       		.byte	0x1
 2693 05d2 81000000 		.4byte	0x81
 2694 05d6 00000000 		.4byte	.LFB13
 2695 05da 3A000000 		.4byte	.LFE13
 2696 05de CB020000 		.4byte	.LLST13
 2697 05e2 12060000 		.4byte	0x612
 2698 05e6 0F       		.uleb128 0xf
 2699 05e7 783100   		.ascii	"x1\000"
 2700 05ea 01       		.byte	0x1
 2701 05eb 0B05     		.2byte	0x50b
 2702 05ed 81000000 		.4byte	0x81
 2703 05f1 02       		.byte	0x2
 2704 05f2 91       		.byte	0x91
 2705 05f3 6E       		.sleb128 -18
 2706 05f4 0F       		.uleb128 0xf
 2707 05f5 783200   		.ascii	"x2\000"
 2708 05f8 01       		.byte	0x1
 2709 05f9 0B05     		.2byte	0x50b
 2710 05fb 81000000 		.4byte	0x81
 2711 05ff 02       		.byte	0x2
 2712 0600 91       		.byte	0x91
 2713 0601 6C       		.sleb128 -20
 2714 0602 0B       		.uleb128 0xb
 2715 0603 746D7000 		.ascii	"tmp\000"
 2716 0607 01       		.byte	0x1
 2717 0608 0E05     		.2byte	0x50e
 2718 060a 8C000000 		.4byte	0x8c
 2719 060e 02       		.byte	0x2
 2720 060f 91       		.byte	0x91
 2721 0610 74       		.sleb128 -12
 2722 0611 00       		.byte	0x0
 2723 0612 10       		.uleb128 0x10
 2724 0613 76000000 		.4byte	0x76
 2725 0617 22060000 		.4byte	0x622
 2726 061b 11       		.uleb128 0x11
 2727 061c A2000000 		.4byte	0xa2
 2728 0620 02       		.byte	0x2
 2729 0621 00       		.byte	0x0
 2730 0622 08       		.uleb128 0x8
 2731 0623 6F040000 		.4byte	.LASF57
 2732 0627 01       		.byte	0x1
 2733 0628 61       		.byte	0x61
 2734 0629 12060000 		.4byte	0x612
 2735 062d 05       		.byte	0x5
 2736 062e 03       		.byte	0x3
ARM GAS  C:\Users\CHARLI~1\AppData\Local\Temp\ccYu411o.s 			page 72


 2737 062f 24000000 		.4byte	CapSense_centroid
 2738 0633 10       		.uleb128 0x10
 2739 0634 81000000 		.4byte	0x81
 2740 0638 43060000 		.4byte	0x643
 2741 063c 11       		.uleb128 0x11
 2742 063d A2000000 		.4byte	0xa2
 2743 0641 06       		.byte	0x6
 2744 0642 00       		.byte	0x0
 2745 0643 12       		.uleb128 0x12
 2746 0644 50030000 		.4byte	.LASF58
 2747 0648 01       		.byte	0x1
 2748 0649 50       		.byte	0x50
 2749 064a 33060000 		.4byte	0x633
 2750 064e 01       		.byte	0x1
 2751 064f 05       		.byte	0x5
 2752 0650 03       		.byte	0x3
 2753 0651 00000000 		.4byte	CapSense_rawFilterData1
 2754 0655 13       		.uleb128 0x13
 2755 0656 B9010000 		.4byte	.LASF59
 2756 065a 01       		.byte	0x1
 2757 065b 56       		.byte	0x56
 2758 065c 33060000 		.4byte	0x633
 2759 0660 01       		.byte	0x1
 2760 0661 01       		.byte	0x1
 2761 0662 10       		.uleb128 0x10
 2762 0663 76000000 		.4byte	0x76
 2763 0667 72060000 		.4byte	0x672
 2764 066b 11       		.uleb128 0x11
 2765 066c A2000000 		.4byte	0xa2
 2766 0670 00       		.byte	0x0
 2767 0671 00       		.byte	0x0
 2768 0672 13       		.uleb128 0x13
 2769 0673 81040000 		.4byte	.LASF60
 2770 0677 01       		.byte	0x1
 2771 0678 57       		.byte	0x57
 2772 0679 62060000 		.4byte	0x662
 2773 067d 01       		.byte	0x1
 2774 067e 01       		.byte	0x1
 2775 067f 10       		.uleb128 0x10
 2776 0680 76000000 		.4byte	0x76
 2777 0684 8A060000 		.4byte	0x68a
 2778 0688 14       		.uleb128 0x14
 2779 0689 00       		.byte	0x0
 2780 068a 13       		.uleb128 0x13
 2781 068b 4C010000 		.4byte	.LASF61
 2782 068f 01       		.byte	0x1
 2783 0690 58       		.byte	0x58
 2784 0691 97060000 		.4byte	0x697
 2785 0695 01       		.byte	0x1
 2786 0696 01       		.byte	0x1
 2787 0697 15       		.uleb128 0x15
 2788 0698 7F060000 		.4byte	0x67f
 2789 069c 12       		.uleb128 0x12
 2790 069d 57040000 		.4byte	.LASF62
 2791 06a1 01       		.byte	0x1
 2792 06a2 5A       		.byte	0x5a
 2793 06a3 33060000 		.4byte	0x633
ARM GAS  C:\Users\CHARLI~1\AppData\Local\Temp\ccYu411o.s 			page 73


 2794 06a7 01       		.byte	0x1
 2795 06a8 05       		.byte	0x5
 2796 06a9 03       		.byte	0x3
 2797 06aa 00000000 		.4byte	CapSense_SensorBaseline
 2798 06ae 10       		.uleb128 0x10
 2799 06af 76000000 		.4byte	0x76
 2800 06b3 BE060000 		.4byte	0x6be
 2801 06b7 11       		.uleb128 0x11
 2802 06b8 A2000000 		.4byte	0xa2
 2803 06bc 06       		.byte	0x6
 2804 06bd 00       		.byte	0x0
 2805 06be 12       		.uleb128 0x12
 2806 06bf F0040000 		.4byte	.LASF63
 2807 06c3 01       		.byte	0x1
 2808 06c4 5B       		.byte	0x5b
 2809 06c5 AE060000 		.4byte	0x6ae
 2810 06c9 01       		.byte	0x1
 2811 06ca 05       		.byte	0x5
 2812 06cb 03       		.byte	0x3
 2813 06cc 00000000 		.4byte	CapSense_SensorBaselineLow
 2814 06d0 12       		.uleb128 0x12
 2815 06d1 E5020000 		.4byte	.LASF64
 2816 06d5 01       		.byte	0x1
 2817 06d6 5C       		.byte	0x5c
 2818 06d7 AE060000 		.4byte	0x6ae
 2819 06db 01       		.byte	0x1
 2820 06dc 05       		.byte	0x5
 2821 06dd 03       		.byte	0x3
 2822 06de 00000000 		.4byte	CapSense_SensorSignal
 2823 06e2 12       		.uleb128 0x12
 2824 06e3 B5000000 		.4byte	.LASF65
 2825 06e7 01       		.byte	0x1
 2826 06e8 5D       		.byte	0x5d
 2827 06e9 62060000 		.4byte	0x662
 2828 06ed 01       		.byte	0x1
 2829 06ee 05       		.byte	0x5
 2830 06ef 03       		.byte	0x3
 2831 06f0 00000000 		.4byte	CapSense_SensorOnMask
 2832 06f4 12       		.uleb128 0x12
 2833 06f5 37030000 		.4byte	.LASF66
 2834 06f9 01       		.byte	0x1
 2835 06fa 65       		.byte	0x65
 2836 06fb 12060000 		.4byte	0x612
 2837 06ff 01       		.byte	0x1
 2838 0700 05       		.byte	0x5
 2839 0701 03       		.byte	0x3
 2840 0702 00000000 		.4byte	CapSense_fingerThreshold
 2841 0706 12       		.uleb128 0x12
 2842 0707 1F030000 		.4byte	.LASF67
 2843 070b 01       		.byte	0x1
 2844 070c 69       		.byte	0x69
 2845 070d 12060000 		.4byte	0x612
 2846 0711 01       		.byte	0x1
 2847 0712 05       		.byte	0x5
 2848 0713 03       		.byte	0x3
 2849 0714 00000000 		.4byte	CapSense_noiseThreshold
 2850 0718 12       		.uleb128 0x12
ARM GAS  C:\Users\CHARLI~1\AppData\Local\Temp\ccYu411o.s 			page 74


 2851 0719 1D000000 		.4byte	.LASF68
 2852 071d 01       		.byte	0x1
 2853 071e 6D       		.byte	0x6d
 2854 071f 12060000 		.4byte	0x612
 2855 0723 01       		.byte	0x1
 2856 0724 05       		.byte	0x5
 2857 0725 03       		.byte	0x3
 2858 0726 00000000 		.4byte	CapSense_hysteresis
 2859 072a 12       		.uleb128 0x12
 2860 072b 28040000 		.4byte	.LASF69
 2861 072f 01       		.byte	0x1
 2862 0730 71       		.byte	0x71
 2863 0731 12060000 		.4byte	0x612
 2864 0735 01       		.byte	0x1
 2865 0736 05       		.byte	0x5
 2866 0737 03       		.byte	0x3
 2867 0738 00000000 		.4byte	CapSense_debounce
 2868 073c 12       		.uleb128 0x12
 2869 073d 21050000 		.4byte	.LASF70
 2870 0741 01       		.byte	0x1
 2871 0742 75       		.byte	0x75
 2872 0743 12060000 		.4byte	0x612
 2873 0747 01       		.byte	0x1
 2874 0748 05       		.byte	0x5
 2875 0749 03       		.byte	0x3
 2876 074a 00000000 		.4byte	CapSense_debounceCounter
 2877 074e 12       		.uleb128 0x12
 2878 074f F6010000 		.4byte	.LASF71
 2879 0753 01       		.byte	0x1
 2880 0754 79       		.byte	0x79
 2881 0755 60070000 		.4byte	0x760
 2882 0759 01       		.byte	0x1
 2883 075a 05       		.byte	0x5
 2884 075b 03       		.byte	0x3
 2885 075c 00000000 		.4byte	CapSense_rawDataIndex
 2886 0760 15       		.uleb128 0x15
 2887 0761 12060000 		.4byte	0x612
 2888 0765 12       		.uleb128 0x12
 2889 0766 42050000 		.4byte	.LASF72
 2890 076a 01       		.byte	0x1
 2891 076b 80       		.byte	0x80
 2892 076c 77070000 		.4byte	0x777
 2893 0770 01       		.byte	0x1
 2894 0771 05       		.byte	0x5
 2895 0772 03       		.byte	0x3
 2896 0773 00000000 		.4byte	CapSense_numberOfSensors
 2897 0777 15       		.uleb128 0x15
 2898 0778 12060000 		.4byte	0x612
 2899 077c 10       		.uleb128 0x10
 2900 077d 81000000 		.4byte	0x81
 2901 0781 8C070000 		.4byte	0x78c
 2902 0785 11       		.uleb128 0x11
 2903 0786 A2000000 		.4byte	0xa2
 2904 078a 00       		.byte	0x0
 2905 078b 00       		.byte	0x0
 2906 078c 12       		.uleb128 0x12
 2907 078d 88020000 		.4byte	.LASF73
ARM GAS  C:\Users\CHARLI~1\AppData\Local\Temp\ccYu411o.s 			page 75


 2908 0791 01       		.byte	0x1
 2909 0792 87       		.byte	0x87
 2910 0793 9E070000 		.4byte	0x79e
 2911 0797 01       		.byte	0x1
 2912 0798 05       		.byte	0x5
 2913 0799 03       		.byte	0x3
 2914 079a 00000000 		.4byte	CapSense_centroidMult
 2915 079e 15       		.uleb128 0x15
 2916 079f 7C070000 		.4byte	0x77c
 2917 07a3 12       		.uleb128 0x12
 2918 07a4 DE010000 		.4byte	.LASF74
 2919 07a8 01       		.byte	0x1
 2920 07a9 8B       		.byte	0x8b
 2921 07aa B5070000 		.4byte	0x7b5
 2922 07ae 01       		.byte	0x1
 2923 07af 05       		.byte	0x5
 2924 07b0 03       		.byte	0x3
 2925 07b1 00000000 		.4byte	CapSense_posFiltersMask
 2926 07b5 15       		.uleb128 0x15
 2927 07b6 62060000 		.4byte	0x662
 2928 07ba 12       		.uleb128 0x12
 2929 07bb 5E020000 		.4byte	.LASF75
 2930 07bf 01       		.byte	0x1
 2931 07c0 8F       		.byte	0x8f
 2932 07c1 12060000 		.4byte	0x612
 2933 07c5 01       		.byte	0x1
 2934 07c6 05       		.byte	0x5
 2935 07c7 03       		.byte	0x3
 2936 07c8 00000000 		.4byte	CapSense_posFiltersData
 2937 07cc 00       		.byte	0x0
 2938              		.section	.debug_abbrev
 2939 0000 01       		.uleb128 0x1
 2940 0001 11       		.uleb128 0x11
 2941 0002 01       		.byte	0x1
 2942 0003 25       		.uleb128 0x25
 2943 0004 0E       		.uleb128 0xe
 2944 0005 13       		.uleb128 0x13
 2945 0006 0B       		.uleb128 0xb
 2946 0007 03       		.uleb128 0x3
 2947 0008 0E       		.uleb128 0xe
 2948 0009 1B       		.uleb128 0x1b
 2949 000a 0E       		.uleb128 0xe
 2950 000b 11       		.uleb128 0x11
 2951 000c 01       		.uleb128 0x1
 2952 000d 52       		.uleb128 0x52
 2953 000e 01       		.uleb128 0x1
 2954 000f 55       		.uleb128 0x55
 2955 0010 06       		.uleb128 0x6
 2956 0011 10       		.uleb128 0x10
 2957 0012 06       		.uleb128 0x6
 2958 0013 00       		.byte	0x0
 2959 0014 00       		.byte	0x0
 2960 0015 02       		.uleb128 0x2
 2961 0016 24       		.uleb128 0x24
 2962 0017 00       		.byte	0x0
 2963 0018 0B       		.uleb128 0xb
 2964 0019 0B       		.uleb128 0xb
ARM GAS  C:\Users\CHARLI~1\AppData\Local\Temp\ccYu411o.s 			page 76


 2965 001a 3E       		.uleb128 0x3e
 2966 001b 0B       		.uleb128 0xb
 2967 001c 03       		.uleb128 0x3
 2968 001d 0E       		.uleb128 0xe
 2969 001e 00       		.byte	0x0
 2970 001f 00       		.byte	0x0
 2971 0020 03       		.uleb128 0x3
 2972 0021 24       		.uleb128 0x24
 2973 0022 00       		.byte	0x0
 2974 0023 0B       		.uleb128 0xb
 2975 0024 0B       		.uleb128 0xb
 2976 0025 3E       		.uleb128 0x3e
 2977 0026 0B       		.uleb128 0xb
 2978 0027 03       		.uleb128 0x3
 2979 0028 08       		.uleb128 0x8
 2980 0029 00       		.byte	0x0
 2981 002a 00       		.byte	0x0
 2982 002b 04       		.uleb128 0x4
 2983 002c 16       		.uleb128 0x16
 2984 002d 00       		.byte	0x0
 2985 002e 03       		.uleb128 0x3
 2986 002f 0E       		.uleb128 0xe
 2987 0030 3A       		.uleb128 0x3a
 2988 0031 0B       		.uleb128 0xb
 2989 0032 3B       		.uleb128 0x3b
 2990 0033 0B       		.uleb128 0xb
 2991 0034 49       		.uleb128 0x49
 2992 0035 13       		.uleb128 0x13
 2993 0036 00       		.byte	0x0
 2994 0037 00       		.byte	0x0
 2995 0038 05       		.uleb128 0x5
 2996 0039 24       		.uleb128 0x24
 2997 003a 00       		.byte	0x0
 2998 003b 0B       		.uleb128 0xb
 2999 003c 0B       		.uleb128 0xb
 3000 003d 3E       		.uleb128 0x3e
 3001 003e 0B       		.uleb128 0xb
 3002 003f 00       		.byte	0x0
 3003 0040 00       		.byte	0x0
 3004 0041 06       		.uleb128 0x6
 3005 0042 2E       		.uleb128 0x2e
 3006 0043 01       		.byte	0x1
 3007 0044 3F       		.uleb128 0x3f
 3008 0045 0C       		.uleb128 0xc
 3009 0046 03       		.uleb128 0x3
 3010 0047 0E       		.uleb128 0xe
 3011 0048 3A       		.uleb128 0x3a
 3012 0049 0B       		.uleb128 0xb
 3013 004a 3B       		.uleb128 0x3b
 3014 004b 0B       		.uleb128 0xb
 3015 004c 27       		.uleb128 0x27
 3016 004d 0C       		.uleb128 0xc
 3017 004e 11       		.uleb128 0x11
 3018 004f 01       		.uleb128 0x1
 3019 0050 12       		.uleb128 0x12
 3020 0051 01       		.uleb128 0x1
 3021 0052 40       		.uleb128 0x40
ARM GAS  C:\Users\CHARLI~1\AppData\Local\Temp\ccYu411o.s 			page 77


 3022 0053 06       		.uleb128 0x6
 3023 0054 01       		.uleb128 0x1
 3024 0055 13       		.uleb128 0x13
 3025 0056 00       		.byte	0x0
 3026 0057 00       		.byte	0x0
 3027 0058 07       		.uleb128 0x7
 3028 0059 05       		.uleb128 0x5
 3029 005a 00       		.byte	0x0
 3030 005b 03       		.uleb128 0x3
 3031 005c 0E       		.uleb128 0xe
 3032 005d 3A       		.uleb128 0x3a
 3033 005e 0B       		.uleb128 0xb
 3034 005f 3B       		.uleb128 0x3b
 3035 0060 0B       		.uleb128 0xb
 3036 0061 49       		.uleb128 0x49
 3037 0062 13       		.uleb128 0x13
 3038 0063 02       		.uleb128 0x2
 3039 0064 0A       		.uleb128 0xa
 3040 0065 00       		.byte	0x0
 3041 0066 00       		.byte	0x0
 3042 0067 08       		.uleb128 0x8
 3043 0068 34       		.uleb128 0x34
 3044 0069 00       		.byte	0x0
 3045 006a 03       		.uleb128 0x3
 3046 006b 0E       		.uleb128 0xe
 3047 006c 3A       		.uleb128 0x3a
 3048 006d 0B       		.uleb128 0xb
 3049 006e 3B       		.uleb128 0x3b
 3050 006f 0B       		.uleb128 0xb
 3051 0070 49       		.uleb128 0x49
 3052 0071 13       		.uleb128 0x13
 3053 0072 02       		.uleb128 0x2
 3054 0073 0A       		.uleb128 0xa
 3055 0074 00       		.byte	0x0
 3056 0075 00       		.byte	0x0
 3057 0076 09       		.uleb128 0x9
 3058 0077 2E       		.uleb128 0x2e
 3059 0078 01       		.byte	0x1
 3060 0079 3F       		.uleb128 0x3f
 3061 007a 0C       		.uleb128 0xc
 3062 007b 03       		.uleb128 0x3
 3063 007c 0E       		.uleb128 0xe
 3064 007d 3A       		.uleb128 0x3a
 3065 007e 0B       		.uleb128 0xb
 3066 007f 3B       		.uleb128 0x3b
 3067 0080 05       		.uleb128 0x5
 3068 0081 27       		.uleb128 0x27
 3069 0082 0C       		.uleb128 0xc
 3070 0083 11       		.uleb128 0x11
 3071 0084 01       		.uleb128 0x1
 3072 0085 12       		.uleb128 0x12
 3073 0086 01       		.uleb128 0x1
 3074 0087 40       		.uleb128 0x40
 3075 0088 06       		.uleb128 0x6
 3076 0089 01       		.uleb128 0x1
 3077 008a 13       		.uleb128 0x13
 3078 008b 00       		.byte	0x0
ARM GAS  C:\Users\CHARLI~1\AppData\Local\Temp\ccYu411o.s 			page 78


 3079 008c 00       		.byte	0x0
 3080 008d 0A       		.uleb128 0xa
 3081 008e 05       		.uleb128 0x5
 3082 008f 00       		.byte	0x0
 3083 0090 03       		.uleb128 0x3
 3084 0091 0E       		.uleb128 0xe
 3085 0092 3A       		.uleb128 0x3a
 3086 0093 0B       		.uleb128 0xb
 3087 0094 3B       		.uleb128 0x3b
 3088 0095 05       		.uleb128 0x5
 3089 0096 49       		.uleb128 0x49
 3090 0097 13       		.uleb128 0x13
 3091 0098 02       		.uleb128 0x2
 3092 0099 0A       		.uleb128 0xa
 3093 009a 00       		.byte	0x0
 3094 009b 00       		.byte	0x0
 3095 009c 0B       		.uleb128 0xb
 3096 009d 34       		.uleb128 0x34
 3097 009e 00       		.byte	0x0
 3098 009f 03       		.uleb128 0x3
 3099 00a0 08       		.uleb128 0x8
 3100 00a1 3A       		.uleb128 0x3a
 3101 00a2 0B       		.uleb128 0xb
 3102 00a3 3B       		.uleb128 0x3b
 3103 00a4 05       		.uleb128 0x5
 3104 00a5 49       		.uleb128 0x49
 3105 00a6 13       		.uleb128 0x13
 3106 00a7 02       		.uleb128 0x2
 3107 00a8 0A       		.uleb128 0xa
 3108 00a9 00       		.byte	0x0
 3109 00aa 00       		.byte	0x0
 3110 00ab 0C       		.uleb128 0xc
 3111 00ac 34       		.uleb128 0x34
 3112 00ad 00       		.byte	0x0
 3113 00ae 03       		.uleb128 0x3
 3114 00af 0E       		.uleb128 0xe
 3115 00b0 3A       		.uleb128 0x3a
 3116 00b1 0B       		.uleb128 0xb
 3117 00b2 3B       		.uleb128 0x3b
 3118 00b3 05       		.uleb128 0x5
 3119 00b4 49       		.uleb128 0x49
 3120 00b5 13       		.uleb128 0x13
 3121 00b6 02       		.uleb128 0x2
 3122 00b7 0A       		.uleb128 0xa
 3123 00b8 00       		.byte	0x0
 3124 00b9 00       		.byte	0x0
 3125 00ba 0D       		.uleb128 0xd
 3126 00bb 2E       		.uleb128 0x2e
 3127 00bc 01       		.byte	0x1
 3128 00bd 3F       		.uleb128 0x3f
 3129 00be 0C       		.uleb128 0xc
 3130 00bf 03       		.uleb128 0x3
 3131 00c0 0E       		.uleb128 0xe
 3132 00c1 3A       		.uleb128 0x3a
 3133 00c2 0B       		.uleb128 0xb
 3134 00c3 3B       		.uleb128 0x3b
 3135 00c4 05       		.uleb128 0x5
ARM GAS  C:\Users\CHARLI~1\AppData\Local\Temp\ccYu411o.s 			page 79


 3136 00c5 27       		.uleb128 0x27
 3137 00c6 0C       		.uleb128 0xc
 3138 00c7 49       		.uleb128 0x49
 3139 00c8 13       		.uleb128 0x13
 3140 00c9 11       		.uleb128 0x11
 3141 00ca 01       		.uleb128 0x1
 3142 00cb 12       		.uleb128 0x12
 3143 00cc 01       		.uleb128 0x1
 3144 00cd 40       		.uleb128 0x40
 3145 00ce 06       		.uleb128 0x6
 3146 00cf 01       		.uleb128 0x1
 3147 00d0 13       		.uleb128 0x13
 3148 00d1 00       		.byte	0x0
 3149 00d2 00       		.byte	0x0
 3150 00d3 0E       		.uleb128 0xe
 3151 00d4 0F       		.uleb128 0xf
 3152 00d5 00       		.byte	0x0
 3153 00d6 0B       		.uleb128 0xb
 3154 00d7 0B       		.uleb128 0xb
 3155 00d8 49       		.uleb128 0x49
 3156 00d9 13       		.uleb128 0x13
 3157 00da 00       		.byte	0x0
 3158 00db 00       		.byte	0x0
 3159 00dc 0F       		.uleb128 0xf
 3160 00dd 05       		.uleb128 0x5
 3161 00de 00       		.byte	0x0
 3162 00df 03       		.uleb128 0x3
 3163 00e0 08       		.uleb128 0x8
 3164 00e1 3A       		.uleb128 0x3a
 3165 00e2 0B       		.uleb128 0xb
 3166 00e3 3B       		.uleb128 0x3b
 3167 00e4 05       		.uleb128 0x5
 3168 00e5 49       		.uleb128 0x49
 3169 00e6 13       		.uleb128 0x13
 3170 00e7 02       		.uleb128 0x2
 3171 00e8 0A       		.uleb128 0xa
 3172 00e9 00       		.byte	0x0
 3173 00ea 00       		.byte	0x0
 3174 00eb 10       		.uleb128 0x10
 3175 00ec 01       		.uleb128 0x1
 3176 00ed 01       		.byte	0x1
 3177 00ee 49       		.uleb128 0x49
 3178 00ef 13       		.uleb128 0x13
 3179 00f0 01       		.uleb128 0x1
 3180 00f1 13       		.uleb128 0x13
 3181 00f2 00       		.byte	0x0
 3182 00f3 00       		.byte	0x0
 3183 00f4 11       		.uleb128 0x11
 3184 00f5 21       		.uleb128 0x21
 3185 00f6 00       		.byte	0x0
 3186 00f7 49       		.uleb128 0x49
 3187 00f8 13       		.uleb128 0x13
 3188 00f9 2F       		.uleb128 0x2f
 3189 00fa 0B       		.uleb128 0xb
 3190 00fb 00       		.byte	0x0
 3191 00fc 00       		.byte	0x0
 3192 00fd 12       		.uleb128 0x12
ARM GAS  C:\Users\CHARLI~1\AppData\Local\Temp\ccYu411o.s 			page 80


 3193 00fe 34       		.uleb128 0x34
 3194 00ff 00       		.byte	0x0
 3195 0100 03       		.uleb128 0x3
 3196 0101 0E       		.uleb128 0xe
 3197 0102 3A       		.uleb128 0x3a
 3198 0103 0B       		.uleb128 0xb
 3199 0104 3B       		.uleb128 0x3b
 3200 0105 0B       		.uleb128 0xb
 3201 0106 49       		.uleb128 0x49
 3202 0107 13       		.uleb128 0x13
 3203 0108 3F       		.uleb128 0x3f
 3204 0109 0C       		.uleb128 0xc
 3205 010a 02       		.uleb128 0x2
 3206 010b 0A       		.uleb128 0xa
 3207 010c 00       		.byte	0x0
 3208 010d 00       		.byte	0x0
 3209 010e 13       		.uleb128 0x13
 3210 010f 34       		.uleb128 0x34
 3211 0110 00       		.byte	0x0
 3212 0111 03       		.uleb128 0x3
 3213 0112 0E       		.uleb128 0xe
 3214 0113 3A       		.uleb128 0x3a
 3215 0114 0B       		.uleb128 0xb
 3216 0115 3B       		.uleb128 0x3b
 3217 0116 0B       		.uleb128 0xb
 3218 0117 49       		.uleb128 0x49
 3219 0118 13       		.uleb128 0x13
 3220 0119 3F       		.uleb128 0x3f
 3221 011a 0C       		.uleb128 0xc
 3222 011b 3C       		.uleb128 0x3c
 3223 011c 0C       		.uleb128 0xc
 3224 011d 00       		.byte	0x0
 3225 011e 00       		.byte	0x0
 3226 011f 14       		.uleb128 0x14
 3227 0120 21       		.uleb128 0x21
 3228 0121 00       		.byte	0x0
 3229 0122 00       		.byte	0x0
 3230 0123 00       		.byte	0x0
 3231 0124 15       		.uleb128 0x15
 3232 0125 26       		.uleb128 0x26
 3233 0126 00       		.byte	0x0
 3234 0127 49       		.uleb128 0x49
 3235 0128 13       		.uleb128 0x13
 3236 0129 00       		.byte	0x0
 3237 012a 00       		.byte	0x0
 3238 012b 00       		.byte	0x0
 3239              		.section	.debug_pubnames,"",%progbits
 3240 0000 4E030000 		.4byte	0x34e
 3241 0004 0200     		.2byte	0x2
 3242 0006 00000000 		.4byte	.Ldebug_info0
 3243 000a CD070000 		.4byte	0x7cd
 3244 000e A5000000 		.4byte	0xa5
 3245 0012 43617053 		.ascii	"CapSense_BaseInit\000"
 3245      656E7365 
 3245      5F426173 
 3245      65496E69 
 3245      7400
ARM GAS  C:\Users\CHARLI~1\AppData\Local\Temp\ccYu411o.s 			page 81


 3246 0024 DB000000 		.4byte	0xdb
 3247 0028 43617053 		.ascii	"CapSense_InitializeSensorBaseline\000"
 3247      656E7365 
 3247      5F496E69 
 3247      7469616C 
 3247      697A6553 
 3248 004a 05010000 		.4byte	0x105
 3249 004e 43617053 		.ascii	"CapSense_InitializeAllBaselines\000"
 3249      656E7365 
 3249      5F496E69 
 3249      7469616C 
 3249      697A6541 
 3250 006e 2D010000 		.4byte	0x12d
 3251 0072 43617053 		.ascii	"CapSense_UpdateSensorBaseline\000"
 3251      656E7365 
 3251      5F557064 
 3251      61746553 
 3251      656E736F 
 3252 0090 A2010000 		.4byte	0x1a2
 3253 0094 43617053 		.ascii	"CapSense_UpdateEnabledBaselines\000"
 3253      656E7365 
 3253      5F557064 
 3253      61746545 
 3253      6E61626C 
 3254 00b4 E8010000 		.4byte	0x1e8
 3255 00b8 43617053 		.ascii	"CapSense_CheckIsSensorActive\000"
 3255      656E7365 
 3255      5F436865 
 3255      636B4973 
 3255      53656E73 
 3256 00d5 7F020000 		.4byte	0x27f
 3257 00d9 43617053 		.ascii	"CapSense_CheckIsWidgetActive\000"
 3257      656E7365 
 3257      5F436865 
 3257      636B4973 
 3257      57696467 
 3258 00f6 DA020000 		.4byte	0x2da
 3259 00fa 43617053 		.ascii	"CapSense_CheckIsAnyWidgetActive\000"
 3259      656E7365 
 3259      5F436865 
 3259      636B4973 
 3259      416E7957 
 3260 011a 15030000 		.4byte	0x315
 3261 011e 43617053 		.ascii	"CapSense_EnableWidget\000"
 3261      656E7365 
 3261      5F456E61 
 3261      626C6557 
 3261      69646765 
 3262 0134 7B030000 		.4byte	0x37b
 3263 0138 43617053 		.ascii	"CapSense_DisableWidget\000"
 3263      656E7365 
 3263      5F446973 
 3263      61626C65 
 3263      57696467 
 3264 014f E1030000 		.4byte	0x3e1
 3265 0153 43617053 		.ascii	"CapSense_FindMaximum\000"
 3265      656E7365 
ARM GAS  C:\Users\CHARLI~1\AppData\Local\Temp\ccYu411o.s 			page 82


 3265      5F46696E 
 3265      644D6178 
 3265      696D756D 
 3266 0168 6D040000 		.4byte	0x46d
 3267 016c 43617053 		.ascii	"CapSense_CalcCentroid\000"
 3267      656E7365 
 3267      5F43616C 
 3267      6343656E 
 3267      74726F69 
 3268 0182 31050000 		.4byte	0x531
 3269 0186 43617053 		.ascii	"CapSense_GetCentroidPos\000"
 3269      656E7365 
 3269      5F476574 
 3269      43656E74 
 3269      726F6964 
 3270 019e C8050000 		.4byte	0x5c8
 3271 01a2 43617053 		.ascii	"CapSense_IIR4Filter\000"
 3271      656E7365 
 3271      5F494952 
 3271      3446696C 
 3271      74657200 
 3272 01b6 43060000 		.4byte	0x643
 3273 01ba 43617053 		.ascii	"CapSense_rawFilterData1\000"
 3273      656E7365 
 3273      5F726177 
 3273      46696C74 
 3273      65724461 
 3274 01d2 9C060000 		.4byte	0x69c
 3275 01d6 43617053 		.ascii	"CapSense_SensorBaseline\000"
 3275      656E7365 
 3275      5F53656E 
 3275      736F7242 
 3275      6173656C 
 3276 01ee BE060000 		.4byte	0x6be
 3277 01f2 43617053 		.ascii	"CapSense_SensorBaselineLow\000"
 3277      656E7365 
 3277      5F53656E 
 3277      736F7242 
 3277      6173656C 
 3278 020d D0060000 		.4byte	0x6d0
 3279 0211 43617053 		.ascii	"CapSense_SensorSignal\000"
 3279      656E7365 
 3279      5F53656E 
 3279      736F7253 
 3279      69676E61 
 3280 0227 E2060000 		.4byte	0x6e2
 3281 022b 43617053 		.ascii	"CapSense_SensorOnMask\000"
 3281      656E7365 
 3281      5F53656E 
 3281      736F724F 
 3281      6E4D6173 
 3282 0241 F4060000 		.4byte	0x6f4
 3283 0245 43617053 		.ascii	"CapSense_fingerThreshold\000"
 3283      656E7365 
 3283      5F66696E 
 3283      67657254 
 3283      68726573 
ARM GAS  C:\Users\CHARLI~1\AppData\Local\Temp\ccYu411o.s 			page 83


 3284 025e 06070000 		.4byte	0x706
 3285 0262 43617053 		.ascii	"CapSense_noiseThreshold\000"
 3285      656E7365 
 3285      5F6E6F69 
 3285      73655468 
 3285      72657368 
 3286 027a 18070000 		.4byte	0x718
 3287 027e 43617053 		.ascii	"CapSense_hysteresis\000"
 3287      656E7365 
 3287      5F687973 
 3287      74657265 
 3287      73697300 
 3288 0292 2A070000 		.4byte	0x72a
 3289 0296 43617053 		.ascii	"CapSense_debounce\000"
 3289      656E7365 
 3289      5F646562 
 3289      6F756E63 
 3289      6500
 3290 02a8 3C070000 		.4byte	0x73c
 3291 02ac 43617053 		.ascii	"CapSense_debounceCounter\000"
 3291      656E7365 
 3291      5F646562 
 3291      6F756E63 
 3291      65436F75 
 3292 02c5 4E070000 		.4byte	0x74e
 3293 02c9 43617053 		.ascii	"CapSense_rawDataIndex\000"
 3293      656E7365 
 3293      5F726177 
 3293      44617461 
 3293      496E6465 
 3294 02df 65070000 		.4byte	0x765
 3295 02e3 43617053 		.ascii	"CapSense_numberOfSensors\000"
 3295      656E7365 
 3295      5F6E756D 
 3295      6265724F 
 3295      6653656E 
 3296 02fc 8C070000 		.4byte	0x78c
 3297 0300 43617053 		.ascii	"CapSense_centroidMult\000"
 3297      656E7365 
 3297      5F63656E 
 3297      74726F69 
 3297      644D756C 
 3298 0316 A3070000 		.4byte	0x7a3
 3299 031a 43617053 		.ascii	"CapSense_posFiltersMask\000"
 3299      656E7365 
 3299      5F706F73 
 3299      46696C74 
 3299      6572734D 
 3300 0332 BA070000 		.4byte	0x7ba
 3301 0336 43617053 		.ascii	"CapSense_posFiltersData\000"
 3301      656E7365 
 3301      5F706F73 
 3301      46696C74 
 3301      65727344 
 3302 034e 00000000 		.4byte	0x0
 3303              		.section	.debug_aranges,"",%progbits
 3304 0000 84000000 		.4byte	0x84
ARM GAS  C:\Users\CHARLI~1\AppData\Local\Temp\ccYu411o.s 			page 84


 3305 0004 0200     		.2byte	0x2
 3306 0006 00000000 		.4byte	.Ldebug_info0
 3307 000a 04       		.byte	0x4
 3308 000b 00       		.byte	0x0
 3309 000c 0000     		.2byte	0x0
 3310 000e 0000     		.2byte	0x0
 3311 0010 00000000 		.4byte	.LFB0
 3312 0014 9C000000 		.4byte	.LFE0-.LFB0
 3313 0018 00000000 		.4byte	.LFB1
 3314 001c 2C000000 		.4byte	.LFE1-.LFB1
 3315 0020 00000000 		.4byte	.LFB2
 3316 0024 2C000000 		.4byte	.LFE2-.LFB2
 3317 0028 00000000 		.4byte	.LFB3
 3318 002c A6010000 		.4byte	.LFE3-.LFB3
 3319 0030 00000000 		.4byte	.LFB4
 3320 0034 5C000000 		.4byte	.LFE4-.LFB4
 3321 0038 00000000 		.4byte	.LFB5
 3322 003c 94010000 		.4byte	.LFE5-.LFB5
 3323 0040 00000000 		.4byte	.LFB6
 3324 0044 60000000 		.4byte	.LFE6-.LFB6
 3325 0048 00000000 		.4byte	.LFB7
 3326 004c 42000000 		.4byte	.LFE7-.LFB7
 3327 0050 00000000 		.4byte	.LFB8
 3328 0054 7C000000 		.4byte	.LFE8-.LFB8
 3329 0058 00000000 		.4byte	.LFB9
 3330 005c 86000000 		.4byte	.LFE9-.LFB9
 3331 0060 00000000 		.4byte	.LFB10
 3332 0064 7C000000 		.4byte	.LFE10-.LFB10
 3333 0068 00000000 		.4byte	.LFB11
 3334 006c E4010000 		.4byte	.LFE11-.LFB11
 3335 0070 00000000 		.4byte	.LFB12
 3336 0074 46010000 		.4byte	.LFE12-.LFB12
 3337 0078 00000000 		.4byte	.LFB13
 3338 007c 3A000000 		.4byte	.LFE13-.LFB13
 3339 0080 00000000 		.4byte	0x0
 3340 0084 00000000 		.4byte	0x0
 3341              		.section	.debug_ranges,"",%progbits
 3342              	.Ldebug_ranges0:
 3343 0000 00000000 		.4byte	.Ltext0
 3344 0004 00000000 		.4byte	.Letext0
 3345 0008 00000000 		.4byte	.LFB0
 3346 000c 9C000000 		.4byte	.LFE0
 3347 0010 00000000 		.4byte	.LFB1
 3348 0014 2C000000 		.4byte	.LFE1
 3349 0018 00000000 		.4byte	.LFB2
 3350 001c 2C000000 		.4byte	.LFE2
 3351 0020 00000000 		.4byte	.LFB3
 3352 0024 A6010000 		.4byte	.LFE3
 3353 0028 00000000 		.4byte	.LFB4
 3354 002c 5C000000 		.4byte	.LFE4
 3355 0030 00000000 		.4byte	.LFB5
 3356 0034 94010000 		.4byte	.LFE5
 3357 0038 00000000 		.4byte	.LFB6
 3358 003c 60000000 		.4byte	.LFE6
 3359 0040 00000000 		.4byte	.LFB7
 3360 0044 42000000 		.4byte	.LFE7
 3361 0048 00000000 		.4byte	.LFB8
ARM GAS  C:\Users\CHARLI~1\AppData\Local\Temp\ccYu411o.s 			page 85


 3362 004c 7C000000 		.4byte	.LFE8
 3363 0050 00000000 		.4byte	.LFB9
 3364 0054 86000000 		.4byte	.LFE9
 3365 0058 00000000 		.4byte	.LFB10
 3366 005c 7C000000 		.4byte	.LFE10
 3367 0060 00000000 		.4byte	.LFB11
 3368 0064 E4010000 		.4byte	.LFE11
 3369 0068 00000000 		.4byte	.LFB12
 3370 006c 46010000 		.4byte	.LFE12
 3371 0070 00000000 		.4byte	.LFB13
 3372 0074 3A000000 		.4byte	.LFE13
 3373 0078 00000000 		.4byte	0x0
 3374 007c 00000000 		.4byte	0x0
 3375              		.section	.debug_str,"MS",%progbits,1
 3376              	.LASF41:
 3377 0000 636F756E 		.ascii	"count\000"
 3377      7400
 3378              	.LASF11:
 3379 0006 75696E74 		.ascii	"uint16\000"
 3379      313600
 3380              	.LASF22:
 3381 000d 66696C74 		.ascii	"filteredRawData\000"
 3381      65726564 
 3381      52617744 
 3381      61746100 
 3382              	.LASF68:
 3383 001d 43617053 		.ascii	"CapSense_hysteresis\000"
 3383      656E7365 
 3383      5F687973 
 3383      74657265 
 3383      73697300 
 3384              	.LASF28:
 3385 0031 66696E67 		.ascii	"fingerThreshold\000"
 3385      65725468 
 3385      72657368 
 3385      6F6C6400 
 3386              	.LASF47:
 3387 0041 706F7350 		.ascii	"posPrev\000"
 3387      72657600 
 3388              	.LASF7:
 3389 0049 6C6F6E67 		.ascii	"long long unsigned int\000"
 3389      206C6F6E 
 3389      6720756E 
 3389      7369676E 
 3389      65642069 
 3390              	.LASF54:
 3391 0060 66697273 		.ascii	"firstTimeIndex\000"
 3391      7454696D 
 3391      65496E64 
 3391      657800
 3392              	.LASF76:
 3393 006f 474E5520 		.ascii	"GNU C 4.4.1\000"
 3393      4320342E 
 3393      342E3100 
 3394              	.LASF24:
 3395 007b 43617053 		.ascii	"CapSense_UpdateEnabledBaselines\000"
 3395      656E7365 
ARM GAS  C:\Users\CHARLI~1\AppData\Local\Temp\ccYu411o.s 			page 86


 3395      5F557064 
 3395      61746545 
 3395      6E61626C 
 3396              	.LASF6:
 3397 009b 6C6F6E67 		.ascii	"long long int\000"
 3397      206C6F6E 
 3397      6720696E 
 3397      7400
 3398              	.LASF0:
 3399 00a9 7369676E 		.ascii	"signed char\000"
 3399      65642063 
 3399      68617200 
 3400              	.LASF65:
 3401 00b5 43617053 		.ascii	"CapSense_SensorOnMask\000"
 3401      656E7365 
 3401      5F53656E 
 3401      736F724F 
 3401      6E4D6173 
 3402              	.LASF38:
 3403 00cb 43617053 		.ascii	"CapSense_DisableWidget\000"
 3403      656E7365 
 3403      5F446973 
 3403      61626C65 
 3403      57696467 
 3404              	.LASF33:
 3405 00e2 72617749 		.ascii	"rawIndex\000"
 3405      6E646578 
 3405      00
 3406              	.LASF34:
 3407 00eb 6E756D62 		.ascii	"numberOfSensors\000"
 3407      65724F66 
 3407      53656E73 
 3407      6F727300 
 3408              	.LASF13:
 3409 00fb 696E7433 		.ascii	"int32\000"
 3409      3200
 3410              	.LASF35:
 3411 0101 73746174 		.ascii	"state\000"
 3411      6500
 3412              	.LASF4:
 3413 0107 6C6F6E67 		.ascii	"long int\000"
 3413      20696E74 
 3413      00
 3414              	.LASF50:
 3415 0110 6E756D65 		.ascii	"numerator\000"
 3415      7261746F 
 3415      7200
 3416              	.LASF36:
 3417 011a 43617053 		.ascii	"CapSense_CheckIsAnyWidgetActive\000"
 3417      656E7365 
 3417      5F436865 
 3417      636B4973 
 3417      416E7957 
 3418              	.LASF51:
 3419 013a 64656E6F 		.ascii	"denominator\000"
 3419      6D696E61 
 3419      746F7200 
ARM GAS  C:\Users\CHARLI~1\AppData\Local\Temp\ccYu411o.s 			page 87


 3420              	.LASF10:
 3421 0146 75696E74 		.ascii	"uint8\000"
 3421      3800
 3422              	.LASF61:
 3423 014c 43617053 		.ascii	"CapSense_widgetNumber\000"
 3423      656E7365 
 3423      5F776964 
 3423      6765744E 
 3423      756D6265 
 3424              	.LASF12:
 3425 0162 75696E74 		.ascii	"uint32\000"
 3425      333200
 3426              	.LASF29:
 3427 0169 68797374 		.ascii	"hysteresis\000"
 3427      65726573 
 3427      697300
 3428              	.LASF48:
 3429 0174 706F734E 		.ascii	"posNext\000"
 3429      65787400 
 3430              	.LASF44:
 3431 017c 73746172 		.ascii	"startOfSlider\000"
 3431      744F6653 
 3431      6C696465 
 3431      7200
 3432              	.LASF43:
 3433 018a 74656D70 		.ascii	"temp\000"
 3433      00
 3434              	.LASF56:
 3435 018f 43617053 		.ascii	"CapSense_IIR4Filter\000"
 3435      656E7365 
 3435      5F494952 
 3435      3446696C 
 3435      74657200 
 3436              	.LASF8:
 3437 01a3 756E7369 		.ascii	"unsigned int\000"
 3437      676E6564 
 3437      20696E74 
 3437      00
 3438              	.LASF49:
 3439 01b0 706F7369 		.ascii	"position\000"
 3439      74696F6E 
 3439      00
 3440              	.LASF59:
 3441 01b9 43617053 		.ascii	"CapSense_SensorRaw\000"
 3441      656E7365 
 3441      5F53656E 
 3441      736F7252 
 3441      617700
 3442              	.LASF5:
 3443 01cc 6C6F6E67 		.ascii	"long unsigned int\000"
 3443      20756E73 
 3443      69676E65 
 3443      6420696E 
 3443      7400
 3444              	.LASF74:
 3445 01de 43617053 		.ascii	"CapSense_posFiltersMask\000"
 3445      656E7365 
ARM GAS  C:\Users\CHARLI~1\AppData\Local\Temp\ccYu411o.s 			page 88


 3445      5F706F73 
 3445      46696C74 
 3445      6572734D 
 3446              	.LASF71:
 3447 01f6 43617053 		.ascii	"CapSense_rawDataIndex\000"
 3447      656E7365 
 3447      5F726177 
 3447      44617461 
 3447      496E6465 
 3448              	.LASF3:
 3449 020c 73686F72 		.ascii	"short unsigned int\000"
 3449      7420756E 
 3449      7369676E 
 3449      65642069 
 3449      6E7400
 3450              	.LASF16:
 3451 021f 73656E73 		.ascii	"sensor\000"
 3451      6F7200
 3452              	.LASF39:
 3453 0226 43617053 		.ascii	"CapSense_FindMaximum\000"
 3453      656E7365 
 3453      5F46696E 
 3453      644D6178 
 3453      696D756D 
 3454              	.LASF19:
 3455 023b 43617053 		.ascii	"CapSense_UpdateSensorBaseline\000"
 3455      656E7365 
 3455      5F557064 
 3455      61746553 
 3455      656E736F 
 3456              	.LASF20:
 3457 0259 63616C63 		.ascii	"calc\000"
 3457      00
 3458              	.LASF75:
 3459 025e 43617053 		.ascii	"CapSense_posFiltersData\000"
 3459      656E7365 
 3459      5F706F73 
 3459      46696C74 
 3459      65727344 
 3460              	.LASF53:
 3461 0276 706F7349 		.ascii	"posIndex\000"
 3461      6E646578 
 3461      00
 3462              	.LASF30:
 3463 027f 6465626F 		.ascii	"debounce\000"
 3463      756E6365 
 3463      00
 3464              	.LASF73:
 3465 0288 43617053 		.ascii	"CapSense_centroidMult\000"
 3465      656E7365 
 3465      5F63656E 
 3465      74726F69 
 3465      644D756C 
 3466              	.LASF37:
 3467 029e 43617053 		.ascii	"CapSense_EnableWidget\000"
 3467      656E7365 
 3467      5F456E61 
ARM GAS  C:\Users\CHARLI~1\AppData\Local\Temp\ccYu411o.s 			page 89


 3467      626C6557 
 3467      69646765 
 3468              	.LASF55:
 3469 02b4 706F7346 		.ascii	"posFiltersMask\000"
 3469      696C7465 
 3469      72734D61 
 3469      736B00
 3470              	.LASF15:
 3471 02c3 43617053 		.ascii	"CapSense_InitializeSensorBaseline\000"
 3471      656E7365 
 3471      5F496E69 
 3471      7469616C 
 3471      697A6553 
 3472              	.LASF64:
 3473 02e5 43617053 		.ascii	"CapSense_SensorSignal\000"
 3473      656E7365 
 3473      5F53656E 
 3473      736F7253 
 3473      69676E61 
 3474              	.LASF31:
 3475 02fb 43617053 		.ascii	"CapSense_CheckIsSensorActive\000"
 3475      656E7365 
 3475      5F436865 
 3475      636B4973 
 3475      53656E73 
 3476              	.LASF25:
 3477 0318 656E4D61 		.ascii	"enMask\000"
 3477      736B00
 3478              	.LASF67:
 3479 031f 43617053 		.ascii	"CapSense_noiseThreshold\000"
 3479      656E7365 
 3479      5F6E6F69 
 3479      73655468 
 3479      72657368 
 3480              	.LASF66:
 3481 0337 43617053 		.ascii	"CapSense_fingerThreshold\000"
 3481      656E7365 
 3481      5F66696E 
 3481      67657254 
 3481      68726573 
 3482              	.LASF58:
 3483 0350 43617053 		.ascii	"CapSense_rawFilterData1\000"
 3483      656E7365 
 3483      5F726177 
 3483      46696C74 
 3483      65724461 
 3484              	.LASF32:
 3485 0368 43617053 		.ascii	"CapSense_CheckIsWidgetActive\000"
 3485      656E7365 
 3485      5F436865 
 3485      636B4973 
 3485      57696467 
 3486              	.LASF1:
 3487 0385 756E7369 		.ascii	"unsigned char\000"
 3487      676E6564 
 3487      20636861 
 3487      7200
ARM GAS  C:\Users\CHARLI~1\AppData\Local\Temp\ccYu411o.s 			page 90


 3488              	.LASF17:
 3489 0393 43617053 		.ascii	"CapSense_InitializeAllBaselines\000"
 3489      656E7365 
 3489      5F496E69 
 3489      7469616C 
 3489      697A6541 
 3490              	.LASF23:
 3491 03b3 6E6F6973 		.ascii	"noiseThreshold\000"
 3491      65546872 
 3491      6573686F 
 3491      6C6400
 3492              	.LASF77:
 3493 03c2 2E2F4765 		.ascii	"./Generated_Source/PSoC5/CapSense_CSHL.c\000"
 3493      6E657261 
 3493      7465645F 
 3493      536F7572 
 3493      63652F50 
 3494              	.LASF2:
 3495 03eb 73686F72 		.ascii	"short int\000"
 3495      7420696E 
 3495      7400
 3496              	.LASF18:
 3497 03f5 77696467 		.ascii	"widget\000"
 3497      657400
 3498              	.LASF27:
 3499 03fc 6F6E4D61 		.ascii	"onMask\000"
 3499      736B00
 3500              	.LASF42:
 3501 0403 6D617869 		.ascii	"maximum\000"
 3501      6D756D00 
 3502              	.LASF14:
 3503 040b 43617053 		.ascii	"CapSense_BaseInit\000"
 3503      656E7365 
 3503      5F426173 
 3503      65496E69 
 3503      7400
 3504              	.LASF46:
 3505 041d 7265736F 		.ascii	"resolution\000"
 3505      6C757469 
 3505      6F6E00
 3506              	.LASF69:
 3507 0428 43617053 		.ascii	"CapSense_debounce\000"
 3507      656E7365 
 3507      5F646562 
 3507      6F756E63 
 3507      6500
 3508              	.LASF52:
 3509 043a 43617053 		.ascii	"CapSense_GetCentroidPos\000"
 3509      656E7365 
 3509      5F476574 
 3509      43656E74 
 3509      726F6964 
 3510              	.LASF9:
 3511 0452 63686172 		.ascii	"char\000"
 3511      00
 3512              	.LASF62:
 3513 0457 43617053 		.ascii	"CapSense_SensorBaseline\000"
ARM GAS  C:\Users\CHARLI~1\AppData\Local\Temp\ccYu411o.s 			page 91


 3513      656E7365 
 3513      5F53656E 
 3513      736F7242 
 3513      6173656C 
 3514              	.LASF57:
 3515 046f 43617053 		.ascii	"CapSense_centroid\000"
 3515      656E7365 
 3515      5F63656E 
 3515      74726F69 
 3515      6400
 3516              	.LASF60:
 3517 0481 43617053 		.ascii	"CapSense_SensorEnableMask\000"
 3517      656E7365 
 3517      5F53656E 
 3517      736F7245 
 3517      6E61626C 
 3518              	.LASF40:
 3519 049b 6F666673 		.ascii	"offset\000"
 3519      657400
 3520              	.LASF26:
 3521 04a2 6465626F 		.ascii	"debounceIndex\000"
 3521      756E6365 
 3521      496E6465 
 3521      7800
 3522              	.LASF78:
 3523 04b0 453A5C43 		.ascii	"E:\\ControllerKinect\\capController\\Transmitter\\T"
 3523      6F6E7472 
 3523      6F6C6C65 
 3523      724B696E 
 3523      6563745C 
 3524 04df 72616E73 		.ascii	"ransmitter.cydsn\000"
 3524      6D697474 
 3524      65722E63 
 3524      7964736E 
 3524      00
 3525              	.LASF63:
 3526 04f0 43617053 		.ascii	"CapSense_SensorBaselineLow\000"
 3526      656E7365 
 3526      5F53656E 
 3526      736F7242 
 3526      6173656C 
 3527              	.LASF45:
 3528 050b 43617053 		.ascii	"CapSense_CalcCentroid\000"
 3528      656E7365 
 3528      5F43616C 
 3528      6343656E 
 3528      74726F69 
 3529              	.LASF70:
 3530 0521 43617053 		.ascii	"CapSense_debounceCounter\000"
 3530      656E7365 
 3530      5F646562 
 3530      6F756E63 
 3530      65436F75 
 3531              	.LASF21:
 3532 053a 74656D70 		.ascii	"tempRaw\000"
 3532      52617700 
 3533              	.LASF72:
ARM GAS  C:\Users\CHARLI~1\AppData\Local\Temp\ccYu411o.s 			page 92


 3534 0542 43617053 		.ascii	"CapSense_numberOfSensors\000"
 3534      656E7365 
 3534      5F6E756D 
 3534      6265724F 
 3534      6653656E 
 3535              		.ident	"GCC: (Sourcery G++ Lite 2010q1-188) 4.4.1"
